	.text
	.syntax unified
	.eabi_attribute	67, "2.09"	@ Tag_conformance
	.cpu	cortex-m23
	.eabi_attribute	6, 16	@ Tag_CPU_arch
	.eabi_attribute	7, 77	@ Tag_CPU_arch_profile
	.eabi_attribute	8, 0	@ Tag_ARM_ISA_use
	.eabi_attribute	9, 3	@ Tag_THUMB_ISA_use
	.eabi_attribute	34, 0	@ Tag_CPU_unaligned_access
	.eabi_attribute	17, 1	@ Tag_ABI_PCS_GOT_use
	.eabi_attribute	20, 2	@ Tag_ABI_FP_denormal
	.eabi_attribute	21, 0	@ Tag_ABI_FP_exceptions
	.eabi_attribute	23, 1	@ Tag_ABI_FP_number_model
	.eabi_attribute	24, 1	@ Tag_ABI_align_needed
	.eabi_attribute	25, 1	@ Tag_ABI_align_preserved
	.eabi_attribute	38, 1	@ Tag_ABI_FP_16bit_format
	.eabi_attribute	18, 2	@ Tag_ABI_PCS_wchar_t
	.eabi_attribute	26, 1	@ Tag_ABI_enum_size
	.eabi_attribute	14, 0	@ Tag_ABI_PCS_R9_use
	.file	"bsp_gpio.c"
	.file	1 "D:\\Keil_v5\\ARM\\ARMCLANG\\Bin\\..\\include" "stdint.h"
	.file	2 "E:\\work\\CX_NFC_RX\\prj" "../bsp/bsp_gpio.c"
	.file	3 "E:\\work\\CX_NFC_RX\\prj" "../std/GD32C2x1_Firmware_Library/GD32C2x1_standard_peripheral/Include\\gd32c2x1_rcu.h"
	.file	4 "E:\\work\\CX_NFC_RX\\prj" "../std/GD32C2x1_Firmware_Library/GD32C2x1_standard_peripheral/Include\\gd32c2x1_exti.h"
	.file	5 "E:\\work\\CX_NFC_RX\\prj" "../std/GD32C2x1_Firmware_Library/CMSIS/GD/GD32C2x1/Include/gd32c2x1.h"
	.section	.text.bsp_gpio_int_init,"ax",%progbits
	.hidden	bsp_gpio_int_init               @ -- Begin function bsp_gpio_int_init
	.globl	bsp_gpio_int_init
	.p2align	2
	.type	bsp_gpio_int_init,%function
	.code	16                              @ @bsp_gpio_int_init
	.thumb_func
bsp_gpio_int_init:
.Lfunc_begin0:
	.loc	2 37 0                          @ ../bsp/bsp_gpio.c:37:0
	.fnstart
	.cfi_sections .debug_frame
	.cfi_startproc
@ %bb.0:
	.save	{r7, lr}
	push	{r7, lr}
	.cfi_def_cfa_offset 8
	.cfi_offset lr, -4
	.cfi_offset r7, -8
	.pad	#48
	sub	sp, #48
	.cfi_def_cfa_offset 56
	movw	r0, #4352
.Ltmp0:
	.loc	2 38 5 prologue_end             @ ../bsp/bsp_gpio.c:38:5
	bl	rcu_periph_clock_enable
	movs	r0, #0
.Ltmp1:
	.loc	2 39 13                         @ ../bsp/bsp_gpio.c:39:13
	str	r0, [sp, #44]
	.loc	2 39 9 is_stmt 0                @ ../bsp/bsp_gpio.c:39:9
	b	.LBB0_1
.LBB0_1:                                @ =>This Inner Loop Header: Depth=1
.Ltmp2:
	.loc	2 39 18                         @ ../bsp/bsp_gpio.c:39:18
	ldr	r0, [sp, #44]
.Ltmp3:
	.loc	2 39 5                          @ ../bsp/bsp_gpio.c:39:5
	cmp	r0, #0
	bne	.LBB0_14
	b	.LBB0_2
.LBB0_2:                                @   in Loop: Header=BB0_1 Depth=1
.Ltmp4:
	.loc	2 41 45 is_stmt 1               @ ../bsp/bsp_gpio.c:41:45
	ldr	r0, [sp, #44]
	movs	r1, #28
	.loc	2 41 32 is_stmt 0               @ ../bsp/bsp_gpio.c:41:32
	muls	r1, r0, r1
	ldr	r0, __arm_cp.0_0
	adds	r0, r0, r1
	.loc	2 41 25                         @ ../bsp/bsp_gpio.c:41:25
	str	r0, [sp, #40]
	.loc	2 43 33 is_stmt 1               @ ../bsp/bsp_gpio.c:43:33
	ldr	r0, [sp, #40]
	.loc	2 43 38 is_stmt 0               @ ../bsp/bsp_gpio.c:43:38
	ldrh	r0, [r0]
	.loc	2 43 9                          @ ../bsp/bsp_gpio.c:43:9
	bl	rcu_periph_clock_enable
	.loc	2 44 33 is_stmt 1               @ ../bsp/bsp_gpio.c:44:33
	ldr	r0, [sp, #40]
	.loc	2 44 38 is_stmt 0               @ ../bsp/bsp_gpio.c:44:38
	ldrb	r0, [r0, #12]
	.loc	2 44 33                         @ ../bsp/bsp_gpio.c:44:33
	cbnz	r0, .LBB0_4
	b	.LBB0_3
.LBB0_3:                                @   in Loop: Header=BB0_1 Depth=1
	.loc	2 0 33                          @ ../bsp/bsp_gpio.c:0:33
	movs	r0, #0
	.loc	2 44 33                         @ ../bsp/bsp_gpio.c:44:33
	str	r0, [sp, #28]                   @ 4-byte Spill
	b	.LBB0_7
.LBB0_4:                                @   in Loop: Header=BB0_1 Depth=1
	.loc	2 44 73                         @ ../bsp/bsp_gpio.c:44:73
	ldr	r0, [sp, #40]
	.loc	2 44 78                         @ ../bsp/bsp_gpio.c:44:78
	ldrb	r1, [r0, #12]
	str	r1, [sp, #20]                   @ 4-byte Spill
	movs	r0, #2
	.loc	2 44 73                         @ ../bsp/bsp_gpio.c:44:73
	cmp	r1, #1
	str	r0, [sp, #24]                   @ 4-byte Spill
	bne	.LBB0_6
@ %bb.5:                                @   in Loop: Header=BB0_1 Depth=1
	ldr	r0, [sp, #20]                   @ 4-byte Reload
	str	r0, [sp, #24]                   @ 4-byte Spill
.LBB0_6:                                @   in Loop: Header=BB0_1 Depth=1
	ldr	r0, [sp, #24]                   @ 4-byte Reload
	.loc	2 44 33                         @ ../bsp/bsp_gpio.c:44:33
	str	r0, [sp, #28]                   @ 4-byte Spill
	b	.LBB0_7
.LBB0_7:                                @   in Loop: Header=BB0_1 Depth=1
	ldr	r0, [sp, #28]                   @ 4-byte Reload
	.loc	2 44 18                         @ ../bsp/bsp_gpio.c:44:18
	str	r0, [sp, #36]
	.loc	2 45 23 is_stmt 1               @ ../bsp/bsp_gpio.c:45:23
	ldr	r1, [sp, #40]
	.loc	2 45 28 is_stmt 0               @ ../bsp/bsp_gpio.c:45:28
	ldr	r0, [r1, #4]
	.loc	2 45 58                         @ ../bsp/bsp_gpio.c:45:58
	ldr	r2, [sp, #36]
	.loc	2 45 77                         @ ../bsp/bsp_gpio.c:45:77
	ldr	r3, [r1, #8]
	movs	r1, #0
	.loc	2 45 9                          @ ../bsp/bsp_gpio.c:45:9
	str	r1, [sp, #16]                   @ 4-byte Spill
	bl	gpio_mode_set
	ldr	r1, [sp, #16]                   @ 4-byte Reload
	.loc	2 46 25 is_stmt 1               @ ../bsp/bsp_gpio.c:46:25
	ldr	r0, [sp, #40]
	movs	r2, #20
	.loc	2 46 30 is_stmt 0               @ ../bsp/bsp_gpio.c:46:30
	ldrsb	r0, [r0, r2]
	.loc	2 46 9                          @ ../bsp/bsp_gpio.c:46:9
	bl	nvic_irq_enable
	.loc	2 47 33 is_stmt 1               @ ../bsp/bsp_gpio.c:47:33
	ldr	r1, [sp, #40]
	.loc	2 47 38 is_stmt 0               @ ../bsp/bsp_gpio.c:47:38
	ldrb	r0, [r1, #14]
	.loc	2 47 53                         @ ../bsp/bsp_gpio.c:47:53
	ldrb	r1, [r1, #15]
	.loc	2 47 9                          @ ../bsp/bsp_gpio.c:47:9
	bl	syscfg_exti_line_config
	.loc	2 48 41 is_stmt 1               @ ../bsp/bsp_gpio.c:48:41
	ldr	r0, [sp, #40]
	.loc	2 48 46 is_stmt 0               @ ../bsp/bsp_gpio.c:48:46
	ldrb	r0, [r0, #13]
	.loc	2 48 41                         @ ../bsp/bsp_gpio.c:48:41
	cbnz	r0, .LBB0_9
	b	.LBB0_8
.LBB0_8:                                @   in Loop: Header=BB0_1 Depth=1
	.loc	2 0 41                          @ ../bsp/bsp_gpio.c:0:41
	movs	r0, #0
	.loc	2 48 41                         @ ../bsp/bsp_gpio.c:48:41
	str	r0, [sp, #12]                   @ 4-byte Spill
	b	.LBB0_12
.LBB0_9:                                @   in Loop: Header=BB0_1 Depth=1
	.loc	2 48 89                         @ ../bsp/bsp_gpio.c:48:89
	ldr	r0, [sp, #40]
	.loc	2 48 94                         @ ../bsp/bsp_gpio.c:48:94
	ldrb	r1, [r0, #13]
	str	r1, [sp, #4]                    @ 4-byte Spill
	movs	r0, #2
	.loc	2 48 89                         @ ../bsp/bsp_gpio.c:48:89
	cmp	r1, #1
	str	r0, [sp, #8]                    @ 4-byte Spill
	bne	.LBB0_11
@ %bb.10:                               @   in Loop: Header=BB0_1 Depth=1
	ldr	r0, [sp, #4]                    @ 4-byte Reload
	str	r0, [sp, #8]                    @ 4-byte Spill
.LBB0_11:                               @   in Loop: Header=BB0_1 Depth=1
	ldr	r0, [sp, #8]                    @ 4-byte Reload
	.loc	2 48 41                         @ ../bsp/bsp_gpio.c:48:41
	str	r0, [sp, #12]                   @ 4-byte Spill
	b	.LBB0_12
.LBB0_12:                               @   in Loop: Header=BB0_1 Depth=1
	ldr	r0, [sp, #12]                   @ 4-byte Reload
	add	r1, sp, #32
	.loc	2 48 29                         @ ../bsp/bsp_gpio.c:48:29
	strb	r0, [r1]
	.loc	2 49 19 is_stmt 1               @ ../bsp/bsp_gpio.c:49:19
	ldr	r0, [sp, #40]
	.loc	2 49 24 is_stmt 0               @ ../bsp/bsp_gpio.c:49:24
	ldr	r0, [r0, #16]
	.loc	2 49 49                         @ ../bsp/bsp_gpio.c:49:49
	ldrb	r2, [r1]
	movs	r1, #0
	.loc	2 49 9                          @ ../bsp/bsp_gpio.c:49:9
	bl	exti_init
	.loc	2 50 35 is_stmt 1               @ ../bsp/bsp_gpio.c:50:35
	ldr	r0, [sp, #40]
	.loc	2 50 40 is_stmt 0               @ ../bsp/bsp_gpio.c:50:40
	ldr	r0, [r0, #16]
	.loc	2 50 9                          @ ../bsp/bsp_gpio.c:50:9
	bl	exti_interrupt_flag_clear
	.loc	2 51 5 is_stmt 1                @ ../bsp/bsp_gpio.c:51:5
	b	.LBB0_13
.Ltmp5:
.LBB0_13:                               @   in Loop: Header=BB0_1 Depth=1
	.loc	2 39 66                         @ ../bsp/bsp_gpio.c:39:66
	ldr	r0, [sp, #44]
	adds	r0, r0, #1
	str	r0, [sp, #44]
	.loc	2 39 5 is_stmt 0                @ ../bsp/bsp_gpio.c:39:5
	b	.LBB0_1
.Ltmp6:
.LBB0_14:
	.loc	2 52 1 is_stmt 1                @ ../bsp/bsp_gpio.c:52:1
	add	sp, #48
	pop	{r7, pc}
.Ltmp7:
	.p2align	2
@ %bb.15:
	.loc	2 0 1 is_stmt 0                 @ ../bsp/bsp_gpio.c:0:1
__arm_cp.0_0:
	.long	gpio_int_cfg
.Lcpi_end0:
	.size	__arm_cp.0_0, .Lcpi_end0-__arm_cp.0_0
.Lfunc_end0:
	.size	bsp_gpio_int_init, .Lfunc_end0-bsp_gpio_int_init
	.cfi_endproc
	.cantunwind
	.fnend
                                        @ -- End function
	.section	.text.EXTI4_IRQHandler,"ax",%progbits
	.hidden	EXTI4_IRQHandler                @ -- Begin function EXTI4_IRQHandler
	.globl	EXTI4_IRQHandler
	.p2align	2
	.type	EXTI4_IRQHandler,%function
	.code	16                              @ @EXTI4_IRQHandler
	.thumb_func
EXTI4_IRQHandler:
.Lfunc_begin1:
	.loc	2 58 0 is_stmt 1                @ ../bsp/bsp_gpio.c:58:0
	.fnstart
	.cfi_startproc
@ %bb.0:
	.save	{r7, lr}
	push	{r7, lr}
	.cfi_def_cfa_offset 8
	.cfi_offset lr, -4
	.cfi_offset r7, -8
	movs	r0, #16
.Ltmp8:
	.loc	2 59 17 prologue_end            @ ../bsp/bsp_gpio.c:59:17
	bl	exti_interrupt_flag_get
.Ltmp9:
	.loc	2 59 8 is_stmt 0                @ ../bsp/bsp_gpio.c:59:8
	cbz	r0, .LBB1_4
	b	.LBB1_1
.LBB1_1:
	.loc	2 0 8                           @ ../bsp/bsp_gpio.c:0:8
	movs	r0, #16
.Ltmp10:
	.loc	2 61 9 is_stmt 1                @ ../bsp/bsp_gpio.c:61:9
	bl	exti_interrupt_flag_clear
.Ltmp11:
	.loc	2 62 33                         @ ../bsp/bsp_gpio.c:62:33
	ldr	r0, __arm_cp.1_0
	ldr	r0, [r0, #24]
.Ltmp12:
	.loc	2 62 12 is_stmt 0               @ ../bsp/bsp_gpio.c:62:12
	cbz	r0, .LBB1_3
	b	.LBB1_2
.LBB1_2:
.Ltmp13:
	.loc	2 64 34 is_stmt 1               @ ../bsp/bsp_gpio.c:64:34
	ldr	r0, __arm_cp.1_0
	ldr	r1, [r0, #24]
	movs	r0, #0
	.loc	2 64 13 is_stmt 0               @ ../bsp/bsp_gpio.c:64:13
	blx	r1
	.loc	2 65 9 is_stmt 1                @ ../bsp/bsp_gpio.c:65:9
	b	.LBB1_3
.Ltmp14:
.LBB1_3:
	.loc	2 66 5                          @ ../bsp/bsp_gpio.c:66:5
	b	.LBB1_4
.Ltmp15:
.LBB1_4:
	.loc	2 67 1                          @ ../bsp/bsp_gpio.c:67:1
	pop	{r7, pc}
.Ltmp16:
	.p2align	2
@ %bb.5:
	.loc	2 0 1 is_stmt 0                 @ ../bsp/bsp_gpio.c:0:1
__arm_cp.1_0:
	.long	gpio_int_cfg
.Lcpi_end1:
	.size	__arm_cp.1_0, .Lcpi_end1-__arm_cp.1_0
.Lfunc_end1:
	.size	EXTI4_IRQHandler, .Lfunc_end1-EXTI4_IRQHandler
	.cfi_endproc
	.cantunwind
	.fnend
                                        @ -- End function
	.section	.text.bsp_gpio_int_callback_reg,"ax",%progbits
	.hidden	bsp_gpio_int_callback_reg       @ -- Begin function bsp_gpio_int_callback_reg
	.globl	bsp_gpio_int_callback_reg
	.p2align	2
	.type	bsp_gpio_int_callback_reg,%function
	.code	16                              @ @bsp_gpio_int_callback_reg
	.thumb_func
bsp_gpio_int_callback_reg:
.Lfunc_begin2:
	.loc	2 70 0 is_stmt 1                @ ../bsp/bsp_gpio.c:70:0
	.fnstart
	.cfi_startproc
@ %bb.0:
	.pad	#8
	sub	sp, #8
	.cfi_def_cfa_offset 8
	str	r0, [sp, #4]
	str	r1, [sp]
.Ltmp17:
	.loc	2 71 8 prologue_end             @ ../bsp/bsp_gpio.c:71:8
	ldr	r0, [sp, #4]
.Ltmp18:
	.loc	2 71 8 is_stmt 0                @ ../bsp/bsp_gpio.c:71:8
	cbz	r0, .LBB2_2
	b	.LBB2_1
.LBB2_1:
.Ltmp19:
	.loc	2 73 9 is_stmt 1                @ ../bsp/bsp_gpio.c:73:9
	b	.LBB2_3
.Ltmp20:
.LBB2_2:
	.loc	2 75 33                         @ ../bsp/bsp_gpio.c:75:33
	ldr	r0, [sp]
	.loc	2 75 18 is_stmt 0               @ ../bsp/bsp_gpio.c:75:18
	ldr	r1, [sp, #4]
	movs	r2, #28
	.loc	2 75 5                          @ ../bsp/bsp_gpio.c:75:5
	muls	r2, r1, r2
	ldr	r1, __arm_cp.2_0
	adds	r1, r1, r2
	.loc	2 75 31                         @ ../bsp/bsp_gpio.c:75:31
	str	r0, [r1, #24]
	.loc	2 76 1 is_stmt 1                @ ../bsp/bsp_gpio.c:76:1
	b	.LBB2_3
.LBB2_3:
	add	sp, #8
	bx	lr
.Ltmp21:
	.p2align	2
@ %bb.4:
	.loc	2 0 1 is_stmt 0                 @ ../bsp/bsp_gpio.c:0:1
__arm_cp.2_0:
	.long	gpio_int_cfg
.Lcpi_end2:
	.size	__arm_cp.2_0, .Lcpi_end2-__arm_cp.2_0
.Lfunc_end2:
	.size	bsp_gpio_int_callback_reg, .Lfunc_end2-bsp_gpio_int_callback_reg
	.cfi_endproc
	.cantunwind
	.fnend
                                        @ -- End function
	.hidden	gpio_int_cfg                    @ @gpio_int_cfg
	.type	gpio_int_cfg,%object
	.section	.data.gpio_int_cfg,"aw",%progbits
	.globl	gpio_int_cfg
	.p2align	2
gpio_int_cfg:
	.long	3345                            @ 0xd11
	.long	1207959552                      @ 0x48000000
	.long	16                              @ 0x10
	.byte	1                               @ 0x1
	.byte	1                               @ 0x1
	.byte	0                               @ 0x0
	.byte	4                               @ 0x4
	.long	16                              @ 0x10
	.byte	9                               @ 0x9
	.zero	3
	.long	0
	.size	gpio_int_cfg, 28

	.section	".note.GNU-stack","",%progbits
	.eabi_attribute	30, 6	@ Tag_ABI_optimization_goals
	.ARM_attribute	16, 1	@ Tag_AV_eba