	.text
	.syntax unified
	.eabi_attribute	67, "2.09"	@ Tag_conformance
	.cpu	cortex-m23
	.eabi_attribute	6, 16	@ Tag_CPU_arch
	.eabi_attribute	7, 77	@ Tag_CPU_arch_profile
	.eabi_attribute	8, 0	@ Tag_ARM_ISA_use
	.eabi_attribute	9, 3	@ Tag_THUMB_ISA_use
	.eabi_attribute	34, 0	@ Tag_CPU_unaligned_access
	.eabi_attribute	17, 1	@ Tag_ABI_PCS_GOT_use
	.eabi_attribute	20, 2	@ Tag_ABI_FP_denormal
	.eabi_attribute	21, 0	@ Tag_ABI_FP_exceptions
	.eabi_attribute	23, 1	@ Tag_ABI_FP_number_model
	.eabi_attribute	24, 1	@ Tag_ABI_align_needed
	.eabi_attribute	25, 1	@ Tag_ABI_align_preserved
	.eabi_attribute	38, 1	@ Tag_ABI_FP_16bit_format
	.eabi_attribute	18, 2	@ Tag_ABI_PCS_wchar_t
	.eabi_attribute	26, 1	@ Tag_ABI_enum_size
	.eabi_attribute	14, 0	@ Tag_ABI_PCS_R9_use
	.file	"bsp_adc.c"
	.file	1 "D:\\Keil_v5\\ARM\\ARMCLANG\\Bin\\..\\include" "stdint.h"
	.file	2 "E:\\work\\CX_NFC_RX\\prj" "../bsp/bsp_adc.c"
	.file	3 "E:\\work\\CX_NFC_RX\\prj" "../app\\filter.h"
	.file	4 "E:\\work\\CX_NFC_RX\\prj" "../std/GD32C2x1_Firmware_Library/GD32C2x1_standard_peripheral/Include\\gd32c2x1_rcu.h"
	.file	5 "E:\\work\\CX_NFC_RX\\prj" "../std/GD32C2x1_Firmware_Library/CMSIS/GD/GD32C2x1/Include/gd32c2x1.h"
	.section	.text.rcu_config,"ax",%progbits
	.hidden	rcu_config                      @ -- Begin function rcu_config
	.globl	rcu_config
	.p2align	2
	.type	rcu_config,%function
	.code	16                              @ @rcu_config
	.thumb_func
rcu_config:
.Lfunc_begin0:
	.loc	2 28 0                          @ ../bsp/bsp_adc.c:28:0
	.fnstart
	.cfi_sections .debug_frame
	.cfi_startproc
@ %bb.0:
	.save	{r7, lr}
	push	{r7, lr}
	.cfi_def_cfa_offset 8
	.cfi_offset lr, -4
	.cfi_offset r7, -8
	ldr	r0, __arm_cp.0_0
.Ltmp0:
	.loc	2 30 5 prologue_end             @ ../bsp/bsp_adc.c:30:5
	bl	rcu_periph_clock_enable
	movs	r0, #0
	movw	r1, #5632
	.loc	2 32 5                          @ ../bsp/bsp_adc.c:32:5
	bl	rcu_adc_clock_config
	.loc	2 33 1                          @ ../bsp/bsp_adc.c:33:1
	pop	{r7, pc}
.Ltmp1:
	.p2align	2
@ %bb.1:
	.loc	2 0 1 is_stmt 0                 @ ../bsp/bsp_adc.c:0:1
__arm_cp.0_0:
	.long	4361                            @ 0x1109
.Lcpi_end0:
	.size	__arm_cp.0_0, .Lcpi_end0-__arm_cp.0_0
.Lfunc_end0:
	.size	rcu_config, .Lfunc_end0-rcu_config
	.cfi_endproc
	.cantunwind
	.fnend
                                        @ -- End function
	.section	.text.adc_gpio_config,"ax",%progbits
	.hidden	adc_gpio_config                 @ -- Begin function adc_gpio_config
	.globl	adc_gpio_config
	.p2align	2
	.type	adc_gpio_config,%function
	.code	16                              @ @adc_gpio_config
	.thumb_func
adc_gpio_config:
.Lfunc_begin1:
	.loc	2 43 0 is_stmt 1                @ ../bsp/bsp_adc.c:43:0
	.fnstart
	.cfi_startproc
@ %bb.0:
	.save	{r7, lr}
	push	{r7, lr}
	.cfi_def_cfa_offset 8
	.cfi_offset lr, -4
	.cfi_offset r7, -8
	.pad	#16
	sub	sp, #16
	.cfi_def_cfa_offset 24
	ldr	r0, __arm_cp.1_0
.Ltmp2:
	.loc	2 44 5 prologue_end             @ ../bsp/bsp_adc.c:44:5
	bl	rcu_periph_clock_enable
	movs	r0, #9
	lsls	r0, r0, #27
	str	r0, [sp, #4]                    @ 4-byte Spill
	movs	r1, #3
	str	r1, [sp, #8]                    @ 4-byte Spill
	movs	r2, #0
	str	r2, [sp, #12]                   @ 4-byte Spill
	movs	r3, #1
	.loc	2 46 5                          @ ../bsp/bsp_adc.c:46:5
	bl	gpio_mode_set
	ldr	r0, [sp, #4]                    @ 4-byte Reload
	ldr	r1, [sp, #8]                    @ 4-byte Reload
	ldr	r2, [sp, #12]                   @ 4-byte Reload
	movs	r3, #2
	.loc	2 47 5                          @ ../bsp/bsp_adc.c:47:5
	bl	gpio_mode_set
	.loc	2 48 1                          @ ../bsp/bsp_adc.c:48:1
	add	sp, #16
	pop	{r7, pc}
.Ltmp3:
	.p2align	2
@ %bb.1:
	.loc	2 0 1 is_stmt 0                 @ ../bsp/bsp_adc.c:0:1
__arm_cp.1_0:
	.long	3345                            @ 0xd11
.Lcpi_end1:
	.size	__arm_cp.1_0, .Lcpi_end1-__arm_cp.1_0
.Lfunc_end1:
	.size	adc_gpio_config, .Lfunc_end1-adc_gpio_config
	.cfi_endproc
	.cantunwind
	.fnend
                                        @ -- End function
	.section	.text.adc_config,"ax",%progbits
	.hidden	adc_config                      @ -- Begin function adc_config
	.globl	adc_config
	.p2align	1
	.type	adc_config,%function
	.code	16                              @ @adc_config
	.thumb_func
adc_config:
.Lfunc_begin2:
	.loc	2 50 0 is_stmt 1                @ ../bsp/bsp_adc.c:50:0
	.fnstart
	.cfi_startproc
@ %bb.0:
	.save	{r7, lr}
	push	{r7, lr}
	.cfi_def_cfa_offset 8
	.cfi_offset lr, -4
	.cfi_offset r7, -8
	.pad	#16
	sub	sp, #16
	.cfi_def_cfa_offset 24
	movs	r0, #2
	str	r0, [sp, #8]                    @ 4-byte Spill
	movs	r1, #0
.Ltmp4:
	.loc	2 52 5 prologue_end             @ ../bsp/bsp_adc.c:52:5
	str	r1, [sp]                        @ 4-byte Spill
	bl	adc_special_function_config
	movw	r0, #256
	movs	r1, #1
	.loc	2 54 5                          @ ../bsp/bsp_adc.c:54:5
	str	r1, [sp, #12]                   @ 4-byte Spill
	bl	adc_special_function_config
	ldr	r0, [sp]                        @ 4-byte Reload
	.loc	2 56 5                          @ ../bsp/bsp_adc.c:56:5
	bl	adc_data_alignment_config
	ldr	r1, [sp, #8]                    @ 4-byte Reload
	.loc	2 58 5                          @ ../bsp/bsp_adc.c:58:5
	mov	r0, r1
	bl	adc_channel_length_config
	ldr	r1, [sp]                        @ 4-byte Reload
	movs	r2, #7
	.loc	2 62 5                          @ ../bsp/bsp_adc.c:62:5
	str	r2, [sp, #4]                    @ 4-byte Spill
	mov	r0, r1
	bl	adc_inserted_channel_config
	ldr	r2, [sp, #4]                    @ 4-byte Reload
	ldr	r1, [sp, #12]                   @ 4-byte Reload
	.loc	2 63 5                          @ ../bsp/bsp_adc.c:63:5
	mov	r0, r1
	bl	adc_inserted_channel_config
	ldr	r0, [sp, #8]                    @ 4-byte Reload
	movw	r1, #28672
	.loc	2 66 5                          @ ../bsp/bsp_adc.c:66:5
	bl	adc_external_trigger_source_config
	ldr	r0, [sp, #8]                    @ 4-byte Reload
	ldr	r1, [sp, #12]                   @ 4-byte Reload
	.loc	2 67 5                          @ ../bsp/bsp_adc.c:67:5
	bl	adc_external_trigger_config
	ldr	r1, [sp, #12]                   @ 4-byte Reload
	lsls	r0, r1, #23
	.loc	2 70 5                          @ ../bsp/bsp_adc.c:70:5
	bl	adc_internal_channel_config
	ldr	r1, [sp, #12]                   @ 4-byte Reload
	lsls	r0, r1, #24
	.loc	2 71 5                          @ ../bsp/bsp_adc.c:71:5
	bl	adc_internal_channel_config
	.loc	2 74 5                          @ ../bsp/bsp_adc.c:74:5
	bl	adc_enable
	.loc	2 75 1                          @ ../bsp/bsp_adc.c:75:1
	add	sp, #16
	pop	{r7, pc}
.Ltmp5:
.Lfunc_end2:
	.size	adc_config, .Lfunc_end2-adc_config
	.cfi_endproc
	.cantunwind
	.fnend
                                        @ -- End function
	.section	.text.adc_channel_sample,"ax",%progbits
	.hidden	adc_channel_sample              @ -- Begin function adc_channel_sample
	.globl	adc_channel_sample
	.p2align	2
	.type	adc_channel_sample,%function
	.code	16                              @ @adc_channel_sample
	.thumb_func
adc_channel_sample:
.Lfunc_begin3:
	.loc	2 87 0                          @ ../bsp/bsp_adc.c:87:0
	.fnstart
	.cfi_startproc
@ %bb.0:
	.save	{r7, lr}
	push	{r7, lr}
	.cfi_def_cfa_offset 8
	.cfi_offset lr, -4
	.cfi_offset r7, -8
	.pad	#24
	sub	sp, #24
	.cfi_def_cfa_offset 32
	movs	r0, #2
.Ltmp6:
	.loc	2 90 5 prologue_end             @ ../bsp/bsp_adc.c:90:5
	bl	adc_software_trigger_enable
	.loc	2 93 5                          @ ../bsp/bsp_adc.c:93:5
	b	.LBB3_1
.LBB3_1:                                @ =>This Inner Loop Header: Depth=1
	.loc	2 0 5 is_stmt 0                 @ ../bsp/bsp_adc.c:0:5
	movs	r0, #4
	.loc	2 93 13                         @ ../bsp/bsp_adc.c:93:13
	bl	adc_flag_get
	mov	r1, r0
	movs	r0, #1
	.loc	2 93 51                         @ ../bsp/bsp_adc.c:93:51
	str	r0, [sp, #4]                    @ 4-byte Spill
	cbz	r1, .LBB3_3
	b	.LBB3_2
.LBB3_2:                                @   in Loop: Header=BB3_1 Depth=1
	.loc	2 0 51                          @ ../bsp/bsp_adc.c:0:51
	movs	r0, #2
	.loc	2 93 55                         @ ../bsp/bsp_adc.c:93:55
	bl	adc_flag_get
	.loc	2 93 82                         @ ../bsp/bsp_adc.c:93:82
	rsbs	r1, r0, #0
	adcs	r0, r1
	.loc	2 93 51                         @ ../bsp/bsp_adc.c:93:51
	str	r0, [sp, #4]                    @ 4-byte Spill
	b	.LBB3_3
.LBB3_3:                                @   in Loop: Header=BB3_1 Depth=1
	.loc	2 0 51                          @ ../bsp/bsp_adc.c:0:51
	ldr	r0, [sp, #4]                    @ 4-byte Reload
	.loc	2 93 5                          @ ../bsp/bsp_adc.c:93:5
	lsls	r0, r0, #31
	cbz	r0, .LBB3_5
	b	.LBB3_4
.LBB3_4:                                @   in Loop: Header=BB3_1 Depth=1
	b	.LBB3_1
.LBB3_5:
	.loc	2 0 5                           @ ../bsp/bsp_adc.c:0:5
	movs	r0, #0
	.loc	2 96 14 is_stmt 1               @ ../bsp/bsp_adc.c:96:14
	bl	adc_inserted_data_read
	add	r1, sp, #16
	.loc	2 96 13 is_stmt 0               @ ../bsp/bsp_adc.c:96:13
	str	r1, [sp]                        @ 4-byte Spill
	strh	r0, [r1]
	movs	r0, #1
	.loc	2 97 14 is_stmt 1               @ ../bsp/bsp_adc.c:97:14
	bl	adc_inserted_data_read
	ldr	r1, [sp]                        @ 4-byte Reload
	.loc	2 97 13 is_stmt 0               @ ../bsp/bsp_adc.c:97:13
	strh	r0, [r1, #2]
	movs	r0, #4
	.loc	2 101 5 is_stmt 1               @ ../bsp/bsp_adc.c:101:5
	bl	adc_flag_clear
	movs	r0, #2
	.loc	2 102 5                         @ ../bsp/bsp_adc.c:102:5
	bl	adc_flag_clear
	ldr	r0, [sp]                        @ 4-byte Reload
	.loc	2 104 41                        @ ../bsp/bsp_adc.c:104:41
	ldrh	r0, [r0]
	.loc	2 104 21 is_stmt 0              @ ../bsp/bsp_adc.c:104:21
	bl	ntc_calc_resistance
	mov	r1, r0
	.loc	2 104 14                        @ ../bsp/bsp_adc.c:104:14
	ldr	r0, [sp]                        @ 4-byte Reload
	str	r1, [sp, #12]
	.loc	2 105 41 is_stmt 1              @ ../bsp/bsp_adc.c:105:41
	ldrh	r0, [r0, #2]
	.loc	2 105 21 is_stmt 0              @ ../bsp/bsp_adc.c:105:21
	bl	ntc_calc_resistance
	.loc	2 105 14                        @ ../bsp/bsp_adc.c:105:14
	str	r0, [sp, #8]
	.loc	2 108 72 is_stmt 1              @ ../bsp/bsp_adc.c:108:72
	ldr	r1, [sp, #12]
	.loc	2 108 37 is_stmt 0              @ ../bsp/bsp_adc.c:108:37
	ldr	r0, __arm_cp.3_0
	bl	avg16_filter_update
	.loc	2 108 18                        @ ../bsp/bsp_adc.c:108:18
	bl	hns_ntc_get_temp_c
	.loc	2 108 17                        @ ../bsp/bsp_adc.c:108:17
	ldr	r1, __arm_cp.3_1
	str	r0, [r1]
	.loc	2 111 1 is_stmt 1               @ ../bsp/bsp_adc.c:111:1
	add	sp, #24
	pop	{r7, pc}
.Ltmp7:
	.p2align	2
@ %bb.6:
	.loc	2 0 1 is_stmt 0                 @ ../bsp/bsp_adc.c:0:1
__arm_cp.3_0:
	.long	avg16_filter1
.Lcpi_end2:
	.size	__arm_cp.3_0, .Lcpi_end2-__arm_cp.3_0
__arm_cp.3_1:
	.long	res_value
.Lcpi_end3:
	.size	__arm_cp.3_1, .Lcpi_end3-__arm_cp.3_1
.Lfunc_end3:
	.size	adc_channel_sample, .Lfunc_end3-adc_channel_sample
	.cfi_endproc
	.cantunwind
	.fnend
                                        @ -- End function
	.section	.text.adc_init,"ax",%progbits
	.hidden	adc_init                        @ -- Begin function adc_init
	.globl	adc_init
	.p2align	2
	.type	adc_init,%function
	.code	16                              @ @adc_init
	.thumb_func
adc_init:
.Lfunc_begin4:
	.loc	2 114 0 is_stmt 1               @ ../bsp/bsp_adc.c:114:0
	.fnstart
	.cfi_startproc
@ %bb.0:
	.save	{r7, lr}
	push	{r7, lr}
	.cfi_def_cfa_offset 8
	.cfi_offset lr, -4
	.cfi_offset r7, -8
.Ltmp8:
	.loc	2 115 5 prologue_end            @ ../bsp/bsp_adc.c:115:5
	bl	rcu_config
	.loc	2 116 5                         @ ../bsp/bsp_adc.c:116:5
	bl	adc_gpio_config
	.loc	2 117 5                         @ ../bsp/bsp_adc.c:117:5
	bl	adc_config
	.loc	2 118 5                         @ ../bsp/bsp_adc.c:118:5
	ldr	r0, __arm_cp.4_0
	bl	avg16_filter_init
	.loc	2 119 5                         @ ../bsp/bsp_adc.c:119:5
	ldr	r0, __arm_cp.4_1
	bl	avg16_filter_init
	.loc	2 120 1                         @ ../bsp/bsp_adc.c:120:1
	pop	{r7, pc}
.Ltmp9:
	.p2align	2
@ %bb.1:
	.loc	2 0 1 is_stmt 0                 @ ../bsp/bsp_adc.c:0:1
__arm_cp.4_0:
	.long	avg16_filter1
.Lcpi_end4:
	.size	__arm_cp.4_0, .Lcpi_end4-__arm_cp.4_0
__arm_cp.4_1:
	.long	avg16_filter2
.Lcpi_end5:
	.size	__arm_cp.4_1, .Lcpi_end5-__arm_cp.4_1
.Lfunc_end4:
	.size	adc_init, .Lfunc_end4-adc_init
	.cfi_endproc
	.cantunwind
	.fnend
                                        @ -- End function
	.hidden	avg16_filter1                   @ @avg16_filter1
	.type	avg16_filter1,%object
	.section	.bss.avg16_filter1,"aw",%nobits
	.globl	avg16_filter1
	.p2align	2
avg16_filter1:
	.zero	72
	.size	avg16_filter1, 72

	.hidden	res_value                       @ @res_value
	.type	res_value,%object
	.section	.bss.res_value,"aw",%nobits
	.globl	res_value
	.p2align	2
res_value:
	.zero	8
	.size	res_value, 8

	.hidden	avg16_filter2                   @ @avg16_filter2
	.type	avg16_filter2,%object
	.section	.bss.avg16_filter2,"aw",%nobits
	.globl	avg16_filter2
	.p2align	2
avg16_filter2:
	.zero	72
	.size	avg16_filter2, 72

	.hidden	temperature                     @ @temperature
	.type	temperature,%object
	.section	.bss.temperature,"aw",%nobits
	.globl	temperature
	.p2align	2
temperature:
	.long	0x00000000                      @ float 0
	.size	temperature, 4

	.hidden	vref_value                      @ @vref_value
	.type	vref_value,%object
	.section	.bss.vref_value,"aw",%nobits
	.globl	vref_value
	.p2align	2
vref_value:
	.long	0x00000000                      @ float 0
	.size	vref_value, 4

	.section	".note.GNU-stack","",%progbits
	.eabi_attribute	30, 6	@ Tag_ABI_optimization_goals
	.ARM_attribute	16, 1	@ Tag_AV_eba