	.text
	.syntax unified
	.eabi_attribute	67, "2.09"	@ Tag_conformance
	.cpu	cortex-m23
	.eabi_attribute	6, 16	@ Tag_CPU_arch
	.eabi_attribute	7, 77	@ Tag_CPU_arch_profile
	.eabi_attribute	8, 0	@ Tag_ARM_ISA_use
	.eabi_attribute	9, 3	@ Tag_THUMB_ISA_use
	.eabi_attribute	34, 0	@ Tag_CPU_unaligned_access
	.eabi_attribute	17, 1	@ Tag_ABI_PCS_GOT_use
	.eabi_attribute	20, 2	@ Tag_ABI_FP_denormal
	.eabi_attribute	21, 0	@ Tag_ABI_FP_exceptions
	.eabi_attribute	23, 1	@ Tag_ABI_FP_number_model
	.eabi_attribute	24, 1	@ Tag_ABI_align_needed
	.eabi_attribute	25, 1	@ Tag_ABI_align_preserved
	.eabi_attribute	38, 1	@ Tag_ABI_FP_16bit_format
	.eabi_attribute	18, 2	@ Tag_ABI_PCS_wchar_t
	.eabi_attribute	26, 1	@ Tag_ABI_enum_size
	.eabi_attribute	14, 0	@ Tag_ABI_PCS_R9_use
	.file	"bsp_delay.c"
	.section	.text.delay_loop,"ax",%progbits
	.hidden	delay_loop                      @ -- Begin function delay_loop
	.globl	delay_loop
	.p2align	1
	.type	delay_loop,%function
	.code	16                              @ @delay_loop
	.thumb_func
delay_loop:
.Lfunc_begin0:
	.file	1 "E:\\work\\CX_NFC_RX\\prj" "../bsp/bsp_delay.c"
	.loc	1 6 0                           @ ../bsp/bsp_delay.c:6:0
	.fnstart
	.cfi_sections .debug_frame
	.cfi_startproc
@ %bb.0:
	.pad	#4
	sub	sp, #4
	.cfi_def_cfa_offset 4
	str	r0, [sp]
.Ltmp0:
	.loc	1 7 5 prologue_end              @ ../bsp/bsp_delay.c:7:5
	ldr	r0, [sp]
	@APP
.Ltmp1:
	subs	r0, r0, #1
	bne	.Ltmp1

	@NO_APP
	str	r0, [sp]
	.loc	1 14 1                          @ ../bsp/bsp_delay.c:14:1
	add	sp, #4
	bx	lr
.Ltmp2:
.Lfunc_end0:
	.size	delay_loop, .Lfunc_end0-delay_loop
	.cfi_endproc
	.cantunwind
	.fnend
                                        @ -- End function
	.section	.text.delay_us,"ax",%progbits
	.hidden	delay_us                        @ -- Begin function delay_us
	.globl	delay_us
	.p2align	1
	.type	delay_us,%function
	.code	16                              @ @delay_us
	.thumb_func
delay_us:
.Lfunc_begin1:
	.loc	1 17 0                          @ ../bsp/bsp_delay.c:17:0
	.fnstart
	.cfi_startproc
@ %bb.0:
	.save	{r7, lr}
	push	{r7, lr}
	.cfi_def_cfa_offset 8
	.cfi_offset lr, -4
	.cfi_offset r7, -8
	.pad	#8
	sub	sp, #8
	.cfi_def_cfa_offset 16
                                        @ kill: def $r1 killed $r0
	add	r1, sp, #4
	strh	r0, [r1]
	movs	r0, #0
.Ltmp3:
	.loc	1 18 13 prologue_end            @ ../bsp/bsp_delay.c:18:13
	str	r0, [sp]
	.loc	1 18 9 is_stmt 0                @ ../bsp/bsp_delay.c:18:9
	b	.LBB1_1
.LBB1_1:                                @ =>This Inner Loop Header: Depth=1
.Ltmp4:
	.loc	1 18 18                         @ ../bsp/bsp_delay.c:18:18
	ldr	r0, [sp]
	add	r1, sp, #4
	.loc	1 18 21                         @ ../bsp/bsp_delay.c:18:21
	ldrh	r1, [r1]
.Ltmp5:
	.loc	1 18 5                          @ ../bsp/bsp_delay.c:18:5
	cmp	r0, r1
	bge	.LBB1_4
	b	.LBB1_2
.LBB1_2:                                @   in Loop: Header=BB1_1 Depth=1
	.loc	1 0 5                           @ ../bsp/bsp_delay.c:0:5
	movs	r0, #5
.Ltmp6:
	.loc	1 20 9 is_stmt 1                @ ../bsp/bsp_delay.c:20:9
	bl	delay_loop
	.loc	1 21 5                          @ ../bsp/bsp_delay.c:21:5
	b	.LBB1_3
.Ltmp7:
.LBB1_3:                                @   in Loop: Header=BB1_1 Depth=1
	.loc	1 18 25                         @ ../bsp/bsp_delay.c:18:25
	ldr	r0, [sp]
	adds	r0, r0, #1
	str	r0, [sp]
	.loc	1 18 5 is_stmt 0                @ ../bsp/bsp_delay.c:18:5
	b	.LBB1_1
.Ltmp8:
.LBB1_4:
	.loc	1 22 1 is_stmt 1                @ ../bsp/bsp_delay.c:22:1
	add	sp, #8
	pop	{r7, pc}
.Ltmp9:
.Lfunc_end1:
	.size	delay_us, .Lfunc_end1-delay_us
	.cfi_endproc
	.cantunwind
	.fnend
                                        @ -- End function
	.section	.text.delay_ms,"ax",%progbits
	.hidden	delay_ms                        @ -- Begin function delay_ms
	.globl	delay_ms
	.p2align	2
	.type	delay_ms,%function
	.code	16                              @ @delay_ms
	.thumb_func
delay_ms:
.Lfunc_begin2:
	.loc	1 25 0                          @ ../bsp/bsp_delay.c:25:0
	.fnstart
	.cfi_startproc
@ %bb.0:
	.save	{r7, lr}
	push	{r7, lr}
	.cfi_def_cfa_offset 8
	.cfi_offset lr, -4
	.cfi_offset r7, -8
	.pad	#8
	sub	sp, #8
	.cfi_def_cfa_offset 16
                                        @ kill: def $r1 killed $r0
	add	r1, sp, #4
	strh	r0, [r1]
	movs	r0, #0
.Ltmp10:
	.loc	1 26 13 prologue_end            @ ../bsp/bsp_delay.c:26:13
	str	r0, [sp]
	.loc	1 26 9 is_stmt 0                @ ../bsp/bsp_delay.c:26:9
	b	.LBB2_1
.LBB2_1:                                @ =>This Inner Loop Header: Depth=1
.Ltmp11:
	.loc	1 26 18                         @ ../bsp/bsp_delay.c:26:18
	ldr	r0, [sp]
	ldr	r1, __arm_cp.2_0
.Ltmp12:
	.loc	1 26 5                          @ ../bsp/bsp_delay.c:26:5
	cmp	r0, r1
	bgt	.LBB2_4
	b	.LBB2_2
.LBB2_2:                                @   in Loop: Header=BB2_1 Depth=1
	.loc	1 0 5                           @ ../bsp/bsp_delay.c:0:5
	movw	r0, #1000
.Ltmp13:
	.loc	1 28 9 is_stmt 1                @ ../bsp/bsp_delay.c:28:9
	bl	delay_us
	.loc	1 29 5                          @ ../bsp/bsp_delay.c:29:5
	b	.LBB2_3
.Ltmp14:
.LBB2_3:                                @   in Loop: Header=BB2_1 Depth=1
	.loc	1 26 27                         @ ../bsp/bsp_delay.c:26:27
	ldr	r0, [sp]
	adds	r0, r0, #1
	str	r0, [sp]
	.loc	1 26 5 is_stmt 0                @ ../bsp/bsp_delay.c:26:5
	b	.LBB2_1
.Ltmp15:
.LBB2_4:
	.loc	1 30 1 is_stmt 1                @ ../bsp/bsp_delay.c:30:1
	add	sp, #8
	pop	{r7, pc}
.Ltmp16:
	.p2align	2
@ %bb.5:
	.loc	1 0 1 is_stmt 0                 @ ../bsp/bsp_delay.c:0:1
__arm_cp.2_0:
	.long	999                             @ 0x3e7
.Lcpi_end0:
	.size	__arm_cp.2_0, .Lcpi_end0-__arm_cp.2_0
.Lfunc_end2:
	.size	delay_ms, .Lfunc_end2-delay_ms
	.cfi_endproc
	.cantunwind
	.fnend
                                        @ -- End function
	.file	2 "D:\\Keil_v5\\ARM\\ARMCLANG\\Bin\\..\\include" "stdint.h"
	.section	".note.GNU-stack","",%progbits
	.eabi_attribute	30, 6	@ Tag_ABI_optimization_goals
	.ARM_attribute	16, 1	@ Tag_AV_eba