	.text
	.syntax unified
	.eabi_attribute	67, "2.09"	@ Tag_conformance
	.cpu	cortex-m23
	.eabi_attribute	6, 16	@ Tag_CPU_arch
	.eabi_attribute	7, 77	@ Tag_CPU_arch_profile
	.eabi_attribute	8, 0	@ Tag_ARM_ISA_use
	.eabi_attribute	9, 3	@ Tag_THUMB_ISA_use
	.eabi_attribute	34, 0	@ Tag_CPU_unaligned_access
	.eabi_attribute	17, 1	@ Tag_ABI_PCS_GOT_use
	.eabi_attribute	20, 2	@ Tag_ABI_FP_denormal
	.eabi_attribute	21, 0	@ Tag_ABI_FP_exceptions
	.eabi_attribute	23, 1	@ Tag_ABI_FP_number_model
	.eabi_attribute	24, 1	@ Tag_ABI_align_needed
	.eabi_attribute	25, 1	@ Tag_ABI_align_preserved
	.eabi_attribute	38, 1	@ Tag_ABI_FP_16bit_format
	.eabi_attribute	18, 2	@ Tag_ABI_PCS_wchar_t
	.eabi_attribute	26, 1	@ Tag_ABI_enum_size
	.eabi_attribute	14, 0	@ Tag_ABI_PCS_R9_use
	.file	"fm411_driver.c"
	.file	1 "E:\\work\\CX_NFC_RX\\prj" "../drv/i2c_bus_device.h"
	.file	2 "E:\\work\\CX_NFC_RX\\prj" "../drv/fm411_driver.c"
	.file	3 "D:\\Keil_v5\\ARM\\ARMCLANG\\Bin\\..\\include" "stdint.h"
	.section	.text.dev_fm11_init,"ax",%progbits
	.hidden	dev_fm11_init                   @ -- Begin function dev_fm11_init
	.globl	dev_fm11_init
	.p2align	2
	.type	dev_fm11_init,%function
	.code	16                              @ @dev_fm11_init
	.thumb_func
dev_fm11_init:
.Lfunc_begin0:
	.loc	2 21 0                          @ ../drv/fm411_driver.c:21:0
	.fnstart
	.cfi_sections .debug_frame
	.cfi_startproc
@ %bb.0:
	.save	{r7, lr}
	push	{r7, lr}
	.cfi_def_cfa_offset 8
	.cfi_offset lr, -4
	.cfi_offset r7, -8
	.pad	#40
	sub	sp, #40
	.cfi_def_cfa_offset 48
	str	r0, [sp, #32]
	movs	r2, #0
.Ltmp0:
	.loc	2 22 13 prologue_end            @ ../drv/fm411_driver.c:22:13
	str	r2, [sp, #28]
	.loc	2 23 13                         @ ../drv/fm411_driver.c:23:13
	str	r2, [sp, #24]
	str	r2, [sp, #20]
	str	r2, [sp, #16]
	str	r2, [sp, #12]
	ldr	r0, __arm_cp.0_0
	.loc	2 25 13                         @ ../drv/fm411_driver.c:25:13
	str	r0, [sp, #8]
	.loc	2 28 27                         @ ../drv/fm411_driver.c:28:27
	ldr	r0, [sp, #32]
	add	r1, sp, #4
	.loc	2 28 11 is_stmt 0               @ ../drv/fm411_driver.c:28:11
	str	r1, [sp]
	add	r1, sp, #12
	movs	r3, #16
	bl	dev_fm11_ReadE2
	.loc	2 28 9                          @ ../drv/fm411_driver.c:28:9
	str	r0, [sp, #28]
.Ltmp1:
	.loc	2 29 8 is_stmt 1                @ ../drv/fm411_driver.c:29:8
	ldr	r0, [sp, #28]
.Ltmp2:
	.loc	2 29 8 is_stmt 0                @ ../drv/fm411_driver.c:29:8
	cbz	r0, .LBB0_2
	b	.LBB0_1
.LBB0_1:
.Ltmp3:
	.loc	2 30 16 is_stmt 1               @ ../drv/fm411_driver.c:30:16
	ldr	r0, [sp, #28]
	add	r1, sp, #36
	.loc	2 30 9 is_stmt 0                @ ../drv/fm411_driver.c:30:9
	strb	r0, [r1]
	b	.LBB0_7
.Ltmp4:
.LBB0_2:
	.loc	2 0 9                           @ ../drv/fm411_driver.c:0:9
	add	r0, sp, #12
.Ltmp5:
	.loc	2 31 8 is_stmt 1                @ ../drv/fm411_driver.c:31:8
	ldrb	r0, [r0, #7]
.Ltmp6:
	.loc	2 31 8 is_stmt 0                @ ../drv/fm411_driver.c:31:8
	cmp	r0, #16
	bne	.LBB0_6
	b	.LBB0_3
.LBB0_3:
.Ltmp7:
	.loc	2 33 32 is_stmt 1               @ ../drv/fm411_driver.c:33:32
	ldr	r0, [sp, #32]
	movw	r1, #912
	movs	r2, #4
	add	r3, sp, #8
	.loc	2 33 15 is_stmt 0               @ ../drv/fm411_driver.c:33:15
	bl	dev_fm11_WriteE2
	.loc	2 33 13                         @ ../drv/fm411_driver.c:33:13
	str	r0, [sp, #28]
.Ltmp8:
	.loc	2 34 12 is_stmt 1               @ ../drv/fm411_driver.c:34:12
	ldr	r0, [sp, #28]
.Ltmp9:
	.loc	2 34 12 is_stmt 0               @ ../drv/fm411_driver.c:34:12
	cbz	r0, .LBB0_5
	b	.LBB0_4
.LBB0_4:
.Ltmp10:
	.loc	2 35 16 is_stmt 1               @ ../drv/fm411_driver.c:35:16
	ldr	r0, [sp, #28]
	add	r1, sp, #36
	.loc	2 35 9 is_stmt 0                @ ../drv/fm411_driver.c:35:9
	strb	r0, [r1]
	b	.LBB0_7
.Ltmp11:
.LBB0_5:
	.loc	2 36 27 is_stmt 1               @ ../drv/fm411_driver.c:36:27
	ldr	r0, [sp, #32]
	ldr	r1, __arm_cp.0_1
	movs	r2, #119
	.loc	2 36 9 is_stmt 0                @ ../drv/fm411_driver.c:36:9
	bl	dev_fm11_WriteReg
	.loc	2 37 27 is_stmt 1               @ ../drv/fm411_driver.c:37:27
	ldr	r0, [sp, #32]
	ldr	r1, __arm_cp.0_2
	movs	r2, #85
	.loc	2 37 9 is_stmt 0                @ ../drv/fm411_driver.c:37:9
	bl	dev_fm11_WriteReg
	.loc	2 38 9 is_stmt 1                @ ../drv/fm411_driver.c:38:9
	ldr	r0, [sp, #32]
	.loc	2 38 14 is_stmt 0               @ ../drv/fm411_driver.c:38:14
	ldr	r1, [r0, #8]
	ldr	r0, __arm_cp.0_3
	.loc	2 38 9                          @ ../drv/fm411_driver.c:38:9
	blx	r1
	.loc	2 39 31 is_stmt 1               @ ../drv/fm411_driver.c:39:31
	ldr	r0, [sp, #32]
	add	r1, sp, #4
	.loc	2 39 15 is_stmt 0               @ ../drv/fm411_driver.c:39:15
	str	r1, [sp]
	add	r1, sp, #12
	movw	r2, #912
	movs	r3, #4
	bl	dev_fm11_ReadE2
	.loc	2 39 13                         @ ../drv/fm411_driver.c:39:13
	str	r0, [sp, #28]
	.loc	2 40 5 is_stmt 1                @ ../drv/fm411_driver.c:40:5
	b	.LBB0_6
.Ltmp12:
.LBB0_6:
	.loc	2 0 5 is_stmt 0                 @ ../drv/fm411_driver.c:0:5
	add	r1, sp, #36
	movs	r0, #1
	.loc	2 41 5 is_stmt 1                @ ../drv/fm411_driver.c:41:5
	strb	r0, [r1]
	b	.LBB0_7
.LBB0_7:
	.loc	2 0 5 is_stmt 0                 @ ../drv/fm411_driver.c:0:5
	add	r0, sp, #36
	.loc	2 42 1 is_stmt 1                @ ../drv/fm411_driver.c:42:1
	ldrb	r0, [r0]
	add	sp, #40
	pop	{r7, pc}
.Ltmp13:
	.p2align	2
@ %bb.8:
	.loc	2 0 1 is_stmt 0                 @ ../drv/fm411_driver.c:0:1
__arm_cp.0_0:
	.long	4262559888                      @ 0xfe118090
.Lcpi_end0:
	.size	__arm_cp.0_0, .Lcpi_end0-__arm_cp.0_0
__arm_cp.0_1:
	.long	65524                           @ 0xfff4
.Lcpi_end1:
	.size	__arm_cp.0_1, .Lcpi_end1-__arm_cp.0_1
__arm_cp.0_2:
	.long	65510                           @ 0xffe6
.Lcpi_end2:
	.size	__arm_cp.0_2, .Lcpi_end2-__arm_cp.0_2
__arm_cp.0_3:
	.long	2500                            @ 0x9c4
.Lcpi_end3:
	.size	__arm_cp.0_3, .Lcpi_end3-__arm_cp.0_3
.Lfunc_end0:
	.size	dev_fm11_init, .Lfunc_end0-dev_fm11_init
	.cfi_endproc
	.cantunwind
	.fnend
                                        @ -- End function
	.section	.text.dev_fm11_ReadE2,"ax",%progbits
	.hidden	dev_fm11_ReadE2                 @ -- Begin function dev_fm11_ReadE2
	.globl	dev_fm11_ReadE2
	.p2align	1
	.type	dev_fm11_ReadE2,%function
	.code	16                              @ @dev_fm11_ReadE2
	.thumb_func
dev_fm11_ReadE2:
.Lfunc_begin1:
	.loc	2 81 0 is_stmt 1                @ ../drv/fm411_driver.c:81:0
	.fnstart
	.cfi_startproc
@ %bb.0:
	.save	{r4, lr}
	push	{r4, lr}
	.cfi_def_cfa_offset 8
	.cfi_offset lr, -4
	.cfi_offset r4, -8
	.pad	#48
	sub	sp, #48
	.cfi_def_cfa_offset 56
	ldr	r4, [sp, #56]
                                        @ kill: def $r4 killed $r3
                                        @ kill: def $r4 killed $r2
	str	r0, [sp, #44]
	str	r1, [sp, #40]
	add	r0, sp, #36
	str	r0, [sp, #12]                   @ 4-byte Spill
	strh	r2, [r0]
	add	r4, sp, #32
	str	r4, [sp, #16]                   @ 4-byte Spill
	strh	r3, [r4]
	add	r1, sp, #28
	str	r1, [sp, #24]                   @ 4-byte Spill
	movs	r0, #0
.Ltmp14:
	.loc	2 82 10 prologue_end            @ ../drv/fm411_driver.c:82:10
	str	r0, [sp, #20]                   @ 4-byte Spill
	strb	r0, [r1]
	.loc	2 86 5                          @ ../drv/fm411_driver.c:86:5
	ldr	r0, [sp, #44]
	.loc	2 86 10 is_stmt 0               @ ../drv/fm411_driver.c:86:10
	ldr	r1, [r0, #4]
	movs	r0, #1
	.loc	2 86 5                          @ ../drv/fm411_driver.c:86:5
	blx	r1
	ldr	r2, [sp, #12]                   @ 4-byte Reload
	.loc	2 91 31 is_stmt 1               @ ../drv/fm411_driver.c:91:31
	ldr	r1, [sp, #44]
	.loc	2 91 36 is_stmt 0               @ ../drv/fm411_driver.c:91:36
	ldr	r0, [r1, #12]
	.loc	2 91 49                         @ ../drv/fm411_driver.c:91:49
	ldrb	r1, [r1, #16]
	.loc	2 91 54                         @ ../drv/fm411_driver.c:91:54
	ldrh	r2, [r2]
	.loc	2 91 65                         @ ../drv/fm411_driver.c:91:65
	ldr	r3, [sp, #40]
	.loc	2 91 73                         @ ../drv/fm411_driver.c:91:73
	ldrb	r4, [r4]
	.loc	2 91 11                         @ ../drv/fm411_driver.c:91:11
	str	r4, [sp, #4]
	str	r3, [sp]
	movs	r3, #2
	bl	i2c_bus_device_Read
	ldr	r1, [sp, #16]                   @ 4-byte Reload
	ldr	r3, [sp, #24]                   @ 4-byte Reload
	mov	r2, r0
	.loc	2 91 9                          @ ../drv/fm411_driver.c:91:9
	ldr	r0, [sp, #20]                   @ 4-byte Reload
	strb	r2, [r3]
	.loc	2 92 14 is_stmt 1               @ ../drv/fm411_driver.c:92:14
	ldrh	r1, [r1]
	.loc	2 92 6 is_stmt 0                @ ../drv/fm411_driver.c:92:6
	ldr	r2, [sp, #56]
	.loc	2 92 12                         @ ../drv/fm411_driver.c:92:12
	str	r1, [r2]
	.loc	2 95 5 is_stmt 1                @ ../drv/fm411_driver.c:95:5
	ldr	r1, [sp, #44]
	.loc	2 95 10 is_stmt 0               @ ../drv/fm411_driver.c:95:10
	ldr	r1, [r1, #4]
	.loc	2 95 5                          @ ../drv/fm411_driver.c:95:5
	blx	r1
	ldr	r0, [sp, #24]                   @ 4-byte Reload
	.loc	2 96 10 is_stmt 1               @ ../drv/fm411_driver.c:96:10
	ldrb	r0, [r0]
	.loc	2 96 3 is_stmt 0                @ ../drv/fm411_driver.c:96:3
	add	sp, #48
	pop	{r4, pc}
.Ltmp15:
.Lfunc_end1:
	.size	dev_fm11_ReadE2, .Lfunc_end1-dev_fm11_ReadE2
	.cfi_endproc
	.cantunwind
	.fnend
                                        @ -- End function
	.section	.text.dev_fm11_WriteE2,"ax",%progbits
	.hidden	dev_fm11_WriteE2                @ -- Begin function dev_fm11_WriteE2
	.globl	dev_fm11_WriteE2
	.p2align	2
	.type	dev_fm11_WriteE2,%function
	.code	16                              @ @dev_fm11_WriteE2
	.thumb_func
dev_fm11_WriteE2:
.Lfunc_begin2:
	.loc	2 101 0 is_stmt 1               @ ../drv/fm411_driver.c:101:0
	.fnstart
	.cfi_startproc
@ %bb.0:
	.save	{r4, lr}
	push	{r4, lr}
	.cfi_def_cfa_offset 8
	.cfi_offset lr, -4
	.cfi_offset r4, -8
	.pad	#32
	sub	sp, #32
	.cfi_def_cfa_offset 40
                                        @ kill: def $r4 killed $r1
	str	r0, [sp, #24]
	add	r0, sp, #20
	str	r0, [sp]                        @ 4-byte Spill
	strh	r1, [r0]
	str	r2, [sp, #16]
	str	r3, [sp, #12]
	add	r1, sp, #8
	movs	r0, #0
.Ltmp16:
	.loc	2 102 13 prologue_end           @ ../drv/fm411_driver.c:102:13
	strb	r0, [r1]
	.loc	2 106 5                         @ ../drv/fm411_driver.c:106:5
	ldr	r0, [sp, #24]
	.loc	2 106 10 is_stmt 0              @ ../drv/fm411_driver.c:106:10
	ldr	r1, [r0, #4]
	movs	r0, #1
	.loc	2 106 5                         @ ../drv/fm411_driver.c:106:5
	blx	r1
	.loc	2 108 5 is_stmt 1               @ ../drv/fm411_driver.c:108:5
	ldr	r0, [sp, #24]
	.loc	2 108 10 is_stmt 0              @ ../drv/fm411_driver.c:108:10
	ldr	r1, [r0, #8]
	movw	r0, #500
	.loc	2 108 5                         @ ../drv/fm411_driver.c:108:5
	blx	r1
	ldr	r0, [sp]                        @ 4-byte Reload
.Ltmp17:
	.loc	2 110 8 is_stmt 1               @ ../drv/fm411_driver.c:110:8
	ldrh	r0, [r0]
	.loc	2 110 32 is_stmt 0              @ ../drv/fm411_driver.c:110:32
	cmp	r0, #16
	blt	.LBB2_2
	b	.LBB2_1
.LBB2_1:
	.loc	2 0 32                          @ ../drv/fm411_driver.c:0:32
	add	r0, sp, #20
	.loc	2 110 35                        @ ../drv/fm411_driver.c:110:35
	ldrh	r0, [r0]
	ldr	r1, __arm_cp.2_0
.Ltmp18:
	.loc	2 110 8                         @ ../drv/fm411_driver.c:110:8
	cmp	r0, r1
	blt	.LBB2_3
	b	.LBB2_2
.LBB2_2:
	.loc	2 0 8                           @ ../drv/fm411_driver.c:0:8
	add	r1, sp, #28
	movs	r0, #1
.Ltmp19:
	.loc	2 111 5 is_stmt 1               @ ../drv/fm411_driver.c:111:5
	strb	r0, [r1]
	b	.LBB2_23
.Ltmp20:
.LBB2_3:
	.loc	2 0 5 is_stmt 0                 @ ../drv/fm411_driver.c:0:5
	add	r0, sp, #20
.Ltmp21:
	.loc	2 112 8 is_stmt 1               @ ../drv/fm411_driver.c:112:8
	ldrh	r0, [r0]
.Ltmp22:
	.loc	2 112 8 is_stmt 0               @ ../drv/fm411_driver.c:112:8
	lsls	r0, r0, #28
	cmp	r0, #0
	beq	.LBB2_12
	b	.LBB2_4
.LBB2_4:
	.loc	2 0 8                           @ ../drv/fm411_driver.c:0:8
	add	r0, sp, #20
.Ltmp23:
	.loc	2 114 40 is_stmt 1              @ ../drv/fm411_driver.c:114:40
	ldrh	r1, [r0]
	movs	r0, #15
	.loc	2 114 44 is_stmt 0              @ ../drv/fm411_driver.c:114:44
	ands	r1, r0
	movs	r0, #16
	.loc	2 114 37                        @ ../drv/fm411_driver.c:114:37
	subs	r0, r0, r1
	add	r1, sp, #4
	.loc	2 114 16                        @ ../drv/fm411_driver.c:114:16
	strb	r0, [r1]
.Ltmp24:
	.loc	2 115 12 is_stmt 1              @ ../drv/fm411_driver.c:115:12
	ldr	r0, [sp, #16]
	.loc	2 115 18 is_stmt 0              @ ../drv/fm411_driver.c:115:18
	ldrb	r1, [r1]
.Ltmp25:
	.loc	2 115 12                        @ ../drv/fm411_driver.c:115:12
	cmp	r0, r1
	bls	.LBB2_8
	b	.LBB2_5
.LBB2_5:
.Ltmp26:
	.loc	2 117 42 is_stmt 1              @ ../drv/fm411_driver.c:117:42
	ldr	r0, [sp, #24]
	.loc	2 117 46 is_stmt 0              @ ../drv/fm411_driver.c:117:46
	ldr	r1, [sp, #12]
	add	r2, sp, #20
	.loc	2 117 51                        @ ../drv/fm411_driver.c:117:51
	ldrh	r2, [r2]
	add	r3, sp, #4
	.loc	2 117 55                        @ ../drv/fm411_driver.c:117:55
	ldrb	r3, [r3]
	.loc	2 117 19                        @ ../drv/fm411_driver.c:117:19
	bl	dev_fm11_sEE_WritePage
	mov	r1, r0
	add	r0, sp, #8
	.loc	2 117 17                        @ ../drv/fm411_driver.c:117:17
	strb	r1, [r0]
.Ltmp27:
	.loc	2 118 16 is_stmt 1              @ ../drv/fm411_driver.c:118:16
	ldrb	r0, [r0]
.Ltmp28:
	.loc	2 118 16 is_stmt 0              @ ../drv/fm411_driver.c:118:16
	cbz	r0, .LBB2_7
	b	.LBB2_6
.LBB2_6:
.Ltmp29:
	.loc	2 119 20 is_stmt 1              @ ../drv/fm411_driver.c:119:20
	ldr	r0, [sp, #8]
	add	r1, sp, #28
	.loc	2 119 13 is_stmt 0              @ ../drv/fm411_driver.c:119:13
	strb	r0, [r1]
	b	.LBB2_23
.Ltmp30:
.LBB2_7:
	.loc	2 0 13                          @ ../drv/fm411_driver.c:0:13
	add	r0, sp, #4
	.loc	2 120 20 is_stmt 1              @ ../drv/fm411_driver.c:120:20
	ldrb	r2, [r0]
	.loc	2 120 17 is_stmt 0              @ ../drv/fm411_driver.c:120:17
	ldr	r1, [sp, #20]
	adds	r1, r1, r2
	add	r2, sp, #20
	strh	r1, [r2]
	.loc	2 121 21 is_stmt 1              @ ../drv/fm411_driver.c:121:21
	ldrb	r2, [r0]
	.loc	2 121 18 is_stmt 0              @ ../drv/fm411_driver.c:121:18
	ldr	r1, [sp, #12]
	adds	r1, r1, r2
	str	r1, [sp, #12]
	.loc	2 122 20 is_stmt 1              @ ../drv/fm411_driver.c:122:20
	ldrb	r1, [r0]
	.loc	2 122 17 is_stmt 0              @ ../drv/fm411_driver.c:122:17
	ldr	r0, [sp, #16]
	subs	r0, r0, r1
	str	r0, [sp, #16]
	.loc	2 123 9 is_stmt 1               @ ../drv/fm411_driver.c:123:9
	b	.LBB2_11
.Ltmp31:
.LBB2_8:
	.loc	2 126 42                        @ ../drv/fm411_driver.c:126:42
	ldr	r0, [sp, #24]
	.loc	2 126 46 is_stmt 0              @ ../drv/fm411_driver.c:126:46
	ldr	r1, [sp, #12]
	add	r2, sp, #20
	.loc	2 126 51                        @ ../drv/fm411_driver.c:126:51
	ldrh	r2, [r2]
	add	r3, sp, #16
	.loc	2 126 55                        @ ../drv/fm411_driver.c:126:55
	ldrb	r3, [r3]
	.loc	2 126 19                        @ ../drv/fm411_driver.c:126:19
	bl	dev_fm11_sEE_WritePage
	mov	r1, r0
	add	r0, sp, #8
	.loc	2 126 17                        @ ../drv/fm411_driver.c:126:17
	strb	r1, [r0]
.Ltmp32:
	.loc	2 127 16 is_stmt 1              @ ../drv/fm411_driver.c:127:16
	ldrb	r0, [r0]
.Ltmp33:
	.loc	2 127 16 is_stmt 0              @ ../drv/fm411_driver.c:127:16
	cbz	r0, .LBB2_10
	b	.LBB2_9
.LBB2_9:
.Ltmp34:
	.loc	2 128 20 is_stmt 1              @ ../drv/fm411_driver.c:128:20
	ldr	r0, [sp, #8]
	add	r1, sp, #28
	.loc	2 128 13 is_stmt 0              @ ../drv/fm411_driver.c:128:13
	strb	r0, [r1]
	b	.LBB2_23
.Ltmp35:
.LBB2_10:
	.loc	2 0 13                          @ ../drv/fm411_driver.c:0:13
	movs	r0, #0
	.loc	2 129 17 is_stmt 1              @ ../drv/fm411_driver.c:129:17
	str	r0, [sp, #16]
	b	.LBB2_11
.Ltmp36:
.LBB2_11:
	.loc	2 131 5                         @ ../drv/fm411_driver.c:131:5
	b	.LBB2_12
.Ltmp37:
.LBB2_12:
	.loc	2 132 5                         @ ../drv/fm411_driver.c:132:5
	b	.LBB2_13
.LBB2_13:                               @ =>This Inner Loop Header: Depth=1
	.loc	2 132 11 is_stmt 0              @ ../drv/fm411_driver.c:132:11
	ldr	r0, [sp, #16]
	.loc	2 132 5                         @ ../drv/fm411_driver.c:132:5
	cbz	r0, .LBB2_22
	b	.LBB2_14
.LBB2_14:                               @   in Loop: Header=BB2_13 Depth=1
.Ltmp38:
	.loc	2 134 12 is_stmt 1              @ ../drv/fm411_driver.c:134:12
	ldr	r0, [sp, #16]
.Ltmp39:
	.loc	2 134 12 is_stmt 0              @ ../drv/fm411_driver.c:134:12
	cmp	r0, #16
	blo	.LBB2_18
	b	.LBB2_15
.LBB2_15:                               @   in Loop: Header=BB2_13 Depth=1
.Ltmp40:
	.loc	2 136 42 is_stmt 1              @ ../drv/fm411_driver.c:136:42
	ldr	r0, [sp, #24]
	.loc	2 136 46 is_stmt 0              @ ../drv/fm411_driver.c:136:46
	ldr	r1, [sp, #12]
	add	r2, sp, #20
	.loc	2 136 51                        @ ../drv/fm411_driver.c:136:51
	ldrh	r2, [r2]
	movs	r3, #16
	.loc	2 136 19                        @ ../drv/fm411_driver.c:136:19
	bl	dev_fm11_sEE_WritePage
	mov	r1, r0
	add	r0, sp, #8
	.loc	2 136 17                        @ ../drv/fm411_driver.c:136:17
	strb	r1, [r0]
.Ltmp41:
	.loc	2 137 16 is_stmt 1              @ ../drv/fm411_driver.c:137:16
	ldrb	r0, [r0]
.Ltmp42:
	.loc	2 137 16 is_stmt 0              @ ../drv/fm411_driver.c:137:16
	cbz	r0, .LBB2_17
	b	.LBB2_16
.LBB2_16:
.Ltmp43:
	.loc	2 138 20 is_stmt 1              @ ../drv/fm411_driver.c:138:20
	ldr	r0, [sp, #8]
	add	r1, sp, #28
	.loc	2 138 13 is_stmt 0              @ ../drv/fm411_driver.c:138:13
	strb	r0, [r1]
	b	.LBB2_23
.Ltmp44:
.LBB2_17:                               @   in Loop: Header=BB2_13 Depth=1
	.loc	2 139 17 is_stmt 1              @ ../drv/fm411_driver.c:139:17
	ldr	r0, [sp, #20]
	adds	r0, #16
	add	r1, sp, #20
	strh	r0, [r1]
	.loc	2 140 18                        @ ../drv/fm411_driver.c:140:18
	ldr	r0, [sp, #12]
	adds	r0, #16
	str	r0, [sp, #12]
	.loc	2 141 17                        @ ../drv/fm411_driver.c:141:17
	ldr	r0, [sp, #16]
	subs	r0, #16
	str	r0, [sp, #16]
	.loc	2 142 9                         @ ../drv/fm411_driver.c:142:9
	b	.LBB2_21
.Ltmp45:
.LBB2_18:                               @   in Loop: Header=BB2_13 Depth=1
	.loc	2 145 42                        @ ../drv/fm411_driver.c:145:42
	ldr	r0, [sp, #24]
	.loc	2 145 46 is_stmt 0              @ ../drv/fm411_driver.c:145:46
	ldr	r1, [sp, #12]
	add	r2, sp, #20
	.loc	2 145 51                        @ ../drv/fm411_driver.c:145:51
	ldrh	r2, [r2]
	add	r3, sp, #16
	.loc	2 145 55                        @ ../drv/fm411_driver.c:145:55
	ldrb	r3, [r3]
	.loc	2 145 19                        @ ../drv/fm411_driver.c:145:19
	bl	dev_fm11_sEE_WritePage
	mov	r1, r0
	add	r0, sp, #8
	.loc	2 145 17                        @ ../drv/fm411_driver.c:145:17
	strb	r1, [r0]
.Ltmp46:
	.loc	2 146 16 is_stmt 1              @ ../drv/fm411_driver.c:146:16
	ldrb	r0, [r0]
.Ltmp47:
	.loc	2 146 16 is_stmt 0              @ ../drv/fm411_driver.c:146:16
	cbz	r0, .LBB2_20
	b	.LBB2_19
.LBB2_19:
.Ltmp48:
	.loc	2 147 20 is_stmt 1              @ ../drv/fm411_driver.c:147:20
	ldr	r0, [sp, #8]
	add	r1, sp, #28
	.loc	2 147 13 is_stmt 0              @ ../drv/fm411_driver.c:147:13
	strb	r0, [r1]
	b	.LBB2_23
.Ltmp49:
.LBB2_20:                               @   in Loop: Header=BB2_13 Depth=1
	.loc	2 0 13                          @ ../drv/fm411_driver.c:0:13
	movs	r0, #0
	.loc	2 148 17 is_stmt 1              @ ../drv/fm411_driver.c:148:17
	str	r0, [sp, #16]
	b	.LBB2_21
.Ltmp50:
.LBB2_21:                               @   in Loop: Header=BB2_13 Depth=1
	.loc	2 132 5                         @ ../drv/fm411_driver.c:132:5
	b	.LBB2_13
.LBB2_22:
	.loc	2 151 5                         @ ../drv/fm411_driver.c:151:5
	ldr	r0, [sp, #24]
	.loc	2 151 10 is_stmt 0              @ ../drv/fm411_driver.c:151:10
	ldr	r1, [r0, #4]
	movs	r0, #0
	.loc	2 151 5                         @ ../drv/fm411_driver.c:151:5
	blx	r1
	.loc	2 152 12 is_stmt 1              @ ../drv/fm411_driver.c:152:12
	ldr	r0, [sp, #8]
	add	r1, sp, #28
	.loc	2 152 5 is_stmt 0               @ ../drv/fm411_driver.c:152:5
	strb	r0, [r1]
	b	.LBB2_23
.LBB2_23:
	.loc	2 0 5                           @ ../drv/fm411_driver.c:0:5
	add	r0, sp, #28
	.loc	2 153 1 is_stmt 1               @ ../drv/fm411_driver.c:153:1
	ldrb	r0, [r0]
	add	sp, #32
	pop	{r4, pc}
.Ltmp51:
	.p2align	2
@ %bb.24:
	.loc	2 0 1 is_stmt 0                 @ ../drv/fm411_driver.c:0:1
__arm_cp.2_0:
	.long	1023                            @ 0x3ff
.Lcpi_end4:
	.size	__arm_cp.2_0, .Lcpi_end4-__arm_cp.2_0
.Lfunc_end2:
	.size	dev_fm11_WriteE2, .Lfunc_end2-dev_fm11_WriteE2
	.cfi_endproc
	.cantunwind
	.fnend
                                        @ -- End function
	.section	.text.dev_fm11_WriteReg,"ax",%progbits
	.hidden	dev_fm11_WriteReg               @ -- Begin function dev_fm11_WriteReg
	.globl	dev_fm11_WriteReg
	.p2align	1
	.type	dev_fm11_WriteReg,%function
	.code	16                              @ @dev_fm11_WriteReg
	.thumb_func
dev_fm11_WriteReg:
.Lfunc_begin3:
	.loc	2 169 0 is_stmt 1               @ ../drv/fm411_driver.c:169:0
	.fnstart
	.cfi_startproc
@ %bb.0:
	.save	{r7, lr}
	push	{r7, lr}
	.cfi_def_cfa_offset 8
	.cfi_offset lr, -4
	.cfi_offset r7, -8
	.pad	#16
	sub	sp, #16
	.cfi_def_cfa_offset 24
	str	r2, [sp]                        @ 4-byte Spill
	mov	r2, r0
	ldr	r0, [sp]                        @ 4-byte Reload
                                        @ kill: def $r3 killed $r0
                                        @ kill: def $r3 killed $r1
	str	r2, [sp, #12]
	add	r2, sp, #8
	strh	r1, [r2]
	add	r1, sp, #4
	strb	r0, [r1]
.Ltmp52:
	.loc	2 170 32 prologue_end           @ ../drv/fm411_driver.c:170:32
	ldr	r0, [sp, #12]
	.loc	2 170 43 is_stmt 0              @ ../drv/fm411_driver.c:170:43
	ldrh	r2, [r2]
	movs	r3, #1
	.loc	2 170 9                         @ ../drv/fm411_driver.c:170:9
	bl	dev_fm11_sEE_WritePage
	.loc	2 170 2                         @ ../drv/fm411_driver.c:170:2
	add	sp, #16
	pop	{r7, pc}
.Ltmp53:
.Lfunc_end3:
	.size	dev_fm11_WriteReg, .Lfunc_end3-dev_fm11_WriteReg
	.cfi_endproc
	.cantunwind
	.fnend
                                        @ -- End function
	.section	.text.dev_fm11_sEE_WritePage,"ax",%progbits
	.hidden	dev_fm11_sEE_WritePage          @ -- Begin function dev_fm11_sEE_WritePage
	.globl	dev_fm11_sEE_WritePage
	.p2align	1
	.type	dev_fm11_sEE_WritePage,%function
	.code	16                              @ @dev_fm11_sEE_WritePage
	.thumb_func
dev_fm11_sEE_WritePage:
.Lfunc_begin4:
	.loc	2 49 0 is_stmt 1                @ ../drv/fm411_driver.c:49:0
	.fnstart
	.cfi_startproc
@ %bb.0:
	.save	{r4, lr}
	push	{r4, lr}
	.cfi_def_cfa_offset 8
	.cfi_offset lr, -4
	.cfi_offset r4, -8
	.pad	#40
	sub	sp, #40
	.cfi_def_cfa_offset 48
	str	r2, [sp, #12]                   @ 4-byte Spill
	mov	r2, r0
	ldr	r0, [sp, #12]                   @ 4-byte Reload
                                        @ kill: def $r4 killed $r3
                                        @ kill: def $r4 killed $r0
	str	r2, [sp, #36]
	str	r1, [sp, #32]
	add	r2, sp, #28
	strh	r0, [r2]
	add	r4, sp, #24
	strb	r3, [r4]
	add	r1, sp, #20
	str	r1, [sp, #16]                   @ 4-byte Spill
	movs	r0, #0
.Ltmp54:
	.loc	2 50 10 prologue_end            @ ../drv/fm411_driver.c:50:10
	strb	r0, [r1]
	.loc	2 51 32                         @ ../drv/fm411_driver.c:51:32
	ldr	r1, [sp, #36]
	.loc	2 51 37 is_stmt 0               @ ../drv/fm411_driver.c:51:37
	ldr	r0, [r1, #12]
	.loc	2 51 50                         @ ../drv/fm411_driver.c:51:50
	ldrb	r1, [r1, #16]
	.loc	2 51 55                         @ ../drv/fm411_driver.c:51:55
	ldrh	r2, [r2]
	.loc	2 51 67                         @ ../drv/fm411_driver.c:51:67
	ldr	r3, [sp, #32]
	.loc	2 51 75                         @ ../drv/fm411_driver.c:51:75
	ldrb	r4, [r4]
	.loc	2 51 11                         @ ../drv/fm411_driver.c:51:11
	str	r4, [sp, #4]
	str	r3, [sp]
	movs	r3, #2
	bl	i2c_bus_device_Write
	mov	r1, r0
	.loc	2 51 9                          @ ../drv/fm411_driver.c:51:9
	ldr	r0, [sp, #16]                   @ 4-byte Reload
	strb	r1, [r0]
	.loc	2 52 9 is_stmt 1                @ ../drv/fm411_driver.c:52:9
	ldrb	r0, [r0]
	.loc	2 52 2 is_stmt 0                @ ../drv/fm411_driver.c:52:2
	add	sp, #40
	pop	{r4, pc}
.Ltmp55:
.Lfunc_end4:
	.size	dev_fm11_sEE_WritePage, .Lfunc_end4-dev_fm11_sEE_WritePage
	.cfi_endproc
	.cantunwind
	.fnend
                                        @ -- End function
	.section	.text.sEE_WritePage,"ax",%progbits
	.hidden	sEE_WritePage                   @ -- Begin function sEE_WritePage
	.globl	sEE_WritePage
	.p2align	1
	.type	sEE_WritePage,%function
	.code	16                              @ @sEE_WritePage
	.thumb_func
sEE_WritePage:
.Lfunc_begin5:
	.loc	2 66 0 is_stmt 1                @ ../drv/fm411_driver.c:66:0
	.fnstart
	.cfi_startproc
@ %bb.0:
	.save	{r4, r5, r6, r7, lr}
	push	{r4, r5, r6, r7, lr}
	.cfi_def_cfa_offset 20
	.cfi_offset lr, -4
	.cfi_offset r7, -8
	.cfi_offset r6, -12
	.cfi_offset r5, -16
	.cfi_offset r4, -20
	.setfp	r7, sp, #12
	add	r7, sp, #12
	.cfi_def_cfa r7, 8
	.pad	#36
	sub	sp, #36
	mov	r6, sp
	adds	r3, r6, #7
	adds	r3, #1
	str	r3, [r6, #4]                    @ 4-byte Spill
	str	r2, [r6]                        @ 4-byte Spill
	mov	r2, r1
	ldr	r1, [r6, #4]                    @ 4-byte Reload
	mov	r3, r0
	ldr	r0, [r6]                        @ 4-byte Reload
                                        @ kill: def $r4 killed $r0
                                        @ kill: def $r4 killed $r2
	str	r3, [r1, #24]
	adds	r3, r6, #7
	adds	r3, #21
	strh	r2, [r3]
	adds	r2, r6, #7
	adds	r2, #17
	strb	r0, [r2]
	movs	r0, #0
.Ltmp56:
	.loc	2 67 10 prologue_end            @ ../drv/fm411_driver.c:67:10
	str	r0, [r1, #12]
	.loc	2 68 11                         @ ../drv/fm411_driver.c:68:11
	str	r0, [r1, #8]
	.loc	2 69 18                         @ ../drv/fm411_driver.c:69:18
	ldrb	r5, [r2]
	.loc	2 69 16 is_stmt 0               @ ../drv/fm411_driver.c:69:16
	adds	r4, r5, #2
	.loc	2 69 2                          @ ../drv/fm411_driver.c:69:2
	mov	r0, sp
	str	r0, [r1, #4]
	adds	r5, #9
	movs	r0, #7
	bics	r5, r0
	mov	r0, sp
	subs	r0, r0, r5
.Ltmp57:
	@DEBUG_VALUE: sEE_WritePage:addr <- [$r0+0]
	mov	sp, r0
	str	r4, [r1]
	.loc	2 70 12 is_stmt 1               @ ../drv/fm411_driver.c:70:12
	ldrb	r3, [r3, #1]
	.loc	2 70 10 is_stmt 0               @ ../drv/fm411_driver.c:70:10
	strb	r3, [r0]
	.loc	2 71 12 is_stmt 1               @ ../drv/fm411_driver.c:71:12
	ldr	r3, [r1, #20]
	.loc	2 71 10 is_stmt 0               @ ../drv/fm411_driver.c:71:10
	strb	r3, [r0, #1]
	.loc	2 72 13 is_stmt 1               @ ../drv/fm411_driver.c:72:13
	adds	r0, r0, #2
.Ltmp58:
	.loc	2 72 17 is_stmt 0               @ ../drv/fm411_driver.c:72:17
	ldr	r1, [r1, #24]
	.loc	2 72 26                         @ ../drv/fm411_driver.c:72:26
	ldrb	r2, [r2]
	.loc	2 72 2                          @ ../drv/fm411_driver.c:72:2
	bl	__aeabi_memcpy
	ldr	r1, [r6, #4]                    @ 4-byte Reload
	adds	r0, r6, #7
	adds	r0, #13
	.loc	2 76 9 is_stmt 1                @ ../drv/fm411_driver.c:76:9
	ldrb	r0, [r0]
	.loc	2 77 1                          @ ../drv/fm411_driver.c:77:1
	ldr	r1, [r1, #4]
	mov	sp, r1
	subs	r4, r7, #7
	subs	r4, #5
	mov	sp, r4
	pop	{r4, r5, r6, r7, pc}
.Ltmp59:
.Lfunc_end5:
	.size	sEE_WritePage, .Lfunc_end5-sEE_WritePage
	.cfi_endproc
	.cantunwind
	.fnend
                                        @ -- End function
	.section	.text.dev_fm11_ReadReg,"ax",%progbits
	.hidden	dev_fm11_ReadReg                @ -- Begin function dev_fm11_ReadReg
	.globl	dev_fm11_ReadReg
	.p2align	1
	.type	dev_fm11_ReadReg,%function
	.code	16                              @ @dev_fm11_ReadReg
	.thumb_func
dev_fm11_ReadReg:
.Lfunc_begin6:
	.loc	2 156 0                         @ ../drv/fm411_driver.c:156:0
	.fnstart
	.cfi_startproc
@ %bb.0:
	.save	{r7, lr}
	push	{r7, lr}
	.cfi_def_cfa_offset 8
	.cfi_offset lr, -4
	.cfi_offset r7, -8
	.pad	#32
	sub	sp, #32
	.cfi_def_cfa_offset 40
	str	r1, [sp, #8]                    @ 4-byte Spill
	mov	r1, r0
	ldr	r0, [sp, #8]                    @ 4-byte Reload
                                        @ kill: def $r2 killed $r0
	str	r1, [sp, #24]
	add	r1, sp, #20
	strh	r0, [r1]
.Ltmp60:
	.loc	2 159 25 prologue_end           @ ../drv/fm411_driver.c:159:25
	ldr	r0, [sp, #24]
	.loc	2 159 40 is_stmt 0              @ ../drv/fm411_driver.c:159:40
	ldrh	r2, [r1]
	add	r1, sp, #12
	.loc	2 159 9                         @ ../drv/fm411_driver.c:159:9
	str	r1, [sp]
	add	r1, sp, #16
	movs	r3, #1
	bl	dev_fm11_ReadE2
.Ltmp61:
	.loc	2 159 8                         @ ../drv/fm411_driver.c:159:8
	cbnz	r0, .LBB6_2
	b	.LBB6_1
.LBB6_1:
.Ltmp62:
	.loc	2 161 11 is_stmt 1              @ ../drv/fm411_driver.c:161:11
	ldr	r0, [sp, #16]
	add	r1, sp, #28
	.loc	2 161 4 is_stmt 0               @ ../drv/fm411_driver.c:161:4
	strb	r0, [r1]
	b	.LBB6_3
.Ltmp63:
.LBB6_2:
	.loc	2 0 4                           @ ../drv/fm411_driver.c:0:4
	add	r1, sp, #28
	movs	r0, #255
	.loc	2 164 5 is_stmt 1               @ ../drv/fm411_driver.c:164:5
	strb	r0, [r1]
	b	.LBB6_3
.Ltmp64:
.LBB6_3:
	.loc	2 0 5 is_stmt 0                 @ ../drv/fm411_driver.c:0:5
	add	r0, sp, #28
	.loc	2 165 1 is_stmt 1               @ ../drv/fm411_driver.c:165:1
	ldrb	r0, [r0]
	add	sp, #32
	pop	{r7, pc}
.Ltmp65:
.Lfunc_end6:
	.size	dev_fm11_ReadReg, .Lfunc_end6-dev_fm11_ReadReg
	.cfi_endproc
	.cantunwind
	.fnend
                                        @ -- End function
	.section	.text.dev_fm11_WriteFIFO,"ax",%progbits
	.hidden	dev_fm11_WriteFIFO              @ -- Begin function dev_fm11_WriteFIFO
	.globl	dev_fm11_WriteFIFO
	.p2align	2
	.type	dev_fm11_WriteFIFO,%function
	.code	16                              @ @dev_fm11_WriteFIFO
	.thumb_func
dev_fm11_WriteFIFO:
.Lfunc_begin7:
	.loc	2 173 0                         @ ../drv/fm411_driver.c:173:0
	.fnstart
	.cfi_startproc
@ %bb.0:
	.save	{r7, lr}
	push	{r7, lr}
	.cfi_def_cfa_offset 8
	.cfi_offset lr, -4
	.cfi_offset r7, -8
	.pad	#16
	sub	sp, #16
	.cfi_def_cfa_offset 24
	str	r2, [sp]                        @ 4-byte Spill
	mov	r2, r0
	ldr	r0, [sp]                        @ 4-byte Reload
                                        @ kill: def $r3 killed $r0
	str	r2, [sp, #12]
	str	r1, [sp, #8]
	add	r2, sp, #4
	strb	r0, [r2]
.Ltmp66:
	.loc	2 174 32 prologue_end           @ ../drv/fm411_driver.c:174:32
	ldr	r0, [sp, #12]
	.loc	2 174 36 is_stmt 0              @ ../drv/fm411_driver.c:174:36
	ldr	r1, [sp, #8]
	.loc	2 174 64                        @ ../drv/fm411_driver.c:174:64
	ldrb	r3, [r2]
	ldr	r2, __arm_cp.7_0
	.loc	2 174 9                         @ ../drv/fm411_driver.c:174:9
	bl	dev_fm11_sEE_WritePage
	.loc	2 174 2                         @ ../drv/fm411_driver.c:174:2
	add	sp, #16
	pop	{r7, pc}
.Ltmp67:
	.p2align	2
@ %bb.1:
	.loc	2 0 2                           @ ../drv/fm411_driver.c:0:2
__arm_cp.7_0:
	.long	65520                           @ 0xfff0
.Lcpi_end5:
	.size	__arm_cp.7_0, .Lcpi_end5-__arm_cp.7_0
.Lfunc_end7:
	.size	dev_fm11_WriteFIFO, .Lfunc_end7-dev_fm11_WriteFIFO
	.cfi_endproc
	.cantunwind
	.fnend
                                        @ -- End function
	.section	.text.dev_fm11_get_irq,"ax",%progbits
	.hidden	dev_fm11_get_irq                @ -- Begin function dev_fm11_get_irq
	.globl	dev_fm11_get_irq
	.p2align	1
	.type	dev_fm11_get_irq,%function
	.code	16                              @ @dev_fm11_get_irq
	.thumb_func
dev_fm11_get_irq:
.Lfunc_begin8:
	.loc	2 180 0 is_stmt 1               @ ../drv/fm411_driver.c:180:0
	.fnstart
	.cfi_startproc
@ %bb.0:
	.save	{r7, lr}
	push	{r7, lr}
	.cfi_def_cfa_offset 8
	.cfi_offset lr, -4
	.cfi_offset r7, -8
	.pad	#16
	sub	sp, #16
	.cfi_def_cfa_offset 24
	str	r1, [sp, #4]                    @ 4-byte Spill
	mov	r1, r0
	ldr	r0, [sp, #4]                    @ 4-byte Reload
                                        @ kill: def $r2 killed $r0
	str	r1, [sp, #12]
	add	r1, sp, #8
	strh	r0, [r1]
.Ltmp68:
	.loc	2 181 26 prologue_end           @ ../drv/fm411_driver.c:181:26
	ldr	r0, [sp, #12]
	.loc	2 181 31 is_stmt 0              @ ../drv/fm411_driver.c:181:31
	ldrh	r1, [r1]
	.loc	2 181 9                         @ ../drv/fm411_driver.c:181:9
	bl	dev_fm11_ReadReg
	.loc	2 181 2                         @ ../drv/fm411_driver.c:181:2
	add	sp, #16
	pop	{r7, pc}
.Ltmp69:
.Lfunc_end8:
	.size	dev_fm11_get_irq, .Lfunc_end8-dev_fm11_get_irq
	.cfi_endproc
	.cantunwind
	.fnend
                                        @ -- End function
	.section	.text.dev_fm11_irq_procee,"ax",%progbits
	.hidden	dev_fm11_irq_procee             @ -- Begin function dev_fm11_irq_procee
	.globl	dev_fm11_irq_procee
	.p2align	2
	.type	dev_fm11_irq_procee,%function
	.code	16                              @ @dev_fm11_irq_procee
	.thumb_func
dev_fm11_irq_procee:
.Lfunc_begin9:
	.loc	2 187 0 is_stmt 1               @ ../drv/fm411_driver.c:187:0
	.fnstart
	.cfi_startproc
@ %bb.0:
	.save	{r7, lr}
	push	{r7, lr}
	.cfi_def_cfa_offset 8
	.cfi_offset lr, -4
	.cfi_offset r7, -8
	.pad	#16
	sub	sp, #16
	.cfi_def_cfa_offset 24
                                        @ kill: def $r2 killed $r1
	str	r0, [sp, #12]
	add	r0, sp, #8
	strb	r1, [r0]
	add	r2, sp, #4
	movs	r1, #0
.Ltmp70:
	.loc	2 188 10 prologue_end           @ ../drv/fm411_driver.c:188:10
	strb	r1, [r2]
.Ltmp71:
	.loc	2 190 5                         @ ../drv/fm411_driver.c:190:5
	ldrb	r0, [r0]
.Ltmp72:
	.loc	2 190 5 is_stmt 0               @ ../drv/fm411_driver.c:190:5
	lsls	r0, r0, #24
	cmp	r0, #0
	bpl	.LBB9_2
	b	.LBB9_1
.LBB9_1:
.Ltmp73:
	.loc	2 190 57                        @ ../drv/fm411_driver.c:190:57
	ldr	r0, [sp, #12]
	ldr	r1, __arm_cp.9_0
	movs	r2, #1
	.loc	2 190 39                        @ ../drv/fm411_driver.c:190:39
	bl	dev_fm11_WriteReg
	b	.LBB9_2
.Ltmp74:
.LBB9_2:
	.loc	2 0 39                          @ ../drv/fm411_driver.c:0:39
	add	r0, sp, #8
.Ltmp75:
	.loc	2 191 5 is_stmt 1               @ ../drv/fm411_driver.c:191:5
	ldrb	r0, [r0]
.Ltmp76:
	.loc	2 191 5 is_stmt 0               @ ../drv/fm411_driver.c:191:5
	lsls	r0, r0, #26
	cmp	r0, #0
	bpl	.LBB9_4
	b	.LBB9_3
.LBB9_3:
.Ltmp77:
	.loc	2 191 39                        @ ../drv/fm411_driver.c:191:39
	ldr	r1, [sp, #12]
	movs	r0, #1
	.loc	2 191 56                        @ ../drv/fm411_driver.c:191:56
	strb	r0, [r1, #1]
	.loc	2 191 39                        @ ../drv/fm411_driver.c:191:39
	b	.LBB9_4
.Ltmp78:
.LBB9_4:
	.loc	2 0 39                          @ ../drv/fm411_driver.c:0:39
	add	r0, sp, #8
.Ltmp79:
	.loc	2 192 5 is_stmt 1               @ ../drv/fm411_driver.c:192:5
	ldrb	r0, [r0]
.Ltmp80:
	.loc	2 192 5 is_stmt 0               @ ../drv/fm411_driver.c:192:5
	lsls	r0, r0, #27
	cmp	r0, #0
	bpl	.LBB9_6
	b	.LBB9_5
.LBB9_5:
.Ltmp81:
	.loc	2 192 38                        @ ../drv/fm411_driver.c:192:38
	ldr	r1, [sp, #12]
	movs	r0, #1
	.loc	2 192 54                        @ ../drv/fm411_driver.c:192:54
	strb	r0, [r1, #2]
	.loc	2 192 38                        @ ../drv/fm411_driver.c:192:38
	b	.LBB9_6
.Ltmp82:
.LBB9_6:
	.loc	2 0 38                          @ ../drv/fm411_driver.c:0:38
	add	r0, sp, #8
.Ltmp83:
	.loc	2 193 5 is_stmt 1               @ ../drv/fm411_driver.c:193:5
	ldrb	r0, [r0]
.Ltmp84:
	.loc	2 193 5 is_stmt 0               @ ../drv/fm411_driver.c:193:5
	lsls	r0, r0, #28
	cmp	r0, #0
	bpl	.LBB9_8
	b	.LBB9_7
.LBB9_7:
.Ltmp85:
	.loc	2 193 40                        @ ../drv/fm411_driver.c:193:40
	ldr	r1, [sp, #12]
	movs	r0, #1
	.loc	2 193 56                        @ ../drv/fm411_driver.c:193:56
	strb	r0, [r1, #3]
	.loc	2 193 40                        @ ../drv/fm411_driver.c:193:40
	b	.LBB9_8
.Ltmp86:
.LBB9_8:
	.loc	2 0 40                          @ ../drv/fm411_driver.c:0:40
	add	r0, sp, #8
.Ltmp87:
	.loc	2 194 5 is_stmt 1               @ ../drv/fm411_driver.c:194:5
	ldrb	r0, [r0]
.Ltmp88:
	.loc	2 194 5 is_stmt 0               @ ../drv/fm411_driver.c:194:5
	lsls	r0, r0, #25
	cmp	r0, #0
	bpl	.LBB9_10
	b	.LBB9_9
.LBB9_9:
.Ltmp89:
	.loc	2 194 56                        @ ../drv/fm411_driver.c:194:56
	ldr	r0, [sp, #12]
	ldr	r1, __arm_cp.9_0
	movs	r2, #1
	.loc	2 194 38                        @ ../drv/fm411_driver.c:194:38
	bl	dev_fm11_WriteReg
	b	.LBB9_10
.Ltmp90:
.LBB9_10:
	.loc	2 0 38                          @ ../drv/fm411_driver.c:0:38
	add	r0, sp, #8
.Ltmp91:
	.loc	2 195 5 is_stmt 1               @ ../drv/fm411_driver.c:195:5
	ldrb	r0, [r0]
.Ltmp92:
	.loc	2 195 5 is_stmt 0               @ ../drv/fm411_driver.c:195:5
	lsls	r0, r0, #30
	cmp	r0, #0
	bpl	.LBB9_12
	b	.LBB9_11
.LBB9_11:
.Ltmp93:
	.loc	2 197 20 is_stmt 1              @ ../drv/fm411_driver.c:197:20
	ldr	r0, [sp, #12]
	ldr	r1, __arm_cp.9_1
	.loc	2 197 3 is_stmt 0               @ ../drv/fm411_driver.c:197:3
	bl	dev_fm11_ReadReg
	.loc	2 198 2 is_stmt 1               @ ../drv/fm411_driver.c:198:2
	b	.LBB9_12
.Ltmp94:
.LBB9_12:
	.loc	2 0 2 is_stmt 0                 @ ../drv/fm411_driver.c:0:2
	add	r0, sp, #8
.Ltmp95:
	.loc	2 199 5 is_stmt 1               @ ../drv/fm411_driver.c:199:5
	ldrb	r0, [r0]
.Ltmp96:
	.loc	2 199 5 is_stmt 0               @ ../drv/fm411_driver.c:199:5
	lsls	r0, r0, #31
	cbz	r0, .LBB9_16
	b	.LBB9_13
.LBB9_13:
.Ltmp97:
	.loc	2 202 26 is_stmt 1              @ ../drv/fm411_driver.c:202:26
	ldr	r0, [sp, #12]
	ldr	r1, __arm_cp.9_2
	.loc	2 202 9 is_stmt 0               @ ../drv/fm411_driver.c:202:9
	bl	dev_fm11_ReadReg
	mov	r1, r0
	add	r0, sp, #4
	.loc	2 202 7                         @ ../drv/fm411_driver.c:202:7
	strb	r1, [r0]
.Ltmp98:
	.loc	2 204 6 is_stmt 1               @ ../drv/fm411_driver.c:204:6
	ldrb	r0, [r0]
.Ltmp99:
	.loc	2 204 6 is_stmt 0               @ ../drv/fm411_driver.c:204:6
	lsls	r0, r0, #29
	cmp	r0, #0
	bpl	.LBB9_15
	b	.LBB9_14
.LBB9_14:
.Ltmp100:
	.loc	2 206 21 is_stmt 1              @ ../drv/fm411_driver.c:206:21
	ldr	r0, [sp, #12]
	ldr	r1, __arm_cp.9_3
	movs	r2, #119
	.loc	2 206 3 is_stmt 0               @ ../drv/fm411_driver.c:206:3
	bl	dev_fm11_WriteReg
	.loc	2 207 21 is_stmt 1              @ ../drv/fm411_driver.c:207:21
	ldr	r0, [sp, #12]
	ldr	r1, __arm_cp.9_4
	movs	r2, #85
	.loc	2 207 3 is_stmt 0               @ ../drv/fm411_driver.c:207:3
	bl	dev_fm11_WriteReg
	.loc	2 208 3 is_stmt 1               @ ../drv/fm411_driver.c:208:3
	ldr	r0, [sp, #12]
	.loc	2 208 8 is_stmt 0               @ ../drv/fm411_driver.c:208:8
	ldr	r1, [r0, #8]
	ldr	r0, __arm_cp.9_5
	.loc	2 208 3                         @ ../drv/fm411_driver.c:208:3
	blx	r1
	.loc	2 209 3 is_stmt 1               @ ../drv/fm411_driver.c:209:3
	b	.LBB9_15
.Ltmp101:
.LBB9_15:
	.loc	2 210 2                         @ ../drv/fm411_driver.c:210:2
	b	.LBB9_16
.Ltmp102:
.LBB9_16:
	.loc	2 0 2 is_stmt 0                 @ ../drv/fm411_driver.c:0:2
	movs	r0, #1
	.loc	2 211 2 is_stmt 1               @ ../drv/fm411_driver.c:211:2
	add	sp, #16
	pop	{r7, pc}
.Ltmp103:
	.p2align	2
@ %bb.17:
	.loc	2 0 2 is_stmt 0                 @ ../drv/fm411_driver.c:0:2
__arm_cp.9_0:
	.long	65525                           @ 0xfff5
.Lcpi_end6:
	.size	__arm_cp.9_0, .Lcpi_end6-__arm_cp.9_0
__arm_cp.9_1:
	.long	65528                           @ 0xfff8
.Lcpi_end7:
	.size	__arm_cp.9_1, .Lcpi_end7-__arm_cp.9_1
__arm_cp.9_2:
	.long	65529                           @ 0xfff9
.Lcpi_end8:
	.size	__arm_cp.9_2, .Lcpi_end8-__arm_cp.9_2
__arm_cp.9_3:
	.long	65524                           @ 0xfff4
.Lcpi_end9:
	.size	__arm_cp.9_3, .Lcpi_end9-__arm_cp.9_3
__arm_cp.9_4:
	.long	65510                           @ 0xffe6
.Lcpi_end10:
	.size	__arm_cp.9_4, .Lcpi_end10-__arm_cp.9_4
__arm_cp.9_5:
	.long	1500                            @ 0x5dc
.Lcpi_end11:
	.size	__arm_cp.9_5, .Lcpi_end11-__arm_cp.9_5
.Lfunc_end9:
	.size	dev_fm11_irq_procee, .Lfunc_end9-dev_fm11_irq_procee
	.cfi_endproc
	.cantunwind
	.fnend
                                        @ -- End function
	.section	.text.dev_fm11_ReadFIFO,"ax",%progbits
	.hidden	dev_fm11_ReadFIFO               @ -- Begin function dev_fm11_ReadFIFO
	.globl	dev_fm11_ReadFIFO
	.p2align	2
	.type	dev_fm11_ReadFIFO,%function
	.code	16                              @ @dev_fm11_ReadFIFO
	.thumb_func
dev_fm11_ReadFIFO:
.Lfunc_begin10:
	.loc	2 215 0 is_stmt 1               @ ../drv/fm411_driver.c:215:0
	.fnstart
	.cfi_startproc
@ %bb.0:
	.save	{r7, lr}
	push	{r7, lr}
	.cfi_def_cfa_offset 8
	.cfi_offset lr, -4
	.cfi_offset r7, -8
	.pad	#32
	sub	sp, #32
	.cfi_def_cfa_offset 40
	str	r2, [sp, #8]                    @ 4-byte Spill
	mov	r2, r0
	ldr	r0, [sp, #8]                    @ 4-byte Reload
                                        @ kill: def $r3 killed $r1
	str	r2, [sp, #24]
	add	r2, sp, #20
	strb	r1, [r2]
	str	r0, [sp, #16]
.Ltmp104:
	.loc	2 217 22 prologue_end           @ ../drv/fm411_driver.c:217:22
	ldr	r0, [sp, #24]
	.loc	2 217 26 is_stmt 0              @ ../drv/fm411_driver.c:217:26
	ldr	r1, [sp, #16]
	.loc	2 217 54                        @ ../drv/fm411_driver.c:217:54
	ldrb	r3, [r2]
	add	r2, sp, #12
	.loc	2 217 6                         @ ../drv/fm411_driver.c:217:6
	str	r2, [sp]
	ldr	r2, __arm_cp.10_0
	bl	dev_fm11_ReadE2
.Ltmp105:
	.loc	2 217 6                         @ ../drv/fm411_driver.c:217:6
	cbz	r0, .LBB10_2
	b	.LBB10_1
.LBB10_1:
	.loc	2 0 6                           @ ../drv/fm411_driver.c:0:6
	add	r1, sp, #28
	movs	r0, #1
.Ltmp106:
	.loc	2 218 3 is_stmt 1               @ ../drv/fm411_driver.c:218:3
	strb	r0, [r1]
	b	.LBB10_3
.LBB10_2:
	.loc	2 0 3 is_stmt 0                 @ ../drv/fm411_driver.c:0:3
	add	r1, sp, #28
	movs	r0, #0
	.loc	2 220 3 is_stmt 1               @ ../drv/fm411_driver.c:220:3
	strb	r0, [r1]
	b	.LBB10_3
.Ltmp107:
.LBB10_3:
	.loc	2 0 3 is_stmt 0                 @ ../drv/fm411_driver.c:0:3
	add	r0, sp, #28
	.loc	2 221 1 is_stmt 1               @ ../drv/fm411_driver.c:221:1
	ldrb	r0, [r0]
	add	sp, #32
	pop	{r7, pc}
.Ltmp108:
	.p2align	2
@ %bb.4:
	.loc	2 0 1 is_stmt 0                 @ ../drv/fm411_driver.c:0:1
__arm_cp.10_0:
	.long	65520                           @ 0xfff0
.Lcpi_end12:
	.size	__arm_cp.10_0, .Lcpi_end12-__arm_cp.10_0
.Lfunc_end10:
	.size	dev_fm11_ReadFIFO, .Lfunc_end10-dev_fm11_ReadFIFO
	.cfi_endproc
	.cantunwind
	.fnend
                                        @ -- End function
	.section	.text.dev_fm11_RFDataRx,"ax",%progbits
	.hidden	dev_fm11_RFDataRx               @ -- Begin function dev_fm11_RFDataRx
	.globl	dev_fm11_RFDataRx
	.p2align	2
	.type	dev_fm11_RFDataRx,%function
	.code	16                              @ @dev_fm11_RFDataRx
	.thumb_func
dev_fm11_RFDataRx:
.Lfunc_begin11:
	.loc	2 231 0 is_stmt 1               @ ../drv/fm411_driver.c:231:0
	.fnstart
	.cfi_startproc
@ %bb.0:
	.save	{r7, lr}
	push	{r7, lr}
	.cfi_def_cfa_offset 8
	.cfi_offset lr, -4
	.cfi_offset r7, -8
	.pad	#24
	sub	sp, #24
	.cfi_def_cfa_offset 32
	str	r0, [sp, #16]
	str	r1, [sp, #12]
	movs	r0, #0
.Ltmp109:
	.loc	2 233 7 prologue_end            @ ../drv/fm411_driver.c:233:7
	str	r0, [sp, #8]
	.loc	2 234 7                         @ ../drv/fm411_driver.c:234:7
	str	r0, [sp, #4]
	.loc	2 235 2                         @ ../drv/fm411_driver.c:235:2
	b	.LBB11_1
.LBB11_1:                               @ =>This Inner Loop Header: Depth=1
.Ltmp110:
	.loc	2 237 24                        @ ../drv/fm411_driver.c:237:24
	ldr	r0, [sp, #16]
	ldr	r1, __arm_cp.11_0
	.loc	2 237 7 is_stmt 0               @ ../drv/fm411_driver.c:237:7
	bl	dev_fm11_ReadReg
	movs	r1, #63
	.loc	2 237 52                        @ ../drv/fm411_driver.c:237:52
	ands	r0, r1
.Ltmp111:
	.loc	2 237 6                         @ ../drv/fm411_driver.c:237:6
	cmp	r0, #24
	blt	.LBB11_3
	b	.LBB11_2
.LBB11_2:                               @   in Loop: Header=BB11_1 Depth=1
.Ltmp112:
	.loc	2 239 22 is_stmt 1              @ ../drv/fm411_driver.c:239:22
	ldr	r0, [sp, #16]
	.loc	2 239 30 is_stmt 0              @ ../drv/fm411_driver.c:239:30
	ldr	r1, [sp, #12]
	.loc	2 239 35                        @ ../drv/fm411_driver.c:239:35
	ldr	r2, [sp, #8]
	.loc	2 239 30                        @ ../drv/fm411_driver.c:239:30
	adds	r2, r1, r2
	movs	r1, #24
	.loc	2 239 4                         @ ../drv/fm411_driver.c:239:4
	bl	dev_fm11_ReadFIFO
	.loc	2 240 9 is_stmt 1               @ ../drv/fm411_driver.c:240:9
	ldr	r0, [sp, #8]
	adds	r0, #24
	str	r0, [sp, #8]
	.loc	2 241 3                         @ ../drv/fm411_driver.c:241:3
	b	.LBB11_3
.Ltmp113:
.LBB11_3:                               @   in Loop: Header=BB11_1 Depth=1
	.loc	2 243 34                        @ ../drv/fm411_driver.c:243:34
	ldr	r0, [sp, #16]
	ldr	r1, __arm_cp.11_0
	.loc	2 243 17 is_stmt 0              @ ../drv/fm411_driver.c:243:17
	bl	dev_fm11_ReadReg
	.loc	2 243 76                        @ ../drv/fm411_driver.c:243:76
	lsls	r0, r0, #26
	cbnz	r0, .LBB11_6
	b	.LBB11_4
.LBB11_4:                               @   in Loop: Header=BB11_1 Depth=1
	.loc	2 243 79                        @ ../drv/fm411_driver.c:243:79
	ldr	r0, [sp, #8]
.Ltmp114:
	.loc	2 243 13                        @ ../drv/fm411_driver.c:243:13
	cbnz	r0, .LBB11_6
	b	.LBB11_5
.LBB11_5:
.Ltmp115:
	.loc	2 245 13 is_stmt 1              @ ../drv/fm411_driver.c:245:13
	ldr	r1, [sp, #16]
	movs	r0, #0
	.loc	2 245 29 is_stmt 0              @ ../drv/fm411_driver.c:245:29
	strb	r0, [r1, #2]
	.loc	2 246 4 is_stmt 1               @ ../drv/fm411_driver.c:246:4
	str	r0, [sp, #20]
	b	.LBB11_11
.Ltmp116:
.LBB11_6:                               @   in Loop: Header=BB11_1 Depth=1
	.loc	2 248 2                         @ ../drv/fm411_driver.c:248:2
	b	.LBB11_7
.Ltmp117:
.LBB11_7:                               @   in Loop: Header=BB11_1 Depth=1
	.loc	2 248 9 is_stmt 0               @ ../drv/fm411_driver.c:248:9
	ldr	r0, [sp, #16]
	.loc	2 248 14                        @ ../drv/fm411_driver.c:248:14
	ldrb	r0, [r0, #2]
.Ltmp118:
	.loc	2 248 2                         @ ../drv/fm411_driver.c:248:2
	cmp	r0, #0
	beq	.LBB11_1
	b	.LBB11_8
.Ltmp119:
.LBB11_8:
	.loc	2 250 2 is_stmt 1               @ ../drv/fm411_driver.c:250:2
	ldr	r1, [sp, #16]
	movs	r0, #0
	.loc	2 250 18 is_stmt 0              @ ../drv/fm411_driver.c:250:18
	strb	r0, [r1, #2]
	.loc	2 253 37 is_stmt 1              @ ../drv/fm411_driver.c:253:37
	ldr	r0, [sp, #16]
	ldr	r1, __arm_cp.11_0
	.loc	2 253 20 is_stmt 0              @ ../drv/fm411_driver.c:253:20
	bl	dev_fm11_ReadReg
	movs	r1, #63
	.loc	2 253 65                        @ ../drv/fm411_driver.c:253:65
	ands	r0, r1
	.loc	2 253 7                         @ ../drv/fm411_driver.c:253:7
	str	r0, [sp, #4]
	.loc	2 255 20 is_stmt 1              @ ../drv/fm411_driver.c:255:20
	ldr	r0, [sp, #16]
	add	r1, sp, #4
	.loc	2 255 24 is_stmt 0              @ ../drv/fm411_driver.c:255:24
	ldrb	r1, [r1]
	.loc	2 255 30                        @ ../drv/fm411_driver.c:255:30
	ldr	r2, [sp, #12]
	.loc	2 255 35                        @ ../drv/fm411_driver.c:255:35
	ldr	r3, [sp, #8]
	.loc	2 255 30                        @ ../drv/fm411_driver.c:255:30
	adds	r2, r2, r3
	.loc	2 255 2                         @ ../drv/fm411_driver.c:255:2
	bl	dev_fm11_ReadFIFO
	.loc	2 256 10 is_stmt 1              @ ../drv/fm411_driver.c:256:10
	ldr	r1, [sp, #4]
	.loc	2 256 7 is_stmt 0               @ ../drv/fm411_driver.c:256:7
	ldr	r0, [sp, #8]
	adds	r0, r0, r1
	str	r0, [sp, #8]
.Ltmp120:
	.loc	2 266 5 is_stmt 1               @ ../drv/fm411_driver.c:266:5
	ldr	r0, [sp, #8]
.Ltmp121:
	.loc	2 266 5 is_stmt 0               @ ../drv/fm411_driver.c:266:5
	cmp	r0, #2
	bhi	.LBB11_10
	b	.LBB11_9
.LBB11_9:
	.loc	2 0 5                           @ ../drv/fm411_driver.c:0:5
	movs	r0, #0
.Ltmp122:
	.loc	2 266 18                        @ ../drv/fm411_driver.c:266:18
	str	r0, [sp, #20]
	b	.LBB11_11
.Ltmp123:
.LBB11_10:
	.loc	2 267 7 is_stmt 1               @ ../drv/fm411_driver.c:267:7
	ldr	r0, [sp, #8]
	subs	r0, r0, #2
	str	r0, [sp, #8]
	.loc	2 268 9                         @ ../drv/fm411_driver.c:268:9
	ldr	r0, [sp, #8]
	.loc	2 268 2 is_stmt 0               @ ../drv/fm411_driver.c:268:2
	str	r0, [sp, #20]
	b	.LBB11_11
.LBB11_11:
	.loc	2 269 1 is_stmt 1               @ ../drv/fm411_driver.c:269:1
	ldr	r0, [sp, #20]
	add	sp, #24
	pop	{r7, pc}
.Ltmp124:
	.p2align	2
@ %bb.12:
	.loc	2 0 1 is_stmt 0                 @ ../drv/fm411_driver.c:0:1
__arm_cp.11_0:
	.long	65522                           @ 0xfff2
.Lcpi_end13:
	.size	__arm_cp.11_0, .Lcpi_end13-__arm_cp.11_0
.Lfunc_end11:
	.size	dev_fm11_RFDataRx, .Lfunc_end11-dev_fm11_RFDataRx
	.cfi_endproc
	.cantunwind
	.fnend
                                        @ -- End function
	.section	.text.dev_fm11_RFDataTx,"ax",%progbits
	.hidden	dev_fm11_RFDataTx               @ -- Begin function dev_fm11_RFDataTx
	.globl	dev_fm11_RFDataTx
	.p2align	2
	.type	dev_fm11_RFDataTx,%function
	.code	16                              @ @dev_fm11_RFDataTx
	.thumb_func
dev_fm11_RFDataTx:
.Lfunc_begin12:
	.loc	2 279 0 is_stmt 1               @ ../drv/fm411_driver.c:279:0
	.fnstart
	.cfi_startproc
@ %bb.0:
	.save	{r7, lr}
	push	{r7, lr}
	.cfi_def_cfa_offset 8
	.cfi_offset lr, -4
	.cfi_offset r7, -8
	.pad	#24
	sub	sp, #24
	.cfi_def_cfa_offset 32
	str	r0, [sp, #20]
	str	r1, [sp, #16]
	str	r2, [sp, #12]
.Ltmp125:
	.loc	2 283 9 prologue_end            @ ../drv/fm411_driver.c:283:9
	ldr	r0, [sp, #16]
	.loc	2 283 7 is_stmt 0               @ ../drv/fm411_driver.c:283:7
	str	r0, [sp, #8]
	.loc	2 284 9 is_stmt 1               @ ../drv/fm411_driver.c:284:9
	ldr	r0, [sp, #12]
	.loc	2 284 7 is_stmt 0               @ ../drv/fm411_driver.c:284:7
	str	r0, [sp, #4]
.Ltmp126:
	.loc	2 294 5 is_stmt 1               @ ../drv/fm411_driver.c:294:5
	ldr	r0, [sp, #8]
.Ltmp127:
	.loc	2 294 5 is_stmt 0               @ ../drv/fm411_driver.c:294:5
	cmp	r0, #32
	bhi	.LBB12_2
	b	.LBB12_1
.LBB12_1:
.Ltmp128:
	.loc	2 296 22 is_stmt 1              @ ../drv/fm411_driver.c:296:22
	ldr	r0, [sp, #20]
	.loc	2 296 26 is_stmt 0              @ ../drv/fm411_driver.c:296:26
	ldr	r1, [sp, #4]
	add	r2, sp, #8
	.loc	2 296 31                        @ ../drv/fm411_driver.c:296:31
	ldrb	r2, [r2]
	.loc	2 296 3                         @ ../drv/fm411_driver.c:296:3
	bl	dev_fm11_WriteFIFO
	movs	r0, #0
	.loc	2 297 8 is_stmt 1               @ ../drv/fm411_driver.c:297:8
	str	r0, [sp, #8]
	.loc	2 298 2                         @ ../drv/fm411_driver.c:298:2
	b	.LBB12_3
.Ltmp129:
.LBB12_2:
	.loc	2 301 22                        @ ../drv/fm411_driver.c:301:22
	ldr	r0, [sp, #20]
	.loc	2 301 26 is_stmt 0              @ ../drv/fm411_driver.c:301:26
	ldr	r1, [sp, #4]
	movs	r2, #32
	.loc	2 301 3                         @ ../drv/fm411_driver.c:301:3
	bl	dev_fm11_WriteFIFO
	.loc	2 303 8 is_stmt 1               @ ../drv/fm411_driver.c:303:8
	ldr	r0, [sp, #8]
	subs	r0, #32
	str	r0, [sp, #8]
	.loc	2 304 8                         @ ../drv/fm411_driver.c:304:8
	ldr	r0, [sp, #4]
	adds	r0, #32
	str	r0, [sp, #4]
	b	.LBB12_3
.Ltmp130:
.LBB12_3:
	.loc	2 307 20                        @ ../drv/fm411_driver.c:307:20
	ldr	r0, [sp, #20]
	ldr	r1, __arm_cp.12_0
	movs	r2, #85
	.loc	2 307 2 is_stmt 0               @ ../drv/fm411_driver.c:307:2
	bl	dev_fm11_WriteReg
	.loc	2 309 2 is_stmt 1               @ ../drv/fm411_driver.c:309:2
	b	.LBB12_4
.LBB12_4:                               @ =>This Inner Loop Header: Depth=1
	.loc	2 309 8 is_stmt 0               @ ../drv/fm411_driver.c:309:8
	ldr	r0, [sp, #8]
	.loc	2 309 2                         @ ../drv/fm411_driver.c:309:2
	cbz	r0, .LBB12_11
	b	.LBB12_5
.LBB12_5:                               @   in Loop: Header=BB12_4 Depth=1
.Ltmp131:
	.loc	2 311 24 is_stmt 1              @ ../drv/fm411_driver.c:311:24
	ldr	r0, [sp, #20]
	ldr	r1, __arm_cp.12_1
	.loc	2 311 7 is_stmt 0               @ ../drv/fm411_driver.c:311:7
	bl	dev_fm11_ReadReg
	movs	r1, #63
	.loc	2 311 52                        @ ../drv/fm411_driver.c:311:52
	ands	r0, r1
.Ltmp132:
	.loc	2 311 6                         @ ../drv/fm411_driver.c:311:6
	cmp	r0, #8
	bgt	.LBB12_10
	b	.LBB12_6
.LBB12_6:                               @   in Loop: Header=BB12_4 Depth=1
.Ltmp133:
	.loc	2 313 7 is_stmt 1               @ ../drv/fm411_driver.c:313:7
	ldr	r0, [sp, #8]
.Ltmp134:
	.loc	2 313 7 is_stmt 0               @ ../drv/fm411_driver.c:313:7
	cmp	r0, #24
	bhi	.LBB12_8
	b	.LBB12_7
.LBB12_7:                               @   in Loop: Header=BB12_4 Depth=1
.Ltmp135:
	.loc	2 315 24 is_stmt 1              @ ../drv/fm411_driver.c:315:24
	ldr	r0, [sp, #20]
	.loc	2 315 28 is_stmt 0              @ ../drv/fm411_driver.c:315:28
	ldr	r1, [sp, #4]
	add	r2, sp, #8
	.loc	2 315 33                        @ ../drv/fm411_driver.c:315:33
	ldrb	r2, [r2]
	.loc	2 315 5                         @ ../drv/fm411_driver.c:315:5
	bl	dev_fm11_WriteFIFO
	movs	r0, #0
	.loc	2 316 10 is_stmt 1              @ ../drv/fm411_driver.c:316:10
	str	r0, [sp, #8]
	.loc	2 317 4                         @ ../drv/fm411_driver.c:317:4
	b	.LBB12_9
.Ltmp136:
.LBB12_8:                               @   in Loop: Header=BB12_4 Depth=1
	.loc	2 320 24                        @ ../drv/fm411_driver.c:320:24
	ldr	r0, [sp, #20]
	.loc	2 320 28 is_stmt 0              @ ../drv/fm411_driver.c:320:28
	ldr	r1, [sp, #4]
	movs	r2, #24
	.loc	2 320 5                         @ ../drv/fm411_driver.c:320:5
	bl	dev_fm11_WriteFIFO
	.loc	2 322 10 is_stmt 1              @ ../drv/fm411_driver.c:322:10
	ldr	r0, [sp, #8]
	subs	r0, #24
	str	r0, [sp, #8]
	.loc	2 323 10                        @ ../drv/fm411_driver.c:323:10
	ldr	r0, [sp, #4]
	adds	r0, #24
	str	r0, [sp, #4]
	b	.LBB12_9
.Ltmp137:
.LBB12_9:                               @   in Loop: Header=BB12_4 Depth=1
	.loc	2 325 3                         @ ../drv/fm411_driver.c:325:3
	b	.LBB12_10
.Ltmp138:
.LBB12_10:                              @   in Loop: Header=BB12_4 Depth=1
	.loc	2 327 21                        @ ../drv/fm411_driver.c:327:21
	ldr	r0, [sp, #20]
	ldr	r1, __arm_cp.12_0
	movs	r2, #85
	.loc	2 327 3 is_stmt 0               @ ../drv/fm411_driver.c:327:3
	bl	dev_fm11_WriteReg
.Ltmp139:
	.loc	2 309 2 is_stmt 1               @ ../drv/fm411_driver.c:309:2
	b	.LBB12_4
.LBB12_11:
	.loc	2 329 2                         @ ../drv/fm411_driver.c:329:2
	ldr	r1, [sp, #20]
	movs	r0, #0
	.loc	2 329 18 is_stmt 0              @ ../drv/fm411_driver.c:329:18
	strb	r0, [r1, #3]
	.loc	2 330 1 is_stmt 1               @ ../drv/fm411_driver.c:330:1
	add	sp, #24
	pop	{r7, pc}
.Ltmp140:
	.p2align	2
@ %bb.12:
	.loc	2 0 1 is_stmt 0                 @ ../drv/fm411_driver.c:0:1
__arm_cp.12_0:
	.long	65524                           @ 0xfff4
.Lcpi_end14:
	.size	__arm_cp.12_0, .Lcpi_end14-__arm_cp.12_0
__arm_cp.12_1:
	.long	65522                           @ 0xfff2
.Lcpi_end15:
	.size	__arm_cp.12_1, .Lcpi_end15-__arm_cp.12_1
.Lfunc_end12:
	.size	dev_fm11_RFDataTx, .Lfunc_end12-dev_fm11_RFDataTx
	.cfi_endproc
	.cantunwind
	.fnend
                                        @ -- End function
	.type	.L__const.dev_fm11_init.w_buf,%object @ @__const.dev_fm11_init.w_buf
	.section	.rodata.cst4,"aM",%progbits,4
.L__const.dev_fm11_init.w_buf:
	.ascii	"\220\200\021\376"
	.size	.L__const.dev_fm11_init.w_buf, 4

	.file	4 "E:\\work\\CX_NFC_RX\\prj" "../drv/fm411_driver.h"
	.section	".note.GNU-stack","",%progbits
	.eabi_attribute	30, 6	@ Tag_ABI_optimization_goals
	.ARM_attribute	16, 1	@ Tag_AV_eba