	.text
	.syntax unified
	.eabi_attribute	67, "2.09"	@ Tag_conformance
	.cpu	cortex-m23
	.eabi_attribute	6, 16	@ Tag_CPU_arch
	.eabi_attribute	7, 77	@ Tag_CPU_arch_profile
	.eabi_attribute	8, 0	@ Tag_ARM_ISA_use
	.eabi_attribute	9, 3	@ Tag_THUMB_ISA_use
	.eabi_attribute	34, 0	@ Tag_CPU_unaligned_access
	.eabi_attribute	17, 1	@ Tag_ABI_PCS_GOT_use
	.eabi_attribute	20, 2	@ Tag_ABI_FP_denormal
	.eabi_attribute	21, 0	@ Tag_ABI_FP_exceptions
	.eabi_attribute	23, 1	@ Tag_ABI_FP_number_model
	.eabi_attribute	24, 1	@ Tag_ABI_align_needed
	.eabi_attribute	25, 1	@ Tag_ABI_align_preserved
	.eabi_attribute	38, 1	@ Tag_ABI_FP_16bit_format
	.eabi_attribute	18, 2	@ Tag_ABI_PCS_wchar_t
	.eabi_attribute	26, 1	@ Tag_ABI_enum_size
	.eabi_attribute	14, 0	@ Tag_ABI_PCS_R9_use
	.file	"gd32c2x1_fmc.c"
	.file	1 "E:\\work\\CX_NFC_RX\\prj" "../std/GD32C2x1_Firmware_Library/CMSIS/GD/GD32C2x1/Include/gd32c2x1.h"
	.file	2 "E:\\work\\CX_NFC_RX\\prj" "../std/GD32C2x1_Firmware_Library/GD32C2x1_standard_peripheral/Include\\gd32c2x1_fmc.h"
	.file	3 "D:\\Keil_v5\\ARM\\ARMCLANG\\Bin\\..\\include" "stdint.h"
	.section	.text.fmc_unlock,"ax",%progbits
	.hidden	fmc_unlock                      @ -- Begin function fmc_unlock
	.globl	fmc_unlock
	.p2align	2
	.type	fmc_unlock,%function
	.code	16                              @ @fmc_unlock
	.thumb_func
fmc_unlock:
.Lfunc_begin0:
	.file	4 "E:\\work\\CX_NFC_RX\\prj" "../std/GD32C2x1_Firmware_Library/GD32C2x1_standard_peripheral/Source/gd32c2x1_fmc.c"
	.loc	4 50 0                          @ ../std/GD32C2x1_Firmware_Library/GD32C2x1_standard_peripheral/Source/gd32c2x1_fmc.c:50:0
	.fnstart
	.cfi_sections .debug_frame
	.cfi_startproc
@ %bb.0:
	ldr	r0, __arm_cp.0_0
.Ltmp0:
	.loc	4 51 15 prologue_end            @ ../std/GD32C2x1_Firmware_Library/GD32C2x1_standard_peripheral/Source/gd32c2x1_fmc.c:51:15
	ldr	r0, [r0]
.Ltmp1:
	.loc	4 51 8 is_stmt 0                @ ../std/GD32C2x1_Firmware_Library/GD32C2x1_standard_peripheral/Source/gd32c2x1_fmc.c:51:8
	lsrs	r0, r0, #31
	cbz	r0, .LBB0_2
	b	.LBB0_1
.LBB0_1:
	.loc	4 0 8                           @ ../std/GD32C2x1_Firmware_Library/GD32C2x1_standard_peripheral/Source/gd32c2x1_fmc.c:0:8
	ldr	r1, __arm_cp.0_1
	ldr	r0, __arm_cp.0_2
.Ltmp2:
	.loc	4 53 17 is_stmt 1               @ ../std/GD32C2x1_Firmware_Library/GD32C2x1_standard_peripheral/Source/gd32c2x1_fmc.c:53:17
	str	r0, [r1]
	ldr	r0, __arm_cp.0_3
	.loc	4 54 17                         @ ../std/GD32C2x1_Firmware_Library/GD32C2x1_standard_peripheral/Source/gd32c2x1_fmc.c:54:17
	str	r0, [r1]
	.loc	4 55 5                          @ ../std/GD32C2x1_Firmware_Library/GD32C2x1_standard_peripheral/Source/gd32c2x1_fmc.c:55:5
	b	.LBB0_2
.Ltmp3:
.LBB0_2:
	.loc	4 56 1                          @ ../std/GD32C2x1_Firmware_Library/GD32C2x1_standard_peripheral/Source/gd32c2x1_fmc.c:56:1
	bx	lr
.Ltmp4:
	.p2align	2
@ %bb.3:
	.loc	4 0 1 is_stmt 0                 @ ../std/GD32C2x1_Firmware_Library/GD32C2x1_standard_peripheral/Source/gd32c2x1_fmc.c:0:1
__arm_cp.0_0:
	.long	1073881108                      @ 0x40022014
.Lcpi_end0:
	.size	__arm_cp.0_0, .Lcpi_end0-__arm_cp.0_0
__arm_cp.0_1:
	.long	1073881096                      @ 0x40022008
.Lcpi_end1:
	.size	__arm_cp.0_1, .Lcpi_end1-__arm_cp.0_1
__arm_cp.0_2:
	.long	1164378403                      @ 0x45670123
.Lcpi_end2:
	.size	__arm_cp.0_2, .Lcpi_end2-__arm_cp.0_2
__arm_cp.0_3:
	.long	3455027627                      @ 0xcdef89ab
.Lcpi_end3:
	.size	__arm_cp.0_3, .Lcpi_end3-__arm_cp.0_3
.Lfunc_end0:
	.size	fmc_unlock, .Lfunc_end0-fmc_unlock
	.cfi_endproc
	.cantunwind
	.fnend
                                        @ -- End function
	.section	.text.fmc_lock,"ax",%progbits
	.hidden	fmc_lock                        @ -- Begin function fmc_lock
	.globl	fmc_lock
	.p2align	2
	.type	fmc_lock,%function
	.code	16                              @ @fmc_lock
	.thumb_func
fmc_lock:
.Lfunc_begin1:
	.loc	4 66 0 is_stmt 1                @ ../std/GD32C2x1_Firmware_Library/GD32C2x1_standard_peripheral/Source/gd32c2x1_fmc.c:66:0
	.fnstart
	.cfi_startproc
@ %bb.0:
	ldr	r1, __arm_cp.1_0
.Ltmp5:
	.loc	4 68 13 prologue_end            @ ../std/GD32C2x1_Firmware_Library/GD32C2x1_standard_peripheral/Source/gd32c2x1_fmc.c:68:13
	ldr	r0, [r1]
	movs	r2, #1
	lsls	r2, r2, #31
	orrs	r0, r2
	str	r0, [r1]
	.loc	4 69 1                          @ ../std/GD32C2x1_Firmware_Library/GD32C2x1_standard_peripheral/Source/gd32c2x1_fmc.c:69:1
	bx	lr
.Ltmp6:
	.p2align	2
@ %bb.1:
	.loc	4 0 1 is_stmt 0                 @ ../std/GD32C2x1_Firmware_Library/GD32C2x1_standard_peripheral/Source/gd32c2x1_fmc.c:0:1
__arm_cp.1_0:
	.long	1073881108                      @ 0x40022014
.Lcpi_end4:
	.size	__arm_cp.1_0, .Lcpi_end4-__arm_cp.1_0
.Lfunc_end1:
	.size	fmc_lock, .Lfunc_end1-fmc_lock
	.cfi_endproc
	.cantunwind
	.fnend
                                        @ -- End function
	.section	.text.fmc_main_flash_empty_stat_get,"ax",%progbits
	.hidden	fmc_main_flash_empty_stat_get   @ -- Begin function fmc_main_flash_empty_stat_get
	.globl	fmc_main_flash_empty_stat_get
	.p2align	2
	.type	fmc_main_flash_empty_stat_get,%function
	.code	16                              @ @fmc_main_flash_empty_stat_get
	.thumb_func
fmc_main_flash_empty_stat_get:
.Lfunc_begin2:
	.loc	4 78 0 is_stmt 1                @ ../std/GD32C2x1_Firmware_Library/GD32C2x1_standard_peripheral/Source/gd32c2x1_fmc.c:78:0
	.fnstart
	.cfi_startproc
@ %bb.0:
	.pad	#4
	sub	sp, #4
	.cfi_def_cfa_offset 4
	ldr	r0, __arm_cp.2_0
.Ltmp7:
	.loc	4 81 13 prologue_end            @ ../std/GD32C2x1_Firmware_Library/GD32C2x1_standard_peripheral/Source/gd32c2x1_fmc.c:81:13
	ldr	r0, [r0]
.Ltmp8:
	.loc	4 81 8 is_stmt 0                @ ../std/GD32C2x1_Firmware_Library/GD32C2x1_standard_peripheral/Source/gd32c2x1_fmc.c:81:8
	lsls	r0, r0, #15
	cmp	r0, #0
	bpl	.LBB2_2
	b	.LBB2_1
.LBB2_1:
	.loc	4 0 8                           @ ../std/GD32C2x1_Firmware_Library/GD32C2x1_standard_peripheral/Source/gd32c2x1_fmc.c:0:8
	mov	r1, sp
	movs	r0, #1
.Ltmp9:
	.loc	4 82 16 is_stmt 1               @ ../std/GD32C2x1_Firmware_Library/GD32C2x1_standard_peripheral/Source/gd32c2x1_fmc.c:82:16
	strb	r0, [r1]
	.loc	4 83 5                          @ ../std/GD32C2x1_Firmware_Library/GD32C2x1_standard_peripheral/Source/gd32c2x1_fmc.c:83:5
	b	.LBB2_3
.Ltmp10:
.LBB2_2:
	.loc	4 0 5 is_stmt 0                 @ ../std/GD32C2x1_Firmware_Library/GD32C2x1_standard_peripheral/Source/gd32c2x1_fmc.c:0:5
	mov	r1, sp
	movs	r0, #0
.Ltmp11:
	.loc	4 84 16 is_stmt 1               @ ../std/GD32C2x1_Firmware_Library/GD32C2x1_standard_peripheral/Source/gd32c2x1_fmc.c:84:16
	strb	r0, [r1]
	b	.LBB2_3
.Ltmp12:
.LBB2_3:
	.loc	4 0 16 is_stmt 0                @ ../std/GD32C2x1_Firmware_Library/GD32C2x1_standard_peripheral/Source/gd32c2x1_fmc.c:0:16
	mov	r0, sp
	.loc	4 87 12 is_stmt 1               @ ../std/GD32C2x1_Firmware_Library/GD32C2x1_standard_peripheral/Source/gd32c2x1_fmc.c:87:12
	ldrb	r0, [r0]
	.loc	4 87 5 is_stmt 0                @ ../std/GD32C2x1_Firmware_Library/GD32C2x1_standard_peripheral/Source/gd32c2x1_fmc.c:87:5
	add	sp, #4
	bx	lr
.Ltmp13:
	.p2align	2
@ %bb.4:
	.loc	4 0 5                           @ ../std/GD32C2x1_Firmware_Library/GD32C2x1_standard_peripheral/Source/gd32c2x1_fmc.c:0:5
__arm_cp.2_0:
	.long	1073881088                      @ 0x40022000
.Lcpi_end5:
	.size	__arm_cp.2_0, .Lcpi_end5-__arm_cp.2_0
.Lfunc_end2:
	.size	fmc_main_flash_empty_stat_get, .Lfunc_end2-fmc_main_flash_empty_stat_get
	.cfi_endproc
	.cantunwind
	.fnend
                                        @ -- End function
	.section	.text.fmc_main_flash_empty_stat_modify,"ax",%progbits
	.hidden	fmc_main_flash_empty_stat_modify @ -- Begin function fmc_main_flash_empty_stat_modify
	.globl	fmc_main_flash_empty_stat_modify
	.p2align	2
	.type	fmc_main_flash_empty_stat_modify,%function
	.code	16                              @ @fmc_main_flash_empty_stat_modify
	.thumb_func
fmc_main_flash_empty_stat_modify:
.Lfunc_begin3:
	.loc	4 100 0 is_stmt 1               @ ../std/GD32C2x1_Firmware_Library/GD32C2x1_standard_peripheral/Source/gd32c2x1_fmc.c:100:0
	.fnstart
	.cfi_startproc
@ %bb.0:
	.pad	#4
	sub	sp, #4
	.cfi_def_cfa_offset 4
	str	r0, [sp]
	ldr	r1, __arm_cp.3_0
.Ltmp14:
	.loc	4 101 12 prologue_end           @ ../std/GD32C2x1_Firmware_Library/GD32C2x1_standard_peripheral/Source/gd32c2x1_fmc.c:101:12
	ldr	r2, [r1]
	movs	r0, #1
	lsls	r0, r0, #16
	bics	r2, r0
	str	r2, [r1]
	.loc	4 102 15                        @ ../std/GD32C2x1_Firmware_Library/GD32C2x1_standard_peripheral/Source/gd32c2x1_fmc.c:102:15
	ldr	r2, [sp]
	.loc	4 102 34 is_stmt 0              @ ../std/GD32C2x1_Firmware_Library/GD32C2x1_standard_peripheral/Source/gd32c2x1_fmc.c:102:34
	ands	r2, r0
	.loc	4 102 12                        @ ../std/GD32C2x1_Firmware_Library/GD32C2x1_standard_peripheral/Source/gd32c2x1_fmc.c:102:12
	ldr	r0, [r1]
	orrs	r0, r2
	str	r0, [r1]
	.loc	4 103 1 is_stmt 1               @ ../std/GD32C2x1_Firmware_Library/GD32C2x1_standard_peripheral/Source/gd32c2x1_fmc.c:103:1
	add	sp, #4
	bx	lr
.Ltmp15:
	.p2align	2
@ %bb.1:
	.loc	4 0 1 is_stmt 0                 @ ../std/GD32C2x1_Firmware_Library/GD32C2x1_standard_peripheral/Source/gd32c2x1_fmc.c:0:1
__arm_cp.3_0:
	.long	1073881088                      @ 0x40022000
.Lcpi_end6:
	.size	__arm_cp.3_0, .Lcpi_end6-__arm_cp.3_0
.Lfunc_end3:
	.size	fmc_main_flash_empty_stat_modify, .Lfunc_end3-fmc_main_flash_empty_stat_modify
	.cfi_endproc
	.cantunwind
	.fnend
                                        @ -- End function
	.section	.text.fmc_wscnt_set,"ax",%progbits
	.hidden	fmc_wscnt_set                   @ -- Begin function fmc_wscnt_set
	.globl	fmc_wscnt_set
	.p2align	2
	.type	fmc_wscnt_set,%function
	.code	16                              @ @fmc_wscnt_set
	.thumb_func
fmc_wscnt_set:
.Lfunc_begin4:
	.loc	4 115 0 is_stmt 1               @ ../std/GD32C2x1_Firmware_Library/GD32C2x1_standard_peripheral/Source/gd32c2x1_fmc.c:115:0
	.fnstart
	.cfi_startproc
@ %bb.0:
	.pad	#8
	sub	sp, #8
	.cfi_def_cfa_offset 8
	str	r0, [sp, #4]
	movs	r0, #0
.Ltmp16:
	.loc	4 116 14 prologue_end           @ ../std/GD32C2x1_Firmware_Library/GD32C2x1_standard_peripheral/Source/gd32c2x1_fmc.c:116:14
	str	r0, [sp]
	ldr	r1, __arm_cp.4_0
.Ltmp17:
	.loc	4 124 15                        @ ../std/GD32C2x1_Firmware_Library/GD32C2x1_standard_peripheral/Source/gd32c2x1_fmc.c:124:15
	ldr	r0, [r1]
	.loc	4 124 13 is_stmt 0              @ ../std/GD32C2x1_Firmware_Library/GD32C2x1_standard_peripheral/Source/gd32c2x1_fmc.c:124:13
	str	r0, [sp]
	.loc	4 125 13 is_stmt 1              @ ../std/GD32C2x1_Firmware_Library/GD32C2x1_standard_peripheral/Source/gd32c2x1_fmc.c:125:13
	ldr	r2, [sp]
	movs	r0, #7
	bics	r2, r0
	str	r2, [sp]
	.loc	4 126 16                        @ ../std/GD32C2x1_Firmware_Library/GD32C2x1_standard_peripheral/Source/gd32c2x1_fmc.c:126:16
	ldr	r2, [sp, #4]
	.loc	4 126 22 is_stmt 0              @ ../std/GD32C2x1_Firmware_Library/GD32C2x1_standard_peripheral/Source/gd32c2x1_fmc.c:126:22
	ands	r2, r0
	.loc	4 126 13                        @ ../std/GD32C2x1_Firmware_Library/GD32C2x1_standard_peripheral/Source/gd32c2x1_fmc.c:126:13
	ldr	r0, [sp]
	orrs	r0, r2
	str	r0, [sp]
	.loc	4 127 18 is_stmt 1              @ ../std/GD32C2x1_Firmware_Library/GD32C2x1_standard_peripheral/Source/gd32c2x1_fmc.c:127:18
	ldr	r0, [sp]
	.loc	4 127 16 is_stmt 0              @ ../std/GD32C2x1_Firmware_Library/GD32C2x1_standard_peripheral/Source/gd32c2x1_fmc.c:127:16
	str	r0, [r1]
.Ltmp18:
	.loc	4 129 1 is_stmt 1               @ ../std/GD32C2x1_Firmware_Library/GD32C2x1_standard_peripheral/Source/gd32c2x1_fmc.c:129:1
	add	sp, #8
	bx	lr
.Ltmp19:
	.p2align	2
@ %bb.1:
	.loc	4 0 1 is_stmt 0                 @ ../std/GD32C2x1_Firmware_Library/GD32C2x1_standard_peripheral/Source/gd32c2x1_fmc.c:0:1
__arm_cp.4_0:
	.long	1073881088                      @ 0x40022000
.Lcpi_end7:
	.size	__arm_cp.4_0, .Lcpi_end7-__arm_cp.4_0
.Lfunc_end4:
	.size	fmc_wscnt_set, .Lfunc_end4-fmc_wscnt_set
	.cfi_endproc
	.cantunwind
	.fnend
                                        @ -- End function
	.section	.text.fmc_prefetch_enable,"ax",%progbits
	.hidden	fmc_prefetch_enable             @ -- Begin function fmc_prefetch_enable
	.globl	fmc_prefetch_enable
	.p2align	2
	.type	fmc_prefetch_enable,%function
	.code	16                              @ @fmc_prefetch_enable
	.thumb_func
fmc_prefetch_enable:
.Lfunc_begin5:
	.loc	4 138 0 is_stmt 1               @ ../std/GD32C2x1_Firmware_Library/GD32C2x1_standard_peripheral/Source/gd32c2x1_fmc.c:138:0
	.fnstart
	.cfi_startproc
@ %bb.0:
	ldr	r1, __arm_cp.5_0
.Ltmp20:
	.loc	4 139 12 prologue_end           @ ../std/GD32C2x1_Firmware_Library/GD32C2x1_standard_peripheral/Source/gd32c2x1_fmc.c:139:12
	ldr	r0, [r1]
	movw	r2, #256
	orrs	r0, r2
	str	r0, [r1]
	.loc	4 140 1                         @ ../std/GD32C2x1_Firmware_Library/GD32C2x1_standard_peripheral/Source/gd32c2x1_fmc.c:140:1
	bx	lr
.Ltmp21:
	.p2align	2
@ %bb.1:
	.loc	4 0 1 is_stmt 0                 @ ../std/GD32C2x1_Firmware_Library/GD32C2x1_standard_peripheral/Source/gd32c2x1_fmc.c:0:1
__arm_cp.5_0:
	.long	1073881088                      @ 0x40022000
.Lcpi_end8:
	.size	__arm_cp.5_0, .Lcpi_end8-__arm_cp.5_0
.Lfunc_end5:
	.size	fmc_prefetch_enable, .Lfunc_end5-fmc_prefetch_enable
	.cfi_endproc
	.cantunwind
	.fnend
                                        @ -- End function
	.section	.text.fmc_prefetch_disable,"ax",%progbits
	.hidden	fmc_prefetch_disable            @ -- Begin function fmc_prefetch_disable
	.globl	fmc_prefetch_disable
	.p2align	2
	.type	fmc_prefetch_disable,%function
	.code	16                              @ @fmc_prefetch_disable
	.thumb_func
fmc_prefetch_disable:
.Lfunc_begin6:
	.loc	4 149 0 is_stmt 1               @ ../std/GD32C2x1_Firmware_Library/GD32C2x1_standard_peripheral/Source/gd32c2x1_fmc.c:149:0
	.fnstart
	.cfi_startproc
@ %bb.0:
	ldr	r1, __arm_cp.6_0
.Ltmp22:
	.loc	4 150 12 prologue_end           @ ../std/GD32C2x1_Firmware_Library/GD32C2x1_standard_peripheral/Source/gd32c2x1_fmc.c:150:12
	ldr	r0, [r1]
	movw	r2, #256
	bics	r0, r2
	str	r0, [r1]
	.loc	4 151 1                         @ ../std/GD32C2x1_Firmware_Library/GD32C2x1_standard_peripheral/Source/gd32c2x1_fmc.c:151:1
	bx	lr
.Ltmp23:
	.p2align	2
@ %bb.1:
	.loc	4 0 1 is_stmt 0                 @ ../std/GD32C2x1_Firmware_Library/GD32C2x1_standard_peripheral/Source/gd32c2x1_fmc.c:0:1
__arm_cp.6_0:
	.long	1073881088                      @ 0x40022000
.Lcpi_end9:
	.size	__arm_cp.6_0, .Lcpi_end9-__arm_cp.6_0
.Lfunc_end6:
	.size	fmc_prefetch_disable, .Lfunc_end6-fmc_prefetch_disable
	.cfi_endproc
	.cantunwind
	.fnend
                                        @ -- End function
	.section	.text.fmc_icache_enable,"ax",%progbits
	.hidden	fmc_icache_enable               @ -- Begin function fmc_icache_enable
	.globl	fmc_icache_enable
	.p2align	2
	.type	fmc_icache_enable,%function
	.code	16                              @ @fmc_icache_enable
	.thumb_func
fmc_icache_enable:
.Lfunc_begin7:
	.loc	4 160 0 is_stmt 1               @ ../std/GD32C2x1_Firmware_Library/GD32C2x1_standard_peripheral/Source/gd32c2x1_fmc.c:160:0
	.fnstart
	.cfi_startproc
@ %bb.0:
	ldr	r1, __arm_cp.7_0
.Ltmp24:
	.loc	4 161 12 prologue_end           @ ../std/GD32C2x1_Firmware_Library/GD32C2x1_standard_peripheral/Source/gd32c2x1_fmc.c:161:12
	ldr	r0, [r1]
	movw	r2, #512
	orrs	r0, r2
	str	r0, [r1]
	.loc	4 162 1                         @ ../std/GD32C2x1_Firmware_Library/GD32C2x1_standard_peripheral/Source/gd32c2x1_fmc.c:162:1
	bx	lr
.Ltmp25:
	.p2align	2
@ %bb.1:
	.loc	4 0 1 is_stmt 0                 @ ../std/GD32C2x1_Firmware_Library/GD32C2x1_standard_peripheral/Source/gd32c2x1_fmc.c:0:1
__arm_cp.7_0:
	.long	1073881088                      @ 0x40022000
.Lcpi_end10:
	.size	__arm_cp.7_0, .Lcpi_end10-__arm_cp.7_0
.Lfunc_end7:
	.size	fmc_icache_enable, .Lfunc_end7-fmc_icache_enable
	.cfi_endproc
	.cantunwind
	.fnend
                                        @ -- End function
	.section	.text.fmc_icache_disable,"ax",%progbits
	.hidden	fmc_icache_disable              @ -- Begin function fmc_icache_disable
	.globl	fmc_icache_disable
	.p2align	2
	.type	fmc_icache_disable,%function
	.code	16                              @ @fmc_icache_disable
	.thumb_func
fmc_icache_disable:
.Lfunc_begin8:
	.loc	4 171 0 is_stmt 1               @ ../std/GD32C2x1_Firmware_Library/GD32C2x1_standard_peripheral/Source/gd32c2x1_fmc.c:171:0
	.fnstart
	.cfi_startproc
@ %bb.0:
	ldr	r1, __arm_cp.8_0
.Ltmp26:
	.loc	4 172 12 prologue_end           @ ../std/GD32C2x1_Firmware_Library/GD32C2x1_standard_peripheral/Source/gd32c2x1_fmc.c:172:12
	ldr	r0, [r1]
	movw	r2, #512
	bics	r0, r2
	str	r0, [r1]
	.loc	4 173 1                         @ ../std/GD32C2x1_Firmware_Library/GD32C2x1_standard_peripheral/Source/gd32c2x1_fmc.c:173:1
	bx	lr
.Ltmp27:
	.p2align	2
@ %bb.1:
	.loc	4 0 1 is_stmt 0                 @ ../std/GD32C2x1_Firmware_Library/GD32C2x1_standard_peripheral/Source/gd32c2x1_fmc.c:0:1
__arm_cp.8_0:
	.long	1073881088                      @ 0x40022000
.Lcpi_end11:
	.size	__arm_cp.8_0, .Lcpi_end11-__arm_cp.8_0
.Lfunc_end8:
	.size	fmc_icache_disable, .Lfunc_end8-fmc_icache_disable
	.cfi_endproc
	.cantunwind
	.fnend
                                        @ -- End function
	.section	.text.fmc_icache_reset,"ax",%progbits
	.hidden	fmc_icache_reset                @ -- Begin function fmc_icache_reset
	.globl	fmc_icache_reset
	.p2align	2
	.type	fmc_icache_reset,%function
	.code	16                              @ @fmc_icache_reset
	.thumb_func
fmc_icache_reset:
.Lfunc_begin9:
	.loc	4 182 0 is_stmt 1               @ ../std/GD32C2x1_Firmware_Library/GD32C2x1_standard_peripheral/Source/gd32c2x1_fmc.c:182:0
	.fnstart
	.cfi_startproc
@ %bb.0:
	ldr	r1, __arm_cp.9_0
.Ltmp28:
	.loc	4 183 12 prologue_end           @ ../std/GD32C2x1_Firmware_Library/GD32C2x1_standard_peripheral/Source/gd32c2x1_fmc.c:183:12
	ldr	r0, [r1]
	movw	r2, #2048
	orrs	r0, r2
	str	r0, [r1]
	.loc	4 184 1                         @ ../std/GD32C2x1_Firmware_Library/GD32C2x1_standard_peripheral/Source/gd32c2x1_fmc.c:184:1
	bx	lr
.Ltmp29:
	.p2align	2
@ %bb.1:
	.loc	4 0 1 is_stmt 0                 @ ../std/GD32C2x1_Firmware_Library/GD32C2x1_standard_peripheral/Source/gd32c2x1_fmc.c:0:1
__arm_cp.9_0:
	.long	1073881088                      @ 0x40022000
.Lcpi_end12:
	.size	__arm_cp.9_0, .Lcpi_end12-__arm_cp.9_0
.Lfunc_end9:
	.size	fmc_icache_reset, .Lfunc_end9-fmc_icache_reset
	.cfi_endproc
	.cantunwind
	.fnend
                                        @ -- End function
	.section	.text.fmc_page_erase,"ax",%progbits
	.hidden	fmc_page_erase                  @ -- Begin function fmc_page_erase
	.globl	fmc_page_erase
	.p2align	2
	.type	fmc_page_erase,%function
	.code	16                              @ @fmc_page_erase
	.thumb_func
fmc_page_erase:
.Lfunc_begin10:
	.loc	4 208 0 is_stmt 1               @ ../std/GD32C2x1_Firmware_Library/GD32C2x1_standard_peripheral/Source/gd32c2x1_fmc.c:208:0
	.fnstart
	.cfi_startproc
@ %bb.0:
	.save	{r7, lr}
	push	{r7, lr}
	.cfi_def_cfa_offset 8
	.cfi_offset lr, -4
	.cfi_offset r7, -8
	.pad	#16
	sub	sp, #16
	.cfi_def_cfa_offset 24
	str	r0, [sp, #12]
	movs	r0, #0
	mvns	r0, r0
.Ltmp30:
	.loc	4 218 21 prologue_end           @ ../std/GD32C2x1_Firmware_Library/GD32C2x1_standard_peripheral/Source/gd32c2x1_fmc.c:218:21
	bl	fmc_ready_wait
	mov	r1, r0
	add	r0, sp, #8
	.loc	4 218 19 is_stmt 0              @ ../std/GD32C2x1_Firmware_Library/GD32C2x1_standard_peripheral/Source/gd32c2x1_fmc.c:218:19
	strb	r1, [r0]
.Ltmp31:
	.loc	4 220 25 is_stmt 1              @ ../std/GD32C2x1_Firmware_Library/GD32C2x1_standard_peripheral/Source/gd32c2x1_fmc.c:220:25
	ldrb	r0, [r0]
.Ltmp32:
	.loc	4 220 12 is_stmt 0              @ ../std/GD32C2x1_Firmware_Library/GD32C2x1_standard_peripheral/Source/gd32c2x1_fmc.c:220:12
	cbnz	r0, .LBB10_2
	b	.LBB10_1
.LBB10_1:
	.loc	4 0 12                          @ ../std/GD32C2x1_Firmware_Library/GD32C2x1_standard_peripheral/Source/gd32c2x1_fmc.c:0:12
	ldr	r1, __arm_cp.10_0
.Ltmp33:
	.loc	4 222 21 is_stmt 1              @ ../std/GD32C2x1_Firmware_Library/GD32C2x1_standard_peripheral/Source/gd32c2x1_fmc.c:222:21
	str	r1, [sp, #4]                    @ 4-byte Spill
	ldr	r0, [r1]
	movw	r2, #504
	bics	r0, r2
	str	r0, [r1]
	.loc	4 223 24                        @ ../std/GD32C2x1_Firmware_Library/GD32C2x1_standard_peripheral/Source/gd32c2x1_fmc.c:223:24
	ldr	r0, [sp, #12]
	.loc	4 223 36 is_stmt 0              @ ../std/GD32C2x1_Firmware_Library/GD32C2x1_standard_peripheral/Source/gd32c2x1_fmc.c:223:36
	lsls	r2, r0, #3
	.loc	4 223 21                        @ ../std/GD32C2x1_Firmware_Library/GD32C2x1_standard_peripheral/Source/gd32c2x1_fmc.c:223:21
	ldr	r0, [r1]
	orrs	r0, r2
	str	r0, [r1]
	.loc	4 224 21 is_stmt 1              @ ../std/GD32C2x1_Firmware_Library/GD32C2x1_standard_peripheral/Source/gd32c2x1_fmc.c:224:21
	ldr	r0, [r1]
	movs	r2, #2
	str	r2, [sp]                        @ 4-byte Spill
	orrs	r0, r2
	str	r0, [r1]
	.loc	4 227 21                        @ ../std/GD32C2x1_Firmware_Library/GD32C2x1_standard_peripheral/Source/gd32c2x1_fmc.c:227:21
	ldr	r0, [r1]
	movs	r2, #1
	lsls	r2, r2, #16
	orrs	r0, r2
	str	r0, [r1]
	movs	r0, #0
	mvns	r0, r0
	.loc	4 230 25                        @ ../std/GD32C2x1_Firmware_Library/GD32C2x1_standard_peripheral/Source/gd32c2x1_fmc.c:230:25
	bl	fmc_ready_wait
	ldr	r2, [sp]                        @ 4-byte Reload
	ldr	r1, [sp, #4]                    @ 4-byte Reload
	add	r3, sp, #8
	.loc	4 230 23 is_stmt 0              @ ../std/GD32C2x1_Firmware_Library/GD32C2x1_standard_peripheral/Source/gd32c2x1_fmc.c:230:23
	strb	r0, [r3]
	.loc	4 232 21 is_stmt 1              @ ../std/GD32C2x1_Firmware_Library/GD32C2x1_standard_peripheral/Source/gd32c2x1_fmc.c:232:21
	ldr	r0, [r1]
	bics	r0, r2
	str	r0, [r1]
	.loc	4 233 9                         @ ../std/GD32C2x1_Firmware_Library/GD32C2x1_standard_peripheral/Source/gd32c2x1_fmc.c:233:9
	b	.LBB10_2
.Ltmp34:
.LBB10_2:
	.loc	4 0 9 is_stmt 0                 @ ../std/GD32C2x1_Firmware_Library/GD32C2x1_standard_peripheral/Source/gd32c2x1_fmc.c:0:9
	add	r0, sp, #8
	.loc	4 236 12 is_stmt 1              @ ../std/GD32C2x1_Firmware_Library/GD32C2x1_standard_peripheral/Source/gd32c2x1_fmc.c:236:12
	ldrb	r0, [r0]
	.loc	4 236 5 is_stmt 0               @ ../std/GD32C2x1_Firmware_Library/GD32C2x1_standard_peripheral/Source/gd32c2x1_fmc.c:236:5
	add	sp, #16
	pop	{r7, pc}
.Ltmp35:
	.p2align	2
@ %bb.3:
	.loc	4 0 5                           @ ../std/GD32C2x1_Firmware_Library/GD32C2x1_standard_peripheral/Source/gd32c2x1_fmc.c:0:5
__arm_cp.10_0:
	.long	1073881108                      @ 0x40022014
.Lcpi_end13:
	.size	__arm_cp.10_0, .Lcpi_end13-__arm_cp.10_0
.Lfunc_end10:
	.size	fmc_page_erase, .Lfunc_end10-fmc_page_erase
	.cfi_endproc
	.cantunwind
	.fnend
                                        @ -- End function
	.section	.text.fmc_ready_wait,"ax",%progbits
	.hidden	fmc_ready_wait                  @ -- Begin function fmc_ready_wait
	.globl	fmc_ready_wait
	.p2align	1
	.type	fmc_ready_wait,%function
	.code	16                              @ @fmc_ready_wait
	.thumb_func
fmc_ready_wait:
.Lfunc_begin11:
	.loc	4 1234 0 is_stmt 1              @ ../std/GD32C2x1_Firmware_Library/GD32C2x1_standard_peripheral/Source/gd32c2x1_fmc.c:1234:0
	.fnstart
	.cfi_startproc
@ %bb.0:
	.save	{r7, lr}
	push	{r7, lr}
	.cfi_def_cfa_offset 8
	.cfi_offset lr, -4
	.cfi_offset r7, -8
	.pad	#16
	sub	sp, #16
	.cfi_def_cfa_offset 24
	str	r0, [sp, #12]
.Ltmp36:
	.loc	4 1238 5 prologue_end           @ ../std/GD32C2x1_Firmware_Library/GD32C2x1_standard_peripheral/Source/gd32c2x1_fmc.c:1238:5
	b	.LBB11_1
.LBB11_1:                               @ =>This Inner Loop Header: Depth=1
.Ltmp37:
	.loc	4 1240 21                       @ ../std/GD32C2x1_Firmware_Library/GD32C2x1_standard_peripheral/Source/gd32c2x1_fmc.c:1240:21
	bl	fmc_state_get
	add	r1, sp, #8
	.loc	4 1240 19 is_stmt 0             @ ../std/GD32C2x1_Firmware_Library/GD32C2x1_standard_peripheral/Source/gd32c2x1_fmc.c:1240:19
	strb	r0, [r1]
	.loc	4 1241 16 is_stmt 1             @ ../std/GD32C2x1_Firmware_Library/GD32C2x1_standard_peripheral/Source/gd32c2x1_fmc.c:1241:16
	ldr	r0, [sp, #12]
	subs	r0, r0, #1
	str	r0, [sp, #12]
	.loc	4 1242 5                        @ ../std/GD32C2x1_Firmware_Library/GD32C2x1_standard_peripheral/Source/gd32c2x1_fmc.c:1242:5
	b	.LBB11_2
.Ltmp38:
.LBB11_2:                               @   in Loop: Header=BB11_1 Depth=1
	.loc	4 0 5 is_stmt 0                 @ ../std/GD32C2x1_Firmware_Library/GD32C2x1_standard_peripheral/Source/gd32c2x1_fmc.c:0:5
	add	r0, sp, #8
	.loc	4 1242 26                       @ ../std/GD32C2x1_Firmware_Library/GD32C2x1_standard_peripheral/Source/gd32c2x1_fmc.c:1242:26
	ldrb	r1, [r0]
	movs	r0, #0
	.loc	4 1242 37                       @ ../std/GD32C2x1_Firmware_Library/GD32C2x1_standard_peripheral/Source/gd32c2x1_fmc.c:1242:37
	cmp	r1, #1
	str	r0, [sp, #4]                    @ 4-byte Spill
	bne	.LBB11_4
	b	.LBB11_3
.LBB11_3:                               @   in Loop: Header=BB11_1 Depth=1
	.loc	4 1242 50                       @ ../std/GD32C2x1_Firmware_Library/GD32C2x1_standard_peripheral/Source/gd32c2x1_fmc.c:1242:50
	ldr	r0, [sp, #12]
	.loc	4 1242 47                       @ ../std/GD32C2x1_Firmware_Library/GD32C2x1_standard_peripheral/Source/gd32c2x1_fmc.c:1242:47
	subs	r1, r0, #1
	sbcs	r0, r1
	str	r0, [sp, #4]                    @ 4-byte Spill
	b	.LBB11_4
.LBB11_4:                               @   in Loop: Header=BB11_1 Depth=1
	.loc	4 0 0                           @ ../std/GD32C2x1_Firmware_Library/GD32C2x1_standard_peripheral/Source/gd32c2x1_fmc.c:0:0
	ldr	r0, [sp, #4]                    @ 4-byte Reload
.Ltmp39:
	.loc	4 1242 5                        @ ../std/GD32C2x1_Firmware_Library/GD32C2x1_standard_peripheral/Source/gd32c2x1_fmc.c:1242:5
	lsls	r0, r0, #31
	cmp	r0, #0
	bne	.LBB11_1
	b	.LBB11_5
.Ltmp40:
.LBB11_5:
	.loc	4 0 5                           @ ../std/GD32C2x1_Firmware_Library/GD32C2x1_standard_peripheral/Source/gd32c2x1_fmc.c:0:5
	add	r0, sp, #8
.Ltmp41:
	.loc	4 1244 20 is_stmt 1             @ ../std/GD32C2x1_Firmware_Library/GD32C2x1_standard_peripheral/Source/gd32c2x1_fmc.c:1244:20
	ldrb	r0, [r0]
.Ltmp42:
	.loc	4 1244 8 is_stmt 0              @ ../std/GD32C2x1_Firmware_Library/GD32C2x1_standard_peripheral/Source/gd32c2x1_fmc.c:1244:8
	cmp	r0, #1
	bne	.LBB11_7
	b	.LBB11_6
.LBB11_6:
	.loc	4 0 8                           @ ../std/GD32C2x1_Firmware_Library/GD32C2x1_standard_peripheral/Source/gd32c2x1_fmc.c:0:8
	add	r1, sp, #8
	movs	r0, #11
.Ltmp43:
	.loc	4 1245 19 is_stmt 1             @ ../std/GD32C2x1_Firmware_Library/GD32C2x1_standard_peripheral/Source/gd32c2x1_fmc.c:1245:19
	strb	r0, [r1]
	.loc	4 1246 5                        @ ../std/GD32C2x1_Firmware_Library/GD32C2x1_standard_peripheral/Source/gd32c2x1_fmc.c:1246:5
	b	.LBB11_7
.Ltmp44:
.LBB11_7:
	.loc	4 0 5 is_stmt 0                 @ ../std/GD32C2x1_Firmware_Library/GD32C2x1_standard_peripheral/Source/gd32c2x1_fmc.c:0:5
	add	r0, sp, #8
	.loc	4 1248 12 is_stmt 1             @ ../std/GD32C2x1_Firmware_Library/GD32C2x1_standard_peripheral/Source/gd32c2x1_fmc.c:1248:12
	ldrb	r0, [r0]
	.loc	4 1248 5 is_stmt 0              @ ../std/GD32C2x1_Firmware_Library/GD32C2x1_standard_peripheral/Source/gd32c2x1_fmc.c:1248:5
	add	sp, #16
	pop	{r7, pc}
.Ltmp45:
.Lfunc_end11:
	.size	fmc_ready_wait, .Lfunc_end11-fmc_ready_wait
	.cfi_endproc
	.cantunwind
	.fnend
                                        @ -- End function
	.section	.text.fmc_mass_erase,"ax",%progbits
	.hidden	fmc_mass_erase                  @ -- Begin function fmc_mass_erase
	.globl	fmc_mass_erase
	.p2align	2
	.type	fmc_mass_erase,%function
	.code	16                              @ @fmc_mass_erase
	.thumb_func
fmc_mass_erase:
.Lfunc_begin12:
	.loc	4 258 0 is_stmt 1               @ ../std/GD32C2x1_Firmware_Library/GD32C2x1_standard_peripheral/Source/gd32c2x1_fmc.c:258:0
	.fnstart
	.cfi_startproc
@ %bb.0:
	.save	{r7, lr}
	push	{r7, lr}
	.cfi_def_cfa_offset 8
	.cfi_offset lr, -4
	.cfi_offset r7, -8
	.pad	#16
	sub	sp, #16
	.cfi_def_cfa_offset 24
	movs	r0, #0
	mvns	r0, r0
.Ltmp46:
	.loc	4 262 17 prologue_end           @ ../std/GD32C2x1_Firmware_Library/GD32C2x1_standard_peripheral/Source/gd32c2x1_fmc.c:262:17
	bl	fmc_ready_wait
	mov	r1, r0
	add	r0, sp, #12
	.loc	4 262 15 is_stmt 0              @ ../std/GD32C2x1_Firmware_Library/GD32C2x1_standard_peripheral/Source/gd32c2x1_fmc.c:262:15
	strb	r1, [r0]
.Ltmp47:
	.loc	4 264 21 is_stmt 1              @ ../std/GD32C2x1_Firmware_Library/GD32C2x1_standard_peripheral/Source/gd32c2x1_fmc.c:264:21
	ldrb	r0, [r0]
.Ltmp48:
	.loc	4 264 8 is_stmt 0               @ ../std/GD32C2x1_Firmware_Library/GD32C2x1_standard_peripheral/Source/gd32c2x1_fmc.c:264:8
	cbnz	r0, .LBB12_2
	b	.LBB12_1
.LBB12_1:
	.loc	4 0 8                           @ ../std/GD32C2x1_Firmware_Library/GD32C2x1_standard_peripheral/Source/gd32c2x1_fmc.c:0:8
	ldr	r1, __arm_cp.12_0
.Ltmp49:
	.loc	4 266 17 is_stmt 1              @ ../std/GD32C2x1_Firmware_Library/GD32C2x1_standard_peripheral/Source/gd32c2x1_fmc.c:266:17
	str	r1, [sp, #8]                    @ 4-byte Spill
	ldr	r0, [r1]
	movs	r2, #4
	str	r2, [sp, #4]                    @ 4-byte Spill
	orrs	r0, r2
	str	r0, [r1]
	.loc	4 267 17                        @ ../std/GD32C2x1_Firmware_Library/GD32C2x1_standard_peripheral/Source/gd32c2x1_fmc.c:267:17
	ldr	r0, [r1]
	movs	r2, #1
	lsls	r2, r2, #16
	orrs	r0, r2
	str	r0, [r1]
	movs	r0, #0
	mvns	r0, r0
	.loc	4 270 21                        @ ../std/GD32C2x1_Firmware_Library/GD32C2x1_standard_peripheral/Source/gd32c2x1_fmc.c:270:21
	bl	fmc_ready_wait
	ldr	r2, [sp, #4]                    @ 4-byte Reload
	ldr	r1, [sp, #8]                    @ 4-byte Reload
	add	r3, sp, #12
	.loc	4 270 19 is_stmt 0              @ ../std/GD32C2x1_Firmware_Library/GD32C2x1_standard_peripheral/Source/gd32c2x1_fmc.c:270:19
	strb	r0, [r3]
	.loc	4 273 17 is_stmt 1              @ ../std/GD32C2x1_Firmware_Library/GD32C2x1_standard_peripheral/Source/gd32c2x1_fmc.c:273:17
	ldr	r0, [r1]
	bics	r0, r2
	str	r0, [r1]
	.loc	4 274 5                         @ ../std/GD32C2x1_Firmware_Library/GD32C2x1_standard_peripheral/Source/gd32c2x1_fmc.c:274:5
	b	.LBB12_2
.Ltmp50:
.LBB12_2:
	.loc	4 0 5 is_stmt 0                 @ ../std/GD32C2x1_Firmware_Library/GD32C2x1_standard_peripheral/Source/gd32c2x1_fmc.c:0:5
	add	r0, sp, #12
	.loc	4 276 12 is_stmt 1              @ ../std/GD32C2x1_Firmware_Library/GD32C2x1_standard_peripheral/Source/gd32c2x1_fmc.c:276:12
	ldrb	r0, [r0]
	.loc	4 276 5 is_stmt 0               @ ../std/GD32C2x1_Firmware_Library/GD32C2x1_standard_peripheral/Source/gd32c2x1_fmc.c:276:5
	add	sp, #16
	pop	{r7, pc}
.Ltmp51:
	.p2align	2
@ %bb.3:
	.loc	4 0 5                           @ ../std/GD32C2x1_Firmware_Library/GD32C2x1_standard_peripheral/Source/gd32c2x1_fmc.c:0:5
__arm_cp.12_0:
	.long	1073881108                      @ 0x40022014
.Lcpi_end14:
	.size	__arm_cp.12_0, .Lcpi_end14-__arm_cp.12_0
.Lfunc_end12:
	.size	fmc_mass_erase, .Lfunc_end12-fmc_mass_erase
	.cfi_endproc
	.cantunwind
	.fnend
                                        @ -- End function
	.section	.text.fmc_doubleword_program,"ax",%progbits
	.hidden	fmc_doubleword_program          @ -- Begin function fmc_doubleword_program
	.globl	fmc_doubleword_program
	.p2align	2
	.type	fmc_doubleword_program,%function
	.code	16                              @ @fmc_doubleword_program
	.thumb_func
fmc_doubleword_program:
.Lfunc_begin13:
	.loc	4 300 0 is_stmt 1               @ ../std/GD32C2x1_Firmware_Library/GD32C2x1_standard_peripheral/Source/gd32c2x1_fmc.c:300:0
	.fnstart
	.cfi_startproc
@ %bb.0:
	.save	{r7, lr}
	push	{r7, lr}
	.cfi_def_cfa_offset 8
	.cfi_offset lr, -4
	.cfi_offset r7, -8
	.pad	#40
	sub	sp, #40
	.cfi_def_cfa_offset 48
                                        @ kill: def $r1 killed $r3
                                        @ kill: def $r1 killed $r2
	str	r0, [sp, #36]
	str	r3, [sp, #28]
	str	r2, [sp, #24]
	movs	r0, #0
	mvns	r0, r0
.Ltmp52:
	.loc	4 311 21 prologue_end           @ ../std/GD32C2x1_Firmware_Library/GD32C2x1_standard_peripheral/Source/gd32c2x1_fmc.c:311:21
	bl	fmc_ready_wait
	mov	r1, r0
	add	r0, sp, #12
	.loc	4 311 19 is_stmt 0              @ ../std/GD32C2x1_Firmware_Library/GD32C2x1_standard_peripheral/Source/gd32c2x1_fmc.c:311:19
	strb	r1, [r0]
	.loc	4 313 28 is_stmt 1              @ ../std/GD32C2x1_Firmware_Library/GD32C2x1_standard_peripheral/Source/gd32c2x1_fmc.c:313:28
	ldr	r1, [sp, #24]
	.loc	4 313 15 is_stmt 0              @ ../std/GD32C2x1_Firmware_Library/GD32C2x1_standard_peripheral/Source/gd32c2x1_fmc.c:313:15
	str	r1, [sp, #20]
	.loc	4 314 29 is_stmt 1              @ ../std/GD32C2x1_Firmware_Library/GD32C2x1_standard_peripheral/Source/gd32c2x1_fmc.c:314:29
	ldr	r1, [sp, #28]
	.loc	4 314 15 is_stmt 0              @ ../std/GD32C2x1_Firmware_Library/GD32C2x1_standard_peripheral/Source/gd32c2x1_fmc.c:314:15
	str	r1, [sp, #16]
.Ltmp53:
	.loc	4 316 25 is_stmt 1              @ ../std/GD32C2x1_Firmware_Library/GD32C2x1_standard_peripheral/Source/gd32c2x1_fmc.c:316:25
	ldrb	r0, [r0]
.Ltmp54:
	.loc	4 316 12 is_stmt 0              @ ../std/GD32C2x1_Firmware_Library/GD32C2x1_standard_peripheral/Source/gd32c2x1_fmc.c:316:12
	cbnz	r0, .LBB13_2
	b	.LBB13_1
.LBB13_1:
	.loc	4 0 12                          @ ../std/GD32C2x1_Firmware_Library/GD32C2x1_standard_peripheral/Source/gd32c2x1_fmc.c:0:12
	ldr	r1, __arm_cp.13_0
.Ltmp55:
	.loc	4 318 21 is_stmt 1              @ ../std/GD32C2x1_Firmware_Library/GD32C2x1_standard_peripheral/Source/gd32c2x1_fmc.c:318:21
	str	r1, [sp, #8]                    @ 4-byte Spill
	ldr	r0, [r1]
	movs	r2, #1
	str	r2, [sp, #4]                    @ 4-byte Spill
	orrs	r0, r2
	str	r0, [r1]
	.loc	4 319 30                        @ ../std/GD32C2x1_Firmware_Library/GD32C2x1_standard_peripheral/Source/gd32c2x1_fmc.c:319:30
	ldr	r0, [sp, #20]
	.loc	4 319 13 is_stmt 0              @ ../std/GD32C2x1_Firmware_Library/GD32C2x1_standard_peripheral/Source/gd32c2x1_fmc.c:319:13
	ldr	r1, [sp, #36]
	.loc	4 319 28                        @ ../std/GD32C2x1_Firmware_Library/GD32C2x1_standard_peripheral/Source/gd32c2x1_fmc.c:319:28
	str	r0, [r1]
	.loc	4 320 35 is_stmt 1              @ ../std/GD32C2x1_Firmware_Library/GD32C2x1_standard_peripheral/Source/gd32c2x1_fmc.c:320:35
	ldr	r0, [sp, #16]
	.loc	4 320 13 is_stmt 0              @ ../std/GD32C2x1_Firmware_Library/GD32C2x1_standard_peripheral/Source/gd32c2x1_fmc.c:320:13
	ldr	r1, [sp, #36]
	.loc	4 320 33                        @ ../std/GD32C2x1_Firmware_Library/GD32C2x1_standard_peripheral/Source/gd32c2x1_fmc.c:320:33
	str	r0, [r1, #4]
	movs	r0, #0
	mvns	r0, r0
	.loc	4 323 25 is_stmt 1              @ ../std/GD32C2x1_Firmware_Library/GD32C2x1_standard_peripheral/Source/gd32c2x1_fmc.c:323:25
	bl	fmc_ready_wait
	ldr	r2, [sp, #4]                    @ 4-byte Reload
	ldr	r1, [sp, #8]                    @ 4-byte Reload
	add	r3, sp, #12
	.loc	4 323 23 is_stmt 0              @ ../std/GD32C2x1_Firmware_Library/GD32C2x1_standard_peripheral/Source/gd32c2x1_fmc.c:323:23
	strb	r0, [r3]
	.loc	4 326 21 is_stmt 1              @ ../std/GD32C2x1_Firmware_Library/GD32C2x1_standard_peripheral/Source/gd32c2x1_fmc.c:326:21
	ldr	r0, [r1]
	bics	r0, r2
	str	r0, [r1]
	.loc	4 327 9                         @ ../std/GD32C2x1_Firmware_Library/GD32C2x1_standard_peripheral/Source/gd32c2x1_fmc.c:327:9
	b	.LBB13_2
.Ltmp56:
.LBB13_2:
	.loc	4 0 9 is_stmt 0                 @ ../std/GD32C2x1_Firmware_Library/GD32C2x1_standard_peripheral/Source/gd32c2x1_fmc.c:0:9
	add	r0, sp, #12
	.loc	4 330 12 is_stmt 1              @ ../std/GD32C2x1_Firmware_Library/GD32C2x1_standard_peripheral/Source/gd32c2x1_fmc.c:330:12
	ldrb	r0, [r0]
	.loc	4 330 5 is_stmt 0               @ ../std/GD32C2x1_Firmware_Library/GD32C2x1_standard_peripheral/Source/gd32c2x1_fmc.c:330:5
	add	sp, #40
	pop	{r7, pc}
.Ltmp57:
	.p2align	2
@ %bb.3:
	.loc	4 0 5                           @ ../std/GD32C2x1_Firmware_Library/GD32C2x1_standard_peripheral/Source/gd32c2x1_fmc.c:0:5
__arm_cp.13_0:
	.long	1073881108                      @ 0x40022014
.Lcpi_end15:
	.size	__arm_cp.13_0, .Lcpi_end15-__arm_cp.13_0
.Lfunc_end13:
	.size	fmc_doubleword_program, .Lfunc_end13-fmc_doubleword_program
	.cfi_endproc
	.cantunwind
	.fnend
                                        @ -- End function
	.section	.text.fmc_fast_program,"ax",%progbits
	.hidden	fmc_fast_program                @ -- Begin function fmc_fast_program
	.globl	fmc_fast_program
	.p2align	2
	.type	fmc_fast_program,%function
	.code	16                              @ @fmc_fast_program
	.thumb_func
fmc_fast_program:
.Lfunc_begin14:
	.loc	4 354 0 is_stmt 1               @ ../std/GD32C2x1_Firmware_Library/GD32C2x1_standard_peripheral/Source/gd32c2x1_fmc.c:354:0
	.fnstart
	.cfi_startproc
@ %bb.0:
	.save	{r7, lr}
	push	{r7, lr}
	.cfi_def_cfa_offset 8
	.cfi_offset lr, -4
	.cfi_offset r7, -8
	.pad	#16
	sub	sp, #16
	.cfi_def_cfa_offset 24
	str	r0, [sp, #12]
	str	r1, [sp, #8]
	movs	r0, #0
	mvns	r0, r0
.Ltmp58:
	.loc	4 365 21 prologue_end           @ ../std/GD32C2x1_Firmware_Library/GD32C2x1_standard_peripheral/Source/gd32c2x1_fmc.c:365:21
	bl	fmc_ready_wait
	mov	r1, r0
	mov	r0, sp
	.loc	4 365 19 is_stmt 0              @ ../std/GD32C2x1_Firmware_Library/GD32C2x1_standard_peripheral/Source/gd32c2x1_fmc.c:365:19
	strb	r1, [r0]
.Ltmp59:
	.loc	4 367 25 is_stmt 1              @ ../std/GD32C2x1_Firmware_Library/GD32C2x1_standard_peripheral/Source/gd32c2x1_fmc.c:367:25
	ldrb	r0, [r0]
.Ltmp60:
	.loc	4 367 12 is_stmt 0              @ ../std/GD32C2x1_Firmware_Library/GD32C2x1_standard_peripheral/Source/gd32c2x1_fmc.c:367:12
	cbnz	r0, .LBB14_6
	b	.LBB14_1
.LBB14_1:
	.loc	4 0 12                          @ ../std/GD32C2x1_Firmware_Library/GD32C2x1_standard_peripheral/Source/gd32c2x1_fmc.c:0:12
	ldr	r1, __arm_cp.14_0
.Ltmp61:
	.loc	4 369 21 is_stmt 1              @ ../std/GD32C2x1_Firmware_Library/GD32C2x1_standard_peripheral/Source/gd32c2x1_fmc.c:369:21
	ldr	r0, [r1]
	movs	r2, #1
	lsls	r2, r2, #18
	orrs	r0, r2
	str	r0, [r1]
	add	r1, sp, #4
	movs	r0, #0
.Ltmp62:
	.loc	4 372 23                        @ ../std/GD32C2x1_Firmware_Library/GD32C2x1_standard_peripheral/Source/gd32c2x1_fmc.c:372:23
	strb	r0, [r1]
	.loc	4 372 17 is_stmt 0              @ ../std/GD32C2x1_Firmware_Library/GD32C2x1_standard_peripheral/Source/gd32c2x1_fmc.c:372:17
	b	.LBB14_2
.LBB14_2:                               @ =>This Inner Loop Header: Depth=1
	.loc	4 0 17                          @ ../std/GD32C2x1_Firmware_Library/GD32C2x1_standard_peripheral/Source/gd32c2x1_fmc.c:0:17
	add	r0, sp, #4
.Ltmp63:
	.loc	4 372 29                        @ ../std/GD32C2x1_Firmware_Library/GD32C2x1_standard_peripheral/Source/gd32c2x1_fmc.c:372:29
	ldrb	r0, [r0]
.Ltmp64:
	.loc	4 372 13                        @ ../std/GD32C2x1_Firmware_Library/GD32C2x1_standard_peripheral/Source/gd32c2x1_fmc.c:372:13
	cmp	r0, #7
	bgt	.LBB14_5
	b	.LBB14_3
.LBB14_3:                               @   in Loop: Header=BB14_2 Depth=1
.Ltmp65:
	.loc	4 373 34 is_stmt 1              @ ../std/GD32C2x1_Firmware_Library/GD32C2x1_standard_peripheral/Source/gd32c2x1_fmc.c:373:34
	ldr	r0, [sp, #8]
	ldr	r0, [r0]
	.loc	4 373 17 is_stmt 0              @ ../std/GD32C2x1_Firmware_Library/GD32C2x1_standard_peripheral/Source/gd32c2x1_fmc.c:373:17
	ldr	r1, [sp, #12]
	.loc	4 373 32                        @ ../std/GD32C2x1_Firmware_Library/GD32C2x1_standard_peripheral/Source/gd32c2x1_fmc.c:373:32
	str	r0, [r1]
	.loc	4 374 39 is_stmt 1              @ ../std/GD32C2x1_Firmware_Library/GD32C2x1_standard_peripheral/Source/gd32c2x1_fmc.c:374:39
	ldr	r0, [sp, #8]
	ldr	r0, [r0, #4]
	.loc	4 374 17 is_stmt 0              @ ../std/GD32C2x1_Firmware_Library/GD32C2x1_standard_peripheral/Source/gd32c2x1_fmc.c:374:17
	ldr	r1, [sp, #12]
	.loc	4 374 37                        @ ../std/GD32C2x1_Firmware_Library/GD32C2x1_standard_peripheral/Source/gd32c2x1_fmc.c:374:37
	str	r0, [r1, #4]
	.loc	4 375 25 is_stmt 1              @ ../std/GD32C2x1_Firmware_Library/GD32C2x1_standard_peripheral/Source/gd32c2x1_fmc.c:375:25
	ldr	r0, [sp, #12]
	adds	r0, #8
	str	r0, [sp, #12]
	.loc	4 376 26                        @ ../std/GD32C2x1_Firmware_Library/GD32C2x1_standard_peripheral/Source/gd32c2x1_fmc.c:376:26
	ldr	r0, [sp, #8]
	adds	r0, #8
	str	r0, [sp, #8]
	.loc	4 377 13                        @ ../std/GD32C2x1_Firmware_Library/GD32C2x1_standard_peripheral/Source/gd32c2x1_fmc.c:377:13
	b	.LBB14_4
.Ltmp66:
.LBB14_4:                               @   in Loop: Header=BB14_2 Depth=1
	.loc	4 372 65                        @ ../std/GD32C2x1_Firmware_Library/GD32C2x1_standard_peripheral/Source/gd32c2x1_fmc.c:372:65
	ldr	r0, [sp, #4]
	adds	r0, r0, #1
	add	r1, sp, #4
	strb	r0, [r1]
	.loc	4 372 13 is_stmt 0              @ ../std/GD32C2x1_Firmware_Library/GD32C2x1_standard_peripheral/Source/gd32c2x1_fmc.c:372:13
	b	.LBB14_2
.Ltmp67:
.LBB14_5:
	.loc	4 0 13                          @ ../std/GD32C2x1_Firmware_Library/GD32C2x1_standard_peripheral/Source/gd32c2x1_fmc.c:0:13
	movs	r0, #0
	mvns	r0, r0
	.loc	4 380 25 is_stmt 1              @ ../std/GD32C2x1_Firmware_Library/GD32C2x1_standard_peripheral/Source/gd32c2x1_fmc.c:380:25
	bl	fmc_ready_wait
	mov	r1, sp
	.loc	4 380 23 is_stmt 0              @ ../std/GD32C2x1_Firmware_Library/GD32C2x1_standard_peripheral/Source/gd32c2x1_fmc.c:380:23
	strb	r0, [r1]
	ldr	r1, __arm_cp.14_0
	.loc	4 383 21 is_stmt 1              @ ../std/GD32C2x1_Firmware_Library/GD32C2x1_standard_peripheral/Source/gd32c2x1_fmc.c:383:21
	ldr	r0, [r1]
	movs	r2, #1
	lsls	r2, r2, #18
	bics	r0, r2
	str	r0, [r1]
	.loc	4 384 9                         @ ../std/GD32C2x1_Firmware_Library/GD32C2x1_standard_peripheral/Source/gd32c2x1_fmc.c:384:9
	b	.LBB14_6
.Ltmp68:
.LBB14_6:
	.loc	4 0 9 is_stmt 0                 @ ../std/GD32C2x1_Firmware_Library/GD32C2x1_standard_peripheral/Source/gd32c2x1_fmc.c:0:9
	mov	r0, sp
	.loc	4 387 12 is_stmt 1              @ ../std/GD32C2x1_Firmware_Library/GD32C2x1_standard_peripheral/Source/gd32c2x1_fmc.c:387:12
	ldrb	r0, [r0]
	.loc	4 387 5 is_stmt 0               @ ../std/GD32C2x1_Firmware_Library/GD32C2x1_standard_peripheral/Source/gd32c2x1_fmc.c:387:5
	add	sp, #16
	pop	{r7, pc}
.Ltmp69:
	.p2align	2
@ %bb.7:
	.loc	4 0 5                           @ ../std/GD32C2x1_Firmware_Library/GD32C2x1_standard_peripheral/Source/gd32c2x1_fmc.c:0:5
__arm_cp.14_0:
	.long	1073881108                      @ 0x40022014
.Lcpi_end16:
	.size	__arm_cp.14_0, .Lcpi_end16-__arm_cp.14_0
.Lfunc_end14:
	.size	fmc_fast_program, .Lfunc_end14-fmc_fast_program
	.cfi_endproc
	.cantunwind
	.fnend
                                        @ -- End function
	.section	.text.fmc_debugger_enable,"ax",%progbits
	.hidden	fmc_debugger_enable             @ -- Begin function fmc_debugger_enable
	.globl	fmc_debugger_enable
	.p2align	2
	.type	fmc_debugger_enable,%function
	.code	16                              @ @fmc_debugger_enable
	.thumb_func
fmc_debugger_enable:
.Lfunc_begin15:
	.loc	4 397 0 is_stmt 1               @ ../std/GD32C2x1_Firmware_Library/GD32C2x1_standard_peripheral/Source/gd32c2x1_fmc.c:397:0
	.fnstart
	.cfi_startproc
@ %bb.0:
	ldr	r1, __arm_cp.15_0
.Ltmp70:
	.loc	4 398 12 prologue_end           @ ../std/GD32C2x1_Firmware_Library/GD32C2x1_standard_peripheral/Source/gd32c2x1_fmc.c:398:12
	ldr	r0, [r1]
	movs	r2, #1
	lsls	r2, r2, #18
	orrs	r0, r2
	str	r0, [r1]
	.loc	4 399 1                         @ ../std/GD32C2x1_Firmware_Library/GD32C2x1_standard_peripheral/Source/gd32c2x1_fmc.c:399:1
	bx	lr
.Ltmp71:
	.p2align	2
@ %bb.1:
	.loc	4 0 1 is_stmt 0                 @ ../std/GD32C2x1_Firmware_Library/GD32C2x1_standard_peripheral/Source/gd32c2x1_fmc.c:0:1
__arm_cp.15_0:
	.long	1073881088                      @ 0x40022000
.Lcpi_end17:
	.size	__arm_cp.15_0, .Lcpi_end17-__arm_cp.15_0
.Lfunc_end15:
	.size	fmc_debugger_enable, .Lfunc_end15-fmc_debugger_enable
	.cfi_endproc
	.cantunwind
	.fnend
                                        @ -- End function
	.section	.text.fmc_debugger_disable,"ax",%progbits
	.hidden	fmc_debugger_disable            @ -- Begin function fmc_debugger_disable
	.globl	fmc_debugger_disable
	.p2align	2
	.type	fmc_debugger_disable,%function
	.code	16                              @ @fmc_debugger_disable
	.thumb_func
fmc_debugger_disable:
.Lfunc_begin16:
	.loc	4 408 0 is_stmt 1               @ ../std/GD32C2x1_Firmware_Library/GD32C2x1_standard_peripheral/Source/gd32c2x1_fmc.c:408:0
	.fnstart
	.cfi_startproc
@ %bb.0:
	ldr	r1, __arm_cp.16_0
.Ltmp72:
	.loc	4 409 12 prologue_end           @ ../std/GD32C2x1_Firmware_Library/GD32C2x1_standard_peripheral/Source/gd32c2x1_fmc.c:409:12
	ldr	r0, [r1]
	movs	r2, #1
	lsls	r2, r2, #18
	bics	r0, r2
	str	r0, [r1]
	.loc	4 410 1                         @ ../std/GD32C2x1_Firmware_Library/GD32C2x1_standard_peripheral/Source/gd32c2x1_fmc.c:410:1
	bx	lr
.Ltmp73:
	.p2align	2
@ %bb.1:
	.loc	4 0 1 is_stmt 0                 @ ../std/GD32C2x1_Firmware_Library/GD32C2x1_standard_peripheral/Source/gd32c2x1_fmc.c:0:1
__arm_cp.16_0:
	.long	1073881088                      @ 0x40022000
.Lcpi_end18:
	.size	__arm_cp.16_0, .Lcpi_end18-__arm_cp.16_0
.Lfunc_end16:
	.size	fmc_debugger_disable, .Lfunc_end16-fmc_debugger_disable
	.cfi_endproc
	.cantunwind
	.fnend
                                        @ -- End function
	.section	.text.fmc_scr_area_enable,"ax",%progbits
	.hidden	fmc_scr_area_enable             @ -- Begin function fmc_scr_area_enable
	.globl	fmc_scr_area_enable
	.p2align	2
	.type	fmc_scr_area_enable,%function
	.code	16                              @ @fmc_scr_area_enable
	.thumb_func
fmc_scr_area_enable:
.Lfunc_begin17:
	.loc	4 419 0 is_stmt 1               @ ../std/GD32C2x1_Firmware_Library/GD32C2x1_standard_peripheral/Source/gd32c2x1_fmc.c:419:0
	.fnstart
	.cfi_startproc
@ %bb.0:
	ldr	r1, __arm_cp.17_0
.Ltmp74:
	.loc	4 420 13 prologue_end           @ ../std/GD32C2x1_Firmware_Library/GD32C2x1_standard_peripheral/Source/gd32c2x1_fmc.c:420:13
	ldr	r0, [r1]
	movs	r2, #1
	lsls	r2, r2, #28
	orrs	r0, r2
	str	r0, [r1]
	.loc	4 421 1                         @ ../std/GD32C2x1_Firmware_Library/GD32C2x1_standard_peripheral/Source/gd32c2x1_fmc.c:421:1
	bx	lr
.Ltmp75:
	.p2align	2
@ %bb.1:
	.loc	4 0 1 is_stmt 0                 @ ../std/GD32C2x1_Firmware_Library/GD32C2x1_standard_peripheral/Source/gd32c2x1_fmc.c:0:1
__arm_cp.17_0:
	.long	1073881108                      @ 0x40022014
.Lcpi_end19:
	.size	__arm_cp.17_0, .Lcpi_end19-__arm_cp.17_0
.Lfunc_end17:
	.size	fmc_scr_area_enable, .Lfunc_end17-fmc_scr_area_enable
	.cfi_endproc
	.cantunwind
	.fnend
                                        @ -- End function
	.section	.text.ob_unlock,"ax",%progbits
	.hidden	ob_unlock                       @ -- Begin function ob_unlock
	.globl	ob_unlock
	.p2align	2
	.type	ob_unlock,%function
	.code	16                              @ @ob_unlock
	.thumb_func
ob_unlock:
.Lfunc_begin18:
	.loc	4 431 0 is_stmt 1               @ ../std/GD32C2x1_Firmware_Library/GD32C2x1_standard_peripheral/Source/gd32c2x1_fmc.c:431:0
	.fnstart
	.cfi_startproc
@ %bb.0:
	ldr	r0, __arm_cp.18_0
.Ltmp76:
	.loc	4 432 15 prologue_end           @ ../std/GD32C2x1_Firmware_Library/GD32C2x1_standard_peripheral/Source/gd32c2x1_fmc.c:432:15
	ldr	r0, [r0]
.Ltmp77:
	.loc	4 432 8 is_stmt 0               @ ../std/GD32C2x1_Firmware_Library/GD32C2x1_standard_peripheral/Source/gd32c2x1_fmc.c:432:8
	lsls	r0, r0, #1
	cmp	r0, #0
	bpl	.LBB18_2
	b	.LBB18_1
.LBB18_1:
	.loc	4 0 8                           @ ../std/GD32C2x1_Firmware_Library/GD32C2x1_standard_peripheral/Source/gd32c2x1_fmc.c:0:8
	ldr	r1, __arm_cp.18_1
	ldr	r0, __arm_cp.18_2
.Ltmp78:
	.loc	4 434 19 is_stmt 1              @ ../std/GD32C2x1_Firmware_Library/GD32C2x1_standard_peripheral/Source/gd32c2x1_fmc.c:434:19
	str	r0, [r1]
	ldr	r0, __arm_cp.18_3
	.loc	4 435 19                        @ ../std/GD32C2x1_Firmware_Library/GD32C2x1_standard_peripheral/Source/gd32c2x1_fmc.c:435:19
	str	r0, [r1]
	.loc	4 436 5                         @ ../std/GD32C2x1_Firmware_Library/GD32C2x1_standard_peripheral/Source/gd32c2x1_fmc.c:436:5
	b	.LBB18_2
.Ltmp79:
.LBB18_2:
	.loc	4 437 1                         @ ../std/GD32C2x1_Firmware_Library/GD32C2x1_standard_peripheral/Source/gd32c2x1_fmc.c:437:1
	bx	lr
.Ltmp80:
	.p2align	2
@ %bb.3:
	.loc	4 0 1 is_stmt 0                 @ ../std/GD32C2x1_Firmware_Library/GD32C2x1_standard_peripheral/Source/gd32c2x1_fmc.c:0:1
__arm_cp.18_0:
	.long	1073881108                      @ 0x40022014
.Lcpi_end20:
	.size	__arm_cp.18_0, .Lcpi_end20-__arm_cp.18_0
__arm_cp.18_1:
	.long	1073881100                      @ 0x4002200c
.Lcpi_end21:
	.size	__arm_cp.18_1, .Lcpi_end21-__arm_cp.18_1
__arm_cp.18_2:
	.long	135866939                       @ 0x8192a3b
.Lcpi_end22:
	.size	__arm_cp.18_2, .Lcpi_end22-__arm_cp.18_2
__arm_cp.18_3:
	.long	1281191551                      @ 0x4c5d6e7f
.Lcpi_end23:
	.size	__arm_cp.18_3, .Lcpi_end23-__arm_cp.18_3
.Lfunc_end18:
	.size	ob_unlock, .Lfunc_end18-ob_unlock
	.cfi_endproc
	.cantunwind
	.fnend
                                        @ -- End function
	.section	.text.ob_lock,"ax",%progbits
	.hidden	ob_lock                         @ -- Begin function ob_lock
	.globl	ob_lock
	.p2align	2
	.type	ob_lock,%function
	.code	16                              @ @ob_lock
	.thumb_func
ob_lock:
.Lfunc_begin19:
	.loc	4 447 0 is_stmt 1               @ ../std/GD32C2x1_Firmware_Library/GD32C2x1_standard_peripheral/Source/gd32c2x1_fmc.c:447:0
	.fnstart
	.cfi_startproc
@ %bb.0:
	ldr	r1, __arm_cp.19_0
.Ltmp81:
	.loc	4 449 13 prologue_end           @ ../std/GD32C2x1_Firmware_Library/GD32C2x1_standard_peripheral/Source/gd32c2x1_fmc.c:449:13
	ldr	r0, [r1]
	movs	r2, #1
	lsls	r2, r2, #30
	bics	r0, r2
	str	r0, [r1]
	.loc	4 450 1                         @ ../std/GD32C2x1_Firmware_Library/GD32C2x1_standard_peripheral/Source/gd32c2x1_fmc.c:450:1
	bx	lr
.Ltmp82:
	.p2align	2
@ %bb.1:
	.loc	4 0 1 is_stmt 0                 @ ../std/GD32C2x1_Firmware_Library/GD32C2x1_standard_peripheral/Source/gd32c2x1_fmc.c:0:1
__arm_cp.19_0:
	.long	1073881108                      @ 0x40022014
.Lcpi_end24:
	.size	__arm_cp.19_0, .Lcpi_end24-__arm_cp.19_0
.Lfunc_end19:
	.size	ob_lock, .Lfunc_end19-ob_lock
	.cfi_endproc
	.cantunwind
	.fnend
                                        @ -- End function
	.section	.text.ob_reload,"ax",%progbits
	.hidden	ob_reload                       @ -- Begin function ob_reload
	.globl	ob_reload
	.p2align	2
	.type	ob_reload,%function
	.code	16                              @ @ob_reload
	.thumb_func
ob_reload:
.Lfunc_begin20:
	.loc	4 459 0 is_stmt 1               @ ../std/GD32C2x1_Firmware_Library/GD32C2x1_standard_peripheral/Source/gd32c2x1_fmc.c:459:0
	.fnstart
	.cfi_startproc
@ %bb.0:
	ldr	r1, __arm_cp.20_0
.Ltmp83:
	.loc	4 461 13 prologue_end           @ ../std/GD32C2x1_Firmware_Library/GD32C2x1_standard_peripheral/Source/gd32c2x1_fmc.c:461:13
	ldr	r0, [r1]
	movs	r2, #1
	lsls	r2, r2, #27
	orrs	r0, r2
	str	r0, [r1]
	.loc	4 462 1                         @ ../std/GD32C2x1_Firmware_Library/GD32C2x1_standard_peripheral/Source/gd32c2x1_fmc.c:462:1
	bx	lr
.Ltmp84:
	.p2align	2
@ %bb.1:
	.loc	4 0 1 is_stmt 0                 @ ../std/GD32C2x1_Firmware_Library/GD32C2x1_standard_peripheral/Source/gd32c2x1_fmc.c:0:1
__arm_cp.20_0:
	.long	1073881108                      @ 0x40022014
.Lcpi_end25:
	.size	__arm_cp.20_0, .Lcpi_end25-__arm_cp.20_0
.Lfunc_end20:
	.size	ob_reload, .Lfunc_end20-ob_reload
	.cfi_endproc
	.cantunwind
	.fnend
                                        @ -- End function
	.section	.text.ob_user_write,"ax",%progbits
	.hidden	ob_user_write                   @ -- Begin function ob_user_write
	.globl	ob_user_write
	.p2align	2
	.type	ob_user_write,%function
	.code	16                              @ @ob_user_write
	.thumb_func
ob_user_write:
.Lfunc_begin21:
	.loc	4 517 0 is_stmt 1               @ ../std/GD32C2x1_Firmware_Library/GD32C2x1_standard_peripheral/Source/gd32c2x1_fmc.c:517:0
	.fnstart
	.cfi_startproc
@ %bb.0:
	.save	{r7, lr}
	push	{r7, lr}
	.cfi_def_cfa_offset 8
	.cfi_offset lr, -4
	.cfi_offset r7, -8
	.pad	#16
	sub	sp, #16
	.cfi_def_cfa_offset 24
	str	r0, [sp, #12]
	str	r1, [sp, #8]
	mov	r1, sp
	movs	r0, #13
.Ltmp85:
	.loc	4 519 20 prologue_end           @ ../std/GD32C2x1_Firmware_Library/GD32C2x1_standard_peripheral/Source/gd32c2x1_fmc.c:519:20
	strb	r0, [r1]
	ldr	r0, __arm_cp.21_0
.Ltmp86:
	.loc	4 531 25                        @ ../std/GD32C2x1_Firmware_Library/GD32C2x1_standard_peripheral/Source/gd32c2x1_fmc.c:531:25
	ldr	r0, [r0]
	.loc	4 531 35 is_stmt 0              @ ../std/GD32C2x1_Firmware_Library/GD32C2x1_standard_peripheral/Source/gd32c2x1_fmc.c:531:35
	uxtb	r0, r0
.Ltmp87:
	.loc	4 531 12                        @ ../std/GD32C2x1_Firmware_Library/GD32C2x1_standard_peripheral/Source/gd32c2x1_fmc.c:531:12
	cmp	r0, #204
	bne	.LBB21_2
	b	.LBB21_1
.LBB21_1:
	.loc	4 0 12                          @ ../std/GD32C2x1_Firmware_Library/GD32C2x1_standard_peripheral/Source/gd32c2x1_fmc.c:0:12
	mov	r1, sp
	movs	r0, #12
.Ltmp88:
	.loc	4 532 23 is_stmt 1              @ ../std/GD32C2x1_Firmware_Library/GD32C2x1_standard_peripheral/Source/gd32c2x1_fmc.c:532:23
	strb	r0, [r1]
	.loc	4 533 9                         @ ../std/GD32C2x1_Firmware_Library/GD32C2x1_standard_peripheral/Source/gd32c2x1_fmc.c:533:9
	b	.LBB21_5
.Ltmp89:
.LBB21_2:
	.loc	4 0 9 is_stmt 0                 @ ../std/GD32C2x1_Firmware_Library/GD32C2x1_standard_peripheral/Source/gd32c2x1_fmc.c:0:9
	movs	r0, #0
	mvns	r0, r0
.Ltmp90:
	.loc	4 535 25 is_stmt 1              @ ../std/GD32C2x1_Firmware_Library/GD32C2x1_standard_peripheral/Source/gd32c2x1_fmc.c:535:25
	bl	fmc_ready_wait
	mov	r1, r0
	mov	r0, sp
	.loc	4 535 23 is_stmt 0              @ ../std/GD32C2x1_Firmware_Library/GD32C2x1_standard_peripheral/Source/gd32c2x1_fmc.c:535:23
	strb	r1, [r0]
.Ltmp91:
	.loc	4 537 29 is_stmt 1              @ ../std/GD32C2x1_Firmware_Library/GD32C2x1_standard_peripheral/Source/gd32c2x1_fmc.c:537:29
	ldrb	r0, [r0]
.Ltmp92:
	.loc	4 537 16 is_stmt 0              @ ../std/GD32C2x1_Firmware_Library/GD32C2x1_standard_peripheral/Source/gd32c2x1_fmc.c:537:16
	cbnz	r0, .LBB21_4
	b	.LBB21_3
.LBB21_3:
	.loc	4 0 16                          @ ../std/GD32C2x1_Firmware_Library/GD32C2x1_standard_peripheral/Source/gd32c2x1_fmc.c:0:16
	ldr	r1, __arm_cp.21_0
.Ltmp93:
	.loc	4 538 29 is_stmt 1              @ ../std/GD32C2x1_Firmware_Library/GD32C2x1_standard_peripheral/Source/gd32c2x1_fmc.c:538:29
	ldr	r0, [r1]
	.loc	4 538 27 is_stmt 0              @ ../std/GD32C2x1_Firmware_Library/GD32C2x1_standard_peripheral/Source/gd32c2x1_fmc.c:538:27
	str	r0, [sp, #4]
	.loc	4 539 30 is_stmt 1              @ ../std/GD32C2x1_Firmware_Library/GD32C2x1_standard_peripheral/Source/gd32c2x1_fmc.c:539:30
	ldr	r0, [sp, #4]
	.loc	4 539 44 is_stmt 0              @ ../std/GD32C2x1_Firmware_Library/GD32C2x1_standard_peripheral/Source/gd32c2x1_fmc.c:539:44
	ldr	r2, [sp, #8]
	.loc	4 539 40                        @ ../std/GD32C2x1_Firmware_Library/GD32C2x1_standard_peripheral/Source/gd32c2x1_fmc.c:539:40
	bics	r0, r2
	.loc	4 539 61                        @ ../std/GD32C2x1_Firmware_Library/GD32C2x1_standard_peripheral/Source/gd32c2x1_fmc.c:539:61
	ldr	r2, [sp, #12]
	.loc	4 539 59                        @ ../std/GD32C2x1_Firmware_Library/GD32C2x1_standard_peripheral/Source/gd32c2x1_fmc.c:539:59
	orrs	r0, r2
	.loc	4 539 27                        @ ../std/GD32C2x1_Firmware_Library/GD32C2x1_standard_peripheral/Source/gd32c2x1_fmc.c:539:27
	str	r0, [r1]
	ldr	r1, __arm_cp.21_1
	.loc	4 540 25 is_stmt 1              @ ../std/GD32C2x1_Firmware_Library/GD32C2x1_standard_peripheral/Source/gd32c2x1_fmc.c:540:25
	ldr	r0, [r1]
	movs	r2, #1
	lsls	r2, r2, #17
	orrs	r0, r2
	str	r0, [r1]
	movs	r0, #0
	mvns	r0, r0
	.loc	4 542 29                        @ ../std/GD32C2x1_Firmware_Library/GD32C2x1_standard_peripheral/Source/gd32c2x1_fmc.c:542:29
	bl	fmc_ready_wait
	mov	r1, sp
	.loc	4 542 27 is_stmt 0              @ ../std/GD32C2x1_Firmware_Library/GD32C2x1_standard_peripheral/Source/gd32c2x1_fmc.c:542:27
	strb	r0, [r1]
	.loc	4 543 13 is_stmt 1              @ ../std/GD32C2x1_Firmware_Library/GD32C2x1_standard_peripheral/Source/gd32c2x1_fmc.c:543:13
	b	.LBB21_4
.Ltmp94:
.LBB21_4:
	.loc	4 0 13 is_stmt 0                @ ../std/GD32C2x1_Firmware_Library/GD32C2x1_standard_peripheral/Source/gd32c2x1_fmc.c:0:13
	b	.LBB21_5
.LBB21_5:
	mov	r0, sp
	.loc	4 546 12 is_stmt 1              @ ../std/GD32C2x1_Firmware_Library/GD32C2x1_standard_peripheral/Source/gd32c2x1_fmc.c:546:12
	ldrb	r0, [r0]
	.loc	4 546 5 is_stmt 0               @ ../std/GD32C2x1_Firmware_Library/GD32C2x1_standard_peripheral/Source/gd32c2x1_fmc.c:546:5
	add	sp, #16
	pop	{r7, pc}
.Ltmp95:
	.p2align	2
@ %bb.6:
	.loc	4 0 5                           @ ../std/GD32C2x1_Firmware_Library/GD32C2x1_standard_peripheral/Source/gd32c2x1_fmc.c:0:5
__arm_cp.21_0:
	.long	1073881120                      @ 0x40022020
.Lcpi_end26:
	.size	__arm_cp.21_0, .Lcpi_end26-__arm_cp.21_0
__arm_cp.21_1:
	.long	1073881108                      @ 0x40022014
.Lcpi_end27:
	.size	__arm_cp.21_1, .Lcpi_end27-__arm_cp.21_1
.Lfunc_end21:
	.size	ob_user_write, .Lfunc_end21-ob_user_write
	.cfi_endproc
	.cantunwind
	.fnend
                                        @ -- End function
	.section	.text.ob_security_protection_level_config,"ax",%progbits
	.hidden	ob_security_protection_level_config @ -- Begin function ob_security_protection_level_config
	.globl	ob_security_protection_level_config
	.p2align	2
	.type	ob_security_protection_level_config,%function
	.code	16                              @ @ob_security_protection_level_config
	.thumb_func
ob_security_protection_level_config:
.Lfunc_begin22:
	.loc	4 574 0 is_stmt 1               @ ../std/GD32C2x1_Firmware_Library/GD32C2x1_standard_peripheral/Source/gd32c2x1_fmc.c:574:0
	.fnstart
	.cfi_startproc
@ %bb.0:
	.save	{r7, lr}
	push	{r7, lr}
	.cfi_def_cfa_offset 8
	.cfi_offset lr, -4
	.cfi_offset r7, -8
	.pad	#16
	sub	sp, #16
	.cfi_def_cfa_offset 24
                                        @ kill: def $r1 killed $r0
	add	r1, sp, #12
	strb	r0, [r1]
	movs	r0, #0
	mvns	r0, r0
.Ltmp96:
	.loc	4 579 17 prologue_end           @ ../std/GD32C2x1_Firmware_Library/GD32C2x1_standard_peripheral/Source/gd32c2x1_fmc.c:579:17
	bl	fmc_ready_wait
	mov	r1, r0
	add	r0, sp, #4
	.loc	4 579 15 is_stmt 0              @ ../std/GD32C2x1_Firmware_Library/GD32C2x1_standard_peripheral/Source/gd32c2x1_fmc.c:579:15
	strb	r1, [r0]
.Ltmp97:
	.loc	4 581 21 is_stmt 1              @ ../std/GD32C2x1_Firmware_Library/GD32C2x1_standard_peripheral/Source/gd32c2x1_fmc.c:581:21
	ldrb	r0, [r0]
.Ltmp98:
	.loc	4 581 8 is_stmt 0               @ ../std/GD32C2x1_Firmware_Library/GD32C2x1_standard_peripheral/Source/gd32c2x1_fmc.c:581:8
	cbnz	r0, .LBB22_2
	b	.LBB22_1
.LBB22_1:
	.loc	4 0 8                           @ ../std/GD32C2x1_Firmware_Library/GD32C2x1_standard_peripheral/Source/gd32c2x1_fmc.c:0:8
	ldr	r1, __arm_cp.22_0
.Ltmp99:
	.loc	4 582 21 is_stmt 1              @ ../std/GD32C2x1_Firmware_Library/GD32C2x1_standard_peripheral/Source/gd32c2x1_fmc.c:582:21
	ldr	r0, [r1]
	.loc	4 582 19 is_stmt 0              @ ../std/GD32C2x1_Firmware_Library/GD32C2x1_standard_peripheral/Source/gd32c2x1_fmc.c:582:19
	str	r0, [sp, #8]
	.loc	4 585 19 is_stmt 1              @ ../std/GD32C2x1_Firmware_Library/GD32C2x1_standard_peripheral/Source/gd32c2x1_fmc.c:585:19
	ldr	r0, [sp, #8]
	movs	r2, #255
	bics	r0, r2
	str	r0, [sp, #8]
	add	r0, sp, #12
	.loc	4 586 32                        @ ../std/GD32C2x1_Firmware_Library/GD32C2x1_standard_peripheral/Source/gd32c2x1_fmc.c:586:32
	ldrb	r2, [r0]
	.loc	4 586 19 is_stmt 0              @ ../std/GD32C2x1_Firmware_Library/GD32C2x1_standard_peripheral/Source/gd32c2x1_fmc.c:586:19
	ldr	r0, [sp, #8]
	orrs	r0, r2
	str	r0, [sp, #8]
	.loc	4 587 21 is_stmt 1              @ ../std/GD32C2x1_Firmware_Library/GD32C2x1_standard_peripheral/Source/gd32c2x1_fmc.c:587:21
	ldr	r0, [sp, #8]
	.loc	4 587 19 is_stmt 0              @ ../std/GD32C2x1_Firmware_Library/GD32C2x1_standard_peripheral/Source/gd32c2x1_fmc.c:587:19
	str	r0, [r1]
	ldr	r1, __arm_cp.22_1
	.loc	4 588 17 is_stmt 1              @ ../std/GD32C2x1_Firmware_Library/GD32C2x1_standard_peripheral/Source/gd32c2x1_fmc.c:588:17
	ldr	r0, [r1]
	movs	r2, #1
	lsls	r2, r2, #17
	orrs	r0, r2
	str	r0, [r1]
	movs	r0, #0
	mvns	r0, r0
	.loc	4 591 21                        @ ../std/GD32C2x1_Firmware_Library/GD32C2x1_standard_peripheral/Source/gd32c2x1_fmc.c:591:21
	bl	fmc_ready_wait
	add	r1, sp, #4
	.loc	4 591 19 is_stmt 0              @ ../std/GD32C2x1_Firmware_Library/GD32C2x1_standard_peripheral/Source/gd32c2x1_fmc.c:591:19
	strb	r0, [r1]
	.loc	4 592 5 is_stmt 1               @ ../std/GD32C2x1_Firmware_Library/GD32C2x1_standard_peripheral/Source/gd32c2x1_fmc.c:592:5
	b	.LBB22_2
.Ltmp100:
.LBB22_2:
	.loc	4 0 5 is_stmt 0                 @ ../std/GD32C2x1_Firmware_Library/GD32C2x1_standard_peripheral/Source/gd32c2x1_fmc.c:0:5
	add	r0, sp, #4
	.loc	4 595 12 is_stmt 1              @ ../std/GD32C2x1_Firmware_Library/GD32C2x1_standard_peripheral/Source/gd32c2x1_fmc.c:595:12
	ldrb	r0, [r0]
	.loc	4 595 5 is_stmt 0               @ ../std/GD32C2x1_Firmware_Library/GD32C2x1_standard_peripheral/Source/gd32c2x1_fmc.c:595:5
	add	sp, #16
	pop	{r7, pc}
.Ltmp101:
	.p2align	2
@ %bb.3:
	.loc	4 0 5                           @ ../std/GD32C2x1_Firmware_Library/GD32C2x1_standard_peripheral/Source/gd32c2x1_fmc.c:0:5
__arm_cp.22_0:
	.long	1073881120                      @ 0x40022020
.Lcpi_end28:
	.size	__arm_cp.22_0, .Lcpi_end28-__arm_cp.22_0
__arm_cp.22_1:
	.long	1073881108                      @ 0x40022014
.Lcpi_end29:
	.size	__arm_cp.22_1, .Lcpi_end29-__arm_cp.22_1
.Lfunc_end22:
	.size	ob_security_protection_level_config, .Lfunc_end22-ob_security_protection_level_config
	.cfi_endproc
	.cantunwind
	.fnend
                                        @ -- End function
	.section	.text.ob_dcrp_area_config,"ax",%progbits
	.hidden	ob_dcrp_area_config             @ -- Begin function ob_dcrp_area_config
	.globl	ob_dcrp_area_config
	.p2align	2
	.type	ob_dcrp_area_config,%function
	.code	16                              @ @ob_dcrp_area_config
	.thumb_func
ob_dcrp_area_config:
.Lfunc_begin23:
	.loc	4 628 0 is_stmt 1               @ ../std/GD32C2x1_Firmware_Library/GD32C2x1_standard_peripheral/Source/gd32c2x1_fmc.c:628:0
	.fnstart
	.cfi_startproc
@ %bb.0:
	.save	{r7, lr}
	push	{r7, lr}
	.cfi_def_cfa_offset 8
	.cfi_offset lr, -4
	.cfi_offset r7, -8
	.pad	#24
	sub	sp, #24
	.cfi_def_cfa_offset 32
	str	r0, [sp, #20]
	str	r1, [sp, #16]
	str	r2, [sp, #12]
	str	r3, [sp, #8]
	ldr	r0, __arm_cp.23_0
.Ltmp102:
	.loc	4 639 25 prologue_end           @ ../std/GD32C2x1_Firmware_Library/GD32C2x1_standard_peripheral/Source/gd32c2x1_fmc.c:639:25
	ldr	r0, [r0]
	.loc	4 639 35 is_stmt 0              @ ../std/GD32C2x1_Firmware_Library/GD32C2x1_standard_peripheral/Source/gd32c2x1_fmc.c:639:35
	uxtb	r0, r0
.Ltmp103:
	.loc	4 639 12                        @ ../std/GD32C2x1_Firmware_Library/GD32C2x1_standard_peripheral/Source/gd32c2x1_fmc.c:639:12
	cmp	r0, #204
	bne	.LBB23_2
	b	.LBB23_1
.LBB23_1:
	.loc	4 0 12                          @ ../std/GD32C2x1_Firmware_Library/GD32C2x1_standard_peripheral/Source/gd32c2x1_fmc.c:0:12
	mov	r1, sp
	movs	r0, #12
.Ltmp104:
	.loc	4 640 23 is_stmt 1              @ ../std/GD32C2x1_Firmware_Library/GD32C2x1_standard_peripheral/Source/gd32c2x1_fmc.c:640:23
	strb	r0, [r1]
	.loc	4 641 9                         @ ../std/GD32C2x1_Firmware_Library/GD32C2x1_standard_peripheral/Source/gd32c2x1_fmc.c:641:9
	b	.LBB23_8
.Ltmp105:
.LBB23_2:
	.loc	4 0 9 is_stmt 0                 @ ../std/GD32C2x1_Firmware_Library/GD32C2x1_standard_peripheral/Source/gd32c2x1_fmc.c:0:9
	movs	r0, #0
	mvns	r0, r0
.Ltmp106:
	.loc	4 643 25 is_stmt 1              @ ../std/GD32C2x1_Firmware_Library/GD32C2x1_standard_peripheral/Source/gd32c2x1_fmc.c:643:25
	bl	fmc_ready_wait
	mov	r1, r0
	mov	r0, sp
	.loc	4 643 23 is_stmt 0              @ ../std/GD32C2x1_Firmware_Library/GD32C2x1_standard_peripheral/Source/gd32c2x1_fmc.c:643:23
	strb	r1, [r0]
.Ltmp107:
	.loc	4 645 29 is_stmt 1              @ ../std/GD32C2x1_Firmware_Library/GD32C2x1_standard_peripheral/Source/gd32c2x1_fmc.c:645:29
	ldrb	r0, [r0]
.Ltmp108:
	.loc	4 645 16 is_stmt 0              @ ../std/GD32C2x1_Firmware_Library/GD32C2x1_standard_peripheral/Source/gd32c2x1_fmc.c:645:16
	cbnz	r0, .LBB23_7
	b	.LBB23_3
.LBB23_3:
.Ltmp109:
	.loc	4 647 35 is_stmt 1              @ ../std/GD32C2x1_Firmware_Library/GD32C2x1_standard_peripheral/Source/gd32c2x1_fmc.c:647:35
	ldr	r0, [sp, #20]
.Ltmp110:
	.loc	4 647 20 is_stmt 0              @ ../std/GD32C2x1_Firmware_Library/GD32C2x1_standard_peripheral/Source/gd32c2x1_fmc.c:647:20
	cbnz	r0, .LBB23_5
	b	.LBB23_4
.LBB23_4:
.Ltmp111:
	.loc	4 648 39 is_stmt 1              @ ../std/GD32C2x1_Firmware_Library/GD32C2x1_standard_peripheral/Source/gd32c2x1_fmc.c:648:39
	ldr	r0, [sp, #12]
	ldr	r1, __arm_cp.23_3
	.loc	4 648 37 is_stmt 0              @ ../std/GD32C2x1_Firmware_Library/GD32C2x1_standard_peripheral/Source/gd32c2x1_fmc.c:648:37
	str	r0, [r1]
	ldr	r1, __arm_cp.23_4
	.loc	4 649 33 is_stmt 1              @ ../std/GD32C2x1_Firmware_Library/GD32C2x1_standard_peripheral/Source/gd32c2x1_fmc.c:649:33
	ldr	r0, [r1]
	.loc	4 649 31 is_stmt 0              @ ../std/GD32C2x1_Firmware_Library/GD32C2x1_standard_peripheral/Source/gd32c2x1_fmc.c:649:31
	str	r0, [sp, #4]
	.loc	4 650 31 is_stmt 1              @ ../std/GD32C2x1_Firmware_Library/GD32C2x1_standard_peripheral/Source/gd32c2x1_fmc.c:650:31
	ldr	r0, [sp, #4]
	movs	r2, #1
	lsls	r2, r2, #31
	bics	r0, r2
	str	r0, [sp, #4]
	.loc	4 651 31                        @ ../std/GD32C2x1_Firmware_Library/GD32C2x1_standard_peripheral/Source/gd32c2x1_fmc.c:651:31
	ldr	r0, [sp, #4]
	movs	r2, #127
	bics	r0, r2
	str	r0, [sp, #4]
	.loc	4 652 35                        @ ../std/GD32C2x1_Firmware_Library/GD32C2x1_standard_peripheral/Source/gd32c2x1_fmc.c:652:35
	ldr	r2, [sp, #8]
	.loc	4 652 31 is_stmt 0              @ ../std/GD32C2x1_Firmware_Library/GD32C2x1_standard_peripheral/Source/gd32c2x1_fmc.c:652:31
	ldr	r0, [sp, #4]
	orrs	r0, r2
	str	r0, [sp, #4]
	.loc	4 653 39 is_stmt 1              @ ../std/GD32C2x1_Firmware_Library/GD32C2x1_standard_peripheral/Source/gd32c2x1_fmc.c:653:39
	ldr	r0, [sp, #4]
	.loc	4 653 37 is_stmt 0              @ ../std/GD32C2x1_Firmware_Library/GD32C2x1_standard_peripheral/Source/gd32c2x1_fmc.c:653:37
	str	r0, [r1]
	.loc	4 654 17 is_stmt 1              @ ../std/GD32C2x1_Firmware_Library/GD32C2x1_standard_peripheral/Source/gd32c2x1_fmc.c:654:17
	b	.LBB23_6
.Ltmp112:
.LBB23_5:
	.loc	4 655 39                        @ ../std/GD32C2x1_Firmware_Library/GD32C2x1_standard_peripheral/Source/gd32c2x1_fmc.c:655:39
	ldr	r0, [sp, #12]
	ldr	r1, __arm_cp.23_1
	.loc	4 655 37 is_stmt 0              @ ../std/GD32C2x1_Firmware_Library/GD32C2x1_standard_peripheral/Source/gd32c2x1_fmc.c:655:37
	str	r0, [r1]
	.loc	4 656 39 is_stmt 1              @ ../std/GD32C2x1_Firmware_Library/GD32C2x1_standard_peripheral/Source/gd32c2x1_fmc.c:656:39
	ldr	r0, [sp, #8]
	ldr	r1, __arm_cp.23_2
	.loc	4 656 37 is_stmt 0              @ ../std/GD32C2x1_Firmware_Library/GD32C2x1_standard_peripheral/Source/gd32c2x1_fmc.c:656:37
	str	r0, [r1]
	b	.LBB23_6
.Ltmp113:
.LBB23_6:
	.loc	4 0 37                          @ ../std/GD32C2x1_Firmware_Library/GD32C2x1_standard_peripheral/Source/gd32c2x1_fmc.c:0:37
	ldr	r1, __arm_cp.23_4
	.loc	4 660 29 is_stmt 1              @ ../std/GD32C2x1_Firmware_Library/GD32C2x1_standard_peripheral/Source/gd32c2x1_fmc.c:660:29
	ldr	r0, [r1]
	.loc	4 660 27 is_stmt 0              @ ../std/GD32C2x1_Firmware_Library/GD32C2x1_standard_peripheral/Source/gd32c2x1_fmc.c:660:27
	str	r0, [sp, #4]
	.loc	4 661 27 is_stmt 1              @ ../std/GD32C2x1_Firmware_Library/GD32C2x1_standard_peripheral/Source/gd32c2x1_fmc.c:661:27
	ldr	r0, [sp, #4]
	movs	r2, #1
	lsls	r3, r2, #31
	bics	r0, r3
	str	r0, [sp, #4]
	.loc	4 662 30                        @ ../std/GD32C2x1_Firmware_Library/GD32C2x1_standard_peripheral/Source/gd32c2x1_fmc.c:662:30
	ldr	r0, [sp, #16]
	.loc	4 662 40 is_stmt 0              @ ../std/GD32C2x1_Firmware_Library/GD32C2x1_standard_peripheral/Source/gd32c2x1_fmc.c:662:40
	lsls	r3, r0, #31
	.loc	4 662 27                        @ ../std/GD32C2x1_Firmware_Library/GD32C2x1_standard_peripheral/Source/gd32c2x1_fmc.c:662:27
	ldr	r0, [sp, #4]
	orrs	r0, r3
	str	r0, [sp, #4]
	.loc	4 663 35 is_stmt 1              @ ../std/GD32C2x1_Firmware_Library/GD32C2x1_standard_peripheral/Source/gd32c2x1_fmc.c:663:35
	ldr	r0, [sp, #4]
	.loc	4 663 33 is_stmt 0              @ ../std/GD32C2x1_Firmware_Library/GD32C2x1_standard_peripheral/Source/gd32c2x1_fmc.c:663:33
	str	r0, [r1]
	ldr	r1, __arm_cp.23_5
	.loc	4 666 25 is_stmt 1              @ ../std/GD32C2x1_Firmware_Library/GD32C2x1_standard_peripheral/Source/gd32c2x1_fmc.c:666:25
	ldr	r0, [r1]
	lsls	r2, r2, #17
	orrs	r0, r2
	str	r0, [r1]
	movs	r0, #0
	mvns	r0, r0
	.loc	4 669 29                        @ ../std/GD32C2x1_Firmware_Library/GD32C2x1_standard_peripheral/Source/gd32c2x1_fmc.c:669:29
	bl	fmc_ready_wait
	mov	r1, sp
	.loc	4 669 27 is_stmt 0              @ ../std/GD32C2x1_Firmware_Library/GD32C2x1_standard_peripheral/Source/gd32c2x1_fmc.c:669:27
	strb	r0, [r1]
	.loc	4 670 13 is_stmt 1              @ ../std/GD32C2x1_Firmware_Library/GD32C2x1_standard_peripheral/Source/gd32c2x1_fmc.c:670:13
	b	.LBB23_7
.Ltmp114:
.LBB23_7:
	.loc	4 0 13 is_stmt 0                @ ../std/GD32C2x1_Firmware_Library/GD32C2x1_standard_peripheral/Source/gd32c2x1_fmc.c:0:13
	b	.LBB23_8
.LBB23_8:
	mov	r0, sp
	.loc	4 674 12 is_stmt 1              @ ../std/GD32C2x1_Firmware_Library/GD32C2x1_standard_peripheral/Source/gd32c2x1_fmc.c:674:12
	ldrb	r0, [r0]
	.loc	4 674 5 is_stmt 0               @ ../std/GD32C2x1_Firmware_Library/GD32C2x1_standard_peripheral/Source/gd32c2x1_fmc.c:674:5
	add	sp, #24
	pop	{r7, pc}
.Ltmp115:
	.p2align	2
@ %bb.9:
	.loc	4 0 5                           @ ../std/GD32C2x1_Firmware_Library/GD32C2x1_standard_peripheral/Source/gd32c2x1_fmc.c:0:5
__arm_cp.23_0:
	.long	1073881120                      @ 0x40022020
.Lcpi_end30:
	.size	__arm_cp.23_0, .Lcpi_end30-__arm_cp.23_0
__arm_cp.23_1:
	.long	1073881140                      @ 0x40022034
.Lcpi_end31:
	.size	__arm_cp.23_1, .Lcpi_end31-__arm_cp.23_1
__arm_cp.23_2:
	.long	1073881144                      @ 0x40022038
.Lcpi_end32:
	.size	__arm_cp.23_2, .Lcpi_end32-__arm_cp.23_2
__arm_cp.23_3:
	.long	1073881124                      @ 0x40022024
.Lcpi_end33:
	.size	__arm_cp.23_3, .Lcpi_end33-__arm_cp.23_3
__arm_cp.23_4:
	.long	1073881128                      @ 0x40022028
.Lcpi_end34:
	.size	__arm_cp.23_4, .Lcpi_end34-__arm_cp.23_4
__arm_cp.23_5:
	.long	1073881108                      @ 0x40022014
.Lcpi_end35:
	.size	__arm_cp.23_5, .Lcpi_end35-__arm_cp.23_5
.Lfunc_end23:
	.size	ob_dcrp_area_config, .Lfunc_end23-ob_dcrp_area_config
	.cfi_endproc
	.cantunwind
	.fnend
                                        @ -- End function
	.section	.text.ob_write_protection_area_config,"ax",%progbits
	.hidden	ob_write_protection_area_config @ -- Begin function ob_write_protection_area_config
	.globl	ob_write_protection_area_config
	.p2align	2
	.type	ob_write_protection_area_config,%function
	.code	16                              @ @ob_write_protection_area_config
	.thumb_func
ob_write_protection_area_config:
.Lfunc_begin24:
	.loc	4 703 0 is_stmt 1               @ ../std/GD32C2x1_Firmware_Library/GD32C2x1_standard_peripheral/Source/gd32c2x1_fmc.c:703:0
	.fnstart
	.cfi_startproc
@ %bb.0:
	.save	{r7, lr}
	push	{r7, lr}
	.cfi_def_cfa_offset 8
	.cfi_offset lr, -4
	.cfi_offset r7, -8
	.pad	#24
	sub	sp, #24
	.cfi_def_cfa_offset 32
	str	r0, [sp, #20]
	str	r1, [sp, #16]
	str	r2, [sp, #12]
	ldr	r0, __arm_cp.24_0
.Ltmp116:
	.loc	4 714 25 prologue_end           @ ../std/GD32C2x1_Firmware_Library/GD32C2x1_standard_peripheral/Source/gd32c2x1_fmc.c:714:25
	ldr	r0, [r0]
	.loc	4 714 35 is_stmt 0              @ ../std/GD32C2x1_Firmware_Library/GD32C2x1_standard_peripheral/Source/gd32c2x1_fmc.c:714:35
	uxtb	r0, r0
.Ltmp117:
	.loc	4 714 12                        @ ../std/GD32C2x1_Firmware_Library/GD32C2x1_standard_peripheral/Source/gd32c2x1_fmc.c:714:12
	cmp	r0, #204
	bne	.LBB24_2
	b	.LBB24_1
.LBB24_1:
	.loc	4 0 12                          @ ../std/GD32C2x1_Firmware_Library/GD32C2x1_standard_peripheral/Source/gd32c2x1_fmc.c:0:12
	add	r1, sp, #4
	movs	r0, #12
.Ltmp118:
	.loc	4 715 23 is_stmt 1              @ ../std/GD32C2x1_Firmware_Library/GD32C2x1_standard_peripheral/Source/gd32c2x1_fmc.c:715:23
	strb	r0, [r1]
	.loc	4 716 9                         @ ../std/GD32C2x1_Firmware_Library/GD32C2x1_standard_peripheral/Source/gd32c2x1_fmc.c:716:9
	b	.LBB24_8
.Ltmp119:
.LBB24_2:
	.loc	4 0 9 is_stmt 0                 @ ../std/GD32C2x1_Firmware_Library/GD32C2x1_standard_peripheral/Source/gd32c2x1_fmc.c:0:9
	movs	r0, #0
	mvns	r0, r0
.Ltmp120:
	.loc	4 719 25 is_stmt 1              @ ../std/GD32C2x1_Firmware_Library/GD32C2x1_standard_peripheral/Source/gd32c2x1_fmc.c:719:25
	bl	fmc_ready_wait
	mov	r1, r0
	add	r0, sp, #4
	.loc	4 719 23 is_stmt 0              @ ../std/GD32C2x1_Firmware_Library/GD32C2x1_standard_peripheral/Source/gd32c2x1_fmc.c:719:23
	strb	r1, [r0]
.Ltmp121:
	.loc	4 720 29 is_stmt 1              @ ../std/GD32C2x1_Firmware_Library/GD32C2x1_standard_peripheral/Source/gd32c2x1_fmc.c:720:29
	ldrb	r0, [r0]
.Ltmp122:
	.loc	4 720 16 is_stmt 0              @ ../std/GD32C2x1_Firmware_Library/GD32C2x1_standard_peripheral/Source/gd32c2x1_fmc.c:720:16
	cbnz	r0, .LBB24_7
	b	.LBB24_3
.LBB24_3:
.Ltmp123:
	.loc	4 721 26 is_stmt 1              @ ../std/GD32C2x1_Firmware_Library/GD32C2x1_standard_peripheral/Source/gd32c2x1_fmc.c:721:26
	ldr	r0, [sp, #16]
	.loc	4 721 58 is_stmt 0              @ ../std/GD32C2x1_Firmware_Library/GD32C2x1_standard_peripheral/Source/gd32c2x1_fmc.c:721:58
	ldr	r1, [sp, #12]
	.loc	4 721 65                        @ ../std/GD32C2x1_Firmware_Library/GD32C2x1_standard_peripheral/Source/gd32c2x1_fmc.c:721:65
	lsls	r1, r1, #16
	.loc	4 721 55                        @ ../std/GD32C2x1_Firmware_Library/GD32C2x1_standard_peripheral/Source/gd32c2x1_fmc.c:721:55
	orrs	r0, r1
	.loc	4 721 23                        @ ../std/GD32C2x1_Firmware_Library/GD32C2x1_standard_peripheral/Source/gd32c2x1_fmc.c:721:23
	str	r0, [sp, #8]
.Ltmp124:
	.loc	4 723 33 is_stmt 1              @ ../std/GD32C2x1_Firmware_Library/GD32C2x1_standard_peripheral/Source/gd32c2x1_fmc.c:723:33
	ldr	r0, [sp, #20]
.Ltmp125:
	.loc	4 723 20 is_stmt 0              @ ../std/GD32C2x1_Firmware_Library/GD32C2x1_standard_peripheral/Source/gd32c2x1_fmc.c:723:20
	cbnz	r0, .LBB24_5
	b	.LBB24_4
.LBB24_4:
.Ltmp126:
	.loc	4 724 31 is_stmt 1              @ ../std/GD32C2x1_Firmware_Library/GD32C2x1_standard_peripheral/Source/gd32c2x1_fmc.c:724:31
	ldr	r0, [sp, #8]
	ldr	r1, __arm_cp.24_2
	.loc	4 724 29 is_stmt 0              @ ../std/GD32C2x1_Firmware_Library/GD32C2x1_standard_peripheral/Source/gd32c2x1_fmc.c:724:29
	str	r0, [r1]
	.loc	4 725 17 is_stmt 1              @ ../std/GD32C2x1_Firmware_Library/GD32C2x1_standard_peripheral/Source/gd32c2x1_fmc.c:725:17
	b	.LBB24_6
.Ltmp127:
.LBB24_5:
	.loc	4 726 31                        @ ../std/GD32C2x1_Firmware_Library/GD32C2x1_standard_peripheral/Source/gd32c2x1_fmc.c:726:31
	ldr	r0, [sp, #8]
	ldr	r1, __arm_cp.24_1
	.loc	4 726 29 is_stmt 0              @ ../std/GD32C2x1_Firmware_Library/GD32C2x1_standard_peripheral/Source/gd32c2x1_fmc.c:726:29
	str	r0, [r1]
	b	.LBB24_6
.Ltmp128:
.LBB24_6:
	.loc	4 0 29                          @ ../std/GD32C2x1_Firmware_Library/GD32C2x1_standard_peripheral/Source/gd32c2x1_fmc.c:0:29
	ldr	r1, __arm_cp.24_3
	.loc	4 729 25 is_stmt 1              @ ../std/GD32C2x1_Firmware_Library/GD32C2x1_standard_peripheral/Source/gd32c2x1_fmc.c:729:25
	ldr	r0, [r1]
	movs	r2, #1
	lsls	r2, r2, #17
	orrs	r0, r2
	str	r0, [r1]
	movs	r0, #0
	mvns	r0, r0
	.loc	4 731 29                        @ ../std/GD32C2x1_Firmware_Library/GD32C2x1_standard_peripheral/Source/gd32c2x1_fmc.c:731:29
	bl	fmc_ready_wait
	add	r1, sp, #4
	.loc	4 731 27 is_stmt 0              @ ../std/GD32C2x1_Firmware_Library/GD32C2x1_standard_peripheral/Source/gd32c2x1_fmc.c:731:27
	strb	r0, [r1]
	.loc	4 732 13 is_stmt 1              @ ../std/GD32C2x1_Firmware_Library/GD32C2x1_standard_peripheral/Source/gd32c2x1_fmc.c:732:13
	b	.LBB24_7
.Ltmp129:
.LBB24_7:
	.loc	4 0 13 is_stmt 0                @ ../std/GD32C2x1_Firmware_Library/GD32C2x1_standard_peripheral/Source/gd32c2x1_fmc.c:0:13
	b	.LBB24_8
.LBB24_8:
	add	r0, sp, #4
	.loc	4 736 12 is_stmt 1              @ ../std/GD32C2x1_Firmware_Library/GD32C2x1_standard_peripheral/Source/gd32c2x1_fmc.c:736:12
	ldrb	r0, [r0]
	.loc	4 736 5 is_stmt 0               @ ../std/GD32C2x1_Firmware_Library/GD32C2x1_standard_peripheral/Source/gd32c2x1_fmc.c:736:5
	add	sp, #24
	pop	{r7, pc}
.Ltmp130:
	.p2align	2
@ %bb.9:
	.loc	4 0 5                           @ ../std/GD32C2x1_Firmware_Library/GD32C2x1_standard_peripheral/Source/gd32c2x1_fmc.c:0:5
__arm_cp.24_0:
	.long	1073881120                      @ 0x40022020
.Lcpi_end36:
	.size	__arm_cp.24_0, .Lcpi_end36-__arm_cp.24_0
__arm_cp.24_1:
	.long	1073881136                      @ 0x40022030
.Lcpi_end37:
	.size	__arm_cp.24_1, .Lcpi_end37-__arm_cp.24_1
__arm_cp.24_2:
	.long	1073881132                      @ 0x4002202c
.Lcpi_end38:
	.size	__arm_cp.24_2, .Lcpi_end38-__arm_cp.24_2
__arm_cp.24_3:
	.long	1073881108                      @ 0x40022014
.Lcpi_end39:
	.size	__arm_cp.24_3, .Lcpi_end39-__arm_cp.24_3
.Lfunc_end24:
	.size	ob_write_protection_area_config, .Lfunc_end24-ob_write_protection_area_config
	.cfi_endproc
	.cantunwind
	.fnend
                                        @ -- End function
	.section	.text.ob_scr_area_config,"ax",%progbits
	.hidden	ob_scr_area_config              @ -- Begin function ob_scr_area_config
	.globl	ob_scr_area_config
	.p2align	2
	.type	ob_scr_area_config,%function
	.code	16                              @ @ob_scr_area_config
	.thumb_func
ob_scr_area_config:
.Lfunc_begin25:
	.loc	4 760 0 is_stmt 1               @ ../std/GD32C2x1_Firmware_Library/GD32C2x1_standard_peripheral/Source/gd32c2x1_fmc.c:760:0
	.fnstart
	.cfi_startproc
@ %bb.0:
	.save	{r7, lr}
	push	{r7, lr}
	.cfi_def_cfa_offset 8
	.cfi_offset lr, -4
	.cfi_offset r7, -8
	.pad	#16
	sub	sp, #16
	.cfi_def_cfa_offset 24
	str	r0, [sp, #12]
	ldr	r0, __arm_cp.25_0
.Ltmp131:
	.loc	4 771 25 prologue_end           @ ../std/GD32C2x1_Firmware_Library/GD32C2x1_standard_peripheral/Source/gd32c2x1_fmc.c:771:25
	ldr	r0, [r0]
	.loc	4 771 35 is_stmt 0              @ ../std/GD32C2x1_Firmware_Library/GD32C2x1_standard_peripheral/Source/gd32c2x1_fmc.c:771:35
	uxtb	r0, r0
.Ltmp132:
	.loc	4 771 12                        @ ../std/GD32C2x1_Firmware_Library/GD32C2x1_standard_peripheral/Source/gd32c2x1_fmc.c:771:12
	cmp	r0, #204
	bne	.LBB25_2
	b	.LBB25_1
.LBB25_1:
	.loc	4 0 12                          @ ../std/GD32C2x1_Firmware_Library/GD32C2x1_standard_peripheral/Source/gd32c2x1_fmc.c:0:12
	add	r1, sp, #4
	movs	r0, #12
.Ltmp133:
	.loc	4 772 23 is_stmt 1              @ ../std/GD32C2x1_Firmware_Library/GD32C2x1_standard_peripheral/Source/gd32c2x1_fmc.c:772:23
	strb	r0, [r1]
	.loc	4 773 9                         @ ../std/GD32C2x1_Firmware_Library/GD32C2x1_standard_peripheral/Source/gd32c2x1_fmc.c:773:9
	b	.LBB25_5
.Ltmp134:
.LBB25_2:
	.loc	4 0 9 is_stmt 0                 @ ../std/GD32C2x1_Firmware_Library/GD32C2x1_standard_peripheral/Source/gd32c2x1_fmc.c:0:9
	movs	r0, #0
	mvns	r0, r0
.Ltmp135:
	.loc	4 775 25 is_stmt 1              @ ../std/GD32C2x1_Firmware_Library/GD32C2x1_standard_peripheral/Source/gd32c2x1_fmc.c:775:25
	bl	fmc_ready_wait
	mov	r1, r0
	add	r0, sp, #4
	.loc	4 775 23 is_stmt 0              @ ../std/GD32C2x1_Firmware_Library/GD32C2x1_standard_peripheral/Source/gd32c2x1_fmc.c:775:23
	strb	r1, [r0]
.Ltmp136:
	.loc	4 777 29 is_stmt 1              @ ../std/GD32C2x1_Firmware_Library/GD32C2x1_standard_peripheral/Source/gd32c2x1_fmc.c:777:29
	ldrb	r0, [r0]
.Ltmp137:
	.loc	4 777 16 is_stmt 0              @ ../std/GD32C2x1_Firmware_Library/GD32C2x1_standard_peripheral/Source/gd32c2x1_fmc.c:777:16
	cbnz	r0, .LBB25_4
	b	.LBB25_3
.LBB25_3:
	.loc	4 0 16                          @ ../std/GD32C2x1_Firmware_Library/GD32C2x1_standard_peripheral/Source/gd32c2x1_fmc.c:0:16
	ldr	r1, __arm_cp.25_1
.Ltmp138:
	.loc	4 779 29 is_stmt 1              @ ../std/GD32C2x1_Firmware_Library/GD32C2x1_standard_peripheral/Source/gd32c2x1_fmc.c:779:29
	ldr	r0, [r1]
	.loc	4 779 27 is_stmt 0              @ ../std/GD32C2x1_Firmware_Library/GD32C2x1_standard_peripheral/Source/gd32c2x1_fmc.c:779:27
	str	r0, [sp, #8]
	.loc	4 780 27 is_stmt 1              @ ../std/GD32C2x1_Firmware_Library/GD32C2x1_standard_peripheral/Source/gd32c2x1_fmc.c:780:27
	ldr	r0, [sp, #8]
	movs	r2, #127
	bics	r0, r2
	str	r0, [sp, #8]
	.loc	4 781 30                        @ ../std/GD32C2x1_Firmware_Library/GD32C2x1_standard_peripheral/Source/gd32c2x1_fmc.c:781:30
	ldr	r2, [sp, #12]
	.loc	4 781 27 is_stmt 0              @ ../std/GD32C2x1_Firmware_Library/GD32C2x1_standard_peripheral/Source/gd32c2x1_fmc.c:781:27
	ldr	r0, [sp, #8]
	orrs	r0, r2
	str	r0, [sp, #8]
	.loc	4 782 27 is_stmt 1              @ ../std/GD32C2x1_Firmware_Library/GD32C2x1_standard_peripheral/Source/gd32c2x1_fmc.c:782:27
	ldr	r0, [sp, #8]
	.loc	4 782 25 is_stmt 0              @ ../std/GD32C2x1_Firmware_Library/GD32C2x1_standard_peripheral/Source/gd32c2x1_fmc.c:782:25
	str	r0, [r1]
	.loc	4 783 13 is_stmt 1              @ ../std/GD32C2x1_Firmware_Library/GD32C2x1_standard_peripheral/Source/gd32c2x1_fmc.c:783:13
	b	.LBB25_4
.Ltmp139:
.LBB25_4:
	.loc	4 0 13 is_stmt 0                @ ../std/GD32C2x1_Firmware_Library/GD32C2x1_standard_peripheral/Source/gd32c2x1_fmc.c:0:13
	ldr	r1, __arm_cp.25_2
	.loc	4 786 21 is_stmt 1              @ ../std/GD32C2x1_Firmware_Library/GD32C2x1_standard_peripheral/Source/gd32c2x1_fmc.c:786:21
	ldr	r0, [r1]
	movs	r2, #1
	lsls	r2, r2, #17
	orrs	r0, r2
	str	r0, [r1]
	movs	r0, #0
	mvns	r0, r0
	.loc	4 789 25                        @ ../std/GD32C2x1_Firmware_Library/GD32C2x1_standard_peripheral/Source/gd32c2x1_fmc.c:789:25
	bl	fmc_ready_wait
	add	r1, sp, #4
	.loc	4 789 23 is_stmt 0              @ ../std/GD32C2x1_Firmware_Library/GD32C2x1_standard_peripheral/Source/gd32c2x1_fmc.c:789:23
	strb	r0, [r1]
	b	.LBB25_5
.Ltmp140:
.LBB25_5:
	.loc	4 0 23                          @ ../std/GD32C2x1_Firmware_Library/GD32C2x1_standard_peripheral/Source/gd32c2x1_fmc.c:0:23
	add	r0, sp, #4
	.loc	4 794 12 is_stmt 1              @ ../std/GD32C2x1_Firmware_Library/GD32C2x1_standard_peripheral/Source/gd32c2x1_fmc.c:794:12
	ldrb	r0, [r0]
	.loc	4 794 5 is_stmt 0               @ ../std/GD32C2x1_Firmware_Library/GD32C2x1_standard_peripheral/Source/gd32c2x1_fmc.c:794:5
	add	sp, #16
	pop	{r7, pc}
.Ltmp141:
	.p2align	2
@ %bb.6:
	.loc	4 0 5                           @ ../std/GD32C2x1_Firmware_Library/GD32C2x1_standard_peripheral/Source/gd32c2x1_fmc.c:0:5
__arm_cp.25_0:
	.long	1073881120                      @ 0x40022020
.Lcpi_end40:
	.size	__arm_cp.25_0, .Lcpi_end40-__arm_cp.25_0
__arm_cp.25_1:
	.long	1073881216                      @ 0x40022080
.Lcpi_end41:
	.size	__arm_cp.25_1, .Lcpi_end41-__arm_cp.25_1
__arm_cp.25_2:
	.long	1073881108                      @ 0x40022014
.Lcpi_end42:
	.size	__arm_cp.25_2, .Lcpi_end42-__arm_cp.25_2
.Lfunc_end25:
	.size	ob_scr_area_config, .Lfunc_end25-ob_scr_area_config
	.cfi_endproc
	.cantunwind
	.fnend
                                        @ -- End function
	.section	.text.ob_boot_lock_config,"ax",%progbits
	.hidden	ob_boot_lock_config             @ -- Begin function ob_boot_lock_config
	.globl	ob_boot_lock_config
	.p2align	2
	.type	ob_boot_lock_config,%function
	.code	16                              @ @ob_boot_lock_config
	.thumb_func
ob_boot_lock_config:
.Lfunc_begin26:
	.loc	4 821 0 is_stmt 1               @ ../std/GD32C2x1_Firmware_Library/GD32C2x1_standard_peripheral/Source/gd32c2x1_fmc.c:821:0
	.fnstart
	.cfi_startproc
@ %bb.0:
	.save	{r7, lr}
	push	{r7, lr}
	.cfi_def_cfa_offset 8
	.cfi_offset lr, -4
	.cfi_offset r7, -8
	.pad	#16
	sub	sp, #16
	.cfi_def_cfa_offset 24
	str	r0, [sp, #12]
	ldr	r0, __arm_cp.26_0
.Ltmp142:
	.loc	4 826 21 prologue_end           @ ../std/GD32C2x1_Firmware_Library/GD32C2x1_standard_peripheral/Source/gd32c2x1_fmc.c:826:21
	ldr	r0, [r0]
	.loc	4 826 31 is_stmt 0              @ ../std/GD32C2x1_Firmware_Library/GD32C2x1_standard_peripheral/Source/gd32c2x1_fmc.c:826:31
	uxtb	r0, r0
.Ltmp143:
	.loc	4 826 8                         @ ../std/GD32C2x1_Firmware_Library/GD32C2x1_standard_peripheral/Source/gd32c2x1_fmc.c:826:8
	cmp	r0, #204
	bne	.LBB26_2
	b	.LBB26_1
.LBB26_1:
	.loc	4 0 8                           @ ../std/GD32C2x1_Firmware_Library/GD32C2x1_standard_peripheral/Source/gd32c2x1_fmc.c:0:8
	add	r1, sp, #4
	movs	r0, #12
.Ltmp144:
	.loc	4 827 19 is_stmt 1              @ ../std/GD32C2x1_Firmware_Library/GD32C2x1_standard_peripheral/Source/gd32c2x1_fmc.c:827:19
	strb	r0, [r1]
	.loc	4 828 5                         @ ../std/GD32C2x1_Firmware_Library/GD32C2x1_standard_peripheral/Source/gd32c2x1_fmc.c:828:5
	b	.LBB26_5
.Ltmp145:
.LBB26_2:
	.loc	4 0 5 is_stmt 0                 @ ../std/GD32C2x1_Firmware_Library/GD32C2x1_standard_peripheral/Source/gd32c2x1_fmc.c:0:5
	movs	r0, #0
	mvns	r0, r0
.Ltmp146:
	.loc	4 830 21 is_stmt 1              @ ../std/GD32C2x1_Firmware_Library/GD32C2x1_standard_peripheral/Source/gd32c2x1_fmc.c:830:21
	bl	fmc_ready_wait
	mov	r1, r0
	add	r0, sp, #4
	.loc	4 830 19 is_stmt 0              @ ../std/GD32C2x1_Firmware_Library/GD32C2x1_standard_peripheral/Source/gd32c2x1_fmc.c:830:19
	strb	r1, [r0]
.Ltmp147:
	.loc	4 832 25 is_stmt 1              @ ../std/GD32C2x1_Firmware_Library/GD32C2x1_standard_peripheral/Source/gd32c2x1_fmc.c:832:25
	ldrb	r0, [r0]
.Ltmp148:
	.loc	4 832 12 is_stmt 0              @ ../std/GD32C2x1_Firmware_Library/GD32C2x1_standard_peripheral/Source/gd32c2x1_fmc.c:832:12
	cbnz	r0, .LBB26_4
	b	.LBB26_3
.LBB26_3:
	.loc	4 0 12                          @ ../std/GD32C2x1_Firmware_Library/GD32C2x1_standard_peripheral/Source/gd32c2x1_fmc.c:0:12
	ldr	r1, __arm_cp.26_1
.Ltmp149:
	.loc	4 833 25 is_stmt 1              @ ../std/GD32C2x1_Firmware_Library/GD32C2x1_standard_peripheral/Source/gd32c2x1_fmc.c:833:25
	ldr	r0, [r1]
	.loc	4 833 23 is_stmt 0              @ ../std/GD32C2x1_Firmware_Library/GD32C2x1_standard_peripheral/Source/gd32c2x1_fmc.c:833:23
	str	r0, [sp, #8]
	.loc	4 834 23 is_stmt 1              @ ../std/GD32C2x1_Firmware_Library/GD32C2x1_standard_peripheral/Source/gd32c2x1_fmc.c:834:23
	ldr	r3, [sp, #8]
	movs	r2, #1
	lsls	r0, r2, #16
	bics	r3, r0
	str	r3, [sp, #8]
	.loc	4 835 26                        @ ../std/GD32C2x1_Firmware_Library/GD32C2x1_standard_peripheral/Source/gd32c2x1_fmc.c:835:26
	ldr	r3, [sp, #12]
	.loc	4 835 38 is_stmt 0              @ ../std/GD32C2x1_Firmware_Library/GD32C2x1_standard_peripheral/Source/gd32c2x1_fmc.c:835:38
	ands	r3, r0
	.loc	4 835 23                        @ ../std/GD32C2x1_Firmware_Library/GD32C2x1_standard_peripheral/Source/gd32c2x1_fmc.c:835:23
	ldr	r0, [sp, #8]
	orrs	r0, r3
	str	r0, [sp, #8]
	.loc	4 836 23 is_stmt 1              @ ../std/GD32C2x1_Firmware_Library/GD32C2x1_standard_peripheral/Source/gd32c2x1_fmc.c:836:23
	ldr	r0, [sp, #8]
	.loc	4 836 21 is_stmt 0              @ ../std/GD32C2x1_Firmware_Library/GD32C2x1_standard_peripheral/Source/gd32c2x1_fmc.c:836:21
	str	r0, [r1]
	ldr	r1, __arm_cp.26_2
	.loc	4 839 21 is_stmt 1              @ ../std/GD32C2x1_Firmware_Library/GD32C2x1_standard_peripheral/Source/gd32c2x1_fmc.c:839:21
	ldr	r0, [r1]
	lsls	r2, r2, #17
	orrs	r0, r2
	str	r0, [r1]
	movs	r0, #0
	mvns	r0, r0
	.loc	4 842 25                        @ ../std/GD32C2x1_Firmware_Library/GD32C2x1_standard_peripheral/Source/gd32c2x1_fmc.c:842:25
	bl	fmc_ready_wait
	add	r1, sp, #4
	.loc	4 842 23 is_stmt 0              @ ../std/GD32C2x1_Firmware_Library/GD32C2x1_standard_peripheral/Source/gd32c2x1_fmc.c:842:23
	strb	r0, [r1]
	.loc	4 843 9 is_stmt 1               @ ../std/GD32C2x1_Firmware_Library/GD32C2x1_standard_peripheral/Source/gd32c2x1_fmc.c:843:9
	b	.LBB26_4
.Ltmp150:
.LBB26_4:
	.loc	4 0 9 is_stmt 0                 @ ../std/GD32C2x1_Firmware_Library/GD32C2x1_standard_peripheral/Source/gd32c2x1_fmc.c:0:9
	b	.LBB26_5
.LBB26_5:
	add	r0, sp, #4
	.loc	4 846 12 is_stmt 1              @ ../std/GD32C2x1_Firmware_Library/GD32C2x1_standard_peripheral/Source/gd32c2x1_fmc.c:846:12
	ldrb	r0, [r0]
	.loc	4 846 5 is_stmt 0               @ ../std/GD32C2x1_Firmware_Library/GD32C2x1_standard_peripheral/Source/gd32c2x1_fmc.c:846:5
	add	sp, #16
	pop	{r7, pc}
.Ltmp151:
	.p2align	2
@ %bb.6:
	.loc	4 0 5                           @ ../std/GD32C2x1_Firmware_Library/GD32C2x1_standard_peripheral/Source/gd32c2x1_fmc.c:0:5
__arm_cp.26_0:
	.long	1073881120                      @ 0x40022020
.Lcpi_end43:
	.size	__arm_cp.26_0, .Lcpi_end43-__arm_cp.26_0
__arm_cp.26_1:
	.long	1073881216                      @ 0x40022080
.Lcpi_end44:
	.size	__arm_cp.26_1, .Lcpi_end44-__arm_cp.26_1
__arm_cp.26_2:
	.long	1073881108                      @ 0x40022014
.Lcpi_end45:
	.size	__arm_cp.26_2, .Lcpi_end45-__arm_cp.26_2
.Lfunc_end26:
	.size	ob_boot_lock_config, .Lfunc_end26-ob_boot_lock_config
	.cfi_endproc
	.cantunwind
	.fnend
                                        @ -- End function
	.section	.text.ob_user_get,"ax",%progbits
	.hidden	ob_user_get                     @ -- Begin function ob_user_get
	.globl	ob_user_get
	.p2align	2
	.type	ob_user_get,%function
	.code	16                              @ @ob_user_get
	.thumb_func
ob_user_get:
.Lfunc_begin27:
	.loc	4 874 0 is_stmt 1               @ ../std/GD32C2x1_Firmware_Library/GD32C2x1_standard_peripheral/Source/gd32c2x1_fmc.c:874:0
	.fnstart
	.cfi_startproc
@ %bb.0:
	.pad	#20
	sub	sp, #20
	.cfi_def_cfa_offset 20
	str	r0, [sp, #16]
	str	r1, [sp, #12]
	movs	r0, #0
.Ltmp152:
	.loc	4 875 14 prologue_end           @ ../std/GD32C2x1_Firmware_Library/GD32C2x1_standard_peripheral/Source/gd32c2x1_fmc.c:875:14
	str	r0, [sp, #8]
.Ltmp153:
	.loc	4 883 45                        @ ../std/GD32C2x1_Firmware_Library/GD32C2x1_standard_peripheral/Source/gd32c2x1_fmc.c:883:45
	ldr	r0, [sp, #16]
	ldr	r1, __arm_cp.27_0
	.loc	4 883 68 is_stmt 0              @ ../std/GD32C2x1_Firmware_Library/GD32C2x1_standard_peripheral/Source/gd32c2x1_fmc.c:883:68
	ands	r0, r1
	.loc	4 883 18                        @ ../std/GD32C2x1_Firmware_Library/GD32C2x1_standard_peripheral/Source/gd32c2x1_fmc.c:883:18
	str	r0, [sp, #4]
	.loc	4 884 65 is_stmt 1              @ ../std/GD32C2x1_Firmware_Library/GD32C2x1_standard_peripheral/Source/gd32c2x1_fmc.c:884:65
	ldr	r0, [sp, #16]
	movs	r1, #15
	.loc	4 884 88 is_stmt 0              @ ../std/GD32C2x1_Firmware_Library/GD32C2x1_standard_peripheral/Source/gd32c2x1_fmc.c:884:88
	ands	r0, r1
	mov	r1, sp
	.loc	4 884 18                        @ ../std/GD32C2x1_Firmware_Library/GD32C2x1_standard_peripheral/Source/gd32c2x1_fmc.c:884:18
	strb	r0, [r1]
	ldr	r0, __arm_cp.27_1
	.loc	4 885 36 is_stmt 1              @ ../std/GD32C2x1_Firmware_Library/GD32C2x1_standard_peripheral/Source/gd32c2x1_fmc.c:885:36
	ldr	r0, [r0]
	.loc	4 885 48 is_stmt 0              @ ../std/GD32C2x1_Firmware_Library/GD32C2x1_standard_peripheral/Source/gd32c2x1_fmc.c:885:48
	ldr	r2, [sp, #4]
	.loc	4 885 46                        @ ../std/GD32C2x1_Firmware_Library/GD32C2x1_standard_peripheral/Source/gd32c2x1_fmc.c:885:46
	ands	r0, r2
	.loc	4 885 67                        @ ../std/GD32C2x1_Firmware_Library/GD32C2x1_standard_peripheral/Source/gd32c2x1_fmc.c:885:67
	ldrb	r1, [r1]
	.loc	4 885 64                        @ ../std/GD32C2x1_Firmware_Library/GD32C2x1_standard_peripheral/Source/gd32c2x1_fmc.c:885:64
	lsrs	r0, r1
	.loc	4 885 10                        @ ../std/GD32C2x1_Firmware_Library/GD32C2x1_standard_peripheral/Source/gd32c2x1_fmc.c:885:10
	ldr	r1, [sp, #12]
	.loc	4 885 23                        @ ../std/GD32C2x1_Firmware_Library/GD32C2x1_standard_peripheral/Source/gd32c2x1_fmc.c:885:23
	strb	r0, [r1]
	movs	r0, #1
	.loc	4 886 13 is_stmt 1              @ ../std/GD32C2x1_Firmware_Library/GD32C2x1_standard_peripheral/Source/gd32c2x1_fmc.c:886:13
	str	r0, [sp, #8]
.Ltmp154:
	.loc	4 888 12                        @ ../std/GD32C2x1_Firmware_Library/GD32C2x1_standard_peripheral/Source/gd32c2x1_fmc.c:888:12
	ldr	r0, [sp, #8]
	.loc	4 888 5 is_stmt 0               @ ../std/GD32C2x1_Firmware_Library/GD32C2x1_standard_peripheral/Source/gd32c2x1_fmc.c:888:5
	add	sp, #20
	bx	lr
.Ltmp155:
	.p2align	2
@ %bb.1:
	.loc	4 0 5                           @ ../std/GD32C2x1_Firmware_Library/GD32C2x1_standard_peripheral/Source/gd32c2x1_fmc.c:0:5
__arm_cp.27_0:
	.long	65520                           @ 0xfff0
.Lcpi_end46:
	.size	__arm_cp.27_0, .Lcpi_end46-__arm_cp.27_0
__arm_cp.27_1:
	.long	1073881120                      @ 0x40022020
.Lcpi_end47:
	.size	__arm_cp.27_1, .Lcpi_end47-__arm_cp.27_1
.Lfunc_end27:
	.size	ob_user_get, .Lfunc_end27-ob_user_get
	.cfi_endproc
	.cantunwind
	.fnend
                                        @ -- End function
	.section	.text.ob_security_protection_level_get,"ax",%progbits
	.hidden	ob_security_protection_level_get @ -- Begin function ob_security_protection_level_get
	.globl	ob_security_protection_level_get
	.p2align	2
	.type	ob_security_protection_level_get,%function
	.code	16                              @ @ob_security_protection_level_get
	.thumb_func
ob_security_protection_level_get:
.Lfunc_begin28:
	.loc	4 901 0 is_stmt 1               @ ../std/GD32C2x1_Firmware_Library/GD32C2x1_standard_peripheral/Source/gd32c2x1_fmc.c:901:0
	.fnstart
	.cfi_startproc
@ %bb.0:
	ldr	r0, __arm_cp.28_0
.Ltmp156:
	.loc	4 902 23 prologue_end           @ ../std/GD32C2x1_Firmware_Library/GD32C2x1_standard_peripheral/Source/gd32c2x1_fmc.c:902:23
	ldr	r0, [r0]
	.loc	4 902 33 is_stmt 0              @ ../std/GD32C2x1_Firmware_Library/GD32C2x1_standard_peripheral/Source/gd32c2x1_fmc.c:902:33
	uxtb	r0, r0
	.loc	4 902 5                         @ ../std/GD32C2x1_Firmware_Library/GD32C2x1_standard_peripheral/Source/gd32c2x1_fmc.c:902:5
	bx	lr
.Ltmp157:
	.p2align	2
@ %bb.1:
	.loc	4 0 5                           @ ../std/GD32C2x1_Firmware_Library/GD32C2x1_standard_peripheral/Source/gd32c2x1_fmc.c:0:5
__arm_cp.28_0:
	.long	1073881120                      @ 0x40022020
.Lcpi_end48:
	.size	__arm_cp.28_0, .Lcpi_end48-__arm_cp.28_0
.Lfunc_end28:
	.size	ob_security_protection_level_get, .Lfunc_end28-ob_security_protection_level_get
	.cfi_endproc
	.cantunwind
	.fnend
                                        @ -- End function
	.section	.text.ob_dcrp_area_get,"ax",%progbits
	.hidden	ob_dcrp_area_get                @ -- Begin function ob_dcrp_area_get
	.globl	ob_dcrp_area_get
	.p2align	2
	.type	ob_dcrp_area_get,%function
	.code	16                              @ @ob_dcrp_area_get
	.thumb_func
ob_dcrp_area_get:
.Lfunc_begin29:
	.loc	4 920 0 is_stmt 1               @ ../std/GD32C2x1_Firmware_Library/GD32C2x1_standard_peripheral/Source/gd32c2x1_fmc.c:920:0
	.fnstart
	.cfi_startproc
@ %bb.0:
	.pad	#28
	sub	sp, #28
	.cfi_def_cfa_offset 28
	str	r0, [sp, #24]
	str	r1, [sp, #20]
	str	r2, [sp, #16]
	str	r3, [sp, #12]
	movs	r0, #0
.Ltmp158:
	.loc	4 922 14 prologue_end           @ ../std/GD32C2x1_Firmware_Library/GD32C2x1_standard_peripheral/Source/gd32c2x1_fmc.c:922:14
	str	r0, [sp]
.Ltmp159:
	.loc	4 933 27                        @ ../std/GD32C2x1_Firmware_Library/GD32C2x1_standard_peripheral/Source/gd32c2x1_fmc.c:933:27
	ldr	r0, [sp, #24]
.Ltmp160:
	.loc	4 933 12 is_stmt 0              @ ../std/GD32C2x1_Firmware_Library/GD32C2x1_standard_peripheral/Source/gd32c2x1_fmc.c:933:12
	cbnz	r0, .LBB29_2
	b	.LBB29_1
.LBB29_1:
	.loc	4 0 12                          @ ../std/GD32C2x1_Firmware_Library/GD32C2x1_standard_peripheral/Source/gd32c2x1_fmc.c:0:12
	ldr	r0, __arm_cp.29_2
.Ltmp161:
	.loc	4 934 32 is_stmt 1              @ ../std/GD32C2x1_Firmware_Library/GD32C2x1_standard_peripheral/Source/gd32c2x1_fmc.c:934:32
	ldr	r0, [r0]
	movs	r1, #127
	.loc	4 934 48 is_stmt 0              @ ../std/GD32C2x1_Firmware_Library/GD32C2x1_standard_peripheral/Source/gd32c2x1_fmc.c:934:48
	ands	r0, r1
	.loc	4 934 29                        @ ../std/GD32C2x1_Firmware_Library/GD32C2x1_standard_peripheral/Source/gd32c2x1_fmc.c:934:29
	str	r0, [sp, #8]
	ldr	r0, __arm_cp.29_3
	.loc	4 935 30 is_stmt 1              @ ../std/GD32C2x1_Firmware_Library/GD32C2x1_standard_peripheral/Source/gd32c2x1_fmc.c:935:30
	ldr	r0, [r0]
	.loc	4 935 46 is_stmt 0              @ ../std/GD32C2x1_Firmware_Library/GD32C2x1_standard_peripheral/Source/gd32c2x1_fmc.c:935:46
	ands	r0, r1
	.loc	4 935 27                        @ ../std/GD32C2x1_Firmware_Library/GD32C2x1_standard_peripheral/Source/gd32c2x1_fmc.c:935:27
	str	r0, [sp, #4]
	.loc	4 937 9 is_stmt 1               @ ../std/GD32C2x1_Firmware_Library/GD32C2x1_standard_peripheral/Source/gd32c2x1_fmc.c:937:9
	b	.LBB29_3
.Ltmp162:
.LBB29_2:
	.loc	4 0 9 is_stmt 0                 @ ../std/GD32C2x1_Firmware_Library/GD32C2x1_standard_peripheral/Source/gd32c2x1_fmc.c:0:9
	ldr	r0, __arm_cp.29_0
.Ltmp163:
	.loc	4 938 32 is_stmt 1              @ ../std/GD32C2x1_Firmware_Library/GD32C2x1_standard_peripheral/Source/gd32c2x1_fmc.c:938:32
	ldr	r0, [r0]
	movs	r1, #127
	.loc	4 938 48 is_stmt 0              @ ../std/GD32C2x1_Firmware_Library/GD32C2x1_standard_peripheral/Source/gd32c2x1_fmc.c:938:48
	ands	r0, r1
	.loc	4 938 29                        @ ../std/GD32C2x1_Firmware_Library/GD32C2x1_standard_peripheral/Source/gd32c2x1_fmc.c:938:29
	str	r0, [sp, #8]
	ldr	r0, __arm_cp.29_1
	.loc	4 939 30 is_stmt 1              @ ../std/GD32C2x1_Firmware_Library/GD32C2x1_standard_peripheral/Source/gd32c2x1_fmc.c:939:30
	ldr	r0, [r0]
	.loc	4 939 46 is_stmt 0              @ ../std/GD32C2x1_Firmware_Library/GD32C2x1_standard_peripheral/Source/gd32c2x1_fmc.c:939:46
	ands	r0, r1
	.loc	4 939 27                        @ ../std/GD32C2x1_Firmware_Library/GD32C2x1_standard_peripheral/Source/gd32c2x1_fmc.c:939:27
	str	r0, [sp, #4]
	b	.LBB29_3
.Ltmp164:
.LBB29_3:
	.loc	4 0 27                          @ ../std/GD32C2x1_Firmware_Library/GD32C2x1_standard_peripheral/Source/gd32c2x1_fmc.c:0:27
	ldr	r0, __arm_cp.29_3
	.loc	4 942 31 is_stmt 1              @ ../std/GD32C2x1_Firmware_Library/GD32C2x1_standard_peripheral/Source/gd32c2x1_fmc.c:942:31
	ldr	r0, [r0]
	.loc	4 942 76 is_stmt 0              @ ../std/GD32C2x1_Firmware_Library/GD32C2x1_standard_peripheral/Source/gd32c2x1_fmc.c:942:76
	lsrs	r0, r0, #31
	.loc	4 942 10                        @ ../std/GD32C2x1_Firmware_Library/GD32C2x1_standard_peripheral/Source/gd32c2x1_fmc.c:942:10
	ldr	r1, [sp, #20]
	.loc	4 942 28                        @ ../std/GD32C2x1_Firmware_Library/GD32C2x1_standard_peripheral/Source/gd32c2x1_fmc.c:942:28
	str	r0, [r1]
	.loc	4 944 49 is_stmt 1              @ ../std/GD32C2x1_Firmware_Library/GD32C2x1_standard_peripheral/Source/gd32c2x1_fmc.c:944:49
	ldr	r0, [sp, #8]
	.loc	4 944 65 is_stmt 0              @ ../std/GD32C2x1_Firmware_Library/GD32C2x1_standard_peripheral/Source/gd32c2x1_fmc.c:944:65
	lsls	r0, r0, #9
	movs	r1, #1
	lsls	r1, r1, #27
	.loc	4 944 47                        @ ../std/GD32C2x1_Firmware_Library/GD32C2x1_standard_peripheral/Source/gd32c2x1_fmc.c:944:47
	adds	r0, r0, r1
	.loc	4 944 10                        @ ../std/GD32C2x1_Firmware_Library/GD32C2x1_standard_peripheral/Source/gd32c2x1_fmc.c:944:10
	ldr	r1, [sp, #16]
	.loc	4 944 21                        @ ../std/GD32C2x1_Firmware_Library/GD32C2x1_standard_peripheral/Source/gd32c2x1_fmc.c:944:21
	str	r0, [r1]
	.loc	4 945 48 is_stmt 1              @ ../std/GD32C2x1_Firmware_Library/GD32C2x1_standard_peripheral/Source/gd32c2x1_fmc.c:945:48
	ldr	r0, [sp, #4]
	.loc	4 945 62 is_stmt 0              @ ../std/GD32C2x1_Firmware_Library/GD32C2x1_standard_peripheral/Source/gd32c2x1_fmc.c:945:62
	lsls	r0, r0, #9
	ldr	r1, __arm_cp.29_4
	.loc	4 945 93                        @ ../std/GD32C2x1_Firmware_Library/GD32C2x1_standard_peripheral/Source/gd32c2x1_fmc.c:945:93
	adds	r0, r0, r1
	.loc	4 945 10                        @ ../std/GD32C2x1_Firmware_Library/GD32C2x1_standard_peripheral/Source/gd32c2x1_fmc.c:945:10
	ldr	r1, [sp, #12]
	.loc	4 945 19                        @ ../std/GD32C2x1_Firmware_Library/GD32C2x1_standard_peripheral/Source/gd32c2x1_fmc.c:945:19
	str	r0, [r1]
.Ltmp165:
	.loc	4 947 12 is_stmt 1              @ ../std/GD32C2x1_Firmware_Library/GD32C2x1_standard_peripheral/Source/gd32c2x1_fmc.c:947:12
	ldr	r0, [sp, #8]
	.loc	4 947 31 is_stmt 0              @ ../std/GD32C2x1_Firmware_Library/GD32C2x1_standard_peripheral/Source/gd32c2x1_fmc.c:947:31
	ldr	r1, [sp, #4]
.Ltmp166:
	.loc	4 947 12                        @ ../std/GD32C2x1_Firmware_Library/GD32C2x1_standard_peripheral/Source/gd32c2x1_fmc.c:947:12
	cmp	r0, r1
	bhi	.LBB29_5
	b	.LBB29_4
.LBB29_4:
	.loc	4 0 12                          @ ../std/GD32C2x1_Firmware_Library/GD32C2x1_standard_peripheral/Source/gd32c2x1_fmc.c:0:12
	movs	r0, #1
.Ltmp167:
	.loc	4 949 17 is_stmt 1              @ ../std/GD32C2x1_Firmware_Library/GD32C2x1_standard_peripheral/Source/gd32c2x1_fmc.c:949:17
	str	r0, [sp]
	.loc	4 950 9                         @ ../std/GD32C2x1_Firmware_Library/GD32C2x1_standard_peripheral/Source/gd32c2x1_fmc.c:950:9
	b	.LBB29_6
.Ltmp168:
.LBB29_5:
	.loc	4 0 9 is_stmt 0                 @ ../std/GD32C2x1_Firmware_Library/GD32C2x1_standard_peripheral/Source/gd32c2x1_fmc.c:0:9
	movs	r0, #0
.Ltmp169:
	.loc	4 952 17 is_stmt 1              @ ../std/GD32C2x1_Firmware_Library/GD32C2x1_standard_peripheral/Source/gd32c2x1_fmc.c:952:17
	str	r0, [sp]
	b	.LBB29_6
.Ltmp170:
.LBB29_6:
	.loc	4 955 12                        @ ../std/GD32C2x1_Firmware_Library/GD32C2x1_standard_peripheral/Source/gd32c2x1_fmc.c:955:12
	ldr	r0, [sp]
	.loc	4 955 5 is_stmt 0               @ ../std/GD32C2x1_Firmware_Library/GD32C2x1_standard_peripheral/Source/gd32c2x1_fmc.c:955:5
	add	sp, #28
	bx	lr
.Ltmp171:
	.p2align	2
@ %bb.7:
	.loc	4 0 5                           @ ../std/GD32C2x1_Firmware_Library/GD32C2x1_standard_peripheral/Source/gd32c2x1_fmc.c:0:5
__arm_cp.29_0:
	.long	1073881140                      @ 0x40022034
.Lcpi_end49:
	.size	__arm_cp.29_0, .Lcpi_end49-__arm_cp.29_0
__arm_cp.29_1:
	.long	1073881144                      @ 0x40022038
.Lcpi_end50:
	.size	__arm_cp.29_1, .Lcpi_end50-__arm_cp.29_1
__arm_cp.29_2:
	.long	1073881124                      @ 0x40022024
.Lcpi_end51:
	.size	__arm_cp.29_2, .Lcpi_end51-__arm_cp.29_2
__arm_cp.29_3:
	.long	1073881128                      @ 0x40022028
.Lcpi_end52:
	.size	__arm_cp.29_3, .Lcpi_end52-__arm_cp.29_3
__arm_cp.29_4:
	.long	134218239                       @ 0x80001ff
.Lcpi_end53:
	.size	__arm_cp.29_4, .Lcpi_end53-__arm_cp.29_4
.Lfunc_end29:
	.size	ob_dcrp_area_get, .Lfunc_end29-ob_dcrp_area_get
	.cfi_endproc
	.cantunwind
	.fnend
                                        @ -- End function
	.section	.text.ob_write_protection_area_get,"ax",%progbits
	.hidden	ob_write_protection_area_get    @ -- Begin function ob_write_protection_area_get
	.globl	ob_write_protection_area_get
	.p2align	2
	.type	ob_write_protection_area_get,%function
	.code	16                              @ @ob_write_protection_area_get
	.thumb_func
ob_write_protection_area_get:
.Lfunc_begin30:
	.loc	4 972 0 is_stmt 1               @ ../std/GD32C2x1_Firmware_Library/GD32C2x1_standard_peripheral/Source/gd32c2x1_fmc.c:972:0
	.fnstart
	.cfi_startproc
@ %bb.0:
	.pad	#24
	sub	sp, #24
	.cfi_def_cfa_offset 24
	str	r0, [sp, #20]
	str	r1, [sp, #16]
	str	r2, [sp, #12]
	movs	r0, #0
.Ltmp172:
	.loc	4 974 14 prologue_end           @ ../std/GD32C2x1_Firmware_Library/GD32C2x1_standard_peripheral/Source/gd32c2x1_fmc.c:974:14
	str	r0, [sp]
.Ltmp173:
	.loc	4 984 25                        @ ../std/GD32C2x1_Firmware_Library/GD32C2x1_standard_peripheral/Source/gd32c2x1_fmc.c:984:25
	ldr	r0, [sp, #20]
.Ltmp174:
	.loc	4 984 12 is_stmt 0              @ ../std/GD32C2x1_Firmware_Library/GD32C2x1_standard_peripheral/Source/gd32c2x1_fmc.c:984:12
	cbnz	r0, .LBB30_2
	b	.LBB30_1
.LBB30_1:
	.loc	4 0 12                          @ ../std/GD32C2x1_Firmware_Library/GD32C2x1_standard_peripheral/Source/gd32c2x1_fmc.c:0:12
	ldr	r0, __arm_cp.30_1
.Ltmp175:
	.loc	4 985 30 is_stmt 1              @ ../std/GD32C2x1_Firmware_Library/GD32C2x1_standard_peripheral/Source/gd32c2x1_fmc.c:985:30
	ldr	r2, [r0]
	movs	r1, #63
	.loc	4 985 38 is_stmt 0              @ ../std/GD32C2x1_Firmware_Library/GD32C2x1_standard_peripheral/Source/gd32c2x1_fmc.c:985:38
	ands	r2, r1
	.loc	4 985 27                        @ ../std/GD32C2x1_Firmware_Library/GD32C2x1_standard_peripheral/Source/gd32c2x1_fmc.c:985:27
	str	r2, [sp, #8]
	.loc	4 986 28 is_stmt 1              @ ../std/GD32C2x1_Firmware_Library/GD32C2x1_standard_peripheral/Source/gd32c2x1_fmc.c:986:28
	ldr	r0, [r0]
	lsls	r1, r1, #16
	.loc	4 986 36 is_stmt 0              @ ../std/GD32C2x1_Firmware_Library/GD32C2x1_standard_peripheral/Source/gd32c2x1_fmc.c:986:36
	ands	r0, r1
	.loc	4 986 57                        @ ../std/GD32C2x1_Firmware_Library/GD32C2x1_standard_peripheral/Source/gd32c2x1_fmc.c:986:57
	lsrs	r0, r0, #16
	.loc	4 986 25                        @ ../std/GD32C2x1_Firmware_Library/GD32C2x1_standard_peripheral/Source/gd32c2x1_fmc.c:986:25
	str	r0, [sp, #4]
	.loc	4 987 9 is_stmt 1               @ ../std/GD32C2x1_Firmware_Library/GD32C2x1_standard_peripheral/Source/gd32c2x1_fmc.c:987:9
	b	.LBB30_3
.Ltmp176:
.LBB30_2:
	.loc	4 0 9 is_stmt 0                 @ ../std/GD32C2x1_Firmware_Library/GD32C2x1_standard_peripheral/Source/gd32c2x1_fmc.c:0:9
	ldr	r0, __arm_cp.30_0
.Ltmp177:
	.loc	4 988 30 is_stmt 1              @ ../std/GD32C2x1_Firmware_Library/GD32C2x1_standard_peripheral/Source/gd32c2x1_fmc.c:988:30
	ldr	r2, [r0]
	movs	r1, #63
	.loc	4 988 38 is_stmt 0              @ ../std/GD32C2x1_Firmware_Library/GD32C2x1_standard_peripheral/Source/gd32c2x1_fmc.c:988:38
	ands	r2, r1
	.loc	4 988 27                        @ ../std/GD32C2x1_Firmware_Library/GD32C2x1_standard_peripheral/Source/gd32c2x1_fmc.c:988:27
	str	r2, [sp, #8]
	.loc	4 989 28 is_stmt 1              @ ../std/GD32C2x1_Firmware_Library/GD32C2x1_standard_peripheral/Source/gd32c2x1_fmc.c:989:28
	ldr	r0, [r0]
	lsls	r1, r1, #16
	.loc	4 989 36 is_stmt 0              @ ../std/GD32C2x1_Firmware_Library/GD32C2x1_standard_peripheral/Source/gd32c2x1_fmc.c:989:36
	ands	r0, r1
	.loc	4 989 57                        @ ../std/GD32C2x1_Firmware_Library/GD32C2x1_standard_peripheral/Source/gd32c2x1_fmc.c:989:57
	lsrs	r0, r0, #16
	.loc	4 989 25                        @ ../std/GD32C2x1_Firmware_Library/GD32C2x1_standard_peripheral/Source/gd32c2x1_fmc.c:989:25
	str	r0, [sp, #4]
	b	.LBB30_3
.Ltmp178:
.LBB30_3:
	.loc	4 992 47 is_stmt 1              @ ../std/GD32C2x1_Firmware_Library/GD32C2x1_standard_peripheral/Source/gd32c2x1_fmc.c:992:47
	ldr	r0, [sp, #8]
	.loc	4 992 61 is_stmt 0              @ ../std/GD32C2x1_Firmware_Library/GD32C2x1_standard_peripheral/Source/gd32c2x1_fmc.c:992:61
	lsls	r0, r0, #10
	movs	r1, #1
	lsls	r1, r1, #27
	.loc	4 992 45                        @ ../std/GD32C2x1_Firmware_Library/GD32C2x1_standard_peripheral/Source/gd32c2x1_fmc.c:992:45
	adds	r0, r0, r1
	.loc	4 992 10                        @ ../std/GD32C2x1_Firmware_Library/GD32C2x1_standard_peripheral/Source/gd32c2x1_fmc.c:992:10
	ldr	r1, [sp, #16]
	.loc	4 992 19                        @ ../std/GD32C2x1_Firmware_Library/GD32C2x1_standard_peripheral/Source/gd32c2x1_fmc.c:992:19
	str	r0, [r1]
	.loc	4 993 46 is_stmt 1              @ ../std/GD32C2x1_Firmware_Library/GD32C2x1_standard_peripheral/Source/gd32c2x1_fmc.c:993:46
	ldr	r0, [sp, #4]
	.loc	4 993 58 is_stmt 0              @ ../std/GD32C2x1_Firmware_Library/GD32C2x1_standard_peripheral/Source/gd32c2x1_fmc.c:993:58
	lsls	r0, r0, #10
	ldr	r1, __arm_cp.30_2
	.loc	4 993 87                        @ ../std/GD32C2x1_Firmware_Library/GD32C2x1_standard_peripheral/Source/gd32c2x1_fmc.c:993:87
	adds	r0, r0, r1
	.loc	4 993 10                        @ ../std/GD32C2x1_Firmware_Library/GD32C2x1_standard_peripheral/Source/gd32c2x1_fmc.c:993:10
	ldr	r1, [sp, #12]
	.loc	4 993 17                        @ ../std/GD32C2x1_Firmware_Library/GD32C2x1_standard_peripheral/Source/gd32c2x1_fmc.c:993:17
	str	r0, [r1]
.Ltmp179:
	.loc	4 995 12 is_stmt 1              @ ../std/GD32C2x1_Firmware_Library/GD32C2x1_standard_peripheral/Source/gd32c2x1_fmc.c:995:12
	ldr	r0, [sp, #8]
	.loc	4 995 29 is_stmt 0              @ ../std/GD32C2x1_Firmware_Library/GD32C2x1_standard_peripheral/Source/gd32c2x1_fmc.c:995:29
	ldr	r1, [sp, #4]
.Ltmp180:
	.loc	4 995 12                        @ ../std/GD32C2x1_Firmware_Library/GD32C2x1_standard_peripheral/Source/gd32c2x1_fmc.c:995:12
	cmp	r0, r1
	bhi	.LBB30_5
	b	.LBB30_4
.LBB30_4:
	.loc	4 0 12                          @ ../std/GD32C2x1_Firmware_Library/GD32C2x1_standard_peripheral/Source/gd32c2x1_fmc.c:0:12
	movs	r0, #1
.Ltmp181:
	.loc	4 997 17 is_stmt 1              @ ../std/GD32C2x1_Firmware_Library/GD32C2x1_standard_peripheral/Source/gd32c2x1_fmc.c:997:17
	str	r0, [sp]
	.loc	4 998 9                         @ ../std/GD32C2x1_Firmware_Library/GD32C2x1_standard_peripheral/Source/gd32c2x1_fmc.c:998:9
	b	.LBB30_6
.Ltmp182:
.LBB30_5:
	.loc	4 0 9 is_stmt 0                 @ ../std/GD32C2x1_Firmware_Library/GD32C2x1_standard_peripheral/Source/gd32c2x1_fmc.c:0:9
	movs	r0, #0
.Ltmp183:
	.loc	4 1000 17 is_stmt 1             @ ../std/GD32C2x1_Firmware_Library/GD32C2x1_standard_peripheral/Source/gd32c2x1_fmc.c:1000:17
	str	r0, [sp]
	b	.LBB30_6
.Ltmp184:
.LBB30_6:
	.loc	4 1003 12                       @ ../std/GD32C2x1_Firmware_Library/GD32C2x1_standard_peripheral/Source/gd32c2x1_fmc.c:1003:12
	ldr	r0, [sp]
	.loc	4 1003 5 is_stmt 0              @ ../std/GD32C2x1_Firmware_Library/GD32C2x1_standard_peripheral/Source/gd32c2x1_fmc.c:1003:5
	add	sp, #24
	bx	lr
.Ltmp185:
	.p2align	2
@ %bb.7:
	.loc	4 0 5                           @ ../std/GD32C2x1_Firmware_Library/GD32C2x1_standard_peripheral/Source/gd32c2x1_fmc.c:0:5
__arm_cp.30_0:
	.long	1073881136                      @ 0x40022030
.Lcpi_end54:
	.size	__arm_cp.30_0, .Lcpi_end54-__arm_cp.30_0
__arm_cp.30_1:
	.long	1073881132                      @ 0x4002202c
.Lcpi_end55:
	.size	__arm_cp.30_1, .Lcpi_end55-__arm_cp.30_1
__arm_cp.30_2:
	.long	134218751                       @ 0x80003ff
.Lcpi_end56:
	.size	__arm_cp.30_2, .Lcpi_end56-__arm_cp.30_2
.Lfunc_end30:
	.size	ob_write_protection_area_get, .Lfunc_end30-ob_write_protection_area_get
	.cfi_endproc
	.cantunwind
	.fnend
                                        @ -- End function
	.section	.text.ob_scr_area_get,"ax",%progbits
	.hidden	ob_scr_area_get                 @ -- Begin function ob_scr_area_get
	.globl	ob_scr_area_get
	.p2align	2
	.type	ob_scr_area_get,%function
	.code	16                              @ @ob_scr_area_get
	.thumb_func
ob_scr_area_get:
.Lfunc_begin31:
	.loc	4 1011 0 is_stmt 1              @ ../std/GD32C2x1_Firmware_Library/GD32C2x1_standard_peripheral/Source/gd32c2x1_fmc.c:1011:0
	.fnstart
	.cfi_startproc
@ %bb.0:
	.pad	#12
	sub	sp, #12
	.cfi_def_cfa_offset 12
	str	r0, [sp, #8]
	movs	r0, #0
.Ltmp186:
	.loc	4 1013 14 prologue_end          @ ../std/GD32C2x1_Firmware_Library/GD32C2x1_standard_peripheral/Source/gd32c2x1_fmc.c:1013:14
	str	r0, [sp]
	ldr	r0, __arm_cp.31_0
.Ltmp187:
	.loc	4 1020 31                       @ ../std/GD32C2x1_Firmware_Library/GD32C2x1_standard_peripheral/Source/gd32c2x1_fmc.c:1020:31
	ldr	r0, [r0]
	movs	r1, #127
	.loc	4 1020 39 is_stmt 0             @ ../std/GD32C2x1_Firmware_Library/GD32C2x1_standard_peripheral/Source/gd32c2x1_fmc.c:1020:39
	ands	r0, r1
	.loc	4 1020 28                       @ ../std/GD32C2x1_Firmware_Library/GD32C2x1_standard_peripheral/Source/gd32c2x1_fmc.c:1020:28
	str	r0, [sp, #4]
	.loc	4 1021 30 is_stmt 1             @ ../std/GD32C2x1_Firmware_Library/GD32C2x1_standard_peripheral/Source/gd32c2x1_fmc.c:1021:30
	ldr	r0, [sp, #4]
	.loc	4 1021 49 is_stmt 0             @ ../std/GD32C2x1_Firmware_Library/GD32C2x1_standard_peripheral/Source/gd32c2x1_fmc.c:1021:49
	lsls	r0, r0, #10
	.loc	4 1021 10                       @ ../std/GD32C2x1_Firmware_Library/GD32C2x1_standard_peripheral/Source/gd32c2x1_fmc.c:1021:10
	ldr	r1, [sp, #8]
	.loc	4 1021 28                       @ ../std/GD32C2x1_Firmware_Library/GD32C2x1_standard_peripheral/Source/gd32c2x1_fmc.c:1021:28
	str	r0, [r1]
	movs	r0, #1
	.loc	4 1022 13 is_stmt 1             @ ../std/GD32C2x1_Firmware_Library/GD32C2x1_standard_peripheral/Source/gd32c2x1_fmc.c:1022:13
	str	r0, [sp]
.Ltmp188:
	.loc	4 1024 12                       @ ../std/GD32C2x1_Firmware_Library/GD32C2x1_standard_peripheral/Source/gd32c2x1_fmc.c:1024:12
	ldr	r0, [sp]
	.loc	4 1024 5 is_stmt 0              @ ../std/GD32C2x1_Firmware_Library/GD32C2x1_standard_peripheral/Source/gd32c2x1_fmc.c:1024:5
	add	sp, #12
	bx	lr
.Ltmp189:
	.p2align	2
@ %bb.1:
	.loc	4 0 5                           @ ../std/GD32C2x1_Firmware_Library/GD32C2x1_standard_peripheral/Source/gd32c2x1_fmc.c:0:5
__arm_cp.31_0:
	.long	1073881216                      @ 0x40022080
.Lcpi_end57:
	.size	__arm_cp.31_0, .Lcpi_end57-__arm_cp.31_0
.Lfunc_end31:
	.size	ob_scr_area_get, .Lfunc_end31-ob_scr_area_get
	.cfi_endproc
	.cantunwind
	.fnend
                                        @ -- End function
	.section	.text.ob_boot_lock_get,"ax",%progbits
	.hidden	ob_boot_lock_get                @ -- Begin function ob_boot_lock_get
	.globl	ob_boot_lock_get
	.p2align	2
	.type	ob_boot_lock_get,%function
	.code	16                              @ @ob_boot_lock_get
	.thumb_func
ob_boot_lock_get:
.Lfunc_begin32:
	.loc	4 1036 0 is_stmt 1              @ ../std/GD32C2x1_Firmware_Library/GD32C2x1_standard_peripheral/Source/gd32c2x1_fmc.c:1036:0
	.fnstart
	.cfi_startproc
@ %bb.0:
	ldr	r0, __arm_cp.32_0
.Ltmp190:
	.loc	4 1037 23 prologue_end          @ ../std/GD32C2x1_Firmware_Library/GD32C2x1_standard_peripheral/Source/gd32c2x1_fmc.c:1037:23
	ldr	r0, [r0]
	movs	r1, #1
	lsls	r1, r1, #16
	.loc	4 1037 31 is_stmt 0             @ ../std/GD32C2x1_Firmware_Library/GD32C2x1_standard_peripheral/Source/gd32c2x1_fmc.c:1037:31
	ands	r0, r1
	.loc	4 1037 5                        @ ../std/GD32C2x1_Firmware_Library/GD32C2x1_standard_peripheral/Source/gd32c2x1_fmc.c:1037:5
	bx	lr
.Ltmp191:
	.p2align	2
@ %bb.1:
	.loc	4 0 5                           @ ../std/GD32C2x1_Firmware_Library/GD32C2x1_standard_peripheral/Source/gd32c2x1_fmc.c:0:5
__arm_cp.32_0:
	.long	1073881216                      @ 0x40022080
.Lcpi_end58:
	.size	__arm_cp.32_0, .Lcpi_end58-__arm_cp.32_0
.Lfunc_end32:
	.size	ob_boot_lock_get, .Lfunc_end32-ob_boot_lock_get
	.cfi_endproc
	.cantunwind
	.fnend
                                        @ -- End function
	.section	.text.fmc_flag_get,"ax",%progbits
	.hidden	fmc_flag_get                    @ -- Begin function fmc_flag_get
	.globl	fmc_flag_get
	.p2align	2
	.type	fmc_flag_get,%function
	.code	16                              @ @fmc_flag_get
	.thumb_func
fmc_flag_get:
.Lfunc_begin33:
	.loc	4 1059 0 is_stmt 1              @ ../std/GD32C2x1_Firmware_Library/GD32C2x1_standard_peripheral/Source/gd32c2x1_fmc.c:1059:0
	.fnstart
	.cfi_startproc
@ %bb.0:
	.pad	#8
	sub	sp, #8
	.cfi_def_cfa_offset 8
	str	r0, [sp, #4]
	mov	r1, sp
	movs	r0, #0
.Ltmp192:
	.loc	4 1060 16 prologue_end          @ ../std/GD32C2x1_Firmware_Library/GD32C2x1_standard_peripheral/Source/gd32c2x1_fmc.c:1060:16
	strb	r0, [r1]
	.loc	4 1062 10                       @ ../std/GD32C2x1_Firmware_Library/GD32C2x1_standard_peripheral/Source/gd32c2x1_fmc.c:1062:10
	ldr	r0, [sp, #4]
	ldr	r1, __arm_cp.33_0
	ands	r0, r1
	str	r0, [sp, #4]
	ldr	r0, __arm_cp.33_1
.Ltmp193:
	.loc	4 1063 13                       @ ../std/GD32C2x1_Firmware_Library/GD32C2x1_standard_peripheral/Source/gd32c2x1_fmc.c:1063:13
	ldr	r0, [r0]
	.loc	4 1063 24 is_stmt 0             @ ../std/GD32C2x1_Firmware_Library/GD32C2x1_standard_peripheral/Source/gd32c2x1_fmc.c:1063:24
	ldr	r1, [sp, #4]
.Ltmp194:
	.loc	4 1063 8                        @ ../std/GD32C2x1_Firmware_Library/GD32C2x1_standard_peripheral/Source/gd32c2x1_fmc.c:1063:8
	tst	r0, r1
	beq	.LBB33_2
	b	.LBB33_1
.LBB33_1:
	.loc	4 0 8                           @ ../std/GD32C2x1_Firmware_Library/GD32C2x1_standard_peripheral/Source/gd32c2x1_fmc.c:0:8
	mov	r1, sp
	movs	r0, #1
.Ltmp195:
	.loc	4 1064 16 is_stmt 1             @ ../std/GD32C2x1_Firmware_Library/GD32C2x1_standard_peripheral/Source/gd32c2x1_fmc.c:1064:16
	strb	r0, [r1]
	.loc	4 1065 5                        @ ../std/GD32C2x1_Firmware_Library/GD32C2x1_standard_peripheral/Source/gd32c2x1_fmc.c:1065:5
	b	.LBB33_2
.Ltmp196:
.LBB33_2:
	.loc	4 0 5 is_stmt 0                 @ ../std/GD32C2x1_Firmware_Library/GD32C2x1_standard_peripheral/Source/gd32c2x1_fmc.c:0:5
	mov	r0, sp
	.loc	4 1068 12 is_stmt 1             @ ../std/GD32C2x1_Firmware_Library/GD32C2x1_standard_peripheral/Source/gd32c2x1_fmc.c:1068:12
	ldrb	r0, [r0]
	.loc	4 1068 5 is_stmt 0              @ ../std/GD32C2x1_Firmware_Library/GD32C2x1_standard_peripheral/Source/gd32c2x1_fmc.c:1068:5
	add	sp, #8
	bx	lr
.Ltmp197:
	.p2align	2
@ %bb.3:
	.loc	4 0 5                           @ ../std/GD32C2x1_Firmware_Library/GD32C2x1_standard_peripheral/Source/gd32c2x1_fmc.c:0:5
__arm_cp.33_0:
	.long	115451                          @ 0x1c2fb
.Lcpi_end59:
	.size	__arm_cp.33_0, .Lcpi_end59-__arm_cp.33_0
__arm_cp.33_1:
	.long	1073881104                      @ 0x40022010
.Lcpi_end60:
	.size	__arm_cp.33_1, .Lcpi_end60-__arm_cp.33_1
.Lfunc_end33:
	.size	fmc_flag_get, .Lfunc_end33-fmc_flag_get
	.cfi_endproc
	.cantunwind
	.fnend
                                        @ -- End function
	.section	.text.fmc_flag_clear,"ax",%progbits
	.hidden	fmc_flag_clear                  @ -- Begin function fmc_flag_clear
	.globl	fmc_flag_clear
	.p2align	2
	.type	fmc_flag_clear,%function
	.code	16                              @ @fmc_flag_clear
	.thumb_func
fmc_flag_clear:
.Lfunc_begin34:
	.loc	4 1089 0 is_stmt 1              @ ../std/GD32C2x1_Firmware_Library/GD32C2x1_standard_peripheral/Source/gd32c2x1_fmc.c:1089:0
	.fnstart
	.cfi_startproc
@ %bb.0:
	.pad	#4
	sub	sp, #4
	.cfi_def_cfa_offset 4
	str	r0, [sp]
.Ltmp198:
	.loc	4 1091 16 prologue_end          @ ../std/GD32C2x1_Firmware_Library/GD32C2x1_standard_peripheral/Source/gd32c2x1_fmc.c:1091:16
	ldr	r0, [sp]
	ldr	r1, __arm_cp.34_0
	.loc	4 1091 21 is_stmt 0             @ ../std/GD32C2x1_Firmware_Library/GD32C2x1_standard_peripheral/Source/gd32c2x1_fmc.c:1091:21
	ands	r0, r1
	ldr	r1, __arm_cp.34_1
	.loc	4 1091 14                       @ ../std/GD32C2x1_Firmware_Library/GD32C2x1_standard_peripheral/Source/gd32c2x1_fmc.c:1091:14
	str	r0, [r1]
	.loc	4 1092 1 is_stmt 1              @ ../std/GD32C2x1_Firmware_Library/GD32C2x1_standard_peripheral/Source/gd32c2x1_fmc.c:1092:1
	add	sp, #4
	bx	lr
.Ltmp199:
	.p2align	2
@ %bb.1:
	.loc	4 0 1 is_stmt 0                 @ ../std/GD32C2x1_Firmware_Library/GD32C2x1_standard_peripheral/Source/gd32c2x1_fmc.c:0:1
__arm_cp.34_0:
	.long	49915                           @ 0xc2fb
.Lcpi_end61:
	.size	__arm_cp.34_0, .Lcpi_end61-__arm_cp.34_0
__arm_cp.34_1:
	.long	1073881104                      @ 0x40022010
.Lcpi_end62:
	.size	__arm_cp.34_1, .Lcpi_end62-__arm_cp.34_1
.Lfunc_end34:
	.size	fmc_flag_clear, .Lfunc_end34-fmc_flag_clear
	.cfi_endproc
	.cantunwind
	.fnend
                                        @ -- End function
	.section	.text.fmc_interrupt_enable,"ax",%progbits
	.hidden	fmc_interrupt_enable            @ -- Begin function fmc_interrupt_enable
	.globl	fmc_interrupt_enable
	.p2align	2
	.type	fmc_interrupt_enable,%function
	.code	16                              @ @fmc_interrupt_enable
	.thumb_func
fmc_interrupt_enable:
.Lfunc_begin35:
	.loc	4 1105 0 is_stmt 1              @ ../std/GD32C2x1_Firmware_Library/GD32C2x1_standard_peripheral/Source/gd32c2x1_fmc.c:1105:0
	.fnstart
	.cfi_startproc
@ %bb.0:
	.pad	#4
	sub	sp, #4
	.cfi_def_cfa_offset 4
	str	r0, [sp]
.Ltmp200:
	.loc	4 1106 16 prologue_end          @ ../std/GD32C2x1_Firmware_Library/GD32C2x1_standard_peripheral/Source/gd32c2x1_fmc.c:1106:16
	ldr	r2, [sp]
	movs	r0, #7
	lsls	r0, r0, #24
	.loc	4 1106 26 is_stmt 0             @ ../std/GD32C2x1_Firmware_Library/GD32C2x1_standard_peripheral/Source/gd32c2x1_fmc.c:1106:26
	ands	r2, r0
	ldr	r1, __arm_cp.35_0
	.loc	4 1106 13                       @ ../std/GD32C2x1_Firmware_Library/GD32C2x1_standard_peripheral/Source/gd32c2x1_fmc.c:1106:13
	ldr	r0, [r1]
	orrs	r0, r2
	str	r0, [r1]
	.loc	4 1107 1 is_stmt 1              @ ../std/GD32C2x1_Firmware_Library/GD32C2x1_standard_peripheral/Source/gd32c2x1_fmc.c:1107:1
	add	sp, #4
	bx	lr
.Ltmp201:
	.p2align	2
@ %bb.1:
	.loc	4 0 1 is_stmt 0                 @ ../std/GD32C2x1_Firmware_Library/GD32C2x1_standard_peripheral/Source/gd32c2x1_fmc.c:0:1
__arm_cp.35_0:
	.long	1073881108                      @ 0x40022014
.Lcpi_end63:
	.size	__arm_cp.35_0, .Lcpi_end63-__arm_cp.35_0
.Lfunc_end35:
	.size	fmc_interrupt_enable, .Lfunc_end35-fmc_interrupt_enable
	.cfi_endproc
	.cantunwind
	.fnend
                                        @ -- End function
	.section	.text.fmc_interrupt_disable,"ax",%progbits
	.hidden	fmc_interrupt_disable           @ -- Begin function fmc_interrupt_disable
	.globl	fmc_interrupt_disable
	.p2align	2
	.type	fmc_interrupt_disable,%function
	.code	16                              @ @fmc_interrupt_disable
	.thumb_func
fmc_interrupt_disable:
.Lfunc_begin36:
	.loc	4 1120 0 is_stmt 1              @ ../std/GD32C2x1_Firmware_Library/GD32C2x1_standard_peripheral/Source/gd32c2x1_fmc.c:1120:0
	.fnstart
	.cfi_startproc
@ %bb.0:
	.pad	#4
	sub	sp, #4
	.cfi_def_cfa_offset 4
	str	r0, [sp]
.Ltmp202:
	.loc	4 1121 18 prologue_end          @ ../std/GD32C2x1_Firmware_Library/GD32C2x1_standard_peripheral/Source/gd32c2x1_fmc.c:1121:18
	ldr	r0, [sp]
	mvns	r2, r0
	ldr	r0, __arm_cp.36_0
	.loc	4 1121 16 is_stmt 0             @ ../std/GD32C2x1_Firmware_Library/GD32C2x1_standard_peripheral/Source/gd32c2x1_fmc.c:1121:16
	orrs	r2, r0
	ldr	r1, __arm_cp.36_1
	.loc	4 1121 13                       @ ../std/GD32C2x1_Firmware_Library/GD32C2x1_standard_peripheral/Source/gd32c2x1_fmc.c:1121:13
	ldr	r0, [r1]
	ands	r0, r2
	str	r0, [r1]
	.loc	4 1122 1 is_stmt 1              @ ../std/GD32C2x1_Firmware_Library/GD32C2x1_standard_peripheral/Source/gd32c2x1_fmc.c:1122:1
	add	sp, #4
	bx	lr
.Ltmp203:
	.p2align	2
@ %bb.1:
	.loc	4 0 1 is_stmt 0                 @ ../std/GD32C2x1_Firmware_Library/GD32C2x1_standard_peripheral/Source/gd32c2x1_fmc.c:0:1
__arm_cp.36_0:
	.long	4177526783                      @ 0xf8ffffff
.Lcpi_end64:
	.size	__arm_cp.36_0, .Lcpi_end64-__arm_cp.36_0
__arm_cp.36_1:
	.long	1073881108                      @ 0x40022014
.Lcpi_end65:
	.size	__arm_cp.36_1, .Lcpi_end65-__arm_cp.36_1
.Lfunc_end36:
	.size	fmc_interrupt_disable, .Lfunc_end36-fmc_interrupt_disable
	.cfi_endproc
	.cantunwind
	.fnend
                                        @ -- End function
	.section	.text.fmc_interrupt_flag_get,"ax",%progbits
	.hidden	fmc_interrupt_flag_get          @ -- Begin function fmc_interrupt_flag_get
	.globl	fmc_interrupt_flag_get
	.p2align	2
	.type	fmc_interrupt_flag_get,%function
	.code	16                              @ @fmc_interrupt_flag_get
	.thumb_func
fmc_interrupt_flag_get:
.Lfunc_begin37:
	.loc	4 1135 0 is_stmt 1              @ ../std/GD32C2x1_Firmware_Library/GD32C2x1_standard_peripheral/Source/gd32c2x1_fmc.c:1135:0
	.fnstart
	.cfi_startproc
@ %bb.0:
	.pad	#8
	sub	sp, #8
	.cfi_def_cfa_offset 8
	str	r0, [sp, #4]
	mov	r1, sp
	movs	r0, #0
.Ltmp204:
	.loc	4 1136 16 prologue_end          @ ../std/GD32C2x1_Firmware_Library/GD32C2x1_standard_peripheral/Source/gd32c2x1_fmc.c:1136:16
	strb	r0, [r1]
	.loc	4 1138 10                       @ ../std/GD32C2x1_Firmware_Library/GD32C2x1_standard_peripheral/Source/gd32c2x1_fmc.c:1138:10
	ldr	r0, [sp, #4]
	ldr	r1, __arm_cp.37_0
	ands	r0, r1
	str	r0, [sp, #4]
	ldr	r0, __arm_cp.37_1
.Ltmp205:
	.loc	4 1140 13                       @ ../std/GD32C2x1_Firmware_Library/GD32C2x1_standard_peripheral/Source/gd32c2x1_fmc.c:1140:13
	ldr	r0, [r0]
	.loc	4 1140 24 is_stmt 0             @ ../std/GD32C2x1_Firmware_Library/GD32C2x1_standard_peripheral/Source/gd32c2x1_fmc.c:1140:24
	ldr	r1, [sp, #4]
.Ltmp206:
	.loc	4 1140 8                        @ ../std/GD32C2x1_Firmware_Library/GD32C2x1_standard_peripheral/Source/gd32c2x1_fmc.c:1140:8
	tst	r0, r1
	beq	.LBB37_2
	b	.LBB37_1
.LBB37_1:
	.loc	4 0 8                           @ ../std/GD32C2x1_Firmware_Library/GD32C2x1_standard_peripheral/Source/gd32c2x1_fmc.c:0:8
	mov	r1, sp
	movs	r0, #1
.Ltmp207:
	.loc	4 1141 16 is_stmt 1             @ ../std/GD32C2x1_Firmware_Library/GD32C2x1_standard_peripheral/Source/gd32c2x1_fmc.c:1141:16
	strb	r0, [r1]
	.loc	4 1142 5                        @ ../std/GD32C2x1_Firmware_Library/GD32C2x1_standard_peripheral/Source/gd32c2x1_fmc.c:1142:5
	b	.LBB37_2
.Ltmp208:
.LBB37_2:
	.loc	4 0 5 is_stmt 0                 @ ../std/GD32C2x1_Firmware_Library/GD32C2x1_standard_peripheral/Source/gd32c2x1_fmc.c:0:5
	mov	r0, sp
	.loc	4 1144 12 is_stmt 1             @ ../std/GD32C2x1_Firmware_Library/GD32C2x1_standard_peripheral/Source/gd32c2x1_fmc.c:1144:12
	ldrb	r0, [r0]
	.loc	4 1144 5 is_stmt 0              @ ../std/GD32C2x1_Firmware_Library/GD32C2x1_standard_peripheral/Source/gd32c2x1_fmc.c:1144:5
	add	sp, #8
	bx	lr
.Ltmp209:
	.p2align	2
@ %bb.3:
	.loc	4 0 5                           @ ../std/GD32C2x1_Firmware_Library/GD32C2x1_standard_peripheral/Source/gd32c2x1_fmc.c:0:5
__arm_cp.37_0:
	.long	16387                           @ 0x4003
.Lcpi_end66:
	.size	__arm_cp.37_0, .Lcpi_end66-__arm_cp.37_0
__arm_cp.37_1:
	.long	1073881104                      @ 0x40022010
.Lcpi_end67:
	.size	__arm_cp.37_1, .Lcpi_end67-__arm_cp.37_1
.Lfunc_end37:
	.size	fmc_interrupt_flag_get, .Lfunc_end37-fmc_interrupt_flag_get
	.cfi_endproc
	.cantunwind
	.fnend
                                        @ -- End function
	.section	.text.fmc_interrupt_flag_clear,"ax",%progbits
	.hidden	fmc_interrupt_flag_clear        @ -- Begin function fmc_interrupt_flag_clear
	.globl	fmc_interrupt_flag_clear
	.p2align	2
	.type	fmc_interrupt_flag_clear,%function
	.code	16                              @ @fmc_interrupt_flag_clear
	.thumb_func
fmc_interrupt_flag_clear:
.Lfunc_begin38:
	.loc	4 1158 0 is_stmt 1              @ ../std/GD32C2x1_Firmware_Library/GD32C2x1_standard_peripheral/Source/gd32c2x1_fmc.c:1158:0
	.fnstart
	.cfi_startproc
@ %bb.0:
	.pad	#4
	sub	sp, #4
	.cfi_def_cfa_offset 4
	str	r0, [sp]
.Ltmp210:
	.loc	4 1160 16 prologue_end          @ ../std/GD32C2x1_Firmware_Library/GD32C2x1_standard_peripheral/Source/gd32c2x1_fmc.c:1160:16
	ldr	r0, [sp]
	ldr	r1, __arm_cp.38_0
	.loc	4 1160 21 is_stmt 0             @ ../std/GD32C2x1_Firmware_Library/GD32C2x1_standard_peripheral/Source/gd32c2x1_fmc.c:1160:21
	ands	r0, r1
	ldr	r1, __arm_cp.38_1
	.loc	4 1160 14                       @ ../std/GD32C2x1_Firmware_Library/GD32C2x1_standard_peripheral/Source/gd32c2x1_fmc.c:1160:14
	str	r0, [r1]
	.loc	4 1161 1 is_stmt 1              @ ../std/GD32C2x1_Firmware_Library/GD32C2x1_standard_peripheral/Source/gd32c2x1_fmc.c:1161:1
	add	sp, #4
	bx	lr
.Ltmp211:
	.p2align	2
@ %bb.1:
	.loc	4 0 1 is_stmt 0                 @ ../std/GD32C2x1_Firmware_Library/GD32C2x1_standard_peripheral/Source/gd32c2x1_fmc.c:0:1
__arm_cp.38_0:
	.long	16387                           @ 0x4003
.Lcpi_end68:
	.size	__arm_cp.38_0, .Lcpi_end68-__arm_cp.38_0
__arm_cp.38_1:
	.long	1073881104                      @ 0x40022010
.Lcpi_end69:
	.size	__arm_cp.38_1, .Lcpi_end69-__arm_cp.38_1
.Lfunc_end38:
	.size	fmc_interrupt_flag_clear, .Lfunc_end38-fmc_interrupt_flag_clear
	.cfi_endproc
	.cantunwind
	.fnend
                                        @ -- End function
	.section	.text.fmc_state_get,"ax",%progbits
	.hidden	fmc_state_get                   @ -- Begin function fmc_state_get
	.globl	fmc_state_get
	.p2align	2
	.type	fmc_state_get,%function
	.code	16                              @ @fmc_state_get
	.thumb_func
fmc_state_get:
.Lfunc_begin39:
	.loc	4 1181 0 is_stmt 1              @ ../std/GD32C2x1_Firmware_Library/GD32C2x1_standard_peripheral/Source/gd32c2x1_fmc.c:1181:0
	.fnstart
	.cfi_startproc
@ %bb.0:
	.pad	#4
	sub	sp, #4
	.cfi_def_cfa_offset 4
	mov	r1, sp
	movs	r0, #0
.Ltmp212:
	.loc	4 1182 20 prologue_end          @ ../std/GD32C2x1_Firmware_Library/GD32C2x1_standard_peripheral/Source/gd32c2x1_fmc.c:1182:20
	strb	r0, [r1]
	ldr	r0, __arm_cp.39_0
.Ltmp213:
	.loc	4 1184 28                       @ ../std/GD32C2x1_Firmware_Library/GD32C2x1_standard_peripheral/Source/gd32c2x1_fmc.c:1184:28
	ldr	r0, [r0]
.Ltmp214:
	.loc	4 1184 8 is_stmt 0              @ ../std/GD32C2x1_Firmware_Library/GD32C2x1_standard_peripheral/Source/gd32c2x1_fmc.c:1184:8
	lsls	r0, r0, #15
	cmp	r0, #0
	bpl	.LBB39_2
	b	.LBB39_1
.LBB39_1:
	.loc	4 0 8                           @ ../std/GD32C2x1_Firmware_Library/GD32C2x1_standard_peripheral/Source/gd32c2x1_fmc.c:0:8
	mov	r1, sp
	movs	r0, #1
.Ltmp215:
	.loc	4 1185 19 is_stmt 1             @ ../std/GD32C2x1_Firmware_Library/GD32C2x1_standard_peripheral/Source/gd32c2x1_fmc.c:1185:19
	strb	r0, [r1]
	.loc	4 1186 5                        @ ../std/GD32C2x1_Firmware_Library/GD32C2x1_standard_peripheral/Source/gd32c2x1_fmc.c:1186:5
	b	.LBB39_30
.Ltmp216:
.LBB39_2:
	.loc	4 0 5 is_stmt 0                 @ ../std/GD32C2x1_Firmware_Library/GD32C2x1_standard_peripheral/Source/gd32c2x1_fmc.c:0:5
	ldr	r0, __arm_cp.39_0
.Ltmp217:
	.loc	4 1187 32 is_stmt 1             @ ../std/GD32C2x1_Firmware_Library/GD32C2x1_standard_peripheral/Source/gd32c2x1_fmc.c:1187:32
	ldr	r0, [r0]
.Ltmp218:
	.loc	4 1187 12 is_stmt 0             @ ../std/GD32C2x1_Firmware_Library/GD32C2x1_standard_peripheral/Source/gd32c2x1_fmc.c:1187:12
	lsls	r0, r0, #27
	cmp	r0, #0
	bpl	.LBB39_4
	b	.LBB39_3
.LBB39_3:
	.loc	4 0 12                          @ ../std/GD32C2x1_Firmware_Library/GD32C2x1_standard_peripheral/Source/gd32c2x1_fmc.c:0:12
	mov	r1, sp
	movs	r0, #8
.Ltmp219:
	.loc	4 1188 23 is_stmt 1             @ ../std/GD32C2x1_Firmware_Library/GD32C2x1_standard_peripheral/Source/gd32c2x1_fmc.c:1188:23
	strb	r0, [r1]
	.loc	4 1189 9                        @ ../std/GD32C2x1_Firmware_Library/GD32C2x1_standard_peripheral/Source/gd32c2x1_fmc.c:1189:9
	b	.LBB39_29
.Ltmp220:
.LBB39_4:
	.loc	4 0 9 is_stmt 0                 @ ../std/GD32C2x1_Firmware_Library/GD32C2x1_standard_peripheral/Source/gd32c2x1_fmc.c:0:9
	ldr	r0, __arm_cp.39_0
.Ltmp221:
	.loc	4 1189 39                       @ ../std/GD32C2x1_Firmware_Library/GD32C2x1_standard_peripheral/Source/gd32c2x1_fmc.c:1189:39
	ldr	r0, [r0]
.Ltmp222:
	.loc	4 1189 19                       @ ../std/GD32C2x1_Firmware_Library/GD32C2x1_standard_peripheral/Source/gd32c2x1_fmc.c:1189:19
	lsls	r0, r0, #28
	cmp	r0, #0
	bpl	.LBB39_6
	b	.LBB39_5
.LBB39_5:
	.loc	4 0 19                          @ ../std/GD32C2x1_Firmware_Library/GD32C2x1_standard_peripheral/Source/gd32c2x1_fmc.c:0:19
	mov	r1, sp
	movs	r0, #9
.Ltmp223:
	.loc	4 1190 23 is_stmt 1             @ ../std/GD32C2x1_Firmware_Library/GD32C2x1_standard_peripheral/Source/gd32c2x1_fmc.c:1190:23
	strb	r0, [r1]
	.loc	4 1191 9                        @ ../std/GD32C2x1_Firmware_Library/GD32C2x1_standard_peripheral/Source/gd32c2x1_fmc.c:1191:9
	b	.LBB39_28
.Ltmp224:
.LBB39_6:
	.loc	4 0 9 is_stmt 0                 @ ../std/GD32C2x1_Firmware_Library/GD32C2x1_standard_peripheral/Source/gd32c2x1_fmc.c:0:9
	ldr	r0, __arm_cp.39_0
.Ltmp225:
	.loc	4 1191 39                       @ ../std/GD32C2x1_Firmware_Library/GD32C2x1_standard_peripheral/Source/gd32c2x1_fmc.c:1191:39
	ldr	r0, [r0]
.Ltmp226:
	.loc	4 1191 19                       @ ../std/GD32C2x1_Firmware_Library/GD32C2x1_standard_peripheral/Source/gd32c2x1_fmc.c:1191:19
	lsls	r0, r0, #24
	cmp	r0, #0
	bpl	.LBB39_8
	b	.LBB39_7
.LBB39_7:
	.loc	4 0 19                          @ ../std/GD32C2x1_Firmware_Library/GD32C2x1_standard_peripheral/Source/gd32c2x1_fmc.c:0:19
	mov	r1, sp
	movs	r0, #5
.Ltmp227:
	.loc	4 1192 23 is_stmt 1             @ ../std/GD32C2x1_Firmware_Library/GD32C2x1_standard_peripheral/Source/gd32c2x1_fmc.c:1192:23
	strb	r0, [r1]
	.loc	4 1193 9                        @ ../std/GD32C2x1_Firmware_Library/GD32C2x1_standard_peripheral/Source/gd32c2x1_fmc.c:1193:9
	b	.LBB39_27
.Ltmp228:
.LBB39_8:
	.loc	4 0 9 is_stmt 0                 @ ../std/GD32C2x1_Firmware_Library/GD32C2x1_standard_peripheral/Source/gd32c2x1_fmc.c:0:9
	ldr	r0, __arm_cp.39_0
.Ltmp229:
	.loc	4 1193 39                       @ ../std/GD32C2x1_Firmware_Library/GD32C2x1_standard_peripheral/Source/gd32c2x1_fmc.c:1193:39
	ldr	r0, [r0]
.Ltmp230:
	.loc	4 1193 19                       @ ../std/GD32C2x1_Firmware_Library/GD32C2x1_standard_peripheral/Source/gd32c2x1_fmc.c:1193:19
	lsls	r0, r0, #26
	cmp	r0, #0
	bpl	.LBB39_10
	b	.LBB39_9
.LBB39_9:
	.loc	4 0 19                          @ ../std/GD32C2x1_Firmware_Library/GD32C2x1_standard_peripheral/Source/gd32c2x1_fmc.c:0:19
	mov	r1, sp
	movs	r0, #7
.Ltmp231:
	.loc	4 1194 23 is_stmt 1             @ ../std/GD32C2x1_Firmware_Library/GD32C2x1_standard_peripheral/Source/gd32c2x1_fmc.c:1194:23
	strb	r0, [r1]
	.loc	4 1195 9                        @ ../std/GD32C2x1_Firmware_Library/GD32C2x1_standard_peripheral/Source/gd32c2x1_fmc.c:1195:9
	b	.LBB39_26
.Ltmp232:
.LBB39_10:
	.loc	4 0 9 is_stmt 0                 @ ../std/GD32C2x1_Firmware_Library/GD32C2x1_standard_peripheral/Source/gd32c2x1_fmc.c:0:9
	ldr	r0, __arm_cp.39_0
.Ltmp233:
	.loc	4 1195 39                       @ ../std/GD32C2x1_Firmware_Library/GD32C2x1_standard_peripheral/Source/gd32c2x1_fmc.c:1195:39
	ldr	r0, [r0]
.Ltmp234:
	.loc	4 1195 19                       @ ../std/GD32C2x1_Firmware_Library/GD32C2x1_standard_peripheral/Source/gd32c2x1_fmc.c:1195:19
	lsls	r0, r0, #17
	cmp	r0, #0
	bpl	.LBB39_12
	b	.LBB39_11
.LBB39_11:
	.loc	4 0 19                          @ ../std/GD32C2x1_Firmware_Library/GD32C2x1_standard_peripheral/Source/gd32c2x1_fmc.c:0:19
	mov	r1, sp
	movs	r0, #3
.Ltmp235:
	.loc	4 1196 23 is_stmt 1             @ ../std/GD32C2x1_Firmware_Library/GD32C2x1_standard_peripheral/Source/gd32c2x1_fmc.c:1196:23
	strb	r0, [r1]
	.loc	4 1197 9                        @ ../std/GD32C2x1_Firmware_Library/GD32C2x1_standard_peripheral/Source/gd32c2x1_fmc.c:1197:9
	b	.LBB39_25
.Ltmp236:
.LBB39_12:
	.loc	4 0 9 is_stmt 0                 @ ../std/GD32C2x1_Firmware_Library/GD32C2x1_standard_peripheral/Source/gd32c2x1_fmc.c:0:9
	ldr	r0, __arm_cp.39_0
.Ltmp237:
	.loc	4 1197 39                       @ ../std/GD32C2x1_Firmware_Library/GD32C2x1_standard_peripheral/Source/gd32c2x1_fmc.c:1197:39
	ldr	r0, [r0]
.Ltmp238:
	.loc	4 1197 19                       @ ../std/GD32C2x1_Firmware_Library/GD32C2x1_standard_peripheral/Source/gd32c2x1_fmc.c:1197:19
	lsls	r0, r0, #25
	cmp	r0, #0
	bpl	.LBB39_14
	b	.LBB39_13
.LBB39_13:
	.loc	4 0 19                          @ ../std/GD32C2x1_Firmware_Library/GD32C2x1_standard_peripheral/Source/gd32c2x1_fmc.c:0:19
	mov	r1, sp
	movs	r0, #6
.Ltmp239:
	.loc	4 1198 23 is_stmt 1             @ ../std/GD32C2x1_Firmware_Library/GD32C2x1_standard_peripheral/Source/gd32c2x1_fmc.c:1198:23
	strb	r0, [r1]
	.loc	4 1199 9                        @ ../std/GD32C2x1_Firmware_Library/GD32C2x1_standard_peripheral/Source/gd32c2x1_fmc.c:1199:9
	b	.LBB39_24
.Ltmp240:
.LBB39_14:
	.loc	4 0 9 is_stmt 0                 @ ../std/GD32C2x1_Firmware_Library/GD32C2x1_standard_peripheral/Source/gd32c2x1_fmc.c:0:9
	ldr	r0, __arm_cp.39_0
.Ltmp241:
	.loc	4 1199 39                       @ ../std/GD32C2x1_Firmware_Library/GD32C2x1_standard_peripheral/Source/gd32c2x1_fmc.c:1199:39
	ldr	r0, [r0]
.Ltmp242:
	.loc	4 1199 19                       @ ../std/GD32C2x1_Firmware_Library/GD32C2x1_standard_peripheral/Source/gd32c2x1_fmc.c:1199:19
	lsls	r0, r0, #22
	cmp	r0, #0
	bpl	.LBB39_16
	b	.LBB39_15
.LBB39_15:
	.loc	4 0 19                          @ ../std/GD32C2x1_Firmware_Library/GD32C2x1_standard_peripheral/Source/gd32c2x1_fmc.c:0:19
	mov	r1, sp
	movs	r0, #4
.Ltmp243:
	.loc	4 1200 23 is_stmt 1             @ ../std/GD32C2x1_Firmware_Library/GD32C2x1_standard_peripheral/Source/gd32c2x1_fmc.c:1200:23
	strb	r0, [r1]
	.loc	4 1201 9                        @ ../std/GD32C2x1_Firmware_Library/GD32C2x1_standard_peripheral/Source/gd32c2x1_fmc.c:1201:9
	b	.LBB39_23
.Ltmp244:
.LBB39_16:
	.loc	4 0 9 is_stmt 0                 @ ../std/GD32C2x1_Firmware_Library/GD32C2x1_standard_peripheral/Source/gd32c2x1_fmc.c:0:9
	ldr	r0, __arm_cp.39_0
.Ltmp245:
	.loc	4 1201 39                       @ ../std/GD32C2x1_Firmware_Library/GD32C2x1_standard_peripheral/Source/gd32c2x1_fmc.c:1201:39
	ldr	r0, [r0]
.Ltmp246:
	.loc	4 1201 19                       @ ../std/GD32C2x1_Firmware_Library/GD32C2x1_standard_peripheral/Source/gd32c2x1_fmc.c:1201:19
	lsls	r0, r0, #30
	cmp	r0, #0
	bpl	.LBB39_18
	b	.LBB39_17
.LBB39_17:
	.loc	4 0 19                          @ ../std/GD32C2x1_Firmware_Library/GD32C2x1_standard_peripheral/Source/gd32c2x1_fmc.c:0:19
	mov	r1, sp
	movs	r0, #10
.Ltmp247:
	.loc	4 1202 23 is_stmt 1             @ ../std/GD32C2x1_Firmware_Library/GD32C2x1_standard_peripheral/Source/gd32c2x1_fmc.c:1202:23
	strb	r0, [r1]
	.loc	4 1203 9                        @ ../std/GD32C2x1_Firmware_Library/GD32C2x1_standard_peripheral/Source/gd32c2x1_fmc.c:1203:9
	b	.LBB39_22
.Ltmp248:
.LBB39_18:
	.loc	4 0 9 is_stmt 0                 @ ../std/GD32C2x1_Firmware_Library/GD32C2x1_standard_peripheral/Source/gd32c2x1_fmc.c:0:9
	ldr	r0, __arm_cp.39_0
.Ltmp249:
	.loc	4 1203 39                       @ ../std/GD32C2x1_Firmware_Library/GD32C2x1_standard_peripheral/Source/gd32c2x1_fmc.c:1203:39
	ldr	r0, [r0]
.Ltmp250:
	.loc	4 1203 19                       @ ../std/GD32C2x1_Firmware_Library/GD32C2x1_standard_peripheral/Source/gd32c2x1_fmc.c:1203:19
	lsls	r0, r0, #16
	cmp	r0, #0
	bpl	.LBB39_20
	b	.LBB39_19
.LBB39_19:
	.loc	4 0 19                          @ ../std/GD32C2x1_Firmware_Library/GD32C2x1_standard_peripheral/Source/gd32c2x1_fmc.c:0:19
	mov	r1, sp
	movs	r0, #2
.Ltmp251:
	.loc	4 1204 23 is_stmt 1             @ ../std/GD32C2x1_Firmware_Library/GD32C2x1_standard_peripheral/Source/gd32c2x1_fmc.c:1204:23
	strb	r0, [r1]
	.loc	4 1205 9                        @ ../std/GD32C2x1_Firmware_Library/GD32C2x1_standard_peripheral/Source/gd32c2x1_fmc.c:1205:9
	b	.LBB39_21
.Ltmp252:
.LBB39_20:
	.loc	4 0 9 is_stmt 0                 @ ../std/GD32C2x1_Firmware_Library/GD32C2x1_standard_peripheral/Source/gd32c2x1_fmc.c:0:9
	b	.LBB39_21
.LBB39_21:
	b	.LBB39_22
.LBB39_22:
	b	.LBB39_23
.LBB39_23:
	b	.LBB39_24
.LBB39_24:
	b	.LBB39_25
.LBB39_25:
	b	.LBB39_26
.LBB39_26:
	b	.LBB39_27
.LBB39_27:
	b	.LBB39_28
.LBB39_28:
	b	.LBB39_29
.LBB39_29:
	b	.LBB39_30
.LBB39_30:
	mov	r0, sp
	.loc	4 1210 12 is_stmt 1             @ ../std/GD32C2x1_Firmware_Library/GD32C2x1_standard_peripheral/Source/gd32c2x1_fmc.c:1210:12
	ldrb	r0, [r0]
	.loc	4 1210 5 is_stmt 0              @ ../std/GD32C2x1_Firmware_Library/GD32C2x1_standard_peripheral/Source/gd32c2x1_fmc.c:1210:5
	add	sp, #4
	bx	lr
.Ltmp253:
	.p2align	2
@ %bb.31:
	.loc	4 0 5                           @ ../std/GD32C2x1_Firmware_Library/GD32C2x1_standard_peripheral/Source/gd32c2x1_fmc.c:0:5
__arm_cp.39_0:
	.long	1073881104                      @ 0x40022010
.Lcpi_end70:
	.size	__arm_cp.39_0, .Lcpi_end70-__arm_cp.39_0
.Lfunc_end39:
	.size	fmc_state_get, .Lfunc_end39-fmc_state_get
	.cfi_endproc
	.cantunwind
	.fnend
                                        @ -- End function
	.section	".note.GNU-stack","",%progbits
	.eabi_attribute	30, 6	@ Tag_ABI_optimization_goals
	.ARM_attribute	16, 1	@ Tag_AV_eba