	.text
	.syntax unified
	.eabi_attribute	67, "2.09"	@ Tag_conformance
	.cpu	cortex-m23
	.eabi_attribute	6, 16	@ Tag_CPU_arch
	.eabi_attribute	7, 77	@ Tag_CPU_arch_profile
	.eabi_attribute	8, 0	@ Tag_ARM_ISA_use
	.eabi_attribute	9, 3	@ Tag_THUMB_ISA_use
	.eabi_attribute	34, 0	@ Tag_CPU_unaligned_access
	.eabi_attribute	17, 1	@ Tag_ABI_PCS_GOT_use
	.eabi_attribute	20, 2	@ Tag_ABI_FP_denormal
	.eabi_attribute	21, 0	@ Tag_ABI_FP_exceptions
	.eabi_attribute	23, 1	@ Tag_ABI_FP_number_model
	.eabi_attribute	24, 1	@ Tag_ABI_align_needed
	.eabi_attribute	25, 1	@ Tag_ABI_align_preserved
	.eabi_attribute	38, 1	@ Tag_ABI_FP_16bit_format
	.eabi_attribute	18, 2	@ Tag_ABI_PCS_wchar_t
	.eabi_attribute	26, 1	@ Tag_ABI_enum_size
	.eabi_attribute	14, 0	@ Tag_ABI_PCS_R9_use
	.file	"gd32c2x1_i2c.c"
	.file	1 "E:\\work\\CX_NFC_RX\\prj" "../std/GD32C2x1_Firmware_Library/GD32C2x1_standard_peripheral/Include\\gd32c2x1_rcu.h"
	.file	2 "E:\\work\\CX_NFC_RX\\prj" "../std/GD32C2x1_Firmware_Library/CMSIS/GD/GD32C2x1/Include/gd32c2x1.h"
	.file	3 "E:\\work\\CX_NFC_RX\\prj" "../std/GD32C2x1_Firmware_Library/GD32C2x1_standard_peripheral/Include\\gd32c2x1_i2c.h"
	.file	4 "D:\\Keil_v5\\ARM\\ARMCLANG\\Bin\\..\\include" "stdint.h"
	.section	.text.i2c_deinit,"ax",%progbits
	.hidden	i2c_deinit                      @ -- Begin function i2c_deinit
	.globl	i2c_deinit
	.p2align	2
	.type	i2c_deinit,%function
	.code	16                              @ @i2c_deinit
	.thumb_func
i2c_deinit:
.Lfunc_begin0:
	.file	5 "E:\\work\\CX_NFC_RX\\prj" "../std/GD32C2x1_Firmware_Library/GD32C2x1_standard_peripheral/Source/gd32c2x1_i2c.c"
	.loc	5 62 0                          @ ../std/GD32C2x1_Firmware_Library/GD32C2x1_standard_peripheral/Source/gd32c2x1_i2c.c:62:0
	.fnstart
	.cfi_sections .debug_frame
	.cfi_startproc
@ %bb.0:
	.save	{r7, lr}
	push	{r7, lr}
	.cfi_def_cfa_offset 8
	.cfi_offset lr, -4
	.cfi_offset r7, -8
	.pad	#16
	sub	sp, #16
	.cfi_def_cfa_offset 24
	str	r0, [sp, #12]
.Ltmp0:
	.loc	5 63 12 prologue_end            @ ../std/GD32C2x1_Firmware_Library/GD32C2x1_standard_peripheral/Source/gd32c2x1_i2c.c:63:12
	ldr	r0, [sp, #12]
	str	r0, [sp, #8]                    @ 4-byte Spill
	ldr	r1, __arm_cp.0_0
	.loc	5 63 5 is_stmt 0                @ ../std/GD32C2x1_Firmware_Library/GD32C2x1_standard_peripheral/Source/gd32c2x1_i2c.c:63:5
	cmp	r0, r1
	beq	.LBB0_2
	b	.LBB0_1
.LBB0_1:
	.loc	5 0 5                           @ ../std/GD32C2x1_Firmware_Library/GD32C2x1_standard_peripheral/Source/gd32c2x1_i2c.c:0:5
	ldr	r0, [sp, #8]                    @ 4-byte Reload
	ldr	r1, __arm_cp.0_1
	.loc	5 63 5                          @ ../std/GD32C2x1_Firmware_Library/GD32C2x1_standard_peripheral/Source/gd32c2x1_i2c.c:63:5
	cmp	r0, r1
	beq	.LBB0_3
	b	.LBB0_4
.LBB0_2:
	.loc	5 0 5                           @ ../std/GD32C2x1_Firmware_Library/GD32C2x1_standard_peripheral/Source/gd32c2x1_i2c.c:0:5
	ldr	r0, __arm_cp.0_0
.Ltmp1:
	.loc	5 66 9 is_stmt 1                @ ../std/GD32C2x1_Firmware_Library/GD32C2x1_standard_peripheral/Source/gd32c2x1_i2c.c:66:9
	bl	i2c_disable
	ldr	r0, __arm_cp.0_3
	.loc	5 68 9                          @ ../std/GD32C2x1_Firmware_Library/GD32C2x1_standard_peripheral/Source/gd32c2x1_i2c.c:68:9
	str	r0, [sp, #4]                    @ 4-byte Spill
	bl	rcu_periph_reset_enable
	ldr	r0, [sp, #4]                    @ 4-byte Reload
	.loc	5 69 9                          @ ../std/GD32C2x1_Firmware_Library/GD32C2x1_standard_peripheral/Source/gd32c2x1_i2c.c:69:9
	bl	rcu_periph_reset_disable
	.loc	5 70 9                          @ ../std/GD32C2x1_Firmware_Library/GD32C2x1_standard_peripheral/Source/gd32c2x1_i2c.c:70:9
	b	.LBB0_5
.LBB0_3:
	.loc	5 0 9 is_stmt 0                 @ ../std/GD32C2x1_Firmware_Library/GD32C2x1_standard_peripheral/Source/gd32c2x1_i2c.c:0:9
	ldr	r0, __arm_cp.0_1
	.loc	5 73 9 is_stmt 1                @ ../std/GD32C2x1_Firmware_Library/GD32C2x1_standard_peripheral/Source/gd32c2x1_i2c.c:73:9
	bl	i2c_disable
	ldr	r0, __arm_cp.0_2
	.loc	5 75 9                          @ ../std/GD32C2x1_Firmware_Library/GD32C2x1_standard_peripheral/Source/gd32c2x1_i2c.c:75:9
	str	r0, [sp]                        @ 4-byte Spill
	bl	rcu_periph_reset_enable
	ldr	r0, [sp]                        @ 4-byte Reload
	.loc	5 76 9                          @ ../std/GD32C2x1_Firmware_Library/GD32C2x1_standard_peripheral/Source/gd32c2x1_i2c.c:76:9
	bl	rcu_periph_reset_disable
	.loc	5 77 9                          @ ../std/GD32C2x1_Firmware_Library/GD32C2x1_standard_peripheral/Source/gd32c2x1_i2c.c:77:9
	b	.LBB0_5
.LBB0_4:
	.loc	5 79 9                          @ ../std/GD32C2x1_Firmware_Library/GD32C2x1_standard_peripheral/Source/gd32c2x1_i2c.c:79:9
	b	.LBB0_5
.Ltmp2:
.LBB0_5:
	.loc	5 81 1                          @ ../std/GD32C2x1_Firmware_Library/GD32C2x1_standard_peripheral/Source/gd32c2x1_i2c.c:81:1
	add	sp, #16
	pop	{r7, pc}
.Ltmp3:
	.p2align	2
@ %bb.6:
	.loc	5 0 1 is_stmt 0                 @ ../std/GD32C2x1_Firmware_Library/GD32C2x1_standard_peripheral/Source/gd32c2x1_i2c.c:0:1
__arm_cp.0_0:
	.long	1073763328                      @ 0x40005400
.Lcpi_end0:
	.size	__arm_cp.0_0, .Lcpi_end0-__arm_cp.0_0
__arm_cp.0_1:
	.long	1073764352                      @ 0x40005800
.Lcpi_end1:
	.size	__arm_cp.0_1, .Lcpi_end1-__arm_cp.0_1
__arm_cp.0_2:
	.long	2326                            @ 0x916
.Lcpi_end2:
	.size	__arm_cp.0_2, .Lcpi_end2-__arm_cp.0_2
__arm_cp.0_3:
	.long	2325                            @ 0x915
.Lcpi_end3:
	.size	__arm_cp.0_3, .Lcpi_end3-__arm_cp.0_3
.Lfunc_end0:
	.size	i2c_deinit, .Lfunc_end0-i2c_deinit
	.cfi_endproc
	.cantunwind
	.fnend
                                        @ -- End function
	.section	.text.i2c_disable,"ax",%progbits
	.hidden	i2c_disable                     @ -- Begin function i2c_disable
	.globl	i2c_disable
	.p2align	1
	.type	i2c_disable,%function
	.code	16                              @ @i2c_disable
	.thumb_func
i2c_disable:
.Lfunc_begin1:
	.loc	5 494 0 is_stmt 1               @ ../std/GD32C2x1_Firmware_Library/GD32C2x1_standard_peripheral/Source/gd32c2x1_i2c.c:494:0
	.fnstart
	.cfi_startproc
@ %bb.0:
	.pad	#4
	sub	sp, #4
	.cfi_def_cfa_offset 4
	str	r0, [sp]
.Ltmp4:
	.loc	5 495 5 prologue_end            @ ../std/GD32C2x1_Firmware_Library/GD32C2x1_standard_peripheral/Source/gd32c2x1_i2c.c:495:5
	ldr	r1, [sp]
	.loc	5 495 26 is_stmt 0              @ ../std/GD32C2x1_Firmware_Library/GD32C2x1_standard_peripheral/Source/gd32c2x1_i2c.c:495:26
	ldr	r0, [r1]
	movs	r2, #1
	bics	r0, r2
	str	r0, [r1]
	.loc	5 496 1 is_stmt 1               @ ../std/GD32C2x1_Firmware_Library/GD32C2x1_standard_peripheral/Source/gd32c2x1_i2c.c:496:1
	add	sp, #4
	bx	lr
.Ltmp5:
.Lfunc_end1:
	.size	i2c_disable, .Lfunc_end1-i2c_disable
	.cfi_endproc
	.cantunwind
	.fnend
                                        @ -- End function
	.section	.text.i2c_timing_config,"ax",%progbits
	.hidden	i2c_timing_config               @ -- Begin function i2c_timing_config
	.globl	i2c_timing_config
	.p2align	1
	.type	i2c_timing_config,%function
	.code	16                              @ @i2c_timing_config
	.thumb_func
i2c_timing_config:
.Lfunc_begin2:
	.loc	5 93 0                          @ ../std/GD32C2x1_Firmware_Library/GD32C2x1_standard_peripheral/Source/gd32c2x1_i2c.c:93:0
	.fnstart
	.cfi_startproc
@ %bb.0:
	.pad	#16
	sub	sp, #16
	.cfi_def_cfa_offset 16
	str	r0, [sp, #12]
	str	r1, [sp, #8]
	str	r2, [sp, #4]
	str	r3, [sp]
.Ltmp6:
	.loc	5 95 5 prologue_end             @ ../std/GD32C2x1_Firmware_Library/GD32C2x1_standard_peripheral/Source/gd32c2x1_i2c.c:95:5
	ldr	r1, [sp, #12]
	.loc	5 95 28 is_stmt 0               @ ../std/GD32C2x1_Firmware_Library/GD32C2x1_standard_peripheral/Source/gd32c2x1_i2c.c:95:28
	ldr	r0, [r1, #16]
	movs	r2, #15
	lsls	r3, r2, #28
	bics	r0, r3
	str	r0, [r1, #16]
	.loc	5 96 5 is_stmt 1                @ ../std/GD32C2x1_Firmware_Library/GD32C2x1_standard_peripheral/Source/gd32c2x1_i2c.c:96:5
	ldr	r1, [sp, #12]
	.loc	5 96 28 is_stmt 0               @ ../std/GD32C2x1_Firmware_Library/GD32C2x1_standard_peripheral/Source/gd32c2x1_i2c.c:96:28
	ldr	r0, [r1, #16]
	lsls	r3, r2, #20
	bics	r0, r3
	str	r0, [r1, #16]
	.loc	5 97 5 is_stmt 1                @ ../std/GD32C2x1_Firmware_Library/GD32C2x1_standard_peripheral/Source/gd32c2x1_i2c.c:97:5
	ldr	r1, [sp, #12]
	.loc	5 97 28 is_stmt 0               @ ../std/GD32C2x1_Firmware_Library/GD32C2x1_standard_peripheral/Source/gd32c2x1_i2c.c:97:28
	ldr	r0, [r1, #16]
	lsls	r2, r2, #16
	bics	r0, r2
	str	r0, [r1, #16]
	.loc	5 99 22 is_stmt 1               @ ../std/GD32C2x1_Firmware_Library/GD32C2x1_standard_peripheral/Source/gd32c2x1_i2c.c:99:22
	ldr	r0, [sp, #8]
	.loc	5 99 26 is_stmt 0               @ ../std/GD32C2x1_Firmware_Library/GD32C2x1_standard_peripheral/Source/gd32c2x1_i2c.c:99:26
	lsls	r0, r0, #28
	.loc	5 99 9                          @ ../std/GD32C2x1_Firmware_Library/GD32C2x1_standard_peripheral/Source/gd32c2x1_i2c.c:99:9
	str	r0, [sp, #8]
	.loc	5 100 27 is_stmt 1              @ ../std/GD32C2x1_Firmware_Library/GD32C2x1_standard_peripheral/Source/gd32c2x1_i2c.c:100:27
	ldr	r0, [sp, #4]
	.loc	5 100 62 is_stmt 0              @ ../std/GD32C2x1_Firmware_Library/GD32C2x1_standard_peripheral/Source/gd32c2x1_i2c.c:100:62
	lsls	r0, r0, #28
	lsrs	r0, r0, #8
	.loc	5 100 14                        @ ../std/GD32C2x1_Firmware_Library/GD32C2x1_standard_peripheral/Source/gd32c2x1_i2c.c:100:14
	str	r0, [sp, #4]
	.loc	5 101 27 is_stmt 1              @ ../std/GD32C2x1_Firmware_Library/GD32C2x1_standard_peripheral/Source/gd32c2x1_i2c.c:101:27
	ldr	r0, [sp]
	.loc	5 101 62 is_stmt 0              @ ../std/GD32C2x1_Firmware_Library/GD32C2x1_standard_peripheral/Source/gd32c2x1_i2c.c:101:62
	lsls	r0, r0, #28
	lsrs	r0, r0, #12
	.loc	5 101 14                        @ ../std/GD32C2x1_Firmware_Library/GD32C2x1_standard_peripheral/Source/gd32c2x1_i2c.c:101:14
	str	r0, [sp]
	.loc	5 103 32 is_stmt 1              @ ../std/GD32C2x1_Firmware_Library/GD32C2x1_standard_peripheral/Source/gd32c2x1_i2c.c:103:32
	ldr	r2, [sp, #8]
	.loc	5 103 38 is_stmt 0              @ ../std/GD32C2x1_Firmware_Library/GD32C2x1_standard_peripheral/Source/gd32c2x1_i2c.c:103:38
	ldr	r0, [sp, #4]
	.loc	5 103 36                        @ ../std/GD32C2x1_Firmware_Library/GD32C2x1_standard_peripheral/Source/gd32c2x1_i2c.c:103:36
	orrs	r2, r0
	.loc	5 103 49                        @ ../std/GD32C2x1_Firmware_Library/GD32C2x1_standard_peripheral/Source/gd32c2x1_i2c.c:103:49
	ldr	r0, [sp]
	.loc	5 103 47                        @ ../std/GD32C2x1_Firmware_Library/GD32C2x1_standard_peripheral/Source/gd32c2x1_i2c.c:103:47
	orrs	r2, r0
	.loc	5 103 5                         @ ../std/GD32C2x1_Firmware_Library/GD32C2x1_standard_peripheral/Source/gd32c2x1_i2c.c:103:5
	ldr	r1, [sp, #12]
	.loc	5 103 28                        @ ../std/GD32C2x1_Firmware_Library/GD32C2x1_standard_peripheral/Source/gd32c2x1_i2c.c:103:28
	ldr	r0, [r1, #16]
	orrs	r0, r2
	str	r0, [r1, #16]
	.loc	5 104 1 is_stmt 1               @ ../std/GD32C2x1_Firmware_Library/GD32C2x1_standard_peripheral/Source/gd32c2x1_i2c.c:104:1
	add	sp, #16
	bx	lr
.Ltmp7:
.Lfunc_end2:
	.size	i2c_timing_config, .Lfunc_end2-i2c_timing_config
	.cfi_endproc
	.cantunwind
	.fnend
                                        @ -- End function
	.section	.text.i2c_digital_noise_filter_config,"ax",%progbits
	.hidden	i2c_digital_noise_filter_config @ -- Begin function i2c_digital_noise_filter_config
	.globl	i2c_digital_noise_filter_config
	.p2align	1
	.type	i2c_digital_noise_filter_config,%function
	.code	16                              @ @i2c_digital_noise_filter_config
	.thumb_func
i2c_digital_noise_filter_config:
.Lfunc_begin3:
	.loc	5 131 0                         @ ../std/GD32C2x1_Firmware_Library/GD32C2x1_standard_peripheral/Source/gd32c2x1_i2c.c:131:0
	.fnstart
	.cfi_startproc
@ %bb.0:
	.pad	#8
	sub	sp, #8
	.cfi_def_cfa_offset 8
	str	r0, [sp, #4]
	str	r1, [sp]
.Ltmp8:
	.loc	5 133 5 prologue_end            @ ../std/GD32C2x1_Firmware_Library/GD32C2x1_standard_peripheral/Source/gd32c2x1_i2c.c:133:5
	ldr	r1, [sp, #4]
	.loc	5 133 26 is_stmt 0              @ ../std/GD32C2x1_Firmware_Library/GD32C2x1_standard_peripheral/Source/gd32c2x1_i2c.c:133:26
	ldr	r0, [r1]
	movw	r2, #3840
	bics	r0, r2
	str	r0, [r1]
	.loc	5 135 32 is_stmt 1              @ ../std/GD32C2x1_Firmware_Library/GD32C2x1_standard_peripheral/Source/gd32c2x1_i2c.c:135:32
	ldr	r0, [sp]
	.loc	5 135 66 is_stmt 0              @ ../std/GD32C2x1_Firmware_Library/GD32C2x1_standard_peripheral/Source/gd32c2x1_i2c.c:135:66
	lsls	r0, r0, #28
	lsrs	r0, r0, #20
	.loc	5 135 19                        @ ../std/GD32C2x1_Firmware_Library/GD32C2x1_standard_peripheral/Source/gd32c2x1_i2c.c:135:19
	str	r0, [sp]
	.loc	5 137 29 is_stmt 1              @ ../std/GD32C2x1_Firmware_Library/GD32C2x1_standard_peripheral/Source/gd32c2x1_i2c.c:137:29
	ldr	r2, [sp]
	.loc	5 137 5 is_stmt 0               @ ../std/GD32C2x1_Firmware_Library/GD32C2x1_standard_peripheral/Source/gd32c2x1_i2c.c:137:5
	ldr	r1, [sp, #4]
	.loc	5 137 26                        @ ../std/GD32C2x1_Firmware_Library/GD32C2x1_standard_peripheral/Source/gd32c2x1_i2c.c:137:26
	ldr	r0, [r1]
	orrs	r0, r2
	str	r0, [r1]
	.loc	5 138 1 is_stmt 1               @ ../std/GD32C2x1_Firmware_Library/GD32C2x1_standard_peripheral/Source/gd32c2x1_i2c.c:138:1
	add	sp, #8
	bx	lr
.Ltmp9:
.Lfunc_end3:
	.size	i2c_digital_noise_filter_config, .Lfunc_end3-i2c_digital_noise_filter_config
	.cfi_endproc
	.cantunwind
	.fnend
                                        @ -- End function
	.section	.text.i2c_analog_noise_filter_enable,"ax",%progbits
	.hidden	i2c_analog_noise_filter_enable  @ -- Begin function i2c_analog_noise_filter_enable
	.globl	i2c_analog_noise_filter_enable
	.p2align	1
	.type	i2c_analog_noise_filter_enable,%function
	.code	16                              @ @i2c_analog_noise_filter_enable
	.thumb_func
i2c_analog_noise_filter_enable:
.Lfunc_begin4:
	.loc	5 147 0                         @ ../std/GD32C2x1_Firmware_Library/GD32C2x1_standard_peripheral/Source/gd32c2x1_i2c.c:147:0
	.fnstart
	.cfi_startproc
@ %bb.0:
	.pad	#4
	sub	sp, #4
	.cfi_def_cfa_offset 4
	str	r0, [sp]
.Ltmp10:
	.loc	5 148 5 prologue_end            @ ../std/GD32C2x1_Firmware_Library/GD32C2x1_standard_peripheral/Source/gd32c2x1_i2c.c:148:5
	ldr	r1, [sp]
	.loc	5 148 26 is_stmt 0              @ ../std/GD32C2x1_Firmware_Library/GD32C2x1_standard_peripheral/Source/gd32c2x1_i2c.c:148:26
	ldr	r0, [r1]
	movw	r2, #4096
	bics	r0, r2
	str	r0, [r1]
	.loc	5 149 1 is_stmt 1               @ ../std/GD32C2x1_Firmware_Library/GD32C2x1_standard_peripheral/Source/gd32c2x1_i2c.c:149:1
	add	sp, #4
	bx	lr
.Ltmp11:
.Lfunc_end4:
	.size	i2c_analog_noise_filter_enable, .Lfunc_end4-i2c_analog_noise_filter_enable
	.cfi_endproc
	.cantunwind
	.fnend
                                        @ -- End function
	.section	.text.i2c_analog_noise_filter_disable,"ax",%progbits
	.hidden	i2c_analog_noise_filter_disable @ -- Begin function i2c_analog_noise_filter_disable
	.globl	i2c_analog_noise_filter_disable
	.p2align	1
	.type	i2c_analog_noise_filter_disable,%function
	.code	16                              @ @i2c_analog_noise_filter_disable
	.thumb_func
i2c_analog_noise_filter_disable:
.Lfunc_begin5:
	.loc	5 158 0                         @ ../std/GD32C2x1_Firmware_Library/GD32C2x1_standard_peripheral/Source/gd32c2x1_i2c.c:158:0
	.fnstart
	.cfi_startproc
@ %bb.0:
	.pad	#4
	sub	sp, #4
	.cfi_def_cfa_offset 4
	str	r0, [sp]
.Ltmp12:
	.loc	5 159 5 prologue_end            @ ../std/GD32C2x1_Firmware_Library/GD32C2x1_standard_peripheral/Source/gd32c2x1_i2c.c:159:5
	ldr	r1, [sp]
	.loc	5 159 26 is_stmt 0              @ ../std/GD32C2x1_Firmware_Library/GD32C2x1_standard_peripheral/Source/gd32c2x1_i2c.c:159:26
	ldr	r0, [r1]
	movw	r2, #4096
	orrs	r0, r2
	str	r0, [r1]
	.loc	5 160 1 is_stmt 1               @ ../std/GD32C2x1_Firmware_Library/GD32C2x1_standard_peripheral/Source/gd32c2x1_i2c.c:160:1
	add	sp, #4
	bx	lr
.Ltmp13:
.Lfunc_end5:
	.size	i2c_analog_noise_filter_disable, .Lfunc_end5-i2c_analog_noise_filter_disable
	.cfi_endproc
	.cantunwind
	.fnend
                                        @ -- End function
	.section	.text.i2c_master_clock_config,"ax",%progbits
	.hidden	i2c_master_clock_config         @ -- Begin function i2c_master_clock_config
	.globl	i2c_master_clock_config
	.p2align	1
	.type	i2c_master_clock_config,%function
	.code	16                              @ @i2c_master_clock_config
	.thumb_func
i2c_master_clock_config:
.Lfunc_begin6:
	.loc	5 171 0                         @ ../std/GD32C2x1_Firmware_Library/GD32C2x1_standard_peripheral/Source/gd32c2x1_i2c.c:171:0
	.fnstart
	.cfi_startproc
@ %bb.0:
	.pad	#12
	sub	sp, #12
	.cfi_def_cfa_offset 12
	str	r0, [sp, #8]
	str	r1, [sp, #4]
	str	r2, [sp]
.Ltmp14:
	.loc	5 173 5 prologue_end            @ ../std/GD32C2x1_Firmware_Library/GD32C2x1_standard_peripheral/Source/gd32c2x1_i2c.c:173:5
	ldr	r1, [sp, #8]
	.loc	5 173 28 is_stmt 0              @ ../std/GD32C2x1_Firmware_Library/GD32C2x1_standard_peripheral/Source/gd32c2x1_i2c.c:173:28
	ldr	r0, [r1, #16]
	movw	r2, #65280
	bics	r0, r2
	str	r0, [r1, #16]
	.loc	5 174 5 is_stmt 1               @ ../std/GD32C2x1_Firmware_Library/GD32C2x1_standard_peripheral/Source/gd32c2x1_i2c.c:174:5
	ldr	r1, [sp, #8]
	.loc	5 174 28 is_stmt 0              @ ../std/GD32C2x1_Firmware_Library/GD32C2x1_standard_peripheral/Source/gd32c2x1_i2c.c:174:28
	ldr	r0, [r1, #16]
	movs	r2, #255
	bics	r0, r2
	str	r0, [r1, #16]
	.loc	5 176 23 is_stmt 1              @ ../std/GD32C2x1_Firmware_Library/GD32C2x1_standard_peripheral/Source/gd32c2x1_i2c.c:176:23
	ldr	r0, [sp, #4]
	.loc	5 176 28 is_stmt 0              @ ../std/GD32C2x1_Firmware_Library/GD32C2x1_standard_peripheral/Source/gd32c2x1_i2c.c:176:28
	lsls	r0, r0, #8
	.loc	5 176 51                        @ ../std/GD32C2x1_Firmware_Library/GD32C2x1_standard_peripheral/Source/gd32c2x1_i2c.c:176:51
	uxth	r0, r0
	.loc	5 176 10                        @ ../std/GD32C2x1_Firmware_Library/GD32C2x1_standard_peripheral/Source/gd32c2x1_i2c.c:176:10
	str	r0, [sp, #4]
	mov	r0, sp
	.loc	5 177 23 is_stmt 1              @ ../std/GD32C2x1_Firmware_Library/GD32C2x1_standard_peripheral/Source/gd32c2x1_i2c.c:177:23
	ldrb	r0, [r0]
	.loc	5 177 10 is_stmt 0              @ ../std/GD32C2x1_Firmware_Library/GD32C2x1_standard_peripheral/Source/gd32c2x1_i2c.c:177:10
	str	r0, [sp]
	.loc	5 179 32 is_stmt 1              @ ../std/GD32C2x1_Firmware_Library/GD32C2x1_standard_peripheral/Source/gd32c2x1_i2c.c:179:32
	ldr	r2, [sp, #4]
	.loc	5 179 39 is_stmt 0              @ ../std/GD32C2x1_Firmware_Library/GD32C2x1_standard_peripheral/Source/gd32c2x1_i2c.c:179:39
	ldr	r0, [sp]
	.loc	5 179 37                        @ ../std/GD32C2x1_Firmware_Library/GD32C2x1_standard_peripheral/Source/gd32c2x1_i2c.c:179:37
	orrs	r2, r0
	.loc	5 179 5                         @ ../std/GD32C2x1_Firmware_Library/GD32C2x1_standard_peripheral/Source/gd32c2x1_i2c.c:179:5
	ldr	r1, [sp, #8]
	.loc	5 179 28                        @ ../std/GD32C2x1_Firmware_Library/GD32C2x1_standard_peripheral/Source/gd32c2x1_i2c.c:179:28
	ldr	r0, [r1, #16]
	orrs	r0, r2
	str	r0, [r1, #16]
	.loc	5 180 1 is_stmt 1               @ ../std/GD32C2x1_Firmware_Library/GD32C2x1_standard_peripheral/Source/gd32c2x1_i2c.c:180:1
	add	sp, #12
	bx	lr
.Ltmp15:
.Lfunc_end6:
	.size	i2c_master_clock_config, .Lfunc_end6-i2c_master_clock_config
	.cfi_endproc
	.cantunwind
	.fnend
                                        @ -- End function
	.section	.text.i2c_master_addressing,"ax",%progbits
	.hidden	i2c_master_addressing           @ -- Begin function i2c_master_addressing
	.globl	i2c_master_addressing
	.p2align	2
	.type	i2c_master_addressing,%function
	.code	16                              @ @i2c_master_addressing
	.thumb_func
i2c_master_addressing:
.Lfunc_begin7:
	.loc	5 194 0                         @ ../std/GD32C2x1_Firmware_Library/GD32C2x1_standard_peripheral/Source/gd32c2x1_i2c.c:194:0
	.fnstart
	.cfi_startproc
@ %bb.0:
	.pad	#12
	sub	sp, #12
	.cfi_def_cfa_offset 12
	str	r0, [sp, #8]
	str	r1, [sp, #4]
	str	r2, [sp]
.Ltmp16:
	.loc	5 196 5 prologue_end            @ ../std/GD32C2x1_Firmware_Library/GD32C2x1_standard_peripheral/Source/gd32c2x1_i2c.c:196:5
	ldr	r1, [sp, #8]
	.loc	5 196 26 is_stmt 0              @ ../std/GD32C2x1_Firmware_Library/GD32C2x1_standard_peripheral/Source/gd32c2x1_i2c.c:196:26
	ldr	r0, [r1, #4]
	ldr	r2, __arm_cp.7_0
	ands	r0, r2
	str	r0, [r1, #4]
	.loc	5 197 40 is_stmt 1              @ ../std/GD32C2x1_Firmware_Library/GD32C2x1_standard_peripheral/Source/gd32c2x1_i2c.c:197:40
	ldr	r2, [sp, #4]
	ldr	r0, __arm_cp.7_1
	.loc	5 197 48 is_stmt 0              @ ../std/GD32C2x1_Firmware_Library/GD32C2x1_standard_peripheral/Source/gd32c2x1_i2c.c:197:48
	ands	r2, r0
	.loc	5 197 5                         @ ../std/GD32C2x1_Firmware_Library/GD32C2x1_standard_peripheral/Source/gd32c2x1_i2c.c:197:5
	ldr	r1, [sp, #8]
	.loc	5 197 26                        @ ../std/GD32C2x1_Firmware_Library/GD32C2x1_standard_peripheral/Source/gd32c2x1_i2c.c:197:26
	ldr	r0, [r1, #4]
	orrs	r0, r2
	str	r0, [r1, #4]
	.loc	5 199 5 is_stmt 1               @ ../std/GD32C2x1_Firmware_Library/GD32C2x1_standard_peripheral/Source/gd32c2x1_i2c.c:199:5
	ldr	r2, [sp, #8]
	.loc	5 199 26 is_stmt 0              @ ../std/GD32C2x1_Firmware_Library/GD32C2x1_standard_peripheral/Source/gd32c2x1_i2c.c:199:26
	ldr	r1, [r2, #4]
	movw	r0, #1024
	bics	r1, r0
	str	r1, [r2, #4]
	.loc	5 200 40 is_stmt 1              @ ../std/GD32C2x1_Firmware_Library/GD32C2x1_standard_peripheral/Source/gd32c2x1_i2c.c:200:40
	ldr	r2, [sp]
	.loc	5 200 56 is_stmt 0              @ ../std/GD32C2x1_Firmware_Library/GD32C2x1_standard_peripheral/Source/gd32c2x1_i2c.c:200:56
	ands	r2, r0
	.loc	5 200 5                         @ ../std/GD32C2x1_Firmware_Library/GD32C2x1_standard_peripheral/Source/gd32c2x1_i2c.c:200:5
	ldr	r1, [sp, #8]
	.loc	5 200 26                        @ ../std/GD32C2x1_Firmware_Library/GD32C2x1_standard_peripheral/Source/gd32c2x1_i2c.c:200:26
	ldr	r0, [r1, #4]
	orrs	r0, r2
	str	r0, [r1, #4]
	.loc	5 201 1 is_stmt 1               @ ../std/GD32C2x1_Firmware_Library/GD32C2x1_standard_peripheral/Source/gd32c2x1_i2c.c:201:1
	add	sp, #12
	bx	lr
.Ltmp17:
	.p2align	2
@ %bb.1:
	.loc	5 0 1 is_stmt 0                 @ ../std/GD32C2x1_Firmware_Library/GD32C2x1_standard_peripheral/Source/gd32c2x1_i2c.c:0:1
__arm_cp.7_0:
	.long	4294966272                      @ 0xfffffc00
.Lcpi_end4:
	.size	__arm_cp.7_0, .Lcpi_end4-__arm_cp.7_0
__arm_cp.7_1:
	.long	1023                            @ 0x3ff
.Lcpi_end5:
	.size	__arm_cp.7_1, .Lcpi_end5-__arm_cp.7_1
.Lfunc_end7:
	.size	i2c_master_addressing, .Lfunc_end7-i2c_master_addressing
	.cfi_endproc
	.cantunwind
	.fnend
                                        @ -- End function
	.section	.text.i2c_address10_header_enable,"ax",%progbits
	.hidden	i2c_address10_header_enable     @ -- Begin function i2c_address10_header_enable
	.globl	i2c_address10_header_enable
	.p2align	1
	.type	i2c_address10_header_enable,%function
	.code	16                              @ @i2c_address10_header_enable
	.thumb_func
i2c_address10_header_enable:
.Lfunc_begin8:
	.loc	5 210 0 is_stmt 1               @ ../std/GD32C2x1_Firmware_Library/GD32C2x1_standard_peripheral/Source/gd32c2x1_i2c.c:210:0
	.fnstart
	.cfi_startproc
@ %bb.0:
	.pad	#4
	sub	sp, #4
	.cfi_def_cfa_offset 4
	str	r0, [sp]
.Ltmp18:
	.loc	5 211 5 prologue_end            @ ../std/GD32C2x1_Firmware_Library/GD32C2x1_standard_peripheral/Source/gd32c2x1_i2c.c:211:5
	ldr	r1, [sp]
	.loc	5 211 26 is_stmt 0              @ ../std/GD32C2x1_Firmware_Library/GD32C2x1_standard_peripheral/Source/gd32c2x1_i2c.c:211:26
	ldr	r0, [r1, #4]
	movw	r2, #4096
	orrs	r0, r2
	str	r0, [r1, #4]
	.loc	5 212 1 is_stmt 1               @ ../std/GD32C2x1_Firmware_Library/GD32C2x1_standard_peripheral/Source/gd32c2x1_i2c.c:212:1
	add	sp, #4
	bx	lr
.Ltmp19:
.Lfunc_end8:
	.size	i2c_address10_header_enable, .Lfunc_end8-i2c_address10_header_enable
	.cfi_endproc
	.cantunwind
	.fnend
                                        @ -- End function
	.section	.text.i2c_address10_header_disable,"ax",%progbits
	.hidden	i2c_address10_header_disable    @ -- Begin function i2c_address10_header_disable
	.globl	i2c_address10_header_disable
	.p2align	1
	.type	i2c_address10_header_disable,%function
	.code	16                              @ @i2c_address10_header_disable
	.thumb_func
i2c_address10_header_disable:
.Lfunc_begin9:
	.loc	5 221 0                         @ ../std/GD32C2x1_Firmware_Library/GD32C2x1_standard_peripheral/Source/gd32c2x1_i2c.c:221:0
	.fnstart
	.cfi_startproc
@ %bb.0:
	.pad	#4
	sub	sp, #4
	.cfi_def_cfa_offset 4
	str	r0, [sp]
.Ltmp20:
	.loc	5 222 5 prologue_end            @ ../std/GD32C2x1_Firmware_Library/GD32C2x1_standard_peripheral/Source/gd32c2x1_i2c.c:222:5
	ldr	r1, [sp]
	.loc	5 222 26 is_stmt 0              @ ../std/GD32C2x1_Firmware_Library/GD32C2x1_standard_peripheral/Source/gd32c2x1_i2c.c:222:26
	ldr	r0, [r1, #4]
	movw	r2, #4096
	bics	r0, r2
	str	r0, [r1, #4]
	.loc	5 223 1 is_stmt 1               @ ../std/GD32C2x1_Firmware_Library/GD32C2x1_standard_peripheral/Source/gd32c2x1_i2c.c:223:1
	add	sp, #4
	bx	lr
.Ltmp21:
.Lfunc_end9:
	.size	i2c_address10_header_disable, .Lfunc_end9-i2c_address10_header_disable
	.cfi_endproc
	.cantunwind
	.fnend
                                        @ -- End function
	.section	.text.i2c_address10_enable,"ax",%progbits
	.hidden	i2c_address10_enable            @ -- Begin function i2c_address10_enable
	.globl	i2c_address10_enable
	.p2align	1
	.type	i2c_address10_enable,%function
	.code	16                              @ @i2c_address10_enable
	.thumb_func
i2c_address10_enable:
.Lfunc_begin10:
	.loc	5 232 0                         @ ../std/GD32C2x1_Firmware_Library/GD32C2x1_standard_peripheral/Source/gd32c2x1_i2c.c:232:0
	.fnstart
	.cfi_startproc
@ %bb.0:
	.pad	#4
	sub	sp, #4
	.cfi_def_cfa_offset 4
	str	r0, [sp]
.Ltmp22:
	.loc	5 233 5 prologue_end            @ ../std/GD32C2x1_Firmware_Library/GD32C2x1_standard_peripheral/Source/gd32c2x1_i2c.c:233:5
	ldr	r1, [sp]
	.loc	5 233 26 is_stmt 0              @ ../std/GD32C2x1_Firmware_Library/GD32C2x1_standard_peripheral/Source/gd32c2x1_i2c.c:233:26
	ldr	r0, [r1, #4]
	movw	r2, #2048
	orrs	r0, r2
	str	r0, [r1, #4]
	.loc	5 234 1 is_stmt 1               @ ../std/GD32C2x1_Firmware_Library/GD32C2x1_standard_peripheral/Source/gd32c2x1_i2c.c:234:1
	add	sp, #4
	bx	lr
.Ltmp23:
.Lfunc_end10:
	.size	i2c_address10_enable, .Lfunc_end10-i2c_address10_enable
	.cfi_endproc
	.cantunwind
	.fnend
                                        @ -- End function
	.section	.text.i2c_address10_disable,"ax",%progbits
	.hidden	i2c_address10_disable           @ -- Begin function i2c_address10_disable
	.globl	i2c_address10_disable
	.p2align	1
	.type	i2c_address10_disable,%function
	.code	16                              @ @i2c_address10_disable
	.thumb_func
i2c_address10_disable:
.Lfunc_begin11:
	.loc	5 243 0                         @ ../std/GD32C2x1_Firmware_Library/GD32C2x1_standard_peripheral/Source/gd32c2x1_i2c.c:243:0
	.fnstart
	.cfi_startproc
@ %bb.0:
	.pad	#4
	sub	sp, #4
	.cfi_def_cfa_offset 4
	str	r0, [sp]
.Ltmp24:
	.loc	5 244 5 prologue_end            @ ../std/GD32C2x1_Firmware_Library/GD32C2x1_standard_peripheral/Source/gd32c2x1_i2c.c:244:5
	ldr	r1, [sp]
	.loc	5 244 26 is_stmt 0              @ ../std/GD32C2x1_Firmware_Library/GD32C2x1_standard_peripheral/Source/gd32c2x1_i2c.c:244:26
	ldr	r0, [r1, #4]
	movw	r2, #2048
	bics	r0, r2
	str	r0, [r1, #4]
	.loc	5 245 1 is_stmt 1               @ ../std/GD32C2x1_Firmware_Library/GD32C2x1_standard_peripheral/Source/gd32c2x1_i2c.c:245:1
	add	sp, #4
	bx	lr
.Ltmp25:
.Lfunc_end11:
	.size	i2c_address10_disable, .Lfunc_end11-i2c_address10_disable
	.cfi_endproc
	.cantunwind
	.fnend
                                        @ -- End function
	.section	.text.i2c_automatic_end_enable,"ax",%progbits
	.hidden	i2c_automatic_end_enable        @ -- Begin function i2c_automatic_end_enable
	.globl	i2c_automatic_end_enable
	.p2align	1
	.type	i2c_automatic_end_enable,%function
	.code	16                              @ @i2c_automatic_end_enable
	.thumb_func
i2c_automatic_end_enable:
.Lfunc_begin12:
	.loc	5 254 0                         @ ../std/GD32C2x1_Firmware_Library/GD32C2x1_standard_peripheral/Source/gd32c2x1_i2c.c:254:0
	.fnstart
	.cfi_startproc
@ %bb.0:
	.pad	#4
	sub	sp, #4
	.cfi_def_cfa_offset 4
	str	r0, [sp]
.Ltmp26:
	.loc	5 255 5 prologue_end            @ ../std/GD32C2x1_Firmware_Library/GD32C2x1_standard_peripheral/Source/gd32c2x1_i2c.c:255:5
	ldr	r1, [sp]
	.loc	5 255 26 is_stmt 0              @ ../std/GD32C2x1_Firmware_Library/GD32C2x1_standard_peripheral/Source/gd32c2x1_i2c.c:255:26
	ldr	r0, [r1, #4]
	movs	r2, #1
	lsls	r2, r2, #25
	orrs	r0, r2
	str	r0, [r1, #4]
	.loc	5 256 1 is_stmt 1               @ ../std/GD32C2x1_Firmware_Library/GD32C2x1_standard_peripheral/Source/gd32c2x1_i2c.c:256:1
	add	sp, #4
	bx	lr
.Ltmp27:
.Lfunc_end12:
	.size	i2c_automatic_end_enable, .Lfunc_end12-i2c_automatic_end_enable
	.cfi_endproc
	.cantunwind
	.fnend
                                        @ -- End function
	.section	.text.i2c_automatic_end_disable,"ax",%progbits
	.hidden	i2c_automatic_end_disable       @ -- Begin function i2c_automatic_end_disable
	.globl	i2c_automatic_end_disable
	.p2align	1
	.type	i2c_automatic_end_disable,%function
	.code	16                              @ @i2c_automatic_end_disable
	.thumb_func
i2c_automatic_end_disable:
.Lfunc_begin13:
	.loc	5 265 0                         @ ../std/GD32C2x1_Firmware_Library/GD32C2x1_standard_peripheral/Source/gd32c2x1_i2c.c:265:0
	.fnstart
	.cfi_startproc
@ %bb.0:
	.pad	#4
	sub	sp, #4
	.cfi_def_cfa_offset 4
	str	r0, [sp]
.Ltmp28:
	.loc	5 266 5 prologue_end            @ ../std/GD32C2x1_Firmware_Library/GD32C2x1_standard_peripheral/Source/gd32c2x1_i2c.c:266:5
	ldr	r1, [sp]
	.loc	5 266 26 is_stmt 0              @ ../std/GD32C2x1_Firmware_Library/GD32C2x1_standard_peripheral/Source/gd32c2x1_i2c.c:266:26
	ldr	r0, [r1, #4]
	movs	r2, #1
	lsls	r2, r2, #25
	bics	r0, r2
	str	r0, [r1, #4]
	.loc	5 267 1 is_stmt 1               @ ../std/GD32C2x1_Firmware_Library/GD32C2x1_standard_peripheral/Source/gd32c2x1_i2c.c:267:1
	add	sp, #4
	bx	lr
.Ltmp29:
.Lfunc_end13:
	.size	i2c_automatic_end_disable, .Lfunc_end13-i2c_automatic_end_disable
	.cfi_endproc
	.cantunwind
	.fnend
                                        @ -- End function
	.section	.text.i2c_slave_response_to_gcall_enable,"ax",%progbits
	.hidden	i2c_slave_response_to_gcall_enable @ -- Begin function i2c_slave_response_to_gcall_enable
	.globl	i2c_slave_response_to_gcall_enable
	.p2align	1
	.type	i2c_slave_response_to_gcall_enable,%function
	.code	16                              @ @i2c_slave_response_to_gcall_enable
	.thumb_func
i2c_slave_response_to_gcall_enable:
.Lfunc_begin14:
	.loc	5 276 0                         @ ../std/GD32C2x1_Firmware_Library/GD32C2x1_standard_peripheral/Source/gd32c2x1_i2c.c:276:0
	.fnstart
	.cfi_startproc
@ %bb.0:
	.pad	#4
	sub	sp, #4
	.cfi_def_cfa_offset 4
	str	r0, [sp]
.Ltmp30:
	.loc	5 277 5 prologue_end            @ ../std/GD32C2x1_Firmware_Library/GD32C2x1_standard_peripheral/Source/gd32c2x1_i2c.c:277:5
	ldr	r1, [sp]
	.loc	5 277 26 is_stmt 0              @ ../std/GD32C2x1_Firmware_Library/GD32C2x1_standard_peripheral/Source/gd32c2x1_i2c.c:277:26
	ldr	r0, [r1]
	movs	r2, #1
	lsls	r2, r2, #19
	orrs	r0, r2
	str	r0, [r1]
	.loc	5 278 1 is_stmt 1               @ ../std/GD32C2x1_Firmware_Library/GD32C2x1_standard_peripheral/Source/gd32c2x1_i2c.c:278:1
	add	sp, #4
	bx	lr
.Ltmp31:
.Lfunc_end14:
	.size	i2c_slave_response_to_gcall_enable, .Lfunc_end14-i2c_slave_response_to_gcall_enable
	.cfi_endproc
	.cantunwind
	.fnend
                                        @ -- End function
	.section	.text.i2c_slave_response_to_gcall_disable,"ax",%progbits
	.hidden	i2c_slave_response_to_gcall_disable @ -- Begin function i2c_slave_response_to_gcall_disable
	.globl	i2c_slave_response_to_gcall_disable
	.p2align	1
	.type	i2c_slave_response_to_gcall_disable,%function
	.code	16                              @ @i2c_slave_response_to_gcall_disable
	.thumb_func
i2c_slave_response_to_gcall_disable:
.Lfunc_begin15:
	.loc	5 287 0                         @ ../std/GD32C2x1_Firmware_Library/GD32C2x1_standard_peripheral/Source/gd32c2x1_i2c.c:287:0
	.fnstart
	.cfi_startproc
@ %bb.0:
	.pad	#4
	sub	sp, #4
	.cfi_def_cfa_offset 4
	str	r0, [sp]
.Ltmp32:
	.loc	5 288 5 prologue_end            @ ../std/GD32C2x1_Firmware_Library/GD32C2x1_standard_peripheral/Source/gd32c2x1_i2c.c:288:5
	ldr	r1, [sp]
	.loc	5 288 26 is_stmt 0              @ ../std/GD32C2x1_Firmware_Library/GD32C2x1_standard_peripheral/Source/gd32c2x1_i2c.c:288:26
	ldr	r0, [r1]
	movs	r2, #1
	lsls	r2, r2, #19
	bics	r0, r2
	str	r0, [r1]
	.loc	5 289 1 is_stmt 1               @ ../std/GD32C2x1_Firmware_Library/GD32C2x1_standard_peripheral/Source/gd32c2x1_i2c.c:289:1
	add	sp, #4
	bx	lr
.Ltmp33:
.Lfunc_end15:
	.size	i2c_slave_response_to_gcall_disable, .Lfunc_end15-i2c_slave_response_to_gcall_disable
	.cfi_endproc
	.cantunwind
	.fnend
                                        @ -- End function
	.section	.text.i2c_stretch_scl_low_enable,"ax",%progbits
	.hidden	i2c_stretch_scl_low_enable      @ -- Begin function i2c_stretch_scl_low_enable
	.globl	i2c_stretch_scl_low_enable
	.p2align	1
	.type	i2c_stretch_scl_low_enable,%function
	.code	16                              @ @i2c_stretch_scl_low_enable
	.thumb_func
i2c_stretch_scl_low_enable:
.Lfunc_begin16:
	.loc	5 298 0                         @ ../std/GD32C2x1_Firmware_Library/GD32C2x1_standard_peripheral/Source/gd32c2x1_i2c.c:298:0
	.fnstart
	.cfi_startproc
@ %bb.0:
	.pad	#4
	sub	sp, #4
	.cfi_def_cfa_offset 4
	str	r0, [sp]
.Ltmp34:
	.loc	5 299 5 prologue_end            @ ../std/GD32C2x1_Firmware_Library/GD32C2x1_standard_peripheral/Source/gd32c2x1_i2c.c:299:5
	ldr	r1, [sp]
	.loc	5 299 26 is_stmt 0              @ ../std/GD32C2x1_Firmware_Library/GD32C2x1_standard_peripheral/Source/gd32c2x1_i2c.c:299:26
	ldr	r0, [r1]
	movs	r2, #1
	lsls	r2, r2, #17
	bics	r0, r2
	str	r0, [r1]
	.loc	5 300 1 is_stmt 1               @ ../std/GD32C2x1_Firmware_Library/GD32C2x1_standard_peripheral/Source/gd32c2x1_i2c.c:300:1
	add	sp, #4
	bx	lr
.Ltmp35:
.Lfunc_end16:
	.size	i2c_stretch_scl_low_enable, .Lfunc_end16-i2c_stretch_scl_low_enable
	.cfi_endproc
	.cantunwind
	.fnend
                                        @ -- End function
	.section	.text.i2c_stretch_scl_low_disable,"ax",%progbits
	.hidden	i2c_stretch_scl_low_disable     @ -- Begin function i2c_stretch_scl_low_disable
	.globl	i2c_stretch_scl_low_disable
	.p2align	1
	.type	i2c_stretch_scl_low_disable,%function
	.code	16                              @ @i2c_stretch_scl_low_disable
	.thumb_func
i2c_stretch_scl_low_disable:
.Lfunc_begin17:
	.loc	5 309 0                         @ ../std/GD32C2x1_Firmware_Library/GD32C2x1_standard_peripheral/Source/gd32c2x1_i2c.c:309:0
	.fnstart
	.cfi_startproc
@ %bb.0:
	.pad	#4
	sub	sp, #4
	.cfi_def_cfa_offset 4
	str	r0, [sp]
.Ltmp36:
	.loc	5 310 5 prologue_end            @ ../std/GD32C2x1_Firmware_Library/GD32C2x1_standard_peripheral/Source/gd32c2x1_i2c.c:310:5
	ldr	r1, [sp]
	.loc	5 310 26 is_stmt 0              @ ../std/GD32C2x1_Firmware_Library/GD32C2x1_standard_peripheral/Source/gd32c2x1_i2c.c:310:26
	ldr	r0, [r1]
	movs	r2, #1
	lsls	r2, r2, #17
	orrs	r0, r2
	str	r0, [r1]
	.loc	5 311 1 is_stmt 1               @ ../std/GD32C2x1_Firmware_Library/GD32C2x1_standard_peripheral/Source/gd32c2x1_i2c.c:311:1
	add	sp, #4
	bx	lr
.Ltmp37:
.Lfunc_end17:
	.size	i2c_stretch_scl_low_disable, .Lfunc_end17-i2c_stretch_scl_low_disable
	.cfi_endproc
	.cantunwind
	.fnend
                                        @ -- End function
	.section	.text.i2c_address_config,"ax",%progbits
	.hidden	i2c_address_config              @ -- Begin function i2c_address_config
	.globl	i2c_address_config
	.p2align	2
	.type	i2c_address_config,%function
	.code	16                              @ @i2c_address_config
	.thumb_func
i2c_address_config:
.Lfunc_begin18:
	.loc	5 325 0                         @ ../std/GD32C2x1_Firmware_Library/GD32C2x1_standard_peripheral/Source/gd32c2x1_i2c.c:325:0
	.fnstart
	.cfi_startproc
@ %bb.0:
	.pad	#12
	sub	sp, #12
	.cfi_def_cfa_offset 12
	str	r0, [sp, #8]
	str	r1, [sp, #4]
	str	r2, [sp]
.Ltmp38:
	.loc	5 327 15 prologue_end           @ ../std/GD32C2x1_Firmware_Library/GD32C2x1_standard_peripheral/Source/gd32c2x1_i2c.c:327:15
	ldr	r0, [sp, #4]
	ldr	r1, __arm_cp.18_0
	.loc	5 327 23 is_stmt 0              @ ../std/GD32C2x1_Firmware_Library/GD32C2x1_standard_peripheral/Source/gd32c2x1_i2c.c:327:23
	ands	r0, r1
	.loc	5 327 13                        @ ../std/GD32C2x1_Firmware_Library/GD32C2x1_standard_peripheral/Source/gd32c2x1_i2c.c:327:13
	str	r0, [sp, #4]
	.loc	5 328 19 is_stmt 1              @ ../std/GD32C2x1_Firmware_Library/GD32C2x1_standard_peripheral/Source/gd32c2x1_i2c.c:328:19
	ldr	r0, [sp]
	movw	r1, #1024
	.loc	5 328 31 is_stmt 0              @ ../std/GD32C2x1_Firmware_Library/GD32C2x1_standard_peripheral/Source/gd32c2x1_i2c.c:328:31
	ands	r0, r1
	.loc	5 328 17                        @ ../std/GD32C2x1_Firmware_Library/GD32C2x1_standard_peripheral/Source/gd32c2x1_i2c.c:328:17
	str	r0, [sp]
	.loc	5 329 31 is_stmt 1              @ ../std/GD32C2x1_Firmware_Library/GD32C2x1_standard_peripheral/Source/gd32c2x1_i2c.c:329:31
	ldr	r0, [sp]
	.loc	5 329 45 is_stmt 0              @ ../std/GD32C2x1_Firmware_Library/GD32C2x1_standard_peripheral/Source/gd32c2x1_i2c.c:329:45
	ldr	r1, [sp, #4]
	.loc	5 329 43                        @ ../std/GD32C2x1_Firmware_Library/GD32C2x1_standard_peripheral/Source/gd32c2x1_i2c.c:329:43
	orrs	r0, r1
	.loc	5 329 5                         @ ../std/GD32C2x1_Firmware_Library/GD32C2x1_standard_peripheral/Source/gd32c2x1_i2c.c:329:5
	ldr	r1, [sp, #8]
	.loc	5 329 28                        @ ../std/GD32C2x1_Firmware_Library/GD32C2x1_standard_peripheral/Source/gd32c2x1_i2c.c:329:28
	str	r0, [r1, #8]
	.loc	5 331 5 is_stmt 1               @ ../std/GD32C2x1_Firmware_Library/GD32C2x1_standard_peripheral/Source/gd32c2x1_i2c.c:331:5
	ldr	r1, [sp, #8]
	.loc	5 331 28 is_stmt 0              @ ../std/GD32C2x1_Firmware_Library/GD32C2x1_standard_peripheral/Source/gd32c2x1_i2c.c:331:28
	ldr	r0, [r1, #8]
	movw	r2, #32768
	orrs	r0, r2
	str	r0, [r1, #8]
	.loc	5 332 1 is_stmt 1               @ ../std/GD32C2x1_Firmware_Library/GD32C2x1_standard_peripheral/Source/gd32c2x1_i2c.c:332:1
	add	sp, #12
	bx	lr
.Ltmp39:
	.p2align	2
@ %bb.1:
	.loc	5 0 1 is_stmt 0                 @ ../std/GD32C2x1_Firmware_Library/GD32C2x1_standard_peripheral/Source/gd32c2x1_i2c.c:0:1
__arm_cp.18_0:
	.long	1023                            @ 0x3ff
.Lcpi_end6:
	.size	__arm_cp.18_0, .Lcpi_end6-__arm_cp.18_0
.Lfunc_end18:
	.size	i2c_address_config, .Lfunc_end18-i2c_address_config
	.cfi_endproc
	.cantunwind
	.fnend
                                        @ -- End function
	.section	.text.i2c_address_bit_compare_config,"ax",%progbits
	.hidden	i2c_address_bit_compare_config  @ -- Begin function i2c_address_bit_compare_config
	.globl	i2c_address_bit_compare_config
	.p2align	1
	.type	i2c_address_bit_compare_config,%function
	.code	16                              @ @i2c_address_bit_compare_config
	.thumb_func
i2c_address_bit_compare_config:
.Lfunc_begin19:
	.loc	5 350 0 is_stmt 1               @ ../std/GD32C2x1_Firmware_Library/GD32C2x1_standard_peripheral/Source/gd32c2x1_i2c.c:350:0
	.fnstart
	.cfi_startproc
@ %bb.0:
	.pad	#8
	sub	sp, #8
	.cfi_def_cfa_offset 8
	str	r0, [sp, #4]
	str	r1, [sp]
.Ltmp40:
	.loc	5 352 5 prologue_end            @ ../std/GD32C2x1_Firmware_Library/GD32C2x1_standard_peripheral/Source/gd32c2x1_i2c.c:352:5
	ldr	r1, [sp, #4]
	movs	r2, #144
	.loc	5 352 26 is_stmt 0              @ ../std/GD32C2x1_Firmware_Library/GD32C2x1_standard_peripheral/Source/gd32c2x1_i2c.c:352:26
	ldr	r0, [r1, r2]
	movw	r3, #65024
	bics	r0, r3
	str	r0, [r1, r2]
	.loc	5 354 21 is_stmt 1              @ ../std/GD32C2x1_Firmware_Library/GD32C2x1_standard_peripheral/Source/gd32c2x1_i2c.c:354:21
	ldr	r0, [sp]
	.loc	5 354 34 is_stmt 0              @ ../std/GD32C2x1_Firmware_Library/GD32C2x1_standard_peripheral/Source/gd32c2x1_i2c.c:354:34
	lsls	r0, r0, #9
	.loc	5 354 57                        @ ../std/GD32C2x1_Firmware_Library/GD32C2x1_standard_peripheral/Source/gd32c2x1_i2c.c:354:57
	uxth	r0, r0
	.loc	5 354 18                        @ ../std/GD32C2x1_Firmware_Library/GD32C2x1_standard_peripheral/Source/gd32c2x1_i2c.c:354:18
	str	r0, [sp]
	.loc	5 356 29 is_stmt 1              @ ../std/GD32C2x1_Firmware_Library/GD32C2x1_standard_peripheral/Source/gd32c2x1_i2c.c:356:29
	ldr	r3, [sp]
	.loc	5 356 5 is_stmt 0               @ ../std/GD32C2x1_Firmware_Library/GD32C2x1_standard_peripheral/Source/gd32c2x1_i2c.c:356:5
	ldr	r1, [sp, #4]
	.loc	5 356 26                        @ ../std/GD32C2x1_Firmware_Library/GD32C2x1_standard_peripheral/Source/gd32c2x1_i2c.c:356:26
	ldr	r0, [r1, r2]
	orrs	r0, r3
	str	r0, [r1, r2]
	.loc	5 357 1 is_stmt 1               @ ../std/GD32C2x1_Firmware_Library/GD32C2x1_standard_peripheral/Source/gd32c2x1_i2c.c:357:1
	add	sp, #8
	bx	lr
.Ltmp41:
.Lfunc_end19:
	.size	i2c_address_bit_compare_config, .Lfunc_end19-i2c_address_bit_compare_config
	.cfi_endproc
	.cantunwind
	.fnend
                                        @ -- End function
	.section	.text.i2c_address_disable,"ax",%progbits
	.hidden	i2c_address_disable             @ -- Begin function i2c_address_disable
	.globl	i2c_address_disable
	.p2align	1
	.type	i2c_address_disable,%function
	.code	16                              @ @i2c_address_disable
	.thumb_func
i2c_address_disable:
.Lfunc_begin20:
	.loc	5 366 0                         @ ../std/GD32C2x1_Firmware_Library/GD32C2x1_standard_peripheral/Source/gd32c2x1_i2c.c:366:0
	.fnstart
	.cfi_startproc
@ %bb.0:
	.pad	#4
	sub	sp, #4
	.cfi_def_cfa_offset 4
	str	r0, [sp]
.Ltmp42:
	.loc	5 367 5 prologue_end            @ ../std/GD32C2x1_Firmware_Library/GD32C2x1_standard_peripheral/Source/gd32c2x1_i2c.c:367:5
	ldr	r1, [sp]
	.loc	5 367 28 is_stmt 0              @ ../std/GD32C2x1_Firmware_Library/GD32C2x1_standard_peripheral/Source/gd32c2x1_i2c.c:367:28
	ldr	r0, [r1, #8]
	movw	r2, #32768
	bics	r0, r2
	str	r0, [r1, #8]
	.loc	5 368 1 is_stmt 1               @ ../std/GD32C2x1_Firmware_Library/GD32C2x1_standard_peripheral/Source/gd32c2x1_i2c.c:368:1
	add	sp, #4
	bx	lr
.Ltmp43:
.Lfunc_end20:
	.size	i2c_address_disable, .Lfunc_end20-i2c_address_disable
	.cfi_endproc
	.cantunwind
	.fnend
                                        @ -- End function
	.section	.text.i2c_second_address_config,"ax",%progbits
	.hidden	i2c_second_address_config       @ -- Begin function i2c_second_address_config
	.globl	i2c_second_address_config
	.p2align	1
	.type	i2c_second_address_config,%function
	.code	16                              @ @i2c_second_address_config
	.thumb_func
i2c_second_address_config:
.Lfunc_begin21:
	.loc	5 388 0                         @ ../std/GD32C2x1_Firmware_Library/GD32C2x1_standard_peripheral/Source/gd32c2x1_i2c.c:388:0
	.fnstart
	.cfi_startproc
@ %bb.0:
	.pad	#12
	sub	sp, #12
	.cfi_def_cfa_offset 12
	str	r0, [sp, #8]
	str	r1, [sp, #4]
	str	r2, [sp]
.Ltmp44:
	.loc	5 390 5 prologue_end            @ ../std/GD32C2x1_Firmware_Library/GD32C2x1_standard_peripheral/Source/gd32c2x1_i2c.c:390:5
	ldr	r2, [sp, #8]
	.loc	5 390 28 is_stmt 0              @ ../std/GD32C2x1_Firmware_Library/GD32C2x1_standard_peripheral/Source/gd32c2x1_i2c.c:390:28
	ldr	r1, [r2, #12]
	movs	r0, #254
	bics	r1, r0
	str	r1, [r2, #12]
	.loc	5 391 42 is_stmt 1              @ ../std/GD32C2x1_Firmware_Library/GD32C2x1_standard_peripheral/Source/gd32c2x1_i2c.c:391:42
	ldr	r2, [sp, #4]
	.loc	5 391 50 is_stmt 0              @ ../std/GD32C2x1_Firmware_Library/GD32C2x1_standard_peripheral/Source/gd32c2x1_i2c.c:391:50
	ands	r2, r0
	.loc	5 391 5                         @ ../std/GD32C2x1_Firmware_Library/GD32C2x1_standard_peripheral/Source/gd32c2x1_i2c.c:391:5
	ldr	r1, [sp, #8]
	.loc	5 391 28                        @ ../std/GD32C2x1_Firmware_Library/GD32C2x1_standard_peripheral/Source/gd32c2x1_i2c.c:391:28
	ldr	r0, [r1, #12]
	orrs	r0, r2
	str	r0, [r1, #12]
	.loc	5 393 5 is_stmt 1               @ ../std/GD32C2x1_Firmware_Library/GD32C2x1_standard_peripheral/Source/gd32c2x1_i2c.c:393:5
	ldr	r1, [sp, #8]
	.loc	5 393 28 is_stmt 0              @ ../std/GD32C2x1_Firmware_Library/GD32C2x1_standard_peripheral/Source/gd32c2x1_i2c.c:393:28
	ldr	r0, [r1, #12]
	movw	r2, #1792
	bics	r0, r2
	str	r0, [r1, #12]
	.loc	5 394 42 is_stmt 1              @ ../std/GD32C2x1_Firmware_Library/GD32C2x1_standard_peripheral/Source/gd32c2x1_i2c.c:394:42
	ldr	r0, [sp]
	.loc	5 394 77 is_stmt 0              @ ../std/GD32C2x1_Firmware_Library/GD32C2x1_standard_peripheral/Source/gd32c2x1_i2c.c:394:77
	lsls	r0, r0, #29
	lsrs	r2, r0, #21
	.loc	5 394 5                         @ ../std/GD32C2x1_Firmware_Library/GD32C2x1_standard_peripheral/Source/gd32c2x1_i2c.c:394:5
	ldr	r1, [sp, #8]
	.loc	5 394 28                        @ ../std/GD32C2x1_Firmware_Library/GD32C2x1_standard_peripheral/Source/gd32c2x1_i2c.c:394:28
	ldr	r0, [r1, #12]
	orrs	r0, r2
	str	r0, [r1, #12]
	.loc	5 396 5 is_stmt 1               @ ../std/GD32C2x1_Firmware_Library/GD32C2x1_standard_peripheral/Source/gd32c2x1_i2c.c:396:5
	ldr	r1, [sp, #8]
	.loc	5 396 28 is_stmt 0              @ ../std/GD32C2x1_Firmware_Library/GD32C2x1_standard_peripheral/Source/gd32c2x1_i2c.c:396:28
	ldr	r0, [r1, #12]
	movw	r2, #32768
	orrs	r0, r2
	str	r0, [r1, #12]
	.loc	5 397 1 is_stmt 1               @ ../std/GD32C2x1_Firmware_Library/GD32C2x1_standard_peripheral/Source/gd32c2x1_i2c.c:397:1
	add	sp, #12
	bx	lr
.Ltmp45:
.Lfunc_end21:
	.size	i2c_second_address_config, .Lfunc_end21-i2c_second_address_config
	.cfi_endproc
	.cantunwind
	.fnend
                                        @ -- End function
	.section	.text.i2c_second_address_disable,"ax",%progbits
	.hidden	i2c_second_address_disable      @ -- Begin function i2c_second_address_disable
	.globl	i2c_second_address_disable
	.p2align	1
	.type	i2c_second_address_disable,%function
	.code	16                              @ @i2c_second_address_disable
	.thumb_func
i2c_second_address_disable:
.Lfunc_begin22:
	.loc	5 406 0                         @ ../std/GD32C2x1_Firmware_Library/GD32C2x1_standard_peripheral/Source/gd32c2x1_i2c.c:406:0
	.fnstart
	.cfi_startproc
@ %bb.0:
	.pad	#4
	sub	sp, #4
	.cfi_def_cfa_offset 4
	str	r0, [sp]
.Ltmp46:
	.loc	5 407 5 prologue_end            @ ../std/GD32C2x1_Firmware_Library/GD32C2x1_standard_peripheral/Source/gd32c2x1_i2c.c:407:5
	ldr	r1, [sp]
	.loc	5 407 28 is_stmt 0              @ ../std/GD32C2x1_Firmware_Library/GD32C2x1_standard_peripheral/Source/gd32c2x1_i2c.c:407:28
	ldr	r0, [r1, #12]
	movw	r2, #32768
	bics	r0, r2
	str	r0, [r1, #12]
	.loc	5 408 1 is_stmt 1               @ ../std/GD32C2x1_Firmware_Library/GD32C2x1_standard_peripheral/Source/gd32c2x1_i2c.c:408:1
	add	sp, #4
	bx	lr
.Ltmp47:
.Lfunc_end22:
	.size	i2c_second_address_disable, .Lfunc_end22-i2c_second_address_disable
	.cfi_endproc
	.cantunwind
	.fnend
                                        @ -- End function
	.section	.text.i2c_received_address_get,"ax",%progbits
	.hidden	i2c_received_address_get        @ -- Begin function i2c_received_address_get
	.globl	i2c_received_address_get
	.p2align	1
	.type	i2c_received_address_get,%function
	.code	16                              @ @i2c_received_address_get
	.thumb_func
i2c_received_address_get:
.Lfunc_begin23:
	.loc	5 417 0                         @ ../std/GD32C2x1_Firmware_Library/GD32C2x1_standard_peripheral/Source/gd32c2x1_i2c.c:417:0
	.fnstart
	.cfi_startproc
@ %bb.0:
	.pad	#4
	sub	sp, #4
	.cfi_def_cfa_offset 4
	str	r0, [sp]
.Ltmp48:
	.loc	5 418 24 prologue_end           @ ../std/GD32C2x1_Firmware_Library/GD32C2x1_standard_peripheral/Source/gd32c2x1_i2c.c:418:24
	ldr	r0, [sp]
	ldr	r0, [r0, #24]
	movs	r1, #127
	lsls	r1, r1, #17
	.loc	5 418 45 is_stmt 0              @ ../std/GD32C2x1_Firmware_Library/GD32C2x1_standard_peripheral/Source/gd32c2x1_i2c.c:418:45
	ands	r0, r1
	.loc	5 418 64                        @ ../std/GD32C2x1_Firmware_Library/GD32C2x1_standard_peripheral/Source/gd32c2x1_i2c.c:418:64
	lsrs	r0, r0, #17
	.loc	5 418 5                         @ ../std/GD32C2x1_Firmware_Library/GD32C2x1_standard_peripheral/Source/gd32c2x1_i2c.c:418:5
	add	sp, #4
	bx	lr
.Ltmp49:
.Lfunc_end23:
	.size	i2c_received_address_get, .Lfunc_end23-i2c_received_address_get
	.cfi_endproc
	.cantunwind
	.fnend
                                        @ -- End function
	.section	.text.i2c_slave_byte_control_enable,"ax",%progbits
	.hidden	i2c_slave_byte_control_enable   @ -- Begin function i2c_slave_byte_control_enable
	.globl	i2c_slave_byte_control_enable
	.p2align	1
	.type	i2c_slave_byte_control_enable,%function
	.code	16                              @ @i2c_slave_byte_control_enable
	.thumb_func
i2c_slave_byte_control_enable:
.Lfunc_begin24:
	.loc	5 428 0 is_stmt 1               @ ../std/GD32C2x1_Firmware_Library/GD32C2x1_standard_peripheral/Source/gd32c2x1_i2c.c:428:0
	.fnstart
	.cfi_startproc
@ %bb.0:
	.pad	#4
	sub	sp, #4
	.cfi_def_cfa_offset 4
	str	r0, [sp]
.Ltmp50:
	.loc	5 429 5 prologue_end            @ ../std/GD32C2x1_Firmware_Library/GD32C2x1_standard_peripheral/Source/gd32c2x1_i2c.c:429:5
	ldr	r1, [sp]
	.loc	5 429 26 is_stmt 0              @ ../std/GD32C2x1_Firmware_Library/GD32C2x1_standard_peripheral/Source/gd32c2x1_i2c.c:429:26
	ldr	r0, [r1]
	movs	r2, #1
	lsls	r2, r2, #16
	orrs	r0, r2
	str	r0, [r1]
	.loc	5 430 1 is_stmt 1               @ ../std/GD32C2x1_Firmware_Library/GD32C2x1_standard_peripheral/Source/gd32c2x1_i2c.c:430:1
	add	sp, #4
	bx	lr
.Ltmp51:
.Lfunc_end24:
	.size	i2c_slave_byte_control_enable, .Lfunc_end24-i2c_slave_byte_control_enable
	.cfi_endproc
	.cantunwind
	.fnend
                                        @ -- End function
	.section	.text.i2c_slave_byte_control_disable,"ax",%progbits
	.hidden	i2c_slave_byte_control_disable  @ -- Begin function i2c_slave_byte_control_disable
	.globl	i2c_slave_byte_control_disable
	.p2align	1
	.type	i2c_slave_byte_control_disable,%function
	.code	16                              @ @i2c_slave_byte_control_disable
	.thumb_func
i2c_slave_byte_control_disable:
.Lfunc_begin25:
	.loc	5 439 0                         @ ../std/GD32C2x1_Firmware_Library/GD32C2x1_standard_peripheral/Source/gd32c2x1_i2c.c:439:0
	.fnstart
	.cfi_startproc
@ %bb.0:
	.pad	#4
	sub	sp, #4
	.cfi_def_cfa_offset 4
	str	r0, [sp]
.Ltmp52:
	.loc	5 440 5 prologue_end            @ ../std/GD32C2x1_Firmware_Library/GD32C2x1_standard_peripheral/Source/gd32c2x1_i2c.c:440:5
	ldr	r1, [sp]
	.loc	5 440 26 is_stmt 0              @ ../std/GD32C2x1_Firmware_Library/GD32C2x1_standard_peripheral/Source/gd32c2x1_i2c.c:440:26
	ldr	r0, [r1]
	movs	r2, #1
	lsls	r2, r2, #16
	bics	r0, r2
	str	r0, [r1]
	.loc	5 441 1 is_stmt 1               @ ../std/GD32C2x1_Firmware_Library/GD32C2x1_standard_peripheral/Source/gd32c2x1_i2c.c:441:1
	add	sp, #4
	bx	lr
.Ltmp53:
.Lfunc_end25:
	.size	i2c_slave_byte_control_disable, .Lfunc_end25-i2c_slave_byte_control_disable
	.cfi_endproc
	.cantunwind
	.fnend
                                        @ -- End function
	.section	.text.i2c_nack_enable,"ax",%progbits
	.hidden	i2c_nack_enable                 @ -- Begin function i2c_nack_enable
	.globl	i2c_nack_enable
	.p2align	1
	.type	i2c_nack_enable,%function
	.code	16                              @ @i2c_nack_enable
	.thumb_func
i2c_nack_enable:
.Lfunc_begin26:
	.loc	5 450 0                         @ ../std/GD32C2x1_Firmware_Library/GD32C2x1_standard_peripheral/Source/gd32c2x1_i2c.c:450:0
	.fnstart
	.cfi_startproc
@ %bb.0:
	.pad	#4
	sub	sp, #4
	.cfi_def_cfa_offset 4
	str	r0, [sp]
.Ltmp54:
	.loc	5 451 5 prologue_end            @ ../std/GD32C2x1_Firmware_Library/GD32C2x1_standard_peripheral/Source/gd32c2x1_i2c.c:451:5
	ldr	r1, [sp]
	.loc	5 451 26 is_stmt 0              @ ../std/GD32C2x1_Firmware_Library/GD32C2x1_standard_peripheral/Source/gd32c2x1_i2c.c:451:26
	ldr	r0, [r1, #4]
	movw	r2, #32768
	orrs	r0, r2
	str	r0, [r1, #4]
	.loc	5 452 1 is_stmt 1               @ ../std/GD32C2x1_Firmware_Library/GD32C2x1_standard_peripheral/Source/gd32c2x1_i2c.c:452:1
	add	sp, #4
	bx	lr
.Ltmp55:
.Lfunc_end26:
	.size	i2c_nack_enable, .Lfunc_end26-i2c_nack_enable
	.cfi_endproc
	.cantunwind
	.fnend
                                        @ -- End function
	.section	.text.i2c_wakeup_from_deepsleep_enable,"ax",%progbits
	.hidden	i2c_wakeup_from_deepsleep_enable @ -- Begin function i2c_wakeup_from_deepsleep_enable
	.globl	i2c_wakeup_from_deepsleep_enable
	.p2align	1
	.type	i2c_wakeup_from_deepsleep_enable,%function
	.code	16                              @ @i2c_wakeup_from_deepsleep_enable
	.thumb_func
i2c_wakeup_from_deepsleep_enable:
.Lfunc_begin27:
	.loc	5 461 0                         @ ../std/GD32C2x1_Firmware_Library/GD32C2x1_standard_peripheral/Source/gd32c2x1_i2c.c:461:0
	.fnstart
	.cfi_startproc
@ %bb.0:
	.pad	#4
	sub	sp, #4
	.cfi_def_cfa_offset 4
	str	r0, [sp]
.Ltmp56:
	.loc	5 462 5 prologue_end            @ ../std/GD32C2x1_Firmware_Library/GD32C2x1_standard_peripheral/Source/gd32c2x1_i2c.c:462:5
	ldr	r1, [sp]
	.loc	5 462 26 is_stmt 0              @ ../std/GD32C2x1_Firmware_Library/GD32C2x1_standard_peripheral/Source/gd32c2x1_i2c.c:462:26
	ldr	r0, [r1]
	movs	r2, #1
	lsls	r2, r2, #18
	orrs	r0, r2
	str	r0, [r1]
	.loc	5 463 1 is_stmt 1               @ ../std/GD32C2x1_Firmware_Library/GD32C2x1_standard_peripheral/Source/gd32c2x1_i2c.c:463:1
	add	sp, #4
	bx	lr
.Ltmp57:
.Lfunc_end27:
	.size	i2c_wakeup_from_deepsleep_enable, .Lfunc_end27-i2c_wakeup_from_deepsleep_enable
	.cfi_endproc
	.cantunwind
	.fnend
                                        @ -- End function
	.section	.text.i2c_wakeup_from_deepsleep_disable,"ax",%progbits
	.hidden	i2c_wakeup_from_deepsleep_disable @ -- Begin function i2c_wakeup_from_deepsleep_disable
	.globl	i2c_wakeup_from_deepsleep_disable
	.p2align	1
	.type	i2c_wakeup_from_deepsleep_disable,%function
	.code	16                              @ @i2c_wakeup_from_deepsleep_disable
	.thumb_func
i2c_wakeup_from_deepsleep_disable:
.Lfunc_begin28:
	.loc	5 472 0                         @ ../std/GD32C2x1_Firmware_Library/GD32C2x1_standard_peripheral/Source/gd32c2x1_i2c.c:472:0
	.fnstart
	.cfi_startproc
@ %bb.0:
	.pad	#4
	sub	sp, #4
	.cfi_def_cfa_offset 4
	str	r0, [sp]
.Ltmp58:
	.loc	5 473 5 prologue_end            @ ../std/GD32C2x1_Firmware_Library/GD32C2x1_standard_peripheral/Source/gd32c2x1_i2c.c:473:5
	ldr	r1, [sp]
	.loc	5 473 26 is_stmt 0              @ ../std/GD32C2x1_Firmware_Library/GD32C2x1_standard_peripheral/Source/gd32c2x1_i2c.c:473:26
	ldr	r0, [r1]
	movs	r2, #1
	lsls	r2, r2, #18
	bics	r0, r2
	str	r0, [r1]
	.loc	5 474 1 is_stmt 1               @ ../std/GD32C2x1_Firmware_Library/GD32C2x1_standard_peripheral/Source/gd32c2x1_i2c.c:474:1
	add	sp, #4
	bx	lr
.Ltmp59:
.Lfunc_end28:
	.size	i2c_wakeup_from_deepsleep_disable, .Lfunc_end28-i2c_wakeup_from_deepsleep_disable
	.cfi_endproc
	.cantunwind
	.fnend
                                        @ -- End function
	.section	.text.i2c_enable,"ax",%progbits
	.hidden	i2c_enable                      @ -- Begin function i2c_enable
	.globl	i2c_enable
	.p2align	1
	.type	i2c_enable,%function
	.code	16                              @ @i2c_enable
	.thumb_func
i2c_enable:
.Lfunc_begin29:
	.loc	5 483 0                         @ ../std/GD32C2x1_Firmware_Library/GD32C2x1_standard_peripheral/Source/gd32c2x1_i2c.c:483:0
	.fnstart
	.cfi_startproc
@ %bb.0:
	.pad	#4
	sub	sp, #4
	.cfi_def_cfa_offset 4
	str	r0, [sp]
.Ltmp60:
	.loc	5 484 5 prologue_end            @ ../std/GD32C2x1_Firmware_Library/GD32C2x1_standard_peripheral/Source/gd32c2x1_i2c.c:484:5
	ldr	r1, [sp]
	.loc	5 484 26 is_stmt 0              @ ../std/GD32C2x1_Firmware_Library/GD32C2x1_standard_peripheral/Source/gd32c2x1_i2c.c:484:26
	ldr	r0, [r1]
	movs	r2, #1
	orrs	r0, r2
	str	r0, [r1]
	.loc	5 485 1 is_stmt 1               @ ../std/GD32C2x1_Firmware_Library/GD32C2x1_standard_peripheral/Source/gd32c2x1_i2c.c:485:1
	add	sp, #4
	bx	lr
.Ltmp61:
.Lfunc_end29:
	.size	i2c_enable, .Lfunc_end29-i2c_enable
	.cfi_endproc
	.cantunwind
	.fnend
                                        @ -- End function
	.section	.text.i2c_start_on_bus,"ax",%progbits
	.hidden	i2c_start_on_bus                @ -- Begin function i2c_start_on_bus
	.globl	i2c_start_on_bus
	.p2align	1
	.type	i2c_start_on_bus,%function
	.code	16                              @ @i2c_start_on_bus
	.thumb_func
i2c_start_on_bus:
.Lfunc_begin30:
	.loc	5 505 0                         @ ../std/GD32C2x1_Firmware_Library/GD32C2x1_standard_peripheral/Source/gd32c2x1_i2c.c:505:0
	.fnstart
	.cfi_startproc
@ %bb.0:
	.pad	#4
	sub	sp, #4
	.cfi_def_cfa_offset 4
	str	r0, [sp]
.Ltmp62:
	.loc	5 506 5 prologue_end            @ ../std/GD32C2x1_Firmware_Library/GD32C2x1_standard_peripheral/Source/gd32c2x1_i2c.c:506:5
	ldr	r1, [sp]
	.loc	5 506 26 is_stmt 0              @ ../std/GD32C2x1_Firmware_Library/GD32C2x1_standard_peripheral/Source/gd32c2x1_i2c.c:506:26
	ldr	r0, [r1, #4]
	movw	r2, #8192
	orrs	r0, r2
	str	r0, [r1, #4]
	.loc	5 507 1 is_stmt 1               @ ../std/GD32C2x1_Firmware_Library/GD32C2x1_standard_peripheral/Source/gd32c2x1_i2c.c:507:1
	add	sp, #4
	bx	lr
.Ltmp63:
.Lfunc_end30:
	.size	i2c_start_on_bus, .Lfunc_end30-i2c_start_on_bus
	.cfi_endproc
	.cantunwind
	.fnend
                                        @ -- End function
	.section	.text.i2c_stop_on_bus,"ax",%progbits
	.hidden	i2c_stop_on_bus                 @ -- Begin function i2c_stop_on_bus
	.globl	i2c_stop_on_bus
	.p2align	1
	.type	i2c_stop_on_bus,%function
	.code	16                              @ @i2c_stop_on_bus
	.thumb_func
i2c_stop_on_bus:
.Lfunc_begin31:
	.loc	5 516 0                         @ ../std/GD32C2x1_Firmware_Library/GD32C2x1_standard_peripheral/Source/gd32c2x1_i2c.c:516:0
	.fnstart
	.cfi_startproc
@ %bb.0:
	.pad	#4
	sub	sp, #4
	.cfi_def_cfa_offset 4
	str	r0, [sp]
.Ltmp64:
	.loc	5 517 5 prologue_end            @ ../std/GD32C2x1_Firmware_Library/GD32C2x1_standard_peripheral/Source/gd32c2x1_i2c.c:517:5
	ldr	r1, [sp]
	.loc	5 517 26 is_stmt 0              @ ../std/GD32C2x1_Firmware_Library/GD32C2x1_standard_peripheral/Source/gd32c2x1_i2c.c:517:26
	ldr	r0, [r1, #4]
	movw	r2, #16384
	orrs	r0, r2
	str	r0, [r1, #4]
	.loc	5 518 1 is_stmt 1               @ ../std/GD32C2x1_Firmware_Library/GD32C2x1_standard_peripheral/Source/gd32c2x1_i2c.c:518:1
	add	sp, #4
	bx	lr
.Ltmp65:
.Lfunc_end31:
	.size	i2c_stop_on_bus, .Lfunc_end31-i2c_stop_on_bus
	.cfi_endproc
	.cantunwind
	.fnend
                                        @ -- End function
	.section	.text.i2c_data_transmit,"ax",%progbits
	.hidden	i2c_data_transmit               @ -- Begin function i2c_data_transmit
	.globl	i2c_data_transmit
	.p2align	1
	.type	i2c_data_transmit,%function
	.code	16                              @ @i2c_data_transmit
	.thumb_func
i2c_data_transmit:
.Lfunc_begin32:
	.loc	5 528 0                         @ ../std/GD32C2x1_Firmware_Library/GD32C2x1_standard_peripheral/Source/gd32c2x1_i2c.c:528:0
	.fnstart
	.cfi_startproc
@ %bb.0:
	.pad	#8
	sub	sp, #8
	.cfi_def_cfa_offset 8
                                        @ kill: def $r2 killed $r1
	str	r0, [sp, #4]
	mov	r0, sp
	strb	r1, [r0]
.Ltmp66:
	.loc	5 529 58 prologue_end           @ ../std/GD32C2x1_Firmware_Library/GD32C2x1_standard_peripheral/Source/gd32c2x1_i2c.c:529:58
	ldrb	r0, [r0]
	.loc	5 529 5 is_stmt 0               @ ../std/GD32C2x1_Firmware_Library/GD32C2x1_standard_peripheral/Source/gd32c2x1_i2c.c:529:5
	ldr	r1, [sp, #4]
	.loc	5 529 27                        @ ../std/GD32C2x1_Firmware_Library/GD32C2x1_standard_peripheral/Source/gd32c2x1_i2c.c:529:27
	str	r0, [r1, #40]
	.loc	5 530 1 is_stmt 1               @ ../std/GD32C2x1_Firmware_Library/GD32C2x1_standard_peripheral/Source/gd32c2x1_i2c.c:530:1
	add	sp, #8
	bx	lr
.Ltmp67:
.Lfunc_end32:
	.size	i2c_data_transmit, .Lfunc_end32-i2c_data_transmit
	.cfi_endproc
	.cantunwind
	.fnend
                                        @ -- End function
	.section	.text.i2c_data_receive,"ax",%progbits
	.hidden	i2c_data_receive                @ -- Begin function i2c_data_receive
	.globl	i2c_data_receive
	.p2align	1
	.type	i2c_data_receive,%function
	.code	16                              @ @i2c_data_receive
	.thumb_func
i2c_data_receive:
.Lfunc_begin33:
	.loc	5 539 0                         @ ../std/GD32C2x1_Firmware_Library/GD32C2x1_standard_peripheral/Source/gd32c2x1_i2c.c:539:0
	.fnstart
	.cfi_startproc
@ %bb.0:
	.pad	#4
	sub	sp, #4
	.cfi_def_cfa_offset 4
	str	r0, [sp]
.Ltmp68:
	.loc	5 540 22 prologue_end           @ ../std/GD32C2x1_Firmware_Library/GD32C2x1_standard_peripheral/Source/gd32c2x1_i2c.c:540:22
	ldr	r0, [sp]
	ldr	r0, [r0, #36]
	.loc	5 540 44 is_stmt 0              @ ../std/GD32C2x1_Firmware_Library/GD32C2x1_standard_peripheral/Source/gd32c2x1_i2c.c:540:44
	uxtb	r0, r0
	.loc	5 540 5                         @ ../std/GD32C2x1_Firmware_Library/GD32C2x1_standard_peripheral/Source/gd32c2x1_i2c.c:540:5
	add	sp, #4
	bx	lr
.Ltmp69:
.Lfunc_end33:
	.size	i2c_data_receive, .Lfunc_end33-i2c_data_receive
	.cfi_endproc
	.cantunwind
	.fnend
                                        @ -- End function
	.section	.text.i2c_reload_enable,"ax",%progbits
	.hidden	i2c_reload_enable               @ -- Begin function i2c_reload_enable
	.globl	i2c_reload_enable
	.p2align	1
	.type	i2c_reload_enable,%function
	.code	16                              @ @i2c_reload_enable
	.thumb_func
i2c_reload_enable:
.Lfunc_begin34:
	.loc	5 550 0 is_stmt 1               @ ../std/GD32C2x1_Firmware_Library/GD32C2x1_standard_peripheral/Source/gd32c2x1_i2c.c:550:0
	.fnstart
	.cfi_startproc
@ %bb.0:
	.pad	#4
	sub	sp, #4
	.cfi_def_cfa_offset 4
	str	r0, [sp]
.Ltmp70:
	.loc	5 551 5 prologue_end            @ ../std/GD32C2x1_Firmware_Library/GD32C2x1_standard_peripheral/Source/gd32c2x1_i2c.c:551:5
	ldr	r1, [sp]
	.loc	5 551 26 is_stmt 0              @ ../std/GD32C2x1_Firmware_Library/GD32C2x1_standard_peripheral/Source/gd32c2x1_i2c.c:551:26
	ldr	r0, [r1, #4]
	movs	r2, #1
	lsls	r2, r2, #24
	orrs	r0, r2
	str	r0, [r1, #4]
	.loc	5 552 1 is_stmt 1               @ ../std/GD32C2x1_Firmware_Library/GD32C2x1_standard_peripheral/Source/gd32c2x1_i2c.c:552:1
	add	sp, #4
	bx	lr
.Ltmp71:
.Lfunc_end34:
	.size	i2c_reload_enable, .Lfunc_end34-i2c_reload_enable
	.cfi_endproc
	.cantunwind
	.fnend
                                        @ -- End function
	.section	.text.i2c_reload_disable,"ax",%progbits
	.hidden	i2c_reload_disable              @ -- Begin function i2c_reload_disable
	.globl	i2c_reload_disable
	.p2align	1
	.type	i2c_reload_disable,%function
	.code	16                              @ @i2c_reload_disable
	.thumb_func
i2c_reload_disable:
.Lfunc_begin35:
	.loc	5 561 0                         @ ../std/GD32C2x1_Firmware_Library/GD32C2x1_standard_peripheral/Source/gd32c2x1_i2c.c:561:0
	.fnstart
	.cfi_startproc
@ %bb.0:
	.pad	#4
	sub	sp, #4
	.cfi_def_cfa_offset 4
	str	r0, [sp]
.Ltmp72:
	.loc	5 562 5 prologue_end            @ ../std/GD32C2x1_Firmware_Library/GD32C2x1_standard_peripheral/Source/gd32c2x1_i2c.c:562:5
	ldr	r1, [sp]
	.loc	5 562 26 is_stmt 0              @ ../std/GD32C2x1_Firmware_Library/GD32C2x1_standard_peripheral/Source/gd32c2x1_i2c.c:562:26
	ldr	r0, [r1, #4]
	movs	r2, #1
	lsls	r2, r2, #24
	bics	r0, r2
	str	r0, [r1, #4]
	.loc	5 563 1 is_stmt 1               @ ../std/GD32C2x1_Firmware_Library/GD32C2x1_standard_peripheral/Source/gd32c2x1_i2c.c:563:1
	add	sp, #4
	bx	lr
.Ltmp73:
.Lfunc_end35:
	.size	i2c_reload_disable, .Lfunc_end35-i2c_reload_disable
	.cfi_endproc
	.cantunwind
	.fnend
                                        @ -- End function
	.section	.text.i2c_transfer_byte_number_config,"ax",%progbits
	.hidden	i2c_transfer_byte_number_config @ -- Begin function i2c_transfer_byte_number_config
	.globl	i2c_transfer_byte_number_config
	.p2align	1
	.type	i2c_transfer_byte_number_config,%function
	.code	16                              @ @i2c_transfer_byte_number_config
	.thumb_func
i2c_transfer_byte_number_config:
.Lfunc_begin36:
	.loc	5 573 0                         @ ../std/GD32C2x1_Firmware_Library/GD32C2x1_standard_peripheral/Source/gd32c2x1_i2c.c:573:0
	.fnstart
	.cfi_startproc
@ %bb.0:
	.pad	#8
	sub	sp, #8
	.cfi_def_cfa_offset 8
                                        @ kill: def $r2 killed $r1
	str	r0, [sp, #4]
	mov	r0, sp
	strb	r1, [r0]
.Ltmp74:
	.loc	5 574 5 prologue_end            @ ../std/GD32C2x1_Firmware_Library/GD32C2x1_standard_peripheral/Source/gd32c2x1_i2c.c:574:5
	ldr	r2, [sp, #4]
	.loc	5 574 26 is_stmt 0              @ ../std/GD32C2x1_Firmware_Library/GD32C2x1_standard_peripheral/Source/gd32c2x1_i2c.c:574:26
	ldr	r1, [r2, #4]
	movs	r3, #255
	lsls	r3, r3, #16
	bics	r1, r3
	str	r1, [r2, #4]
	.loc	5 575 50 is_stmt 1              @ ../std/GD32C2x1_Firmware_Library/GD32C2x1_standard_peripheral/Source/gd32c2x1_i2c.c:575:50
	ldrb	r0, [r0]
	.loc	5 575 62 is_stmt 0              @ ../std/GD32C2x1_Firmware_Library/GD32C2x1_standard_peripheral/Source/gd32c2x1_i2c.c:575:62
	lsls	r2, r0, #16
	.loc	5 575 5                         @ ../std/GD32C2x1_Firmware_Library/GD32C2x1_standard_peripheral/Source/gd32c2x1_i2c.c:575:5
	ldr	r1, [sp, #4]
	.loc	5 575 26                        @ ../std/GD32C2x1_Firmware_Library/GD32C2x1_standard_peripheral/Source/gd32c2x1_i2c.c:575:26
	ldr	r0, [r1, #4]
	orrs	r0, r2
	str	r0, [r1, #4]
	.loc	5 576 1 is_stmt 1               @ ../std/GD32C2x1_Firmware_Library/GD32C2x1_standard_peripheral/Source/gd32c2x1_i2c.c:576:1
	add	sp, #8
	bx	lr
.Ltmp75:
.Lfunc_end36:
	.size	i2c_transfer_byte_number_config, .Lfunc_end36-i2c_transfer_byte_number_config
	.cfi_endproc
	.cantunwind
	.fnend
                                        @ -- End function
	.section	.text.i2c_dma_enable,"ax",%progbits
	.hidden	i2c_dma_enable                  @ -- Begin function i2c_dma_enable
	.globl	i2c_dma_enable
	.p2align	1
	.type	i2c_dma_enable,%function
	.code	16                              @ @i2c_dma_enable
	.thumb_func
i2c_dma_enable:
.Lfunc_begin37:
	.loc	5 589 0                         @ ../std/GD32C2x1_Firmware_Library/GD32C2x1_standard_peripheral/Source/gd32c2x1_i2c.c:589:0
	.fnstart
	.cfi_startproc
@ %bb.0:
	.pad	#8
	sub	sp, #8
	.cfi_def_cfa_offset 8
                                        @ kill: def $r2 killed $r1
	str	r0, [sp, #4]
	mov	r0, sp
	strb	r1, [r0]
.Ltmp76:
	.loc	5 590 28 prologue_end           @ ../std/GD32C2x1_Firmware_Library/GD32C2x1_standard_peripheral/Source/gd32c2x1_i2c.c:590:28
	ldrb	r0, [r0]
.Ltmp77:
	.loc	5 590 8 is_stmt 0               @ ../std/GD32C2x1_Firmware_Library/GD32C2x1_standard_peripheral/Source/gd32c2x1_i2c.c:590:8
	cbnz	r0, .LBB37_2
	b	.LBB37_1
.LBB37_1:
.Ltmp78:
	.loc	5 591 9 is_stmt 1               @ ../std/GD32C2x1_Firmware_Library/GD32C2x1_standard_peripheral/Source/gd32c2x1_i2c.c:591:9
	ldr	r1, [sp, #4]
	.loc	5 591 30 is_stmt 0              @ ../std/GD32C2x1_Firmware_Library/GD32C2x1_standard_peripheral/Source/gd32c2x1_i2c.c:591:30
	ldr	r0, [r1]
	movw	r2, #16384
	orrs	r0, r2
	str	r0, [r1]
	.loc	5 592 5 is_stmt 1               @ ../std/GD32C2x1_Firmware_Library/GD32C2x1_standard_peripheral/Source/gd32c2x1_i2c.c:592:5
	b	.LBB37_6
.Ltmp79:
.LBB37_2:
	.loc	5 0 5 is_stmt 0                 @ ../std/GD32C2x1_Firmware_Library/GD32C2x1_standard_peripheral/Source/gd32c2x1_i2c.c:0:5
	mov	r0, sp
.Ltmp80:
	.loc	5 592 34                        @ ../std/GD32C2x1_Firmware_Library/GD32C2x1_standard_peripheral/Source/gd32c2x1_i2c.c:592:34
	ldrb	r0, [r0]
.Ltmp81:
	.loc	5 592 15                        @ ../std/GD32C2x1_Firmware_Library/GD32C2x1_standard_peripheral/Source/gd32c2x1_i2c.c:592:15
	cmp	r0, #1
	bne	.LBB37_4
	b	.LBB37_3
.LBB37_3:
.Ltmp82:
	.loc	5 593 9 is_stmt 1               @ ../std/GD32C2x1_Firmware_Library/GD32C2x1_standard_peripheral/Source/gd32c2x1_i2c.c:593:9
	ldr	r1, [sp, #4]
	.loc	5 593 30 is_stmt 0              @ ../std/GD32C2x1_Firmware_Library/GD32C2x1_standard_peripheral/Source/gd32c2x1_i2c.c:593:30
	ldr	r0, [r1]
	movw	r2, #32768
	orrs	r0, r2
	str	r0, [r1]
	.loc	5 594 5 is_stmt 1               @ ../std/GD32C2x1_Firmware_Library/GD32C2x1_standard_peripheral/Source/gd32c2x1_i2c.c:594:5
	b	.LBB37_5
.Ltmp83:
.LBB37_4:
	.loc	5 0 5 is_stmt 0                 @ ../std/GD32C2x1_Firmware_Library/GD32C2x1_standard_peripheral/Source/gd32c2x1_i2c.c:0:5
	b	.LBB37_5
.LBB37_5:
	b	.LBB37_6
.LBB37_6:
	.loc	5 597 1 is_stmt 1               @ ../std/GD32C2x1_Firmware_Library/GD32C2x1_standard_peripheral/Source/gd32c2x1_i2c.c:597:1
	add	sp, #8
	bx	lr
.Ltmp84:
.Lfunc_end37:
	.size	i2c_dma_enable, .Lfunc_end37-i2c_dma_enable
	.cfi_endproc
	.cantunwind
	.fnend
                                        @ -- End function
	.section	.text.i2c_dma_disable,"ax",%progbits
	.hidden	i2c_dma_disable                 @ -- Begin function i2c_dma_disable
	.globl	i2c_dma_disable
	.p2align	1
	.type	i2c_dma_disable,%function
	.code	16                              @ @i2c_dma_disable
	.thumb_func
i2c_dma_disable:
.Lfunc_begin38:
	.loc	5 610 0                         @ ../std/GD32C2x1_Firmware_Library/GD32C2x1_standard_peripheral/Source/gd32c2x1_i2c.c:610:0
	.fnstart
	.cfi_startproc
@ %bb.0:
	.pad	#8
	sub	sp, #8
	.cfi_def_cfa_offset 8
                                        @ kill: def $r2 killed $r1
	str	r0, [sp, #4]
	mov	r0, sp
	strb	r1, [r0]
.Ltmp85:
	.loc	5 611 28 prologue_end           @ ../std/GD32C2x1_Firmware_Library/GD32C2x1_standard_peripheral/Source/gd32c2x1_i2c.c:611:28
	ldrb	r0, [r0]
.Ltmp86:
	.loc	5 611 8 is_stmt 0               @ ../std/GD32C2x1_Firmware_Library/GD32C2x1_standard_peripheral/Source/gd32c2x1_i2c.c:611:8
	cbnz	r0, .LBB38_2
	b	.LBB38_1
.LBB38_1:
.Ltmp87:
	.loc	5 612 9 is_stmt 1               @ ../std/GD32C2x1_Firmware_Library/GD32C2x1_standard_peripheral/Source/gd32c2x1_i2c.c:612:9
	ldr	r1, [sp, #4]
	.loc	5 612 30 is_stmt 0              @ ../std/GD32C2x1_Firmware_Library/GD32C2x1_standard_peripheral/Source/gd32c2x1_i2c.c:612:30
	ldr	r0, [r1]
	movw	r2, #16384
	bics	r0, r2
	str	r0, [r1]
	.loc	5 613 5 is_stmt 1               @ ../std/GD32C2x1_Firmware_Library/GD32C2x1_standard_peripheral/Source/gd32c2x1_i2c.c:613:5
	b	.LBB38_6
.Ltmp88:
.LBB38_2:
	.loc	5 0 5 is_stmt 0                 @ ../std/GD32C2x1_Firmware_Library/GD32C2x1_standard_peripheral/Source/gd32c2x1_i2c.c:0:5
	mov	r0, sp
.Ltmp89:
	.loc	5 613 34                        @ ../std/GD32C2x1_Firmware_Library/GD32C2x1_standard_peripheral/Source/gd32c2x1_i2c.c:613:34
	ldrb	r0, [r0]
.Ltmp90:
	.loc	5 613 15                        @ ../std/GD32C2x1_Firmware_Library/GD32C2x1_standard_peripheral/Source/gd32c2x1_i2c.c:613:15
	cmp	r0, #1
	bne	.LBB38_4
	b	.LBB38_3
.LBB38_3:
.Ltmp91:
	.loc	5 614 9 is_stmt 1               @ ../std/GD32C2x1_Firmware_Library/GD32C2x1_standard_peripheral/Source/gd32c2x1_i2c.c:614:9
	ldr	r1, [sp, #4]
	.loc	5 614 30 is_stmt 0              @ ../std/GD32C2x1_Firmware_Library/GD32C2x1_standard_peripheral/Source/gd32c2x1_i2c.c:614:30
	ldr	r0, [r1]
	movw	r2, #32768
	bics	r0, r2
	str	r0, [r1]
	.loc	5 615 5 is_stmt 1               @ ../std/GD32C2x1_Firmware_Library/GD32C2x1_standard_peripheral/Source/gd32c2x1_i2c.c:615:5
	b	.LBB38_5
.Ltmp92:
.LBB38_4:
	.loc	5 0 5 is_stmt 0                 @ ../std/GD32C2x1_Firmware_Library/GD32C2x1_standard_peripheral/Source/gd32c2x1_i2c.c:0:5
	b	.LBB38_5
.LBB38_5:
	b	.LBB38_6
.LBB38_6:
	.loc	5 618 1 is_stmt 1               @ ../std/GD32C2x1_Firmware_Library/GD32C2x1_standard_peripheral/Source/gd32c2x1_i2c.c:618:1
	add	sp, #8
	bx	lr
.Ltmp93:
.Lfunc_end38:
	.size	i2c_dma_disable, .Lfunc_end38-i2c_dma_disable
	.cfi_endproc
	.cantunwind
	.fnend
                                        @ -- End function
	.section	.text.i2c_pec_transfer,"ax",%progbits
	.hidden	i2c_pec_transfer                @ -- Begin function i2c_pec_transfer
	.globl	i2c_pec_transfer
	.p2align	1
	.type	i2c_pec_transfer,%function
	.code	16                              @ @i2c_pec_transfer
	.thumb_func
i2c_pec_transfer:
.Lfunc_begin39:
	.loc	5 627 0                         @ ../std/GD32C2x1_Firmware_Library/GD32C2x1_standard_peripheral/Source/gd32c2x1_i2c.c:627:0
	.fnstart
	.cfi_startproc
@ %bb.0:
	.pad	#4
	sub	sp, #4
	.cfi_def_cfa_offset 4
	str	r0, [sp]
.Ltmp94:
	.loc	5 628 5 prologue_end            @ ../std/GD32C2x1_Firmware_Library/GD32C2x1_standard_peripheral/Source/gd32c2x1_i2c.c:628:5
	ldr	r1, [sp]
	.loc	5 628 26 is_stmt 0              @ ../std/GD32C2x1_Firmware_Library/GD32C2x1_standard_peripheral/Source/gd32c2x1_i2c.c:628:26
	ldr	r0, [r1, #4]
	movs	r2, #1
	lsls	r2, r2, #26
	orrs	r0, r2
	str	r0, [r1, #4]
	.loc	5 629 1 is_stmt 1               @ ../std/GD32C2x1_Firmware_Library/GD32C2x1_standard_peripheral/Source/gd32c2x1_i2c.c:629:1
	add	sp, #4
	bx	lr
.Ltmp95:
.Lfunc_end39:
	.size	i2c_pec_transfer, .Lfunc_end39-i2c_pec_transfer
	.cfi_endproc
	.cantunwind
	.fnend
                                        @ -- End function
	.section	.text.i2c_pec_enable,"ax",%progbits
	.hidden	i2c_pec_enable                  @ -- Begin function i2c_pec_enable
	.globl	i2c_pec_enable
	.p2align	1
	.type	i2c_pec_enable,%function
	.code	16                              @ @i2c_pec_enable
	.thumb_func
i2c_pec_enable:
.Lfunc_begin40:
	.loc	5 638 0                         @ ../std/GD32C2x1_Firmware_Library/GD32C2x1_standard_peripheral/Source/gd32c2x1_i2c.c:638:0
	.fnstart
	.cfi_startproc
@ %bb.0:
	.pad	#4
	sub	sp, #4
	.cfi_def_cfa_offset 4
	str	r0, [sp]
.Ltmp96:
	.loc	5 639 5 prologue_end            @ ../std/GD32C2x1_Firmware_Library/GD32C2x1_standard_peripheral/Source/gd32c2x1_i2c.c:639:5
	ldr	r1, [sp]
	.loc	5 639 26 is_stmt 0              @ ../std/GD32C2x1_Firmware_Library/GD32C2x1_standard_peripheral/Source/gd32c2x1_i2c.c:639:26
	ldr	r0, [r1]
	movs	r2, #1
	lsls	r2, r2, #23
	orrs	r0, r2
	str	r0, [r1]
	.loc	5 640 1 is_stmt 1               @ ../std/GD32C2x1_Firmware_Library/GD32C2x1_standard_peripheral/Source/gd32c2x1_i2c.c:640:1
	add	sp, #4
	bx	lr
.Ltmp97:
.Lfunc_end40:
	.size	i2c_pec_enable, .Lfunc_end40-i2c_pec_enable
	.cfi_endproc
	.cantunwind
	.fnend
                                        @ -- End function
	.section	.text.i2c_pec_disable,"ax",%progbits
	.hidden	i2c_pec_disable                 @ -- Begin function i2c_pec_disable
	.globl	i2c_pec_disable
	.p2align	1
	.type	i2c_pec_disable,%function
	.code	16                              @ @i2c_pec_disable
	.thumb_func
i2c_pec_disable:
.Lfunc_begin41:
	.loc	5 649 0                         @ ../std/GD32C2x1_Firmware_Library/GD32C2x1_standard_peripheral/Source/gd32c2x1_i2c.c:649:0
	.fnstart
	.cfi_startproc
@ %bb.0:
	.pad	#4
	sub	sp, #4
	.cfi_def_cfa_offset 4
	str	r0, [sp]
.Ltmp98:
	.loc	5 650 5 prologue_end            @ ../std/GD32C2x1_Firmware_Library/GD32C2x1_standard_peripheral/Source/gd32c2x1_i2c.c:650:5
	ldr	r1, [sp]
	.loc	5 650 26 is_stmt 0              @ ../std/GD32C2x1_Firmware_Library/GD32C2x1_standard_peripheral/Source/gd32c2x1_i2c.c:650:26
	ldr	r0, [r1]
	movs	r2, #1
	lsls	r2, r2, #23
	bics	r0, r2
	str	r0, [r1]
	.loc	5 651 1 is_stmt 1               @ ../std/GD32C2x1_Firmware_Library/GD32C2x1_standard_peripheral/Source/gd32c2x1_i2c.c:651:1
	add	sp, #4
	bx	lr
.Ltmp99:
.Lfunc_end41:
	.size	i2c_pec_disable, .Lfunc_end41-i2c_pec_disable
	.cfi_endproc
	.cantunwind
	.fnend
                                        @ -- End function
	.section	.text.i2c_pec_value_get,"ax",%progbits
	.hidden	i2c_pec_value_get               @ -- Begin function i2c_pec_value_get
	.globl	i2c_pec_value_get
	.p2align	1
	.type	i2c_pec_value_get,%function
	.code	16                              @ @i2c_pec_value_get
	.thumb_func
i2c_pec_value_get:
.Lfunc_begin42:
	.loc	5 660 0                         @ ../std/GD32C2x1_Firmware_Library/GD32C2x1_standard_peripheral/Source/gd32c2x1_i2c.c:660:0
	.fnstart
	.cfi_startproc
@ %bb.0:
	.pad	#4
	sub	sp, #4
	.cfi_def_cfa_offset 4
	str	r0, [sp]
.Ltmp100:
	.loc	5 661 13 prologue_end           @ ../std/GD32C2x1_Firmware_Library/GD32C2x1_standard_peripheral/Source/gd32c2x1_i2c.c:661:13
	ldr	r0, [sp]
	ldr	r0, [r0, #32]
	.loc	5 661 33 is_stmt 0              @ ../std/GD32C2x1_Firmware_Library/GD32C2x1_standard_peripheral/Source/gd32c2x1_i2c.c:661:33
	uxtb	r0, r0
	.loc	5 661 5                         @ ../std/GD32C2x1_Firmware_Library/GD32C2x1_standard_peripheral/Source/gd32c2x1_i2c.c:661:5
	add	sp, #4
	bx	lr
.Ltmp101:
.Lfunc_end42:
	.size	i2c_pec_value_get, .Lfunc_end42-i2c_pec_value_get
	.cfi_endproc
	.cantunwind
	.fnend
                                        @ -- End function
	.section	.text.i2c_smbus_alert_enable,"ax",%progbits
	.hidden	i2c_smbus_alert_enable          @ -- Begin function i2c_smbus_alert_enable
	.globl	i2c_smbus_alert_enable
	.p2align	1
	.type	i2c_smbus_alert_enable,%function
	.code	16                              @ @i2c_smbus_alert_enable
	.thumb_func
i2c_smbus_alert_enable:
.Lfunc_begin43:
	.loc	5 671 0 is_stmt 1               @ ../std/GD32C2x1_Firmware_Library/GD32C2x1_standard_peripheral/Source/gd32c2x1_i2c.c:671:0
	.fnstart
	.cfi_startproc
@ %bb.0:
	.pad	#4
	sub	sp, #4
	.cfi_def_cfa_offset 4
	str	r0, [sp]
.Ltmp102:
	.loc	5 672 5 prologue_end            @ ../std/GD32C2x1_Firmware_Library/GD32C2x1_standard_peripheral/Source/gd32c2x1_i2c.c:672:5
	ldr	r1, [sp]
	.loc	5 672 26 is_stmt 0              @ ../std/GD32C2x1_Firmware_Library/GD32C2x1_standard_peripheral/Source/gd32c2x1_i2c.c:672:26
	ldr	r0, [r1]
	movs	r2, #1
	lsls	r2, r2, #22
	orrs	r0, r2
	str	r0, [r1]
	.loc	5 673 1 is_stmt 1               @ ../std/GD32C2x1_Firmware_Library/GD32C2x1_standard_peripheral/Source/gd32c2x1_i2c.c:673:1
	add	sp, #4
	bx	lr
.Ltmp103:
.Lfunc_end43:
	.size	i2c_smbus_alert_enable, .Lfunc_end43-i2c_smbus_alert_enable
	.cfi_endproc
	.cantunwind
	.fnend
                                        @ -- End function
	.section	.text.i2c_smbus_alert_disable,"ax",%progbits
	.hidden	i2c_smbus_alert_disable         @ -- Begin function i2c_smbus_alert_disable
	.globl	i2c_smbus_alert_disable
	.p2align	1
	.type	i2c_smbus_alert_disable,%function
	.code	16                              @ @i2c_smbus_alert_disable
	.thumb_func
i2c_smbus_alert_disable:
.Lfunc_begin44:
	.loc	5 682 0                         @ ../std/GD32C2x1_Firmware_Library/GD32C2x1_standard_peripheral/Source/gd32c2x1_i2c.c:682:0
	.fnstart
	.cfi_startproc
@ %bb.0:
	.pad	#4
	sub	sp, #4
	.cfi_def_cfa_offset 4
	str	r0, [sp]
.Ltmp104:
	.loc	5 683 5 prologue_end            @ ../std/GD32C2x1_Firmware_Library/GD32C2x1_standard_peripheral/Source/gd32c2x1_i2c.c:683:5
	ldr	r1, [sp]
	.loc	5 683 26 is_stmt 0              @ ../std/GD32C2x1_Firmware_Library/GD32C2x1_standard_peripheral/Source/gd32c2x1_i2c.c:683:26
	ldr	r0, [r1]
	movs	r2, #1
	lsls	r2, r2, #22
	bics	r0, r2
	str	r0, [r1]
	.loc	5 684 1 is_stmt 1               @ ../std/GD32C2x1_Firmware_Library/GD32C2x1_standard_peripheral/Source/gd32c2x1_i2c.c:684:1
	add	sp, #4
	bx	lr
.Ltmp105:
.Lfunc_end44:
	.size	i2c_smbus_alert_disable, .Lfunc_end44-i2c_smbus_alert_disable
	.cfi_endproc
	.cantunwind
	.fnend
                                        @ -- End function
	.section	.text.i2c_smbus_default_addr_enable,"ax",%progbits
	.hidden	i2c_smbus_default_addr_enable   @ -- Begin function i2c_smbus_default_addr_enable
	.globl	i2c_smbus_default_addr_enable
	.p2align	1
	.type	i2c_smbus_default_addr_enable,%function
	.code	16                              @ @i2c_smbus_default_addr_enable
	.thumb_func
i2c_smbus_default_addr_enable:
.Lfunc_begin45:
	.loc	5 693 0                         @ ../std/GD32C2x1_Firmware_Library/GD32C2x1_standard_peripheral/Source/gd32c2x1_i2c.c:693:0
	.fnstart
	.cfi_startproc
@ %bb.0:
	.pad	#4
	sub	sp, #4
	.cfi_def_cfa_offset 4
	str	r0, [sp]
.Ltmp106:
	.loc	5 694 5 prologue_end            @ ../std/GD32C2x1_Firmware_Library/GD32C2x1_standard_peripheral/Source/gd32c2x1_i2c.c:694:5
	ldr	r1, [sp]
	.loc	5 694 26 is_stmt 0              @ ../std/GD32C2x1_Firmware_Library/GD32C2x1_standard_peripheral/Source/gd32c2x1_i2c.c:694:26
	ldr	r0, [r1]
	movs	r2, #1
	lsls	r2, r2, #21
	orrs	r0, r2
	str	r0, [r1]
	.loc	5 695 1 is_stmt 1               @ ../std/GD32C2x1_Firmware_Library/GD32C2x1_standard_peripheral/Source/gd32c2x1_i2c.c:695:1
	add	sp, #4
	bx	lr
.Ltmp107:
.Lfunc_end45:
	.size	i2c_smbus_default_addr_enable, .Lfunc_end45-i2c_smbus_default_addr_enable
	.cfi_endproc
	.cantunwind
	.fnend
                                        @ -- End function
	.section	.text.i2c_smbus_default_addr_disable,"ax",%progbits
	.hidden	i2c_smbus_default_addr_disable  @ -- Begin function i2c_smbus_default_addr_disable
	.globl	i2c_smbus_default_addr_disable
	.p2align	1
	.type	i2c_smbus_default_addr_disable,%function
	.code	16                              @ @i2c_smbus_default_addr_disable
	.thumb_func
i2c_smbus_default_addr_disable:
.Lfunc_begin46:
	.loc	5 704 0                         @ ../std/GD32C2x1_Firmware_Library/GD32C2x1_standard_peripheral/Source/gd32c2x1_i2c.c:704:0
	.fnstart
	.cfi_startproc
@ %bb.0:
	.pad	#4
	sub	sp, #4
	.cfi_def_cfa_offset 4
	str	r0, [sp]
.Ltmp108:
	.loc	5 705 5 prologue_end            @ ../std/GD32C2x1_Firmware_Library/GD32C2x1_standard_peripheral/Source/gd32c2x1_i2c.c:705:5
	ldr	r1, [sp]
	.loc	5 705 26 is_stmt 0              @ ../std/GD32C2x1_Firmware_Library/GD32C2x1_standard_peripheral/Source/gd32c2x1_i2c.c:705:26
	ldr	r0, [r1]
	movs	r2, #1
	lsls	r2, r2, #21
	bics	r0, r2
	str	r0, [r1]
	.loc	5 706 1 is_stmt 1               @ ../std/GD32C2x1_Firmware_Library/GD32C2x1_standard_peripheral/Source/gd32c2x1_i2c.c:706:1
	add	sp, #4
	bx	lr
.Ltmp109:
.Lfunc_end46:
	.size	i2c_smbus_default_addr_disable, .Lfunc_end46-i2c_smbus_default_addr_disable
	.cfi_endproc
	.cantunwind
	.fnend
                                        @ -- End function
	.section	.text.i2c_smbus_host_addr_enable,"ax",%progbits
	.hidden	i2c_smbus_host_addr_enable      @ -- Begin function i2c_smbus_host_addr_enable
	.globl	i2c_smbus_host_addr_enable
	.p2align	1
	.type	i2c_smbus_host_addr_enable,%function
	.code	16                              @ @i2c_smbus_host_addr_enable
	.thumb_func
i2c_smbus_host_addr_enable:
.Lfunc_begin47:
	.loc	5 715 0                         @ ../std/GD32C2x1_Firmware_Library/GD32C2x1_standard_peripheral/Source/gd32c2x1_i2c.c:715:0
	.fnstart
	.cfi_startproc
@ %bb.0:
	.pad	#4
	sub	sp, #4
	.cfi_def_cfa_offset 4
	str	r0, [sp]
.Ltmp110:
	.loc	5 716 5 prologue_end            @ ../std/GD32C2x1_Firmware_Library/GD32C2x1_standard_peripheral/Source/gd32c2x1_i2c.c:716:5
	ldr	r1, [sp]
	.loc	5 716 26 is_stmt 0              @ ../std/GD32C2x1_Firmware_Library/GD32C2x1_standard_peripheral/Source/gd32c2x1_i2c.c:716:26
	ldr	r0, [r1]
	movs	r2, #1
	lsls	r2, r2, #20
	orrs	r0, r2
	str	r0, [r1]
	.loc	5 717 1 is_stmt 1               @ ../std/GD32C2x1_Firmware_Library/GD32C2x1_standard_peripheral/Source/gd32c2x1_i2c.c:717:1
	add	sp, #4
	bx	lr
.Ltmp111:
.Lfunc_end47:
	.size	i2c_smbus_host_addr_enable, .Lfunc_end47-i2c_smbus_host_addr_enable
	.cfi_endproc
	.cantunwind
	.fnend
                                        @ -- End function
	.section	.text.i2c_smbus_host_addr_disable,"ax",%progbits
	.hidden	i2c_smbus_host_addr_disable     @ -- Begin function i2c_smbus_host_addr_disable
	.globl	i2c_smbus_host_addr_disable
	.p2align	1
	.type	i2c_smbus_host_addr_disable,%function
	.code	16                              @ @i2c_smbus_host_addr_disable
	.thumb_func
i2c_smbus_host_addr_disable:
.Lfunc_begin48:
	.loc	5 726 0                         @ ../std/GD32C2x1_Firmware_Library/GD32C2x1_standard_peripheral/Source/gd32c2x1_i2c.c:726:0
	.fnstart
	.cfi_startproc
@ %bb.0:
	.pad	#4
	sub	sp, #4
	.cfi_def_cfa_offset 4
	str	r0, [sp]
.Ltmp112:
	.loc	5 727 5 prologue_end            @ ../std/GD32C2x1_Firmware_Library/GD32C2x1_standard_peripheral/Source/gd32c2x1_i2c.c:727:5
	ldr	r1, [sp]
	.loc	5 727 26 is_stmt 0              @ ../std/GD32C2x1_Firmware_Library/GD32C2x1_standard_peripheral/Source/gd32c2x1_i2c.c:727:26
	ldr	r0, [r1]
	movs	r2, #1
	lsls	r2, r2, #20
	bics	r0, r2
	str	r0, [r1]
	.loc	5 728 1 is_stmt 1               @ ../std/GD32C2x1_Firmware_Library/GD32C2x1_standard_peripheral/Source/gd32c2x1_i2c.c:728:1
	add	sp, #4
	bx	lr
.Ltmp113:
.Lfunc_end48:
	.size	i2c_smbus_host_addr_disable, .Lfunc_end48-i2c_smbus_host_addr_disable
	.cfi_endproc
	.cantunwind
	.fnend
                                        @ -- End function
	.section	.text.i2c_extended_clock_timeout_enable,"ax",%progbits
	.hidden	i2c_extended_clock_timeout_enable @ -- Begin function i2c_extended_clock_timeout_enable
	.globl	i2c_extended_clock_timeout_enable
	.p2align	1
	.type	i2c_extended_clock_timeout_enable,%function
	.code	16                              @ @i2c_extended_clock_timeout_enable
	.thumb_func
i2c_extended_clock_timeout_enable:
.Lfunc_begin49:
	.loc	5 737 0                         @ ../std/GD32C2x1_Firmware_Library/GD32C2x1_standard_peripheral/Source/gd32c2x1_i2c.c:737:0
	.fnstart
	.cfi_startproc
@ %bb.0:
	.pad	#4
	sub	sp, #4
	.cfi_def_cfa_offset 4
	str	r0, [sp]
.Ltmp114:
	.loc	5 738 5 prologue_end            @ ../std/GD32C2x1_Firmware_Library/GD32C2x1_standard_peripheral/Source/gd32c2x1_i2c.c:738:5
	ldr	r1, [sp]
	.loc	5 738 29 is_stmt 0              @ ../std/GD32C2x1_Firmware_Library/GD32C2x1_standard_peripheral/Source/gd32c2x1_i2c.c:738:29
	ldr	r0, [r1, #20]
	movs	r2, #1
	lsls	r2, r2, #31
	orrs	r0, r2
	str	r0, [r1, #20]
	.loc	5 739 1 is_stmt 1               @ ../std/GD32C2x1_Firmware_Library/GD32C2x1_standard_peripheral/Source/gd32c2x1_i2c.c:739:1
	add	sp, #4
	bx	lr
.Ltmp115:
.Lfunc_end49:
	.size	i2c_extended_clock_timeout_enable, .Lfunc_end49-i2c_extended_clock_timeout_enable
	.cfi_endproc
	.cantunwind
	.fnend
                                        @ -- End function
	.section	.text.i2c_extended_clock_timeout_disable,"ax",%progbits
	.hidden	i2c_extended_clock_timeout_disable @ -- Begin function i2c_extended_clock_timeout_disable
	.globl	i2c_extended_clock_timeout_disable
	.p2align	1
	.type	i2c_extended_clock_timeout_disable,%function
	.code	16                              @ @i2c_extended_clock_timeout_disable
	.thumb_func
i2c_extended_clock_timeout_disable:
.Lfunc_begin50:
	.loc	5 748 0                         @ ../std/GD32C2x1_Firmware_Library/GD32C2x1_standard_peripheral/Source/gd32c2x1_i2c.c:748:0
	.fnstart
	.cfi_startproc
@ %bb.0:
	.pad	#4
	sub	sp, #4
	.cfi_def_cfa_offset 4
	str	r0, [sp]
.Ltmp116:
	.loc	5 749 5 prologue_end            @ ../std/GD32C2x1_Firmware_Library/GD32C2x1_standard_peripheral/Source/gd32c2x1_i2c.c:749:5
	ldr	r1, [sp]
	.loc	5 749 29 is_stmt 0              @ ../std/GD32C2x1_Firmware_Library/GD32C2x1_standard_peripheral/Source/gd32c2x1_i2c.c:749:29
	ldr	r0, [r1, #20]
	movs	r2, #1
	lsls	r2, r2, #31
	bics	r0, r2
	str	r0, [r1, #20]
	.loc	5 750 1 is_stmt 1               @ ../std/GD32C2x1_Firmware_Library/GD32C2x1_standard_peripheral/Source/gd32c2x1_i2c.c:750:1
	add	sp, #4
	bx	lr
.Ltmp117:
.Lfunc_end50:
	.size	i2c_extended_clock_timeout_disable, .Lfunc_end50-i2c_extended_clock_timeout_disable
	.cfi_endproc
	.cantunwind
	.fnend
                                        @ -- End function
	.section	.text.i2c_clock_timeout_enable,"ax",%progbits
	.hidden	i2c_clock_timeout_enable        @ -- Begin function i2c_clock_timeout_enable
	.globl	i2c_clock_timeout_enable
	.p2align	1
	.type	i2c_clock_timeout_enable,%function
	.code	16                              @ @i2c_clock_timeout_enable
	.thumb_func
i2c_clock_timeout_enable:
.Lfunc_begin51:
	.loc	5 759 0                         @ ../std/GD32C2x1_Firmware_Library/GD32C2x1_standard_peripheral/Source/gd32c2x1_i2c.c:759:0
	.fnstart
	.cfi_startproc
@ %bb.0:
	.pad	#4
	sub	sp, #4
	.cfi_def_cfa_offset 4
	str	r0, [sp]
.Ltmp118:
	.loc	5 760 5 prologue_end            @ ../std/GD32C2x1_Firmware_Library/GD32C2x1_standard_peripheral/Source/gd32c2x1_i2c.c:760:5
	ldr	r1, [sp]
	.loc	5 760 29 is_stmt 0              @ ../std/GD32C2x1_Firmware_Library/GD32C2x1_standard_peripheral/Source/gd32c2x1_i2c.c:760:29
	ldr	r0, [r1, #20]
	movw	r2, #32768
	orrs	r0, r2
	str	r0, [r1, #20]
	.loc	5 761 1 is_stmt 1               @ ../std/GD32C2x1_Firmware_Library/GD32C2x1_standard_peripheral/Source/gd32c2x1_i2c.c:761:1
	add	sp, #4
	bx	lr
.Ltmp119:
.Lfunc_end51:
	.size	i2c_clock_timeout_enable, .Lfunc_end51-i2c_clock_timeout_enable
	.cfi_endproc
	.cantunwind
	.fnend
                                        @ -- End function
	.section	.text.i2c_clock_timeout_disable,"ax",%progbits
	.hidden	i2c_clock_timeout_disable       @ -- Begin function i2c_clock_timeout_disable
	.globl	i2c_clock_timeout_disable
	.p2align	1
	.type	i2c_clock_timeout_disable,%function
	.code	16                              @ @i2c_clock_timeout_disable
	.thumb_func
i2c_clock_timeout_disable:
.Lfunc_begin52:
	.loc	5 770 0                         @ ../std/GD32C2x1_Firmware_Library/GD32C2x1_standard_peripheral/Source/gd32c2x1_i2c.c:770:0
	.fnstart
	.cfi_startproc
@ %bb.0:
	.pad	#4
	sub	sp, #4
	.cfi_def_cfa_offset 4
	str	r0, [sp]
.Ltmp120:
	.loc	5 771 5 prologue_end            @ ../std/GD32C2x1_Firmware_Library/GD32C2x1_standard_peripheral/Source/gd32c2x1_i2c.c:771:5
	ldr	r1, [sp]
	.loc	5 771 29 is_stmt 0              @ ../std/GD32C2x1_Firmware_Library/GD32C2x1_standard_peripheral/Source/gd32c2x1_i2c.c:771:29
	ldr	r0, [r1, #20]
	movw	r2, #32768
	bics	r0, r2
	str	r0, [r1, #20]
	.loc	5 772 1 is_stmt 1               @ ../std/GD32C2x1_Firmware_Library/GD32C2x1_standard_peripheral/Source/gd32c2x1_i2c.c:772:1
	add	sp, #4
	bx	lr
.Ltmp121:
.Lfunc_end52:
	.size	i2c_clock_timeout_disable, .Lfunc_end52-i2c_clock_timeout_disable
	.cfi_endproc
	.cantunwind
	.fnend
                                        @ -- End function
	.section	.text.i2c_bus_timeout_b_config,"ax",%progbits
	.hidden	i2c_bus_timeout_b_config        @ -- Begin function i2c_bus_timeout_b_config
	.globl	i2c_bus_timeout_b_config
	.p2align	2
	.type	i2c_bus_timeout_b_config,%function
	.code	16                              @ @i2c_bus_timeout_b_config
	.thumb_func
i2c_bus_timeout_b_config:
.Lfunc_begin53:
	.loc	5 782 0                         @ ../std/GD32C2x1_Firmware_Library/GD32C2x1_standard_peripheral/Source/gd32c2x1_i2c.c:782:0
	.fnstart
	.cfi_startproc
@ %bb.0:
	.pad	#8
	sub	sp, #8
	.cfi_def_cfa_offset 8
	str	r0, [sp, #4]
	str	r1, [sp]
.Ltmp122:
	.loc	5 783 5 prologue_end            @ ../std/GD32C2x1_Firmware_Library/GD32C2x1_standard_peripheral/Source/gd32c2x1_i2c.c:783:5
	ldr	r1, [sp, #4]
	.loc	5 783 29 is_stmt 0              @ ../std/GD32C2x1_Firmware_Library/GD32C2x1_standard_peripheral/Source/gd32c2x1_i2c.c:783:29
	ldr	r0, [r1, #20]
	ldr	r2, __arm_cp.53_0
	ands	r0, r2
	str	r0, [r1, #20]
	.loc	5 784 43 is_stmt 1              @ ../std/GD32C2x1_Firmware_Library/GD32C2x1_standard_peripheral/Source/gd32c2x1_i2c.c:784:43
	ldr	r0, [sp]
	.loc	5 784 77 is_stmt 0              @ ../std/GD32C2x1_Firmware_Library/GD32C2x1_standard_peripheral/Source/gd32c2x1_i2c.c:784:77
	lsls	r0, r0, #20
	lsrs	r2, r0, #4
	.loc	5 784 5                         @ ../std/GD32C2x1_Firmware_Library/GD32C2x1_standard_peripheral/Source/gd32c2x1_i2c.c:784:5
	ldr	r1, [sp, #4]
	.loc	5 784 29                        @ ../std/GD32C2x1_Firmware_Library/GD32C2x1_standard_peripheral/Source/gd32c2x1_i2c.c:784:29
	ldr	r0, [r1, #20]
	orrs	r0, r2
	str	r0, [r1, #20]
	.loc	5 785 1 is_stmt 1               @ ../std/GD32C2x1_Firmware_Library/GD32C2x1_standard_peripheral/Source/gd32c2x1_i2c.c:785:1
	add	sp, #8
	bx	lr
.Ltmp123:
	.p2align	2
@ %bb.1:
	.loc	5 0 1 is_stmt 0                 @ ../std/GD32C2x1_Firmware_Library/GD32C2x1_standard_peripheral/Source/gd32c2x1_i2c.c:0:1
__arm_cp.53_0:
	.long	4026597375                      @ 0xf000ffff
.Lcpi_end7:
	.size	__arm_cp.53_0, .Lcpi_end7-__arm_cp.53_0
.Lfunc_end53:
	.size	i2c_bus_timeout_b_config, .Lfunc_end53-i2c_bus_timeout_b_config
	.cfi_endproc
	.cantunwind
	.fnend
                                        @ -- End function
	.section	.text.i2c_bus_timeout_a_config,"ax",%progbits
	.hidden	i2c_bus_timeout_a_config        @ -- Begin function i2c_bus_timeout_a_config
	.globl	i2c_bus_timeout_a_config
	.p2align	2
	.type	i2c_bus_timeout_a_config,%function
	.code	16                              @ @i2c_bus_timeout_a_config
	.thumb_func
i2c_bus_timeout_a_config:
.Lfunc_begin54:
	.loc	5 795 0 is_stmt 1               @ ../std/GD32C2x1_Firmware_Library/GD32C2x1_standard_peripheral/Source/gd32c2x1_i2c.c:795:0
	.fnstart
	.cfi_startproc
@ %bb.0:
	.pad	#8
	sub	sp, #8
	.cfi_def_cfa_offset 8
	str	r0, [sp, #4]
	str	r1, [sp]
.Ltmp124:
	.loc	5 796 5 prologue_end            @ ../std/GD32C2x1_Firmware_Library/GD32C2x1_standard_peripheral/Source/gd32c2x1_i2c.c:796:5
	ldr	r1, [sp, #4]
	.loc	5 796 29 is_stmt 0              @ ../std/GD32C2x1_Firmware_Library/GD32C2x1_standard_peripheral/Source/gd32c2x1_i2c.c:796:29
	ldr	r0, [r1, #20]
	ldr	r2, __arm_cp.54_0
	ands	r0, r2
	str	r0, [r1, #20]
	.loc	5 797 43 is_stmt 1              @ ../std/GD32C2x1_Firmware_Library/GD32C2x1_standard_peripheral/Source/gd32c2x1_i2c.c:797:43
	ldr	r2, [sp]
	ldr	r0, __arm_cp.54_1
	.loc	5 797 51 is_stmt 0              @ ../std/GD32C2x1_Firmware_Library/GD32C2x1_standard_peripheral/Source/gd32c2x1_i2c.c:797:51
	ands	r2, r0
	.loc	5 797 5                         @ ../std/GD32C2x1_Firmware_Library/GD32C2x1_standard_peripheral/Source/gd32c2x1_i2c.c:797:5
	ldr	r1, [sp, #4]
	.loc	5 797 29                        @ ../std/GD32C2x1_Firmware_Library/GD32C2x1_standard_peripheral/Source/gd32c2x1_i2c.c:797:29
	ldr	r0, [r1, #20]
	orrs	r0, r2
	str	r0, [r1, #20]
	.loc	5 798 1 is_stmt 1               @ ../std/GD32C2x1_Firmware_Library/GD32C2x1_standard_peripheral/Source/gd32c2x1_i2c.c:798:1
	add	sp, #8
	bx	lr
.Ltmp125:
	.p2align	2
@ %bb.1:
	.loc	5 0 1 is_stmt 0                 @ ../std/GD32C2x1_Firmware_Library/GD32C2x1_standard_peripheral/Source/gd32c2x1_i2c.c:0:1
__arm_cp.54_0:
	.long	4294963200                      @ 0xfffff000
.Lcpi_end8:
	.size	__arm_cp.54_0, .Lcpi_end8-__arm_cp.54_0
__arm_cp.54_1:
	.long	4095                            @ 0xfff
.Lcpi_end9:
	.size	__arm_cp.54_1, .Lcpi_end9-__arm_cp.54_1
.Lfunc_end54:
	.size	i2c_bus_timeout_a_config, .Lfunc_end54-i2c_bus_timeout_a_config
	.cfi_endproc
	.cantunwind
	.fnend
                                        @ -- End function
	.section	.text.i2c_idle_clock_timeout_config,"ax",%progbits
	.hidden	i2c_idle_clock_timeout_config   @ -- Begin function i2c_idle_clock_timeout_config
	.globl	i2c_idle_clock_timeout_config
	.p2align	1
	.type	i2c_idle_clock_timeout_config,%function
	.code	16                              @ @i2c_idle_clock_timeout_config
	.thumb_func
i2c_idle_clock_timeout_config:
.Lfunc_begin55:
	.loc	5 811 0 is_stmt 1               @ ../std/GD32C2x1_Firmware_Library/GD32C2x1_standard_peripheral/Source/gd32c2x1_i2c.c:811:0
	.fnstart
	.cfi_startproc
@ %bb.0:
	.pad	#8
	sub	sp, #8
	.cfi_def_cfa_offset 8
	str	r0, [sp, #4]
	str	r1, [sp]
.Ltmp126:
	.loc	5 812 5 prologue_end            @ ../std/GD32C2x1_Firmware_Library/GD32C2x1_standard_peripheral/Source/gd32c2x1_i2c.c:812:5
	ldr	r2, [sp, #4]
	.loc	5 812 29 is_stmt 0              @ ../std/GD32C2x1_Firmware_Library/GD32C2x1_standard_peripheral/Source/gd32c2x1_i2c.c:812:29
	ldr	r1, [r2, #20]
	movw	r0, #4096
	bics	r1, r0
	str	r1, [r2, #20]
	.loc	5 813 32 is_stmt 1              @ ../std/GD32C2x1_Firmware_Library/GD32C2x1_standard_peripheral/Source/gd32c2x1_i2c.c:813:32
	ldr	r2, [sp]
	.loc	5 813 40 is_stmt 0              @ ../std/GD32C2x1_Firmware_Library/GD32C2x1_standard_peripheral/Source/gd32c2x1_i2c.c:813:40
	ands	r2, r0
	.loc	5 813 5                         @ ../std/GD32C2x1_Firmware_Library/GD32C2x1_standard_peripheral/Source/gd32c2x1_i2c.c:813:5
	ldr	r1, [sp, #4]
	.loc	5 813 29                        @ ../std/GD32C2x1_Firmware_Library/GD32C2x1_standard_peripheral/Source/gd32c2x1_i2c.c:813:29
	ldr	r0, [r1, #20]
	orrs	r0, r2
	str	r0, [r1, #20]
	.loc	5 814 1 is_stmt 1               @ ../std/GD32C2x1_Firmware_Library/GD32C2x1_standard_peripheral/Source/gd32c2x1_i2c.c:814:1
	add	sp, #8
	bx	lr
.Ltmp127:
.Lfunc_end55:
	.size	i2c_idle_clock_timeout_config, .Lfunc_end55-i2c_idle_clock_timeout_config
	.cfi_endproc
	.cantunwind
	.fnend
                                        @ -- End function
	.section	.text.i2c_flag_get,"ax",%progbits
	.hidden	i2c_flag_get                    @ -- Begin function i2c_flag_get
	.globl	i2c_flag_get
	.p2align	1
	.type	i2c_flag_get,%function
	.code	16                              @ @i2c_flag_get
	.thumb_func
i2c_flag_get:
.Lfunc_begin56:
	.loc	5 841 0                         @ ../std/GD32C2x1_Firmware_Library/GD32C2x1_standard_peripheral/Source/gd32c2x1_i2c.c:841:0
	.fnstart
	.cfi_startproc
@ %bb.0:
	.pad	#12
	sub	sp, #12
	.cfi_def_cfa_offset 12
	str	r0, [sp, #8]
	str	r1, [sp, #4]
	mov	r1, sp
	movs	r0, #0
.Ltmp128:
	.loc	5 842 16 prologue_end           @ ../std/GD32C2x1_Firmware_Library/GD32C2x1_standard_peripheral/Source/gd32c2x1_i2c.c:842:16
	strb	r0, [r1]
.Ltmp129:
	.loc	5 844 15                        @ ../std/GD32C2x1_Firmware_Library/GD32C2x1_standard_peripheral/Source/gd32c2x1_i2c.c:844:15
	ldr	r0, [sp, #8]
	ldr	r0, [r0, #24]
	.loc	5 844 38 is_stmt 0              @ ../std/GD32C2x1_Firmware_Library/GD32C2x1_standard_peripheral/Source/gd32c2x1_i2c.c:844:38
	ldr	r1, [sp, #4]
.Ltmp130:
	.loc	5 844 8                         @ ../std/GD32C2x1_Firmware_Library/GD32C2x1_standard_peripheral/Source/gd32c2x1_i2c.c:844:8
	tst	r0, r1
	beq	.LBB56_2
	b	.LBB56_1
.LBB56_1:
	.loc	5 0 8                           @ ../std/GD32C2x1_Firmware_Library/GD32C2x1_standard_peripheral/Source/gd32c2x1_i2c.c:0:8
	mov	r1, sp
	movs	r0, #1
.Ltmp131:
	.loc	5 845 15 is_stmt 1              @ ../std/GD32C2x1_Firmware_Library/GD32C2x1_standard_peripheral/Source/gd32c2x1_i2c.c:845:15
	strb	r0, [r1]
	.loc	5 846 5                         @ ../std/GD32C2x1_Firmware_Library/GD32C2x1_standard_peripheral/Source/gd32c2x1_i2c.c:846:5
	b	.LBB56_3
.Ltmp132:
.LBB56_2:
	.loc	5 0 5 is_stmt 0                 @ ../std/GD32C2x1_Firmware_Library/GD32C2x1_standard_peripheral/Source/gd32c2x1_i2c.c:0:5
	b	.LBB56_3
.LBB56_3:
	mov	r0, sp
	.loc	5 850 12 is_stmt 1              @ ../std/GD32C2x1_Firmware_Library/GD32C2x1_standard_peripheral/Source/gd32c2x1_i2c.c:850:12
	ldrb	r0, [r0]
	.loc	5 850 5 is_stmt 0               @ ../std/GD32C2x1_Firmware_Library/GD32C2x1_standard_peripheral/Source/gd32c2x1_i2c.c:850:5
	add	sp, #12
	bx	lr
.Ltmp133:
.Lfunc_end56:
	.size	i2c_flag_get, .Lfunc_end56-i2c_flag_get
	.cfi_endproc
	.cantunwind
	.fnend
                                        @ -- End function
	.section	.text.i2c_flag_clear,"ax",%progbits
	.hidden	i2c_flag_clear                  @ -- Begin function i2c_flag_clear
	.globl	i2c_flag_clear
	.p2align	2
	.type	i2c_flag_clear,%function
	.code	16                              @ @i2c_flag_clear
	.thumb_func
i2c_flag_clear:
.Lfunc_begin57:
	.loc	5 871 0 is_stmt 1               @ ../std/GD32C2x1_Firmware_Library/GD32C2x1_standard_peripheral/Source/gd32c2x1_i2c.c:871:0
	.fnstart
	.cfi_startproc
@ %bb.0:
	.pad	#8
	sub	sp, #8
	.cfi_def_cfa_offset 8
	str	r0, [sp, #4]
	str	r1, [sp]
.Ltmp134:
	.loc	5 872 31 prologue_end           @ ../std/GD32C2x1_Firmware_Library/GD32C2x1_standard_peripheral/Source/gd32c2x1_i2c.c:872:31
	ldr	r2, [sp]
	ldr	r0, __arm_cp.57_0
	.loc	5 872 36 is_stmt 0              @ ../std/GD32C2x1_Firmware_Library/GD32C2x1_standard_peripheral/Source/gd32c2x1_i2c.c:872:36
	ands	r2, r0
	.loc	5 872 5                         @ ../std/GD32C2x1_Firmware_Library/GD32C2x1_standard_peripheral/Source/gd32c2x1_i2c.c:872:5
	ldr	r1, [sp, #4]
	.loc	5 872 27                        @ ../std/GD32C2x1_Firmware_Library/GD32C2x1_standard_peripheral/Source/gd32c2x1_i2c.c:872:27
	ldr	r0, [r1, #28]
	orrs	r0, r2
	str	r0, [r1, #28]
	.loc	5 873 1 is_stmt 1               @ ../std/GD32C2x1_Firmware_Library/GD32C2x1_standard_peripheral/Source/gd32c2x1_i2c.c:873:1
	add	sp, #8
	bx	lr
.Ltmp135:
	.p2align	2
@ %bb.1:
	.loc	5 0 1 is_stmt 0                 @ ../std/GD32C2x1_Firmware_Library/GD32C2x1_standard_peripheral/Source/gd32c2x1_i2c.c:0:1
__arm_cp.57_0:
	.long	16184                           @ 0x3f38
.Lcpi_end10:
	.size	__arm_cp.57_0, .Lcpi_end10-__arm_cp.57_0
.Lfunc_end57:
	.size	i2c_flag_clear, .Lfunc_end57-i2c_flag_clear
	.cfi_endproc
	.cantunwind
	.fnend
                                        @ -- End function
	.section	.text.i2c_interrupt_enable,"ax",%progbits
	.hidden	i2c_interrupt_enable            @ -- Begin function i2c_interrupt_enable
	.globl	i2c_interrupt_enable
	.p2align	1
	.type	i2c_interrupt_enable,%function
	.code	16                              @ @i2c_interrupt_enable
	.thumb_func
i2c_interrupt_enable:
.Lfunc_begin58:
	.loc	5 891 0 is_stmt 1               @ ../std/GD32C2x1_Firmware_Library/GD32C2x1_standard_peripheral/Source/gd32c2x1_i2c.c:891:0
	.fnstart
	.cfi_startproc
@ %bb.0:
	.pad	#8
	sub	sp, #8
	.cfi_def_cfa_offset 8
	str	r0, [sp, #4]
	str	r1, [sp]
.Ltmp136:
	.loc	5 892 30 prologue_end           @ ../std/GD32C2x1_Firmware_Library/GD32C2x1_standard_peripheral/Source/gd32c2x1_i2c.c:892:30
	ldr	r2, [sp]
	movs	r0, #254
	.loc	5 892 40 is_stmt 0              @ ../std/GD32C2x1_Firmware_Library/GD32C2x1_standard_peripheral/Source/gd32c2x1_i2c.c:892:40
	ands	r2, r0
	.loc	5 892 5                         @ ../std/GD32C2x1_Firmware_Library/GD32C2x1_standard_peripheral/Source/gd32c2x1_i2c.c:892:5
	ldr	r1, [sp, #4]
	.loc	5 892 26                        @ ../std/GD32C2x1_Firmware_Library/GD32C2x1_standard_peripheral/Source/gd32c2x1_i2c.c:892:26
	ldr	r0, [r1]
	orrs	r0, r2
	str	r0, [r1]
	.loc	5 893 1 is_stmt 1               @ ../std/GD32C2x1_Firmware_Library/GD32C2x1_standard_peripheral/Source/gd32c2x1_i2c.c:893:1
	add	sp, #8
	bx	lr
.Ltmp137:
.Lfunc_end58:
	.size	i2c_interrupt_enable, .Lfunc_end58-i2c_interrupt_enable
	.cfi_endproc
	.cantunwind
	.fnend
                                        @ -- End function
	.section	.text.i2c_interrupt_disable,"ax",%progbits
	.hidden	i2c_interrupt_disable           @ -- Begin function i2c_interrupt_disable
	.globl	i2c_interrupt_disable
	.p2align	1
	.type	i2c_interrupt_disable,%function
	.code	16                              @ @i2c_interrupt_disable
	.thumb_func
i2c_interrupt_disable:
.Lfunc_begin59:
	.loc	5 911 0                         @ ../std/GD32C2x1_Firmware_Library/GD32C2x1_standard_peripheral/Source/gd32c2x1_i2c.c:911:0
	.fnstart
	.cfi_startproc
@ %bb.0:
	.pad	#8
	sub	sp, #8
	.cfi_def_cfa_offset 8
	str	r0, [sp, #4]
	str	r1, [sp]
.Ltmp138:
	.loc	5 912 31 prologue_end           @ ../std/GD32C2x1_Firmware_Library/GD32C2x1_standard_peripheral/Source/gd32c2x1_i2c.c:912:31
	ldr	r0, [sp]
	mvns	r2, r0
	movs	r0, #254
	mvns	r0, r0
	.loc	5 912 29 is_stmt 0              @ ../std/GD32C2x1_Firmware_Library/GD32C2x1_standard_peripheral/Source/gd32c2x1_i2c.c:912:29
	orrs	r2, r0
	.loc	5 912 5                         @ ../std/GD32C2x1_Firmware_Library/GD32C2x1_standard_peripheral/Source/gd32c2x1_i2c.c:912:5
	ldr	r1, [sp, #4]
	.loc	5 912 26                        @ ../std/GD32C2x1_Firmware_Library/GD32C2x1_standard_peripheral/Source/gd32c2x1_i2c.c:912:26
	ldr	r0, [r1]
	ands	r0, r2
	str	r0, [r1]
	.loc	5 913 1 is_stmt 1               @ ../std/GD32C2x1_Firmware_Library/GD32C2x1_standard_peripheral/Source/gd32c2x1_i2c.c:913:1
	add	sp, #8
	bx	lr
.Ltmp139:
.Lfunc_end59:
	.size	i2c_interrupt_disable, .Lfunc_end59-i2c_interrupt_disable
	.cfi_endproc
	.cantunwind
	.fnend
                                        @ -- End function
	.section	.text.i2c_interrupt_flag_get,"ax",%progbits
	.hidden	i2c_interrupt_flag_get          @ -- Begin function i2c_interrupt_flag_get
	.globl	i2c_interrupt_flag_get
	.p2align	1
	.type	i2c_interrupt_flag_get,%function
	.code	16                              @ @i2c_interrupt_flag_get
	.thumb_func
i2c_interrupt_flag_get:
.Lfunc_begin60:
	.loc	5 937 0                         @ ../std/GD32C2x1_Firmware_Library/GD32C2x1_standard_peripheral/Source/gd32c2x1_i2c.c:937:0
	.fnstart
	.cfi_startproc
@ %bb.0:
	.save	{r4, lr}
	push	{r4, lr}
	.cfi_def_cfa_offset 8
	.cfi_offset lr, -4
	.cfi_offset r4, -8
	.pad	#20
	sub	sp, #20
	.cfi_def_cfa_offset 28
	str	r0, [sp, #16]
	str	r1, [sp, #12]
	add	r1, sp, #8
	movs	r0, #0
.Ltmp140:
	.loc	5 938 16 prologue_end           @ ../std/GD32C2x1_Firmware_Library/GD32C2x1_standard_peripheral/Source/gd32c2x1_i2c.c:938:16
	strb	r0, [r1]
	.loc	5 943 13                        @ ../std/GD32C2x1_Firmware_Library/GD32C2x1_standard_peripheral/Source/gd32c2x1_i2c.c:943:13
	ldr	r0, [sp, #16]
	add	r1, sp, #12
	ldrh	r1, [r1]
	lsrs	r1, r1, #6
	ldr	r0, [r0, r1]
	.loc	5 943 49 is_stmt 0              @ ../std/GD32C2x1_Firmware_Library/GD32C2x1_standard_peripheral/Source/gd32c2x1_i2c.c:943:49
	ldr	r4, [sp, #12]
	movs	r3, #31
	ands	r4, r3
	movs	r1, #1
	mov	r2, r1
	lsls	r2, r4
	.loc	5 943 47                        @ ../std/GD32C2x1_Firmware_Library/GD32C2x1_standard_peripheral/Source/gd32c2x1_i2c.c:943:47
	ands	r0, r2
	.loc	5 943 10                        @ ../std/GD32C2x1_Firmware_Library/GD32C2x1_standard_peripheral/Source/gd32c2x1_i2c.c:943:10
	str	r0, [sp, #4]
	.loc	5 945 13 is_stmt 1              @ ../std/GD32C2x1_Firmware_Library/GD32C2x1_standard_peripheral/Source/gd32c2x1_i2c.c:945:13
	ldr	r0, [sp, #16]
	ldr	r2, [sp, #12]
	lsrs	r2, r2, #22
	ldr	r0, [r0, r2]
	.loc	5 945 50 is_stmt 0              @ ../std/GD32C2x1_Firmware_Library/GD32C2x1_standard_peripheral/Source/gd32c2x1_i2c.c:945:50
	ldr	r2, [sp, #12]
	lsls	r3, r3, #16
	ands	r2, r3
	lsrs	r2, r2, #16
	lsls	r1, r2
	.loc	5 945 48                        @ ../std/GD32C2x1_Firmware_Library/GD32C2x1_standard_peripheral/Source/gd32c2x1_i2c.c:945:48
	ands	r0, r1
	.loc	5 945 10                        @ ../std/GD32C2x1_Firmware_Library/GD32C2x1_standard_peripheral/Source/gd32c2x1_i2c.c:945:10
	str	r0, [sp]
.Ltmp141:
	.loc	5 947 15 is_stmt 1              @ ../std/GD32C2x1_Firmware_Library/GD32C2x1_standard_peripheral/Source/gd32c2x1_i2c.c:947:15
	ldr	r0, [sp, #4]
	.loc	5 947 21 is_stmt 0              @ ../std/GD32C2x1_Firmware_Library/GD32C2x1_standard_peripheral/Source/gd32c2x1_i2c.c:947:21
	cbz	r0, .LBB60_3
	b	.LBB60_1
.LBB60_1:
	.loc	5 947 31                        @ ../std/GD32C2x1_Firmware_Library/GD32C2x1_standard_peripheral/Source/gd32c2x1_i2c.c:947:31
	ldr	r0, [sp]
.Ltmp142:
	.loc	5 947 8                         @ ../std/GD32C2x1_Firmware_Library/GD32C2x1_standard_peripheral/Source/gd32c2x1_i2c.c:947:8
	cbz	r0, .LBB60_3
	b	.LBB60_2
.LBB60_2:
	.loc	5 0 8                           @ ../std/GD32C2x1_Firmware_Library/GD32C2x1_standard_peripheral/Source/gd32c2x1_i2c.c:0:8
	add	r1, sp, #8
	movs	r0, #1
.Ltmp143:
	.loc	5 948 15 is_stmt 1              @ ../std/GD32C2x1_Firmware_Library/GD32C2x1_standard_peripheral/Source/gd32c2x1_i2c.c:948:15
	strb	r0, [r1]
	.loc	5 949 5                         @ ../std/GD32C2x1_Firmware_Library/GD32C2x1_standard_peripheral/Source/gd32c2x1_i2c.c:949:5
	b	.LBB60_4
.Ltmp144:
.LBB60_3:
	.loc	5 0 5 is_stmt 0                 @ ../std/GD32C2x1_Firmware_Library/GD32C2x1_standard_peripheral/Source/gd32c2x1_i2c.c:0:5
	b	.LBB60_4
.LBB60_4:
	add	r0, sp, #8
	.loc	5 953 12 is_stmt 1              @ ../std/GD32C2x1_Firmware_Library/GD32C2x1_standard_peripheral/Source/gd32c2x1_i2c.c:953:12
	ldrb	r0, [r0]
	.loc	5 953 5 is_stmt 0               @ ../std/GD32C2x1_Firmware_Library/GD32C2x1_standard_peripheral/Source/gd32c2x1_i2c.c:953:5
	add	sp, #20
	pop	{r4, pc}
.Ltmp145:
.Lfunc_end60:
	.size	i2c_interrupt_flag_get, .Lfunc_end60-i2c_interrupt_flag_get
	.cfi_endproc
	.cantunwind
	.fnend
                                        @ -- End function
	.section	.text.i2c_interrupt_flag_clear,"ax",%progbits
	.hidden	i2c_interrupt_flag_clear        @ -- Begin function i2c_interrupt_flag_clear
	.globl	i2c_interrupt_flag_clear
	.p2align	1
	.type	i2c_interrupt_flag_clear,%function
	.code	16                              @ @i2c_interrupt_flag_clear
	.thumb_func
i2c_interrupt_flag_clear:
.Lfunc_begin61:
	.loc	5 974 0 is_stmt 1               @ ../std/GD32C2x1_Firmware_Library/GD32C2x1_standard_peripheral/Source/gd32c2x1_i2c.c:974:0
	.fnstart
	.cfi_startproc
@ %bb.0:
	.pad	#8
	sub	sp, #8
	.cfi_def_cfa_offset 8
	str	r0, [sp, #4]
	str	r1, [sp]
.Ltmp146:
	.loc	5 975 30 prologue_end           @ ../std/GD32C2x1_Firmware_Library/GD32C2x1_standard_peripheral/Source/gd32c2x1_i2c.c:975:30
	ldr	r0, [sp]
	movs	r1, #31
	lsls	r1, r1, #16
	ands	r0, r1
	lsrs	r0, r0, #16
	movs	r2, #1
	lsls	r2, r0
	.loc	5 975 5 is_stmt 0               @ ../std/GD32C2x1_Firmware_Library/GD32C2x1_standard_peripheral/Source/gd32c2x1_i2c.c:975:5
	ldr	r1, [sp, #4]
	.loc	5 975 27                        @ ../std/GD32C2x1_Firmware_Library/GD32C2x1_standard_peripheral/Source/gd32c2x1_i2c.c:975:27
	ldr	r0, [r1, #28]
	orrs	r0, r2
	str	r0, [r1, #28]
	.loc	5 976 1 is_stmt 1               @ ../std/GD32C2x1_Firmware_Library/GD32C2x1_standard_peripheral/Source/gd32c2x1_i2c.c:976:1
	add	sp, #8
	bx	lr
.Ltmp147:
.Lfunc_end61:
	.size	i2c_interrupt_flag_clear, .Lfunc_end61-i2c_interrupt_flag_clear
	.cfi_endproc
	.cantunwind
	.fnend
                                        @ -- End function
	.section	".note.GNU-stack","",%progbits
	.eabi_attribute	30, 6	@ Tag_ABI_optimization_goals
	.ARM_attribute	16, 1	@ Tag_AV_eba