	.text
	.syntax unified
	.eabi_attribute	67, "2.09"	@ Tag_conformance
	.cpu	cortex-m23
	.eabi_attribute	6, 16	@ Tag_CPU_arch
	.eabi_attribute	7, 77	@ Tag_CPU_arch_profile
	.eabi_attribute	8, 0	@ Tag_ARM_ISA_use
	.eabi_attribute	9, 3	@ Tag_THUMB_ISA_use
	.eabi_attribute	34, 0	@ Tag_CPU_unaligned_access
	.eabi_attribute	17, 1	@ Tag_ABI_PCS_GOT_use
	.eabi_attribute	20, 2	@ Tag_ABI_FP_denormal
	.eabi_attribute	21, 0	@ Tag_ABI_FP_exceptions
	.eabi_attribute	23, 1	@ Tag_ABI_FP_number_model
	.eabi_attribute	24, 1	@ Tag_ABI_align_needed
	.eabi_attribute	25, 1	@ Tag_ABI_align_preserved
	.eabi_attribute	38, 1	@ Tag_ABI_FP_16bit_format
	.eabi_attribute	18, 2	@ Tag_ABI_PCS_wchar_t
	.eabi_attribute	26, 1	@ Tag_ABI_enum_size
	.eabi_attribute	14, 0	@ Tag_ABI_PCS_R9_use
	.file	"gd32c2x1_spi.c"
	.file	1 "E:\\work\\CX_NFC_RX\\prj" "../std/GD32C2x1_Firmware_Library/GD32C2x1_standard_peripheral/Include\\gd32c2x1_rcu.h"
	.file	2 "E:\\work\\CX_NFC_RX\\prj" "../std/GD32C2x1_Firmware_Library/CMSIS/GD/GD32C2x1/Include/gd32c2x1.h"
	.file	3 "D:\\Keil_v5\\ARM\\ARMCLANG\\Bin\\..\\include" "stdint.h"
	.section	.text.spi_i2s_deinit,"ax",%progbits
	.hidden	spi_i2s_deinit                  @ -- Begin function spi_i2s_deinit
	.globl	spi_i2s_deinit
	.p2align	2
	.type	spi_i2s_deinit,%function
	.code	16                              @ @spi_i2s_deinit
	.thumb_func
spi_i2s_deinit:
.Lfunc_begin0:
	.file	4 "E:\\work\\CX_NFC_RX\\prj" "../std/GD32C2x1_Firmware_Library/GD32C2x1_standard_peripheral/Source/gd32c2x1_spi.c"
	.loc	4 63 0                          @ ../std/GD32C2x1_Firmware_Library/GD32C2x1_standard_peripheral/Source/gd32c2x1_spi.c:63:0
	.fnstart
	.cfi_sections .debug_frame
	.cfi_startproc
@ %bb.0:
	.save	{r7, lr}
	push	{r7, lr}
	.cfi_def_cfa_offset 8
	.cfi_offset lr, -4
	.cfi_offset r7, -8
	.pad	#16
	sub	sp, #16
	.cfi_def_cfa_offset 24
	str	r0, [sp, #12]
.Ltmp0:
	.loc	4 64 12 prologue_end            @ ../std/GD32C2x1_Firmware_Library/GD32C2x1_standard_peripheral/Source/gd32c2x1_spi.c:64:12
	ldr	r0, [sp, #12]
	str	r0, [sp, #8]                    @ 4-byte Spill
	ldr	r1, __arm_cp.0_0
	.loc	4 64 5 is_stmt 0                @ ../std/GD32C2x1_Firmware_Library/GD32C2x1_standard_peripheral/Source/gd32c2x1_spi.c:64:5
	cmp	r0, r1
	beq	.LBB0_3
	b	.LBB0_1
.LBB0_1:
	.loc	4 0 5                           @ ../std/GD32C2x1_Firmware_Library/GD32C2x1_standard_peripheral/Source/gd32c2x1_spi.c:0:5
	ldr	r0, [sp, #8]                    @ 4-byte Reload
	ldr	r1, __arm_cp.0_1
	.loc	4 64 5                          @ ../std/GD32C2x1_Firmware_Library/GD32C2x1_standard_peripheral/Source/gd32c2x1_spi.c:64:5
	cmp	r0, r1
	bne	.LBB0_4
	b	.LBB0_2
.LBB0_2:
	.loc	4 0 5                           @ ../std/GD32C2x1_Firmware_Library/GD32C2x1_standard_peripheral/Source/gd32c2x1_spi.c:0:5
	ldr	r0, __arm_cp.0_3
.Ltmp1:
	.loc	4 67 9 is_stmt 1                @ ../std/GD32C2x1_Firmware_Library/GD32C2x1_standard_peripheral/Source/gd32c2x1_spi.c:67:9
	str	r0, [sp, #4]                    @ 4-byte Spill
	bl	rcu_periph_reset_enable
	ldr	r0, [sp, #4]                    @ 4-byte Reload
	.loc	4 68 9                          @ ../std/GD32C2x1_Firmware_Library/GD32C2x1_standard_peripheral/Source/gd32c2x1_spi.c:68:9
	bl	rcu_periph_reset_disable
	.loc	4 69 9                          @ ../std/GD32C2x1_Firmware_Library/GD32C2x1_standard_peripheral/Source/gd32c2x1_spi.c:69:9
	b	.LBB0_5
.LBB0_3:
	.loc	4 0 9 is_stmt 0                 @ ../std/GD32C2x1_Firmware_Library/GD32C2x1_standard_peripheral/Source/gd32c2x1_spi.c:0:9
	ldr	r0, __arm_cp.0_2
	.loc	4 72 9 is_stmt 1                @ ../std/GD32C2x1_Firmware_Library/GD32C2x1_standard_peripheral/Source/gd32c2x1_spi.c:72:9
	str	r0, [sp]                        @ 4-byte Spill
	bl	rcu_periph_reset_enable
	ldr	r0, [sp]                        @ 4-byte Reload
	.loc	4 73 9                          @ ../std/GD32C2x1_Firmware_Library/GD32C2x1_standard_peripheral/Source/gd32c2x1_spi.c:73:9
	bl	rcu_periph_reset_disable
	.loc	4 74 9                          @ ../std/GD32C2x1_Firmware_Library/GD32C2x1_standard_peripheral/Source/gd32c2x1_spi.c:74:9
	b	.LBB0_5
.LBB0_4:
	.loc	4 76 9                          @ ../std/GD32C2x1_Firmware_Library/GD32C2x1_standard_peripheral/Source/gd32c2x1_spi.c:76:9
	b	.LBB0_5
.Ltmp2:
.LBB0_5:
	.loc	4 78 1                          @ ../std/GD32C2x1_Firmware_Library/GD32C2x1_standard_peripheral/Source/gd32c2x1_spi.c:78:1
	add	sp, #16
	pop	{r7, pc}
.Ltmp3:
	.p2align	2
@ %bb.6:
	.loc	4 0 1 is_stmt 0                 @ ../std/GD32C2x1_Firmware_Library/GD32C2x1_standard_peripheral/Source/gd32c2x1_spi.c:0:1
__arm_cp.0_0:
	.long	1073756160                      @ 0x40003800
.Lcpi_end0:
	.size	__arm_cp.0_0, .Lcpi_end0-__arm_cp.0_0
__arm_cp.0_1:
	.long	1073819648                      @ 0x40013000
.Lcpi_end1:
	.size	__arm_cp.0_1, .Lcpi_end1-__arm_cp.0_1
__arm_cp.0_2:
	.long	2317                            @ 0x90d
.Lcpi_end2:
	.size	__arm_cp.0_2, .Lcpi_end2-__arm_cp.0_2
__arm_cp.0_3:
	.long	2316                            @ 0x90c
.Lcpi_end3:
	.size	__arm_cp.0_3, .Lcpi_end3-__arm_cp.0_3
.Lfunc_end0:
	.size	spi_i2s_deinit, .Lfunc_end0-spi_i2s_deinit
	.cfi_endproc
	.cantunwind
	.fnend
                                        @ -- End function
	.section	.text.spi_struct_para_init,"ax",%progbits
	.hidden	spi_struct_para_init            @ -- Begin function spi_struct_para_init
	.globl	spi_struct_para_init
	.p2align	1
	.type	spi_struct_para_init,%function
	.code	16                              @ @spi_struct_para_init
	.thumb_func
spi_struct_para_init:
.Lfunc_begin1:
	.loc	4 87 0 is_stmt 1                @ ../std/GD32C2x1_Firmware_Library/GD32C2x1_standard_peripheral/Source/gd32c2x1_spi.c:87:0
	.fnstart
	.cfi_startproc
@ %bb.0:
	.pad	#4
	sub	sp, #4
	.cfi_def_cfa_offset 4
	str	r0, [sp]
.Ltmp4:
	.loc	4 96 9 prologue_end             @ ../std/GD32C2x1_Firmware_Library/GD32C2x1_standard_peripheral/Source/gd32c2x1_spi.c:96:9
	ldr	r1, [sp]
	movs	r0, #0
	.loc	4 96 42 is_stmt 0               @ ../std/GD32C2x1_Firmware_Library/GD32C2x1_standard_peripheral/Source/gd32c2x1_spi.c:96:42
	str	r0, [r1]
	.loc	4 97 9 is_stmt 1                @ ../std/GD32C2x1_Firmware_Library/GD32C2x1_standard_peripheral/Source/gd32c2x1_spi.c:97:9
	ldr	r1, [sp]
	.loc	4 97 42 is_stmt 0               @ ../std/GD32C2x1_Firmware_Library/GD32C2x1_standard_peripheral/Source/gd32c2x1_spi.c:97:42
	str	r0, [r1, #4]
	.loc	4 98 9 is_stmt 1                @ ../std/GD32C2x1_Firmware_Library/GD32C2x1_standard_peripheral/Source/gd32c2x1_spi.c:98:9
	ldr	r2, [sp]
	movw	r1, #1792
	.loc	4 98 42 is_stmt 0               @ ../std/GD32C2x1_Firmware_Library/GD32C2x1_standard_peripheral/Source/gd32c2x1_spi.c:98:42
	str	r1, [r2, #8]
	.loc	4 99 9 is_stmt 1                @ ../std/GD32C2x1_Firmware_Library/GD32C2x1_standard_peripheral/Source/gd32c2x1_spi.c:99:9
	ldr	r1, [sp]
	.loc	4 99 42 is_stmt 0               @ ../std/GD32C2x1_Firmware_Library/GD32C2x1_standard_peripheral/Source/gd32c2x1_spi.c:99:42
	str	r0, [r1, #12]
	.loc	4 100 9 is_stmt 1               @ ../std/GD32C2x1_Firmware_Library/GD32C2x1_standard_peripheral/Source/gd32c2x1_spi.c:100:9
	ldr	r1, [sp]
	.loc	4 100 42 is_stmt 0              @ ../std/GD32C2x1_Firmware_Library/GD32C2x1_standard_peripheral/Source/gd32c2x1_spi.c:100:42
	str	r0, [r1, #20]
	.loc	4 101 9 is_stmt 1               @ ../std/GD32C2x1_Firmware_Library/GD32C2x1_standard_peripheral/Source/gd32c2x1_spi.c:101:9
	ldr	r1, [sp]
	.loc	4 101 42 is_stmt 0              @ ../std/GD32C2x1_Firmware_Library/GD32C2x1_standard_peripheral/Source/gd32c2x1_spi.c:101:42
	str	r0, [r1, #24]
	.loc	4 102 9 is_stmt 1               @ ../std/GD32C2x1_Firmware_Library/GD32C2x1_standard_peripheral/Source/gd32c2x1_spi.c:102:9
	ldr	r1, [sp]
	.loc	4 102 42 is_stmt 0              @ ../std/GD32C2x1_Firmware_Library/GD32C2x1_standard_peripheral/Source/gd32c2x1_spi.c:102:42
	str	r0, [r1, #16]
.Ltmp5:
	.loc	4 104 1 is_stmt 1               @ ../std/GD32C2x1_Firmware_Library/GD32C2x1_standard_peripheral/Source/gd32c2x1_spi.c:104:1
	add	sp, #4
	bx	lr
.Ltmp6:
.Lfunc_end1:
	.size	spi_struct_para_init, .Lfunc_end1-spi_struct_para_init
	.cfi_endproc
	.cantunwind
	.fnend
                                        @ -- End function
	.section	.text.spi_init,"ax",%progbits
	.hidden	spi_init                        @ -- Begin function spi_init
	.globl	spi_init
	.p2align	2
	.type	spi_init,%function
	.code	16                              @ @spi_init
	.thumb_func
spi_init:
.Lfunc_begin2:
	.loc	4 130 0                         @ ../std/GD32C2x1_Firmware_Library/GD32C2x1_standard_peripheral/Source/gd32c2x1_spi.c:130:0
	.fnstart
	.cfi_startproc
@ %bb.0:
	.pad	#24
	sub	sp, #24
	.cfi_def_cfa_offset 24
	str	r0, [sp, #20]
	str	r1, [sp, #16]
	add	r1, sp, #12
	movs	r0, #1
.Ltmp7:
	.loc	4 131 15 prologue_end           @ ../std/GD32C2x1_Firmware_Library/GD32C2x1_standard_peripheral/Source/gd32c2x1_spi.c:131:15
	strb	r0, [r1]
.Ltmp8:
	.loc	4 142 16                        @ ../std/GD32C2x1_Firmware_Library/GD32C2x1_standard_peripheral/Source/gd32c2x1_spi.c:142:16
	ldr	r0, [sp, #20]
	ldr	r0, [r0]
	.loc	4 142 14 is_stmt 0              @ ../std/GD32C2x1_Firmware_Library/GD32C2x1_standard_peripheral/Source/gd32c2x1_spi.c:142:14
	str	r0, [sp, #8]
	.loc	4 143 14 is_stmt 1              @ ../std/GD32C2x1_Firmware_Library/GD32C2x1_standard_peripheral/Source/gd32c2x1_spi.c:143:14
	ldr	r0, [sp, #8]
	movw	r1, #12352
	ands	r0, r1
	str	r0, [sp, #8]
	.loc	4 145 16                        @ ../std/GD32C2x1_Firmware_Library/GD32C2x1_standard_peripheral/Source/gd32c2x1_spi.c:145:16
	ldr	r0, [sp, #20]
	ldr	r0, [r0]
	.loc	4 145 14 is_stmt 0              @ ../std/GD32C2x1_Firmware_Library/GD32C2x1_standard_peripheral/Source/gd32c2x1_spi.c:145:14
	str	r0, [sp, #4]
	.loc	4 146 14 is_stmt 1              @ ../std/GD32C2x1_Firmware_Library/GD32C2x1_standard_peripheral/Source/gd32c2x1_spi.c:146:14
	ldr	r0, [sp, #4]
	movw	r1, #14400
	ands	r0, r1
	str	r0, [sp, #4]
	.loc	4 148 16                        @ ../std/GD32C2x1_Firmware_Library/GD32C2x1_standard_peripheral/Source/gd32c2x1_spi.c:148:16
	ldr	r0, [sp, #20]
	ldr	r0, [r0, #4]
	.loc	4 148 14 is_stmt 0              @ ../std/GD32C2x1_Firmware_Library/GD32C2x1_standard_peripheral/Source/gd32c2x1_spi.c:148:14
	str	r0, [sp]
	.loc	4 149 14 is_stmt 1              @ ../std/GD32C2x1_Firmware_Library/GD32C2x1_standard_peripheral/Source/gd32c2x1_spi.c:149:14
	ldr	r0, [sp]
	ldr	r1, __arm_cp.2_0
	ands	r0, r1
	str	r0, [sp]
.Ltmp9:
	.loc	4 151 20                        @ ../std/GD32C2x1_Firmware_Library/GD32C2x1_standard_peripheral/Source/gd32c2x1_spi.c:151:20
	ldr	r0, [sp, #20]
	ldr	r1, __arm_cp.2_1
.Ltmp10:
	.loc	4 151 12 is_stmt 0              @ ../std/GD32C2x1_Firmware_Library/GD32C2x1_standard_peripheral/Source/gd32c2x1_spi.c:151:12
	cmp	r0, r1
	bne	.LBB2_6
	b	.LBB2_1
.LBB2_1:
.Ltmp11:
	.loc	4 153 22 is_stmt 1              @ ../std/GD32C2x1_Firmware_Library/GD32C2x1_standard_peripheral/Source/gd32c2x1_spi.c:153:22
	ldr	r0, [sp, #16]
	.loc	4 153 34 is_stmt 0              @ ../std/GD32C2x1_Firmware_Library/GD32C2x1_standard_peripheral/Source/gd32c2x1_spi.c:153:34
	ldr	r1, [r0]
	movw	r0, #260
	.loc	4 153 46                        @ ../std/GD32C2x1_Firmware_Library/GD32C2x1_standard_peripheral/Source/gd32c2x1_spi.c:153:46
	ands	r1, r0
	.loc	4 153 18                        @ ../std/GD32C2x1_Firmware_Library/GD32C2x1_standard_peripheral/Source/gd32c2x1_spi.c:153:18
	ldr	r0, [sp, #8]
	orrs	r0, r1
	str	r0, [sp, #8]
	.loc	4 155 22 is_stmt 1              @ ../std/GD32C2x1_Firmware_Library/GD32C2x1_standard_peripheral/Source/gd32c2x1_spi.c:155:22
	ldr	r0, [sp, #16]
	.loc	4 155 34 is_stmt 0              @ ../std/GD32C2x1_Firmware_Library/GD32C2x1_standard_peripheral/Source/gd32c2x1_spi.c:155:34
	ldr	r1, [r0, #4]
	movw	r0, #50176
	.loc	4 155 45                        @ ../std/GD32C2x1_Firmware_Library/GD32C2x1_standard_peripheral/Source/gd32c2x1_spi.c:155:45
	ands	r1, r0
	.loc	4 155 18                        @ ../std/GD32C2x1_Firmware_Library/GD32C2x1_standard_peripheral/Source/gd32c2x1_spi.c:155:18
	ldr	r0, [sp, #8]
	orrs	r0, r1
	str	r0, [sp, #8]
	.loc	4 157 22 is_stmt 1              @ ../std/GD32C2x1_Firmware_Library/GD32C2x1_standard_peripheral/Source/gd32c2x1_spi.c:157:22
	ldr	r0, [sp, #16]
	.loc	4 157 34 is_stmt 0              @ ../std/GD32C2x1_Firmware_Library/GD32C2x1_standard_peripheral/Source/gd32c2x1_spi.c:157:34
	ldr	r1, [r0, #12]
	movw	r0, #512
	.loc	4 157 38                        @ ../std/GD32C2x1_Firmware_Library/GD32C2x1_standard_peripheral/Source/gd32c2x1_spi.c:157:38
	ands	r1, r0
	.loc	4 157 18                        @ ../std/GD32C2x1_Firmware_Library/GD32C2x1_standard_peripheral/Source/gd32c2x1_spi.c:157:18
	ldr	r0, [sp, #8]
	orrs	r0, r1
	str	r0, [sp, #8]
	.loc	4 159 22 is_stmt 1              @ ../std/GD32C2x1_Firmware_Library/GD32C2x1_standard_peripheral/Source/gd32c2x1_spi.c:159:22
	ldr	r0, [sp, #16]
	.loc	4 159 34 is_stmt 0              @ ../std/GD32C2x1_Firmware_Library/GD32C2x1_standard_peripheral/Source/gd32c2x1_spi.c:159:34
	ldr	r1, [r0, #16]
	movs	r0, #128
	.loc	4 159 41                        @ ../std/GD32C2x1_Firmware_Library/GD32C2x1_standard_peripheral/Source/gd32c2x1_spi.c:159:41
	ands	r1, r0
	.loc	4 159 18                        @ ../std/GD32C2x1_Firmware_Library/GD32C2x1_standard_peripheral/Source/gd32c2x1_spi.c:159:18
	ldr	r0, [sp, #8]
	orrs	r0, r1
	str	r0, [sp, #8]
	.loc	4 161 22 is_stmt 1              @ ../std/GD32C2x1_Firmware_Library/GD32C2x1_standard_peripheral/Source/gd32c2x1_spi.c:161:22
	ldr	r0, [sp, #16]
	.loc	4 161 34 is_stmt 0              @ ../std/GD32C2x1_Firmware_Library/GD32C2x1_standard_peripheral/Source/gd32c2x1_spi.c:161:34
	ldr	r1, [r0, #20]
	movs	r0, #3
	.loc	4 161 55                        @ ../std/GD32C2x1_Firmware_Library/GD32C2x1_standard_peripheral/Source/gd32c2x1_spi.c:161:55
	ands	r1, r0
	.loc	4 161 18                        @ ../std/GD32C2x1_Firmware_Library/GD32C2x1_standard_peripheral/Source/gd32c2x1_spi.c:161:18
	ldr	r0, [sp, #8]
	orrs	r0, r1
	str	r0, [sp, #8]
	.loc	4 163 22 is_stmt 1              @ ../std/GD32C2x1_Firmware_Library/GD32C2x1_standard_peripheral/Source/gd32c2x1_spi.c:163:22
	ldr	r0, [sp, #16]
	.loc	4 163 34 is_stmt 0              @ ../std/GD32C2x1_Firmware_Library/GD32C2x1_standard_peripheral/Source/gd32c2x1_spi.c:163:34
	ldr	r1, [r0, #24]
	movs	r0, #56
	.loc	4 163 43                        @ ../std/GD32C2x1_Firmware_Library/GD32C2x1_standard_peripheral/Source/gd32c2x1_spi.c:163:43
	ands	r1, r0
	.loc	4 163 18                        @ ../std/GD32C2x1_Firmware_Library/GD32C2x1_standard_peripheral/Source/gd32c2x1_spi.c:163:18
	ldr	r0, [sp, #8]
	orrs	r0, r1
	str	r0, [sp, #8]
.Ltmp12:
	.loc	4 166 39 is_stmt 1              @ ../std/GD32C2x1_Firmware_Library/GD32C2x1_standard_peripheral/Source/gd32c2x1_spi.c:166:39
	ldr	r0, [sp, #16]
	.loc	4 166 51 is_stmt 0              @ ../std/GD32C2x1_Firmware_Library/GD32C2x1_standard_peripheral/Source/gd32c2x1_spi.c:166:51
	ldr	r0, [r0, #8]
	movw	r1, #1792
	.loc	4 166 63                        @ ../std/GD32C2x1_Firmware_Library/GD32C2x1_standard_peripheral/Source/gd32c2x1_spi.c:166:63
	cmp	r0, r1
	beq	.LBB2_4
	b	.LBB2_2
.LBB2_2:
	.loc	4 166 90                        @ ../std/GD32C2x1_Firmware_Library/GD32C2x1_standard_peripheral/Source/gd32c2x1_spi.c:166:90
	ldr	r0, [sp, #16]
	.loc	4 166 102                       @ ../std/GD32C2x1_Firmware_Library/GD32C2x1_standard_peripheral/Source/gd32c2x1_spi.c:166:102
	ldr	r0, [r0, #8]
	movw	r1, #3840
.Ltmp13:
	.loc	4 166 16                        @ ../std/GD32C2x1_Firmware_Library/GD32C2x1_standard_peripheral/Source/gd32c2x1_spi.c:166:16
	cmp	r0, r1
	beq	.LBB2_4
	b	.LBB2_3
.LBB2_3:
	.loc	4 0 16                          @ ../std/GD32C2x1_Firmware_Library/GD32C2x1_standard_peripheral/Source/gd32c2x1_spi.c:0:16
	add	r1, sp, #12
	movs	r0, #0
.Ltmp14:
	.loc	4 167 23 is_stmt 1              @ ../std/GD32C2x1_Firmware_Library/GD32C2x1_standard_peripheral/Source/gd32c2x1_spi.c:167:23
	strb	r0, [r1]
	.loc	4 168 13                        @ ../std/GD32C2x1_Firmware_Library/GD32C2x1_standard_peripheral/Source/gd32c2x1_spi.c:168:13
	b	.LBB2_5
.Ltmp15:
.LBB2_4:
	.loc	4 169 36                        @ ../std/GD32C2x1_Firmware_Library/GD32C2x1_standard_peripheral/Source/gd32c2x1_spi.c:169:36
	ldr	r0, [sp, #16]
	.loc	4 169 48 is_stmt 0              @ ../std/GD32C2x1_Firmware_Library/GD32C2x1_standard_peripheral/Source/gd32c2x1_spi.c:169:48
	ldr	r1, [r0, #8]
	movw	r0, #2048
	.loc	4 169 59                        @ ../std/GD32C2x1_Firmware_Library/GD32C2x1_standard_peripheral/Source/gd32c2x1_spi.c:169:59
	ands	r1, r0
	.loc	4 169 22                        @ ../std/GD32C2x1_Firmware_Library/GD32C2x1_standard_peripheral/Source/gd32c2x1_spi.c:169:22
	ldr	r0, [sp, #8]
	orrs	r0, r1
	str	r0, [sp, #8]
	b	.LBB2_5
.Ltmp16:
.LBB2_5:
	.loc	4 173 46 is_stmt 1              @ ../std/GD32C2x1_Firmware_Library/GD32C2x1_standard_peripheral/Source/gd32c2x1_spi.c:173:46
	ldr	r0, [sp, #8]
	.loc	4 173 13 is_stmt 0              @ ../std/GD32C2x1_Firmware_Library/GD32C2x1_standard_peripheral/Source/gd32c2x1_spi.c:173:13
	ldr	r1, [sp, #20]
	.loc	4 173 34                        @ ../std/GD32C2x1_Firmware_Library/GD32C2x1_standard_peripheral/Source/gd32c2x1_spi.c:173:34
	str	r0, [r1]
	.loc	4 175 9 is_stmt 1               @ ../std/GD32C2x1_Firmware_Library/GD32C2x1_standard_peripheral/Source/gd32c2x1_spi.c:175:9
	b	.LBB2_7
.Ltmp17:
.LBB2_6:
	.loc	4 177 22                        @ ../std/GD32C2x1_Firmware_Library/GD32C2x1_standard_peripheral/Source/gd32c2x1_spi.c:177:22
	ldr	r0, [sp, #16]
	.loc	4 177 34 is_stmt 0              @ ../std/GD32C2x1_Firmware_Library/GD32C2x1_standard_peripheral/Source/gd32c2x1_spi.c:177:34
	ldr	r1, [r0]
	movw	r0, #260
	.loc	4 177 46                        @ ../std/GD32C2x1_Firmware_Library/GD32C2x1_standard_peripheral/Source/gd32c2x1_spi.c:177:46
	ands	r1, r0
	.loc	4 177 18                        @ ../std/GD32C2x1_Firmware_Library/GD32C2x1_standard_peripheral/Source/gd32c2x1_spi.c:177:18
	ldr	r0, [sp, #4]
	orrs	r0, r1
	str	r0, [sp, #4]
	.loc	4 179 22 is_stmt 1              @ ../std/GD32C2x1_Firmware_Library/GD32C2x1_standard_peripheral/Source/gd32c2x1_spi.c:179:22
	ldr	r0, [sp, #16]
	.loc	4 179 34 is_stmt 0              @ ../std/GD32C2x1_Firmware_Library/GD32C2x1_standard_peripheral/Source/gd32c2x1_spi.c:179:34
	ldr	r1, [r0, #4]
	movw	r0, #50176
	.loc	4 179 45                        @ ../std/GD32C2x1_Firmware_Library/GD32C2x1_standard_peripheral/Source/gd32c2x1_spi.c:179:45
	ands	r1, r0
	.loc	4 179 18                        @ ../std/GD32C2x1_Firmware_Library/GD32C2x1_standard_peripheral/Source/gd32c2x1_spi.c:179:18
	ldr	r0, [sp, #4]
	orrs	r0, r1
	str	r0, [sp, #4]
	.loc	4 181 22 is_stmt 1              @ ../std/GD32C2x1_Firmware_Library/GD32C2x1_standard_peripheral/Source/gd32c2x1_spi.c:181:22
	ldr	r0, [sp, #16]
	.loc	4 181 34 is_stmt 0              @ ../std/GD32C2x1_Firmware_Library/GD32C2x1_standard_peripheral/Source/gd32c2x1_spi.c:181:34
	ldr	r1, [r0, #12]
	movw	r0, #512
	.loc	4 181 38                        @ ../std/GD32C2x1_Firmware_Library/GD32C2x1_standard_peripheral/Source/gd32c2x1_spi.c:181:38
	ands	r1, r0
	.loc	4 181 18                        @ ../std/GD32C2x1_Firmware_Library/GD32C2x1_standard_peripheral/Source/gd32c2x1_spi.c:181:18
	ldr	r0, [sp, #4]
	orrs	r0, r1
	str	r0, [sp, #4]
	.loc	4 183 22 is_stmt 1              @ ../std/GD32C2x1_Firmware_Library/GD32C2x1_standard_peripheral/Source/gd32c2x1_spi.c:183:22
	ldr	r0, [sp, #16]
	.loc	4 183 34 is_stmt 0              @ ../std/GD32C2x1_Firmware_Library/GD32C2x1_standard_peripheral/Source/gd32c2x1_spi.c:183:34
	ldr	r1, [r0, #16]
	movs	r0, #128
	.loc	4 183 41                        @ ../std/GD32C2x1_Firmware_Library/GD32C2x1_standard_peripheral/Source/gd32c2x1_spi.c:183:41
	ands	r1, r0
	.loc	4 183 18                        @ ../std/GD32C2x1_Firmware_Library/GD32C2x1_standard_peripheral/Source/gd32c2x1_spi.c:183:18
	ldr	r0, [sp, #4]
	orrs	r0, r1
	str	r0, [sp, #4]
	.loc	4 185 22 is_stmt 1              @ ../std/GD32C2x1_Firmware_Library/GD32C2x1_standard_peripheral/Source/gd32c2x1_spi.c:185:22
	ldr	r0, [sp, #16]
	.loc	4 185 34 is_stmt 0              @ ../std/GD32C2x1_Firmware_Library/GD32C2x1_standard_peripheral/Source/gd32c2x1_spi.c:185:34
	ldr	r1, [r0, #20]
	movs	r0, #3
	.loc	4 185 55                        @ ../std/GD32C2x1_Firmware_Library/GD32C2x1_standard_peripheral/Source/gd32c2x1_spi.c:185:55
	ands	r1, r0
	.loc	4 185 18                        @ ../std/GD32C2x1_Firmware_Library/GD32C2x1_standard_peripheral/Source/gd32c2x1_spi.c:185:18
	ldr	r0, [sp, #4]
	orrs	r0, r1
	str	r0, [sp, #4]
	.loc	4 187 22 is_stmt 1              @ ../std/GD32C2x1_Firmware_Library/GD32C2x1_standard_peripheral/Source/gd32c2x1_spi.c:187:22
	ldr	r0, [sp, #16]
	.loc	4 187 34 is_stmt 0              @ ../std/GD32C2x1_Firmware_Library/GD32C2x1_standard_peripheral/Source/gd32c2x1_spi.c:187:34
	ldr	r1, [r0, #24]
	movs	r0, #56
	.loc	4 187 43                        @ ../std/GD32C2x1_Firmware_Library/GD32C2x1_standard_peripheral/Source/gd32c2x1_spi.c:187:43
	ands	r1, r0
	.loc	4 187 18                        @ ../std/GD32C2x1_Firmware_Library/GD32C2x1_standard_peripheral/Source/gd32c2x1_spi.c:187:18
	ldr	r0, [sp, #4]
	orrs	r0, r1
	str	r0, [sp, #4]
	.loc	4 189 46 is_stmt 1              @ ../std/GD32C2x1_Firmware_Library/GD32C2x1_standard_peripheral/Source/gd32c2x1_spi.c:189:46
	ldr	r0, [sp, #4]
	.loc	4 189 13 is_stmt 0              @ ../std/GD32C2x1_Firmware_Library/GD32C2x1_standard_peripheral/Source/gd32c2x1_spi.c:189:13
	ldr	r1, [sp, #20]
	.loc	4 189 34                        @ ../std/GD32C2x1_Firmware_Library/GD32C2x1_standard_peripheral/Source/gd32c2x1_spi.c:189:34
	str	r0, [r1]
	.loc	4 192 32 is_stmt 1              @ ../std/GD32C2x1_Firmware_Library/GD32C2x1_standard_peripheral/Source/gd32c2x1_spi.c:192:32
	ldr	r0, [sp, #16]
	.loc	4 192 44 is_stmt 0              @ ../std/GD32C2x1_Firmware_Library/GD32C2x1_standard_peripheral/Source/gd32c2x1_spi.c:192:44
	ldr	r1, [r0, #8]
	movw	r0, #3840
	.loc	4 192 55                        @ ../std/GD32C2x1_Firmware_Library/GD32C2x1_standard_peripheral/Source/gd32c2x1_spi.c:192:55
	ands	r1, r0
	.loc	4 192 18                        @ ../std/GD32C2x1_Firmware_Library/GD32C2x1_standard_peripheral/Source/gd32c2x1_spi.c:192:18
	ldr	r0, [sp]
	orrs	r0, r1
	str	r0, [sp]
	.loc	4 194 46 is_stmt 1              @ ../std/GD32C2x1_Firmware_Library/GD32C2x1_standard_peripheral/Source/gd32c2x1_spi.c:194:46
	ldr	r0, [sp]
	.loc	4 194 13 is_stmt 0              @ ../std/GD32C2x1_Firmware_Library/GD32C2x1_standard_peripheral/Source/gd32c2x1_spi.c:194:13
	ldr	r1, [sp, #20]
	.loc	4 194 34                        @ ../std/GD32C2x1_Firmware_Library/GD32C2x1_standard_peripheral/Source/gd32c2x1_spi.c:194:34
	str	r0, [r1, #4]
	b	.LBB2_7
.Ltmp18:
.LBB2_7:
	.loc	4 198 5 is_stmt 1               @ ../std/GD32C2x1_Firmware_Library/GD32C2x1_standard_peripheral/Source/gd32c2x1_spi.c:198:5
	ldr	r1, [sp, #20]
	.loc	4 198 28 is_stmt 0              @ ../std/GD32C2x1_Firmware_Library/GD32C2x1_standard_peripheral/Source/gd32c2x1_spi.c:198:28
	ldr	r0, [r1, #28]
	movw	r2, #2048
	bics	r0, r2
	str	r0, [r1, #28]
	add	r0, sp, #12
	.loc	4 199 12 is_stmt 1              @ ../std/GD32C2x1_Firmware_Library/GD32C2x1_standard_peripheral/Source/gd32c2x1_spi.c:199:12
	ldrb	r0, [r0]
	.loc	4 199 5 is_stmt 0               @ ../std/GD32C2x1_Firmware_Library/GD32C2x1_standard_peripheral/Source/gd32c2x1_spi.c:199:5
	add	sp, #24
	bx	lr
.Ltmp19:
	.p2align	2
@ %bb.8:
	.loc	4 0 5                           @ ../std/GD32C2x1_Firmware_Library/GD32C2x1_standard_peripheral/Source/gd32c2x1_spi.c:0:5
__arm_cp.2_0:
	.long	61695                           @ 0xf0ff
.Lcpi_end4:
	.size	__arm_cp.2_0, .Lcpi_end4-__arm_cp.2_0
__arm_cp.2_1:
	.long	1073819648                      @ 0x40013000
.Lcpi_end5:
	.size	__arm_cp.2_1, .Lcpi_end5-__arm_cp.2_1
.Lfunc_end2:
	.size	spi_init, .Lfunc_end2-spi_init
	.cfi_endproc
	.cantunwind
	.fnend
                                        @ -- End function
	.section	.text.spi_enable,"ax",%progbits
	.hidden	spi_enable                      @ -- Begin function spi_enable
	.globl	spi_enable
	.p2align	1
	.type	spi_enable,%function
	.code	16                              @ @spi_enable
	.thumb_func
spi_enable:
.Lfunc_begin3:
	.loc	4 209 0 is_stmt 1               @ ../std/GD32C2x1_Firmware_Library/GD32C2x1_standard_peripheral/Source/gd32c2x1_spi.c:209:0
	.fnstart
	.cfi_startproc
@ %bb.0:
	.pad	#4
	sub	sp, #4
	.cfi_def_cfa_offset 4
	str	r0, [sp]
.Ltmp20:
	.loc	4 210 5 prologue_end            @ ../std/GD32C2x1_Firmware_Library/GD32C2x1_standard_peripheral/Source/gd32c2x1_spi.c:210:5
	ldr	r1, [sp]
	.loc	4 210 26 is_stmt 0              @ ../std/GD32C2x1_Firmware_Library/GD32C2x1_standard_peripheral/Source/gd32c2x1_spi.c:210:26
	ldr	r0, [r1]
	movs	r2, #64
	orrs	r0, r2
	str	r0, [r1]
	.loc	4 211 1 is_stmt 1               @ ../std/GD32C2x1_Firmware_Library/GD32C2x1_standard_peripheral/Source/gd32c2x1_spi.c:211:1
	add	sp, #4
	bx	lr
.Ltmp21:
.Lfunc_end3:
	.size	spi_enable, .Lfunc_end3-spi_enable
	.cfi_endproc
	.cantunwind
	.fnend
                                        @ -- End function
	.section	.text.spi_disable,"ax",%progbits
	.hidden	spi_disable                     @ -- Begin function spi_disable
	.globl	spi_disable
	.p2align	1
	.type	spi_disable,%function
	.code	16                              @ @spi_disable
	.thumb_func
spi_disable:
.Lfunc_begin4:
	.loc	4 220 0                         @ ../std/GD32C2x1_Firmware_Library/GD32C2x1_standard_peripheral/Source/gd32c2x1_spi.c:220:0
	.fnstart
	.cfi_startproc
@ %bb.0:
	.pad	#4
	sub	sp, #4
	.cfi_def_cfa_offset 4
	str	r0, [sp]
.Ltmp22:
	.loc	4 221 5 prologue_end            @ ../std/GD32C2x1_Firmware_Library/GD32C2x1_standard_peripheral/Source/gd32c2x1_spi.c:221:5
	ldr	r1, [sp]
	.loc	4 221 26 is_stmt 0              @ ../std/GD32C2x1_Firmware_Library/GD32C2x1_standard_peripheral/Source/gd32c2x1_spi.c:221:26
	ldr	r0, [r1]
	movs	r2, #64
	bics	r0, r2
	str	r0, [r1]
	.loc	4 222 1 is_stmt 1               @ ../std/GD32C2x1_Firmware_Library/GD32C2x1_standard_peripheral/Source/gd32c2x1_spi.c:222:1
	add	sp, #4
	bx	lr
.Ltmp23:
.Lfunc_end4:
	.size	spi_disable, .Lfunc_end4-spi_disable
	.cfi_endproc
	.cantunwind
	.fnend
                                        @ -- End function
	.section	.text.i2s_init,"ax",%progbits
	.hidden	i2s_init                        @ -- Begin function i2s_init
	.globl	i2s_init
	.p2align	2
	.type	i2s_init,%function
	.code	16                              @ @i2s_init
	.thumb_func
i2s_init:
.Lfunc_begin5:
	.loc	4 248 0                         @ ../std/GD32C2x1_Firmware_Library/GD32C2x1_standard_peripheral/Source/gd32c2x1_spi.c:248:0
	.fnstart
	.cfi_startproc
@ %bb.0:
	.pad	#20
	sub	sp, #20
	.cfi_def_cfa_offset 20
	str	r0, [sp, #16]
	str	r1, [sp, #12]
	str	r2, [sp, #8]
	str	r3, [sp, #4]
.Ltmp24:
	.loc	4 251 11 prologue_end           @ ../std/GD32C2x1_Firmware_Library/GD32C2x1_standard_peripheral/Source/gd32c2x1_spi.c:251:11
	ldr	r0, [sp, #16]
	ldr	r0, [r0, #28]
	.loc	4 251 9 is_stmt 0               @ ../std/GD32C2x1_Firmware_Library/GD32C2x1_standard_peripheral/Source/gd32c2x1_spi.c:251:9
	str	r0, [sp]
	.loc	4 252 9 is_stmt 1               @ ../std/GD32C2x1_Firmware_Library/GD32C2x1_standard_peripheral/Source/gd32c2x1_spi.c:252:9
	ldr	r0, [sp]
	ldr	r1, __arm_cp.5_0
	ands	r0, r1
	str	r0, [sp]
	.loc	4 255 9                         @ ../std/GD32C2x1_Firmware_Library/GD32C2x1_standard_peripheral/Source/gd32c2x1_spi.c:255:9
	ldr	r0, [sp]
	movw	r1, #2048
	orrs	r0, r1
	str	r0, [sp]
	.loc	4 257 23                        @ ../std/GD32C2x1_Firmware_Library/GD32C2x1_standard_peripheral/Source/gd32c2x1_spi.c:257:23
	ldr	r1, [sp, #12]
	movw	r0, #768
	.loc	4 257 32 is_stmt 0              @ ../std/GD32C2x1_Firmware_Library/GD32C2x1_standard_peripheral/Source/gd32c2x1_spi.c:257:32
	ands	r1, r0
	.loc	4 257 9                         @ ../std/GD32C2x1_Firmware_Library/GD32C2x1_standard_peripheral/Source/gd32c2x1_spi.c:257:9
	ldr	r0, [sp]
	orrs	r0, r1
	str	r0, [sp]
	.loc	4 259 23 is_stmt 1              @ ../std/GD32C2x1_Firmware_Library/GD32C2x1_standard_peripheral/Source/gd32c2x1_spi.c:259:23
	ldr	r1, [sp, #8]
	movs	r0, #176
	.loc	4 259 36 is_stmt 0              @ ../std/GD32C2x1_Firmware_Library/GD32C2x1_standard_peripheral/Source/gd32c2x1_spi.c:259:36
	ands	r1, r0
	.loc	4 259 9                         @ ../std/GD32C2x1_Firmware_Library/GD32C2x1_standard_peripheral/Source/gd32c2x1_spi.c:259:9
	ldr	r0, [sp]
	orrs	r0, r1
	str	r0, [sp]
	.loc	4 261 23 is_stmt 1              @ ../std/GD32C2x1_Firmware_Library/GD32C2x1_standard_peripheral/Source/gd32c2x1_spi.c:261:23
	ldr	r1, [sp, #4]
	movs	r0, #8
	.loc	4 261 32 is_stmt 0              @ ../std/GD32C2x1_Firmware_Library/GD32C2x1_standard_peripheral/Source/gd32c2x1_spi.c:261:32
	ands	r1, r0
	.loc	4 261 9                         @ ../std/GD32C2x1_Firmware_Library/GD32C2x1_standard_peripheral/Source/gd32c2x1_spi.c:261:9
	ldr	r0, [sp]
	orrs	r0, r1
	str	r0, [sp]
	.loc	4 264 40 is_stmt 1              @ ../std/GD32C2x1_Firmware_Library/GD32C2x1_standard_peripheral/Source/gd32c2x1_spi.c:264:40
	ldr	r0, [sp]
	.loc	4 264 5 is_stmt 0               @ ../std/GD32C2x1_Firmware_Library/GD32C2x1_standard_peripheral/Source/gd32c2x1_spi.c:264:5
	ldr	r1, [sp, #16]
	.loc	4 264 28                        @ ../std/GD32C2x1_Firmware_Library/GD32C2x1_standard_peripheral/Source/gd32c2x1_spi.c:264:28
	str	r0, [r1, #28]
	.loc	4 265 1 is_stmt 1               @ ../std/GD32C2x1_Firmware_Library/GD32C2x1_standard_peripheral/Source/gd32c2x1_spi.c:265:1
	add	sp, #20
	bx	lr
.Ltmp25:
	.p2align	2
@ %bb.1:
	.loc	4 0 1 is_stmt 0                 @ ../std/GD32C2x1_Firmware_Library/GD32C2x1_standard_peripheral/Source/gd32c2x1_spi.c:0:1
__arm_cp.5_0:
	.long	61511                           @ 0xf047
.Lcpi_end6:
	.size	__arm_cp.5_0, .Lcpi_end6-__arm_cp.5_0
.Lfunc_end5:
	.size	i2s_init, .Lfunc_end5-i2s_init
	.cfi_endproc
	.cantunwind
	.fnend
                                        @ -- End function
	.section	.text.i2s_psc_config,"ax",%progbits
	.hidden	i2s_psc_config                  @ -- Begin function i2s_psc_config
	.globl	i2s_psc_config
	.p2align	2
	.type	i2s_psc_config,%function
	.code	16                              @ @i2s_psc_config
	.thumb_func
i2s_psc_config:
.Lfunc_begin6:
	.loc	4 296 0 is_stmt 1               @ ../std/GD32C2x1_Firmware_Library/GD32C2x1_standard_peripheral/Source/gd32c2x1_spi.c:296:0
	.fnstart
	.cfi_startproc
@ %bb.0:
	.save	{r7, lr}
	push	{r7, lr}
	.cfi_def_cfa_offset 8
	.cfi_offset lr, -4
	.cfi_offset r7, -8
	.pad	#32
	sub	sp, #32
	.cfi_def_cfa_offset 40
	str	r0, [sp, #28]
	str	r1, [sp, #24]
	str	r2, [sp, #20]
	str	r3, [sp, #16]
.Ltmp26:
	.loc	4 308 9 prologue_end            @ ../std/GD32C2x1_Firmware_Library/GD32C2x1_standard_peripheral/Source/gd32c2x1_spi.c:308:9
	ldr	r1, [sp, #28]
	movs	r0, #2
	.loc	4 308 32 is_stmt 0              @ ../std/GD32C2x1_Firmware_Library/GD32C2x1_standard_peripheral/Source/gd32c2x1_spi.c:308:32
	str	r0, [r1, #32]
	movw	r0, #49152
	.loc	4 311 14 is_stmt 1              @ ../std/GD32C2x1_Firmware_Library/GD32C2x1_standard_peripheral/Source/gd32c2x1_spi.c:311:14
	str	r0, [sp, #4]
	ldr	r0, __arm_cp.6_0
.Ltmp27:
	.loc	4 313 19                        @ ../std/GD32C2x1_Firmware_Library/GD32C2x1_standard_peripheral/Source/gd32c2x1_spi.c:313:19
	ldr	r0, [r0]
	.loc	4 313 30 is_stmt 0              @ ../std/GD32C2x1_Firmware_Library/GD32C2x1_standard_peripheral/Source/gd32c2x1_spi.c:313:30
	ldr	r1, [sp, #4]
.Ltmp28:
	.loc	4 313 12                        @ ../std/GD32C2x1_Firmware_Library/GD32C2x1_standard_peripheral/Source/gd32c2x1_spi.c:313:12
	tst	r0, r1
	beq	.LBB6_8
	b	.LBB6_1
.LBB6_1:
	.loc	4 0 12                          @ ../std/GD32C2x1_Firmware_Library/GD32C2x1_standard_peripheral/Source/gd32c2x1_spi.c:0:12
	ldr	r0, __arm_cp.6_0
.Ltmp29:
	.loc	4 315 32 is_stmt 1              @ ../std/GD32C2x1_Firmware_Library/GD32C2x1_standard_peripheral/Source/gd32c2x1_spi.c:315:32
	ldr	r0, [r0]
	.loc	4 315 41 is_stmt 0              @ ../std/GD32C2x1_Firmware_Library/GD32C2x1_standard_peripheral/Source/gd32c2x1_spi.c:315:41
	uxth	r0, r0
	.loc	4 315 63                        @ ../std/GD32C2x1_Firmware_Library/GD32C2x1_standard_peripheral/Source/gd32c2x1_spi.c:315:63
	lsrs	r0, r0, #12
	.loc	4 315 18                        @ ../std/GD32C2x1_Firmware_Library/GD32C2x1_standard_peripheral/Source/gd32c2x1_spi.c:315:18
	str	r0, [sp, #4]
.Ltmp30:
	.loc	4 317 17 is_stmt 1              @ ../std/GD32C2x1_Firmware_Library/GD32C2x1_standard_peripheral/Source/gd32c2x1_spi.c:317:17
	ldr	r0, [sp, #4]
	.loc	4 317 28 is_stmt 0              @ ../std/GD32C2x1_Firmware_Library/GD32C2x1_standard_peripheral/Source/gd32c2x1_spi.c:317:28
	cmp	r0, #6
	blo	.LBB6_4
	b	.LBB6_2
.LBB6_2:
	.loc	4 317 32                        @ ../std/GD32C2x1_Firmware_Library/GD32C2x1_standard_peripheral/Source/gd32c2x1_spi.c:317:32
	ldr	r0, [sp, #4]
.Ltmp31:
	.loc	4 317 16                        @ ../std/GD32C2x1_Firmware_Library/GD32C2x1_standard_peripheral/Source/gd32c2x1_spi.c:317:16
	cmp	r0, #14
	bhi	.LBB6_4
	b	.LBB6_3
.LBB6_3:
.Ltmp32:
	.loc	4 319 22 is_stmt 1              @ ../std/GD32C2x1_Firmware_Library/GD32C2x1_standard_peripheral/Source/gd32c2x1_spi.c:319:22
	ldr	r0, [sp, #4]
	adds	r0, r0, #2
	str	r0, [sp, #4]
	.loc	4 320 13                        @ ../std/GD32C2x1_Firmware_Library/GD32C2x1_standard_peripheral/Source/gd32c2x1_spi.c:320:13
	b	.LBB6_7
.Ltmp33:
.LBB6_4:
	.loc	4 321 27                        @ ../std/GD32C2x1_Firmware_Library/GD32C2x1_standard_peripheral/Source/gd32c2x1_spi.c:321:27
	ldr	r0, [sp, #4]
.Ltmp34:
	.loc	4 321 20 is_stmt 0              @ ../std/GD32C2x1_Firmware_Library/GD32C2x1_standard_peripheral/Source/gd32c2x1_spi.c:321:20
	cmp	r0, #15
	bne	.LBB6_6
	b	.LBB6_5
.LBB6_5:
	.loc	4 0 20                          @ ../std/GD32C2x1_Firmware_Library/GD32C2x1_standard_peripheral/Source/gd32c2x1_spi.c:0:20
	movs	r0, #20
.Ltmp35:
	.loc	4 323 26 is_stmt 1              @ ../std/GD32C2x1_Firmware_Library/GD32C2x1_standard_peripheral/Source/gd32c2x1_spi.c:323:26
	str	r0, [sp, #4]
	.loc	4 324 17                        @ ../std/GD32C2x1_Firmware_Library/GD32C2x1_standard_peripheral/Source/gd32c2x1_spi.c:324:17
	b	.LBB6_6
.Ltmp36:
.LBB6_6:
	.loc	4 0 17 is_stmt 0                @ ../std/GD32C2x1_Firmware_Library/GD32C2x1_standard_peripheral/Source/gd32c2x1_spi.c:0:17
	b	.LBB6_7
.LBB6_7:
	ldr	r0, __arm_cp.6_0
	.loc	4 328 37 is_stmt 1              @ ../std/GD32C2x1_Firmware_Library/GD32C2x1_standard_peripheral/Source/gd32c2x1_spi.c:328:37
	ldr	r0, [r0]
	.loc	4 328 46 is_stmt 0              @ ../std/GD32C2x1_Firmware_Library/GD32C2x1_standard_peripheral/Source/gd32c2x1_spi.c:328:46
	uxtb	r0, r0
	.loc	4 328 68                        @ ../std/GD32C2x1_Firmware_Library/GD32C2x1_standard_peripheral/Source/gd32c2x1_spi.c:328:68
	lsrs	r0, r0, #4
	.loc	4 328 75                        @ ../std/GD32C2x1_Firmware_Library/GD32C2x1_standard_peripheral/Source/gd32c2x1_spi.c:328:75
	adds	r0, r0, #1
	.loc	4 328 22                        @ ../std/GD32C2x1_Firmware_Library/GD32C2x1_standard_peripheral/Source/gd32c2x1_spi.c:328:22
	str	r0, [sp]
	.loc	4 330 50 is_stmt 1              @ ../std/GD32C2x1_Firmware_Library/GD32C2x1_standard_peripheral/Source/gd32c2x1_spi.c:330:50
	ldr	r1, [sp]
	ldr	r0, __arm_cp.6_1
	.loc	4 330 48 is_stmt 0              @ ../std/GD32C2x1_Firmware_Library/GD32C2x1_standard_peripheral/Source/gd32c2x1_spi.c:330:48
	udiv	r1, r0, r1
	.loc	4 330 62                        @ ../std/GD32C2x1_Firmware_Library/GD32C2x1_standard_peripheral/Source/gd32c2x1_spi.c:330:62
	ldr	r0, [sp, #4]
	.loc	4 330 60                        @ ../std/GD32C2x1_Firmware_Library/GD32C2x1_standard_peripheral/Source/gd32c2x1_spi.c:330:60
	muls	r0, r1, r0
	.loc	4 330 67                        @ ../std/GD32C2x1_Firmware_Library/GD32C2x1_standard_peripheral/Source/gd32c2x1_spi.c:330:67
	lsls	r0, r0, #1
	.loc	4 330 22                        @ ../std/GD32C2x1_Firmware_Library/GD32C2x1_standard_peripheral/Source/gd32c2x1_spi.c:330:22
	str	r0, [sp]
	.loc	4 331 9 is_stmt 1               @ ../std/GD32C2x1_Firmware_Library/GD32C2x1_standard_peripheral/Source/gd32c2x1_spi.c:331:9
	b	.LBB6_9
.Ltmp37:
.LBB6_8:
	.loc	4 0 9 is_stmt 0                 @ ../std/GD32C2x1_Firmware_Library/GD32C2x1_standard_peripheral/Source/gd32c2x1_spi.c:0:9
	movs	r0, #0
.Ltmp38:
	.loc	4 333 24 is_stmt 1              @ ../std/GD32C2x1_Firmware_Library/GD32C2x1_standard_peripheral/Source/gd32c2x1_spi.c:333:24
	bl	rcu_clock_freq_get
	.loc	4 333 22 is_stmt 0              @ ../std/GD32C2x1_Firmware_Library/GD32C2x1_standard_peripheral/Source/gd32c2x1_spi.c:333:22
	str	r0, [sp]
	b	.LBB6_9
.Ltmp39:
.LBB6_9:
	.loc	4 337 33 is_stmt 1              @ ../std/GD32C2x1_Firmware_Library/GD32C2x1_standard_peripheral/Source/gd32c2x1_spi.c:337:33
	ldr	r0, [sp, #16]
	movw	r1, #512
.Ltmp40:
	.loc	4 337 12 is_stmt 0              @ ../std/GD32C2x1_Firmware_Library/GD32C2x1_standard_peripheral/Source/gd32c2x1_spi.c:337:12
	cmp	r0, r1
	bne	.LBB6_11
	b	.LBB6_10
.LBB6_10:
.Ltmp41:
	.loc	4 338 33 is_stmt 1              @ ../std/GD32C2x1_Firmware_Library/GD32C2x1_standard_peripheral/Source/gd32c2x1_spi.c:338:33
	ldr	r0, [sp]
	.loc	4 338 42 is_stmt 0              @ ../std/GD32C2x1_Firmware_Library/GD32C2x1_standard_peripheral/Source/gd32c2x1_spi.c:338:42
	lsrs	r1, r0, #8
	movs	r0, #10
	.loc	4 338 50                        @ ../std/GD32C2x1_Firmware_Library/GD32C2x1_standard_peripheral/Source/gd32c2x1_spi.c:338:50
	muls	r0, r1, r0
	.loc	4 338 59                        @ ../std/GD32C2x1_Firmware_Library/GD32C2x1_standard_peripheral/Source/gd32c2x1_spi.c:338:59
	ldr	r1, [sp, #24]
	.loc	4 338 57                        @ ../std/GD32C2x1_Firmware_Library/GD32C2x1_standard_peripheral/Source/gd32c2x1_spi.c:338:57
	udiv	r0, r0, r1
	.loc	4 338 18                        @ ../std/GD32C2x1_Firmware_Library/GD32C2x1_standard_peripheral/Source/gd32c2x1_spi.c:338:18
	str	r0, [sp, #4]
	.loc	4 339 9 is_stmt 1               @ ../std/GD32C2x1_Firmware_Library/GD32C2x1_standard_peripheral/Source/gd32c2x1_spi.c:339:9
	b	.LBB6_15
.Ltmp42:
.LBB6_11:
	.loc	4 340 47                        @ ../std/GD32C2x1_Firmware_Library/GD32C2x1_standard_peripheral/Source/gd32c2x1_spi.c:340:47
	ldr	r0, [sp, #20]
.Ltmp43:
	.loc	4 340 16 is_stmt 0              @ ../std/GD32C2x1_Firmware_Library/GD32C2x1_standard_peripheral/Source/gd32c2x1_spi.c:340:16
	cbnz	r0, .LBB6_13
	b	.LBB6_12
.LBB6_12:
.Ltmp44:
	.loc	4 341 37 is_stmt 1              @ ../std/GD32C2x1_Firmware_Library/GD32C2x1_standard_peripheral/Source/gd32c2x1_spi.c:341:37
	ldr	r0, [sp]
	.loc	4 341 46 is_stmt 0              @ ../std/GD32C2x1_Firmware_Library/GD32C2x1_standard_peripheral/Source/gd32c2x1_spi.c:341:46
	lsrs	r1, r0, #5
	movs	r0, #10
	.loc	4 341 53                        @ ../std/GD32C2x1_Firmware_Library/GD32C2x1_standard_peripheral/Source/gd32c2x1_spi.c:341:53
	muls	r0, r1, r0
	.loc	4 341 62                        @ ../std/GD32C2x1_Firmware_Library/GD32C2x1_standard_peripheral/Source/gd32c2x1_spi.c:341:62
	ldr	r1, [sp, #24]
	.loc	4 341 60                        @ ../std/GD32C2x1_Firmware_Library/GD32C2x1_standard_peripheral/Source/gd32c2x1_spi.c:341:60
	udiv	r0, r0, r1
	.loc	4 341 22                        @ ../std/GD32C2x1_Firmware_Library/GD32C2x1_standard_peripheral/Source/gd32c2x1_spi.c:341:22
	str	r0, [sp, #4]
	.loc	4 342 13 is_stmt 1              @ ../std/GD32C2x1_Firmware_Library/GD32C2x1_standard_peripheral/Source/gd32c2x1_spi.c:342:13
	b	.LBB6_14
.Ltmp45:
.LBB6_13:
	.loc	4 343 37                        @ ../std/GD32C2x1_Firmware_Library/GD32C2x1_standard_peripheral/Source/gd32c2x1_spi.c:343:37
	ldr	r0, [sp]
	.loc	4 343 46 is_stmt 0              @ ../std/GD32C2x1_Firmware_Library/GD32C2x1_standard_peripheral/Source/gd32c2x1_spi.c:343:46
	lsrs	r1, r0, #6
	movs	r0, #10
	.loc	4 343 53                        @ ../std/GD32C2x1_Firmware_Library/GD32C2x1_standard_peripheral/Source/gd32c2x1_spi.c:343:53
	muls	r0, r1, r0
	.loc	4 343 62                        @ ../std/GD32C2x1_Firmware_Library/GD32C2x1_standard_peripheral/Source/gd32c2x1_spi.c:343:62
	ldr	r1, [sp, #24]
	.loc	4 343 60                        @ ../std/GD32C2x1_Firmware_Library/GD32C2x1_standard_peripheral/Source/gd32c2x1_spi.c:343:60
	udiv	r0, r0, r1
	.loc	4 343 22                        @ ../std/GD32C2x1_Firmware_Library/GD32C2x1_standard_peripheral/Source/gd32c2x1_spi.c:343:22
	str	r0, [sp, #4]
	b	.LBB6_14
.Ltmp46:
.LBB6_14:
	.loc	4 0 22                          @ ../std/GD32C2x1_Firmware_Library/GD32C2x1_standard_peripheral/Source/gd32c2x1_spi.c:0:22
	b	.LBB6_15
.LBB6_15:
	.loc	4 348 19 is_stmt 1              @ ../std/GD32C2x1_Firmware_Library/GD32C2x1_standard_peripheral/Source/gd32c2x1_spi.c:348:19
	ldr	r0, [sp, #4]
	.loc	4 348 24 is_stmt 0              @ ../std/GD32C2x1_Firmware_Library/GD32C2x1_standard_peripheral/Source/gd32c2x1_spi.c:348:24
	adds	r0, r0, #5
	movs	r1, #10
	.loc	4 348 30                        @ ../std/GD32C2x1_Firmware_Library/GD32C2x1_standard_peripheral/Source/gd32c2x1_spi.c:348:30
	udiv	r0, r0, r1
	.loc	4 348 16                        @ ../std/GD32C2x1_Firmware_Library/GD32C2x1_standard_peripheral/Source/gd32c2x1_spi.c:348:16
	str	r0, [sp, #4]
	.loc	4 349 19 is_stmt 1              @ ../std/GD32C2x1_Firmware_Library/GD32C2x1_standard_peripheral/Source/gd32c2x1_spi.c:349:19
	ldr	r0, [sp, #4]
	movs	r1, #1
	.loc	4 349 24 is_stmt 0              @ ../std/GD32C2x1_Firmware_Library/GD32C2x1_standard_peripheral/Source/gd32c2x1_spi.c:349:24
	ands	r0, r1
	.loc	4 349 16                        @ ../std/GD32C2x1_Firmware_Library/GD32C2x1_standard_peripheral/Source/gd32c2x1_spi.c:349:16
	str	r0, [sp, #8]
	.loc	4 350 20 is_stmt 1              @ ../std/GD32C2x1_Firmware_Library/GD32C2x1_standard_peripheral/Source/gd32c2x1_spi.c:350:20
	ldr	r0, [sp, #4]
	.loc	4 350 27 is_stmt 0              @ ../std/GD32C2x1_Firmware_Library/GD32C2x1_standard_peripheral/Source/gd32c2x1_spi.c:350:27
	ldr	r1, [sp, #8]
	.loc	4 350 25                        @ ../std/GD32C2x1_Firmware_Library/GD32C2x1_standard_peripheral/Source/gd32c2x1_spi.c:350:25
	subs	r0, r0, r1
	.loc	4 350 34                        @ ../std/GD32C2x1_Firmware_Library/GD32C2x1_standard_peripheral/Source/gd32c2x1_spi.c:350:34
	lsrs	r0, r0, #1
	.loc	4 350 16                        @ ../std/GD32C2x1_Firmware_Library/GD32C2x1_standard_peripheral/Source/gd32c2x1_spi.c:350:16
	str	r0, [sp, #12]
	.loc	4 351 19 is_stmt 1              @ ../std/GD32C2x1_Firmware_Library/GD32C2x1_standard_peripheral/Source/gd32c2x1_spi.c:351:19
	ldr	r0, [sp, #8]
	.loc	4 351 25 is_stmt 0              @ ../std/GD32C2x1_Firmware_Library/GD32C2x1_standard_peripheral/Source/gd32c2x1_spi.c:351:25
	lsls	r0, r0, #8
	.loc	4 351 16                        @ ../std/GD32C2x1_Firmware_Library/GD32C2x1_standard_peripheral/Source/gd32c2x1_spi.c:351:16
	str	r0, [sp, #8]
.Ltmp47:
	.loc	4 354 13 is_stmt 1              @ ../std/GD32C2x1_Firmware_Library/GD32C2x1_standard_peripheral/Source/gd32c2x1_spi.c:354:13
	ldr	r0, [sp, #12]
	.loc	4 354 26 is_stmt 0              @ ../std/GD32C2x1_Firmware_Library/GD32C2x1_standard_peripheral/Source/gd32c2x1_spi.c:354:26
	cmp	r0, #2
	blo	.LBB6_17
	b	.LBB6_16
.LBB6_16:
	.loc	4 354 30                        @ ../std/GD32C2x1_Firmware_Library/GD32C2x1_standard_peripheral/Source/gd32c2x1_spi.c:354:30
	ldr	r0, [sp, #12]
.Ltmp48:
	.loc	4 354 12                        @ ../std/GD32C2x1_Firmware_Library/GD32C2x1_standard_peripheral/Source/gd32c2x1_spi.c:354:12
	lsrs	r0, r0, #8
	cbz	r0, .LBB6_18
	b	.LBB6_17
.LBB6_17:
	.loc	4 0 12                          @ ../std/GD32C2x1_Firmware_Library/GD32C2x1_standard_peripheral/Source/gd32c2x1_spi.c:0:12
	movs	r0, #2
.Ltmp49:
	.loc	4 355 20 is_stmt 1              @ ../std/GD32C2x1_Firmware_Library/GD32C2x1_standard_peripheral/Source/gd32c2x1_spi.c:355:20
	str	r0, [sp, #12]
	movs	r0, #0
	.loc	4 356 19                        @ ../std/GD32C2x1_Firmware_Library/GD32C2x1_standard_peripheral/Source/gd32c2x1_spi.c:356:19
	str	r0, [sp, #8]
	.loc	4 357 9                         @ ../std/GD32C2x1_Firmware_Library/GD32C2x1_standard_peripheral/Source/gd32c2x1_spi.c:357:9
	b	.LBB6_18
.Ltmp50:
.LBB6_18:
	.loc	4 0 9 is_stmt 0                 @ ../std/GD32C2x1_Firmware_Library/GD32C2x1_standard_peripheral/Source/gd32c2x1_spi.c:0:9
	add	r0, sp, #12
	.loc	4 360 46 is_stmt 1              @ ../std/GD32C2x1_Firmware_Library/GD32C2x1_standard_peripheral/Source/gd32c2x1_spi.c:360:46
	ldrb	r0, [r0]
	.loc	4 360 74 is_stmt 0              @ ../std/GD32C2x1_Firmware_Library/GD32C2x1_standard_peripheral/Source/gd32c2x1_spi.c:360:74
	ldr	r1, [sp, #8]
	movw	r2, #256
	.loc	4 360 80                        @ ../std/GD32C2x1_Firmware_Library/GD32C2x1_standard_peripheral/Source/gd32c2x1_spi.c:360:80
	ands	r1, r2
	.loc	4 360 71                        @ ../std/GD32C2x1_Firmware_Library/GD32C2x1_standard_peripheral/Source/gd32c2x1_spi.c:360:71
	adds	r0, r0, r1
	.loc	4 360 100                       @ ../std/GD32C2x1_Firmware_Library/GD32C2x1_standard_peripheral/Source/gd32c2x1_spi.c:360:100
	ldr	r1, [sp, #16]
	movw	r2, #512
	.loc	4 360 111                       @ ../std/GD32C2x1_Firmware_Library/GD32C2x1_standard_peripheral/Source/gd32c2x1_spi.c:360:111
	ands	r1, r2
	.loc	4 360 97                        @ ../std/GD32C2x1_Firmware_Library/GD32C2x1_standard_peripheral/Source/gd32c2x1_spi.c:360:97
	adds	r0, r0, r1
	.loc	4 360 9                         @ ../std/GD32C2x1_Firmware_Library/GD32C2x1_standard_peripheral/Source/gd32c2x1_spi.c:360:9
	ldr	r1, [sp, #28]
	.loc	4 360 32                        @ ../std/GD32C2x1_Firmware_Library/GD32C2x1_standard_peripheral/Source/gd32c2x1_spi.c:360:32
	str	r0, [r1, #32]
	.loc	4 363 9 is_stmt 1               @ ../std/GD32C2x1_Firmware_Library/GD32C2x1_standard_peripheral/Source/gd32c2x1_spi.c:363:9
	ldr	r1, [sp, #28]
	.loc	4 363 32 is_stmt 0              @ ../std/GD32C2x1_Firmware_Library/GD32C2x1_standard_peripheral/Source/gd32c2x1_spi.c:363:32
	ldr	r0, [r1, #28]
	movs	r2, #7
	bics	r0, r2
	str	r0, [r1, #28]
	.loc	4 365 46 is_stmt 1              @ ../std/GD32C2x1_Firmware_Library/GD32C2x1_standard_peripheral/Source/gd32c2x1_spi.c:365:46
	ldr	r2, [sp, #20]
	movs	r0, #5
	.loc	4 365 62 is_stmt 0              @ ../std/GD32C2x1_Firmware_Library/GD32C2x1_standard_peripheral/Source/gd32c2x1_spi.c:365:62
	ands	r2, r0
	.loc	4 365 9                         @ ../std/GD32C2x1_Firmware_Library/GD32C2x1_standard_peripheral/Source/gd32c2x1_spi.c:365:9
	ldr	r1, [sp, #28]
	.loc	4 365 32                        @ ../std/GD32C2x1_Firmware_Library/GD32C2x1_standard_peripheral/Source/gd32c2x1_spi.c:365:32
	ldr	r0, [r1, #28]
	orrs	r0, r2
	str	r0, [r1, #28]
.Ltmp51:
	.loc	4 367 1 is_stmt 1               @ ../std/GD32C2x1_Firmware_Library/GD32C2x1_standard_peripheral/Source/gd32c2x1_spi.c:367:1
	add	sp, #32
	pop	{r7, pc}
.Ltmp52:
	.p2align	2
@ %bb.19:
	.loc	4 0 1 is_stmt 0                 @ ../std/GD32C2x1_Firmware_Library/GD32C2x1_standard_peripheral/Source/gd32c2x1_spi.c:0:1
__arm_cp.6_0:
	.long	1073877132                      @ 0x4002108c
.Lcpi_end7:
	.size	__arm_cp.6_0, .Lcpi_end7-__arm_cp.6_0
__arm_cp.6_1:
	.long	8000000                         @ 0x7a1200
.Lcpi_end8:
	.size	__arm_cp.6_1, .Lcpi_end8-__arm_cp.6_1
.Lfunc_end6:
	.size	i2s_psc_config, .Lfunc_end6-i2s_psc_config
	.cfi_endproc
	.cantunwind
	.fnend
                                        @ -- End function
	.section	.text.i2s_enable,"ax",%progbits
	.hidden	i2s_enable                      @ -- Begin function i2s_enable
	.globl	i2s_enable
	.p2align	1
	.type	i2s_enable,%function
	.code	16                              @ @i2s_enable
	.thumb_func
i2s_enable:
.Lfunc_begin7:
	.loc	4 376 0 is_stmt 1               @ ../std/GD32C2x1_Firmware_Library/GD32C2x1_standard_peripheral/Source/gd32c2x1_spi.c:376:0
	.fnstart
	.cfi_startproc
@ %bb.0:
	.pad	#4
	sub	sp, #4
	.cfi_def_cfa_offset 4
	str	r0, [sp]
.Ltmp53:
	.loc	4 377 5 prologue_end            @ ../std/GD32C2x1_Firmware_Library/GD32C2x1_standard_peripheral/Source/gd32c2x1_spi.c:377:5
	ldr	r1, [sp]
	.loc	4 377 28 is_stmt 0              @ ../std/GD32C2x1_Firmware_Library/GD32C2x1_standard_peripheral/Source/gd32c2x1_spi.c:377:28
	ldr	r0, [r1, #28]
	movw	r2, #1024
	orrs	r0, r2
	str	r0, [r1, #28]
	.loc	4 378 1 is_stmt 1               @ ../std/GD32C2x1_Firmware_Library/GD32C2x1_standard_peripheral/Source/gd32c2x1_spi.c:378:1
	add	sp, #4
	bx	lr
.Ltmp54:
.Lfunc_end7:
	.size	i2s_enable, .Lfunc_end7-i2s_enable
	.cfi_endproc
	.cantunwind
	.fnend
                                        @ -- End function
	.section	.text.i2s_disable,"ax",%progbits
	.hidden	i2s_disable                     @ -- Begin function i2s_disable
	.globl	i2s_disable
	.p2align	1
	.type	i2s_disable,%function
	.code	16                              @ @i2s_disable
	.thumb_func
i2s_disable:
.Lfunc_begin8:
	.loc	4 387 0                         @ ../std/GD32C2x1_Firmware_Library/GD32C2x1_standard_peripheral/Source/gd32c2x1_spi.c:387:0
	.fnstart
	.cfi_startproc
@ %bb.0:
	.pad	#4
	sub	sp, #4
	.cfi_def_cfa_offset 4
	str	r0, [sp]
.Ltmp55:
	.loc	4 388 5 prologue_end            @ ../std/GD32C2x1_Firmware_Library/GD32C2x1_standard_peripheral/Source/gd32c2x1_spi.c:388:5
	ldr	r1, [sp]
	.loc	4 388 28 is_stmt 0              @ ../std/GD32C2x1_Firmware_Library/GD32C2x1_standard_peripheral/Source/gd32c2x1_spi.c:388:28
	ldr	r0, [r1, #28]
	movw	r2, #1024
	bics	r0, r2
	str	r0, [r1, #28]
	.loc	4 389 1 is_stmt 1               @ ../std/GD32C2x1_Firmware_Library/GD32C2x1_standard_peripheral/Source/gd32c2x1_spi.c:389:1
	add	sp, #4
	bx	lr
.Ltmp56:
.Lfunc_end8:
	.size	i2s_disable, .Lfunc_end8-i2s_disable
	.cfi_endproc
	.cantunwind
	.fnend
                                        @ -- End function
	.section	.text.spi_nss_output_enable,"ax",%progbits
	.hidden	spi_nss_output_enable           @ -- Begin function spi_nss_output_enable
	.globl	spi_nss_output_enable
	.p2align	1
	.type	spi_nss_output_enable,%function
	.code	16                              @ @spi_nss_output_enable
	.thumb_func
spi_nss_output_enable:
.Lfunc_begin9:
	.loc	4 398 0                         @ ../std/GD32C2x1_Firmware_Library/GD32C2x1_standard_peripheral/Source/gd32c2x1_spi.c:398:0
	.fnstart
	.cfi_startproc
@ %bb.0:
	.pad	#4
	sub	sp, #4
	.cfi_def_cfa_offset 4
	str	r0, [sp]
.Ltmp57:
	.loc	4 399 5 prologue_end            @ ../std/GD32C2x1_Firmware_Library/GD32C2x1_standard_peripheral/Source/gd32c2x1_spi.c:399:5
	ldr	r1, [sp]
	.loc	4 399 26 is_stmt 0              @ ../std/GD32C2x1_Firmware_Library/GD32C2x1_standard_peripheral/Source/gd32c2x1_spi.c:399:26
	ldr	r0, [r1, #4]
	movs	r2, #4
	orrs	r0, r2
	str	r0, [r1, #4]
	.loc	4 400 1 is_stmt 1               @ ../std/GD32C2x1_Firmware_Library/GD32C2x1_standard_peripheral/Source/gd32c2x1_spi.c:400:1
	add	sp, #4
	bx	lr
.Ltmp58:
.Lfunc_end9:
	.size	spi_nss_output_enable, .Lfunc_end9-spi_nss_output_enable
	.cfi_endproc
	.cantunwind
	.fnend
                                        @ -- End function
	.section	.text.spi_nss_output_disable,"ax",%progbits
	.hidden	spi_nss_output_disable          @ -- Begin function spi_nss_output_disable
	.globl	spi_nss_output_disable
	.p2align	1
	.type	spi_nss_output_disable,%function
	.code	16                              @ @spi_nss_output_disable
	.thumb_func
spi_nss_output_disable:
.Lfunc_begin10:
	.loc	4 409 0                         @ ../std/GD32C2x1_Firmware_Library/GD32C2x1_standard_peripheral/Source/gd32c2x1_spi.c:409:0
	.fnstart
	.cfi_startproc
@ %bb.0:
	.pad	#4
	sub	sp, #4
	.cfi_def_cfa_offset 4
	str	r0, [sp]
.Ltmp59:
	.loc	4 410 5 prologue_end            @ ../std/GD32C2x1_Firmware_Library/GD32C2x1_standard_peripheral/Source/gd32c2x1_spi.c:410:5
	ldr	r1, [sp]
	.loc	4 410 26 is_stmt 0              @ ../std/GD32C2x1_Firmware_Library/GD32C2x1_standard_peripheral/Source/gd32c2x1_spi.c:410:26
	ldr	r0, [r1, #4]
	movs	r2, #4
	bics	r0, r2
	str	r0, [r1, #4]
	.loc	4 411 1 is_stmt 1               @ ../std/GD32C2x1_Firmware_Library/GD32C2x1_standard_peripheral/Source/gd32c2x1_spi.c:411:1
	add	sp, #4
	bx	lr
.Ltmp60:
.Lfunc_end10:
	.size	spi_nss_output_disable, .Lfunc_end10-spi_nss_output_disable
	.cfi_endproc
	.cantunwind
	.fnend
                                        @ -- End function
	.section	.text.spi_nss_internal_high,"ax",%progbits
	.hidden	spi_nss_internal_high           @ -- Begin function spi_nss_internal_high
	.globl	spi_nss_internal_high
	.p2align	1
	.type	spi_nss_internal_high,%function
	.code	16                              @ @spi_nss_internal_high
	.thumb_func
spi_nss_internal_high:
.Lfunc_begin11:
	.loc	4 420 0                         @ ../std/GD32C2x1_Firmware_Library/GD32C2x1_standard_peripheral/Source/gd32c2x1_spi.c:420:0
	.fnstart
	.cfi_startproc
@ %bb.0:
	.pad	#4
	sub	sp, #4
	.cfi_def_cfa_offset 4
	str	r0, [sp]
.Ltmp61:
	.loc	4 421 5 prologue_end            @ ../std/GD32C2x1_Firmware_Library/GD32C2x1_standard_peripheral/Source/gd32c2x1_spi.c:421:5
	ldr	r1, [sp]
	.loc	4 421 26 is_stmt 0              @ ../std/GD32C2x1_Firmware_Library/GD32C2x1_standard_peripheral/Source/gd32c2x1_spi.c:421:26
	ldr	r0, [r1]
	movw	r2, #256
	orrs	r0, r2
	str	r0, [r1]
	.loc	4 422 1 is_stmt 1               @ ../std/GD32C2x1_Firmware_Library/GD32C2x1_standard_peripheral/Source/gd32c2x1_spi.c:422:1
	add	sp, #4
	bx	lr
.Ltmp62:
.Lfunc_end11:
	.size	spi_nss_internal_high, .Lfunc_end11-spi_nss_internal_high
	.cfi_endproc
	.cantunwind
	.fnend
                                        @ -- End function
	.section	.text.spi_nss_internal_low,"ax",%progbits
	.hidden	spi_nss_internal_low            @ -- Begin function spi_nss_internal_low
	.globl	spi_nss_internal_low
	.p2align	1
	.type	spi_nss_internal_low,%function
	.code	16                              @ @spi_nss_internal_low
	.thumb_func
spi_nss_internal_low:
.Lfunc_begin12:
	.loc	4 431 0                         @ ../std/GD32C2x1_Firmware_Library/GD32C2x1_standard_peripheral/Source/gd32c2x1_spi.c:431:0
	.fnstart
	.cfi_startproc
@ %bb.0:
	.pad	#4
	sub	sp, #4
	.cfi_def_cfa_offset 4
	str	r0, [sp]
.Ltmp63:
	.loc	4 432 5 prologue_end            @ ../std/GD32C2x1_Firmware_Library/GD32C2x1_standard_peripheral/Source/gd32c2x1_spi.c:432:5
	ldr	r1, [sp]
	.loc	4 432 26 is_stmt 0              @ ../std/GD32C2x1_Firmware_Library/GD32C2x1_standard_peripheral/Source/gd32c2x1_spi.c:432:26
	ldr	r0, [r1]
	movw	r2, #256
	bics	r0, r2
	str	r0, [r1]
	.loc	4 433 1 is_stmt 1               @ ../std/GD32C2x1_Firmware_Library/GD32C2x1_standard_peripheral/Source/gd32c2x1_spi.c:433:1
	add	sp, #4
	bx	lr
.Ltmp64:
.Lfunc_end12:
	.size	spi_nss_internal_low, .Lfunc_end12-spi_nss_internal_low
	.cfi_endproc
	.cantunwind
	.fnend
                                        @ -- End function
	.section	.text.spi_dma_enable,"ax",%progbits
	.hidden	spi_dma_enable                  @ -- Begin function spi_dma_enable
	.globl	spi_dma_enable
	.p2align	1
	.type	spi_dma_enable,%function
	.code	16                              @ @spi_dma_enable
	.thumb_func
spi_dma_enable:
.Lfunc_begin13:
	.loc	4 446 0                         @ ../std/GD32C2x1_Firmware_Library/GD32C2x1_standard_peripheral/Source/gd32c2x1_spi.c:446:0
	.fnstart
	.cfi_startproc
@ %bb.0:
	.pad	#8
	sub	sp, #8
	.cfi_def_cfa_offset 8
                                        @ kill: def $r2 killed $r1
	str	r0, [sp, #4]
	mov	r0, sp
	strb	r1, [r0]
.Ltmp65:
	.loc	4 447 28 prologue_end           @ ../std/GD32C2x1_Firmware_Library/GD32C2x1_standard_peripheral/Source/gd32c2x1_spi.c:447:28
	ldrb	r0, [r0]
.Ltmp66:
	.loc	4 447 8 is_stmt 0               @ ../std/GD32C2x1_Firmware_Library/GD32C2x1_standard_peripheral/Source/gd32c2x1_spi.c:447:8
	cbnz	r0, .LBB13_2
	b	.LBB13_1
.LBB13_1:
.Ltmp67:
	.loc	4 448 9 is_stmt 1               @ ../std/GD32C2x1_Firmware_Library/GD32C2x1_standard_peripheral/Source/gd32c2x1_spi.c:448:9
	ldr	r1, [sp, #4]
	.loc	4 448 30 is_stmt 0              @ ../std/GD32C2x1_Firmware_Library/GD32C2x1_standard_peripheral/Source/gd32c2x1_spi.c:448:30
	ldr	r0, [r1, #4]
	movs	r2, #2
	orrs	r0, r2
	str	r0, [r1, #4]
	.loc	4 449 5 is_stmt 1               @ ../std/GD32C2x1_Firmware_Library/GD32C2x1_standard_peripheral/Source/gd32c2x1_spi.c:449:5
	b	.LBB13_3
.Ltmp68:
.LBB13_2:
	.loc	4 450 9                         @ ../std/GD32C2x1_Firmware_Library/GD32C2x1_standard_peripheral/Source/gd32c2x1_spi.c:450:9
	ldr	r1, [sp, #4]
	.loc	4 450 30 is_stmt 0              @ ../std/GD32C2x1_Firmware_Library/GD32C2x1_standard_peripheral/Source/gd32c2x1_spi.c:450:30
	ldr	r0, [r1, #4]
	movs	r2, #1
	orrs	r0, r2
	str	r0, [r1, #4]
	b	.LBB13_3
.Ltmp69:
.LBB13_3:
	.loc	4 452 1 is_stmt 1               @ ../std/GD32C2x1_Firmware_Library/GD32C2x1_standard_peripheral/Source/gd32c2x1_spi.c:452:1
	add	sp, #8
	bx	lr
.Ltmp70:
.Lfunc_end13:
	.size	spi_dma_enable, .Lfunc_end13-spi_dma_enable
	.cfi_endproc
	.cantunwind
	.fnend
                                        @ -- End function
	.section	.text.spi_dma_disable,"ax",%progbits
	.hidden	spi_dma_disable                 @ -- Begin function spi_dma_disable
	.globl	spi_dma_disable
	.p2align	1
	.type	spi_dma_disable,%function
	.code	16                              @ @spi_dma_disable
	.thumb_func
spi_dma_disable:
.Lfunc_begin14:
	.loc	4 465 0                         @ ../std/GD32C2x1_Firmware_Library/GD32C2x1_standard_peripheral/Source/gd32c2x1_spi.c:465:0
	.fnstart
	.cfi_startproc
@ %bb.0:
	.pad	#8
	sub	sp, #8
	.cfi_def_cfa_offset 8
                                        @ kill: def $r2 killed $r1
	str	r0, [sp, #4]
	mov	r0, sp
	strb	r1, [r0]
.Ltmp71:
	.loc	4 466 28 prologue_end           @ ../std/GD32C2x1_Firmware_Library/GD32C2x1_standard_peripheral/Source/gd32c2x1_spi.c:466:28
	ldrb	r0, [r0]
.Ltmp72:
	.loc	4 466 8 is_stmt 0               @ ../std/GD32C2x1_Firmware_Library/GD32C2x1_standard_peripheral/Source/gd32c2x1_spi.c:466:8
	cbnz	r0, .LBB14_2
	b	.LBB14_1
.LBB14_1:
.Ltmp73:
	.loc	4 467 9 is_stmt 1               @ ../std/GD32C2x1_Firmware_Library/GD32C2x1_standard_peripheral/Source/gd32c2x1_spi.c:467:9
	ldr	r1, [sp, #4]
	.loc	4 467 30 is_stmt 0              @ ../std/GD32C2x1_Firmware_Library/GD32C2x1_standard_peripheral/Source/gd32c2x1_spi.c:467:30
	ldr	r0, [r1, #4]
	movs	r2, #2
	bics	r0, r2
	str	r0, [r1, #4]
	.loc	4 468 5 is_stmt 1               @ ../std/GD32C2x1_Firmware_Library/GD32C2x1_standard_peripheral/Source/gd32c2x1_spi.c:468:5
	b	.LBB14_3
.Ltmp74:
.LBB14_2:
	.loc	4 469 9                         @ ../std/GD32C2x1_Firmware_Library/GD32C2x1_standard_peripheral/Source/gd32c2x1_spi.c:469:9
	ldr	r1, [sp, #4]
	.loc	4 469 30 is_stmt 0              @ ../std/GD32C2x1_Firmware_Library/GD32C2x1_standard_peripheral/Source/gd32c2x1_spi.c:469:30
	ldr	r0, [r1, #4]
	movs	r2, #1
	bics	r0, r2
	str	r0, [r1, #4]
	b	.LBB14_3
.Ltmp75:
.LBB14_3:
	.loc	4 471 1 is_stmt 1               @ ../std/GD32C2x1_Firmware_Library/GD32C2x1_standard_peripheral/Source/gd32c2x1_spi.c:471:1
	add	sp, #8
	bx	lr
.Ltmp76:
.Lfunc_end14:
	.size	spi_dma_disable, .Lfunc_end14-spi_dma_disable
	.cfi_endproc
	.cantunwind
	.fnend
                                        @ -- End function
	.section	.text.spi_transmit_odd_config,"ax",%progbits
	.hidden	spi_transmit_odd_config         @ -- Begin function spi_transmit_odd_config
	.globl	spi_transmit_odd_config
	.p2align	1
	.type	spi_transmit_odd_config,%function
	.code	16                              @ @spi_transmit_odd_config
	.thumb_func
spi_transmit_odd_config:
.Lfunc_begin15:
	.loc	4 484 0                         @ ../std/GD32C2x1_Firmware_Library/GD32C2x1_standard_peripheral/Source/gd32c2x1_spi.c:484:0
	.fnstart
	.cfi_startproc
@ %bb.0:
	.pad	#12
	sub	sp, #12
	.cfi_def_cfa_offset 12
	str	r1, [sp]                        @ 4-byte Spill
	mov	r1, r0
	ldr	r0, [sp]                        @ 4-byte Reload
                                        @ kill: def $r2 killed $r0
	str	r1, [sp, #8]
	add	r1, sp, #4
	strh	r0, [r1]
.Ltmp77:
	.loc	4 486 5 prologue_end            @ ../std/GD32C2x1_Firmware_Library/GD32C2x1_standard_peripheral/Source/gd32c2x1_spi.c:486:5
	ldr	r3, [sp, #8]
	.loc	4 486 26 is_stmt 0              @ ../std/GD32C2x1_Firmware_Library/GD32C2x1_standard_peripheral/Source/gd32c2x1_spi.c:486:26
	ldr	r2, [r3, #4]
	movw	r0, #16384
	bics	r2, r0
	str	r2, [r3, #4]
	.loc	4 488 40 is_stmt 1              @ ../std/GD32C2x1_Firmware_Library/GD32C2x1_standard_peripheral/Source/gd32c2x1_spi.c:488:40
	ldrh	r2, [r1]
	.loc	4 488 44 is_stmt 0              @ ../std/GD32C2x1_Firmware_Library/GD32C2x1_standard_peripheral/Source/gd32c2x1_spi.c:488:44
	ands	r2, r0
	.loc	4 488 5                         @ ../std/GD32C2x1_Firmware_Library/GD32C2x1_standard_peripheral/Source/gd32c2x1_spi.c:488:5
	ldr	r1, [sp, #8]
	.loc	4 488 26                        @ ../std/GD32C2x1_Firmware_Library/GD32C2x1_standard_peripheral/Source/gd32c2x1_spi.c:488:26
	ldr	r0, [r1, #4]
	orrs	r0, r2
	str	r0, [r1, #4]
	.loc	4 489 1 is_stmt 1               @ ../std/GD32C2x1_Firmware_Library/GD32C2x1_standard_peripheral/Source/gd32c2x1_spi.c:489:1
	add	sp, #12
	bx	lr
.Ltmp78:
.Lfunc_end15:
	.size	spi_transmit_odd_config, .Lfunc_end15-spi_transmit_odd_config
	.cfi_endproc
	.cantunwind
	.fnend
                                        @ -- End function
	.section	.text.spi_receive_odd_config,"ax",%progbits
	.hidden	spi_receive_odd_config          @ -- Begin function spi_receive_odd_config
	.globl	spi_receive_odd_config
	.p2align	1
	.type	spi_receive_odd_config,%function
	.code	16                              @ @spi_receive_odd_config
	.thumb_func
spi_receive_odd_config:
.Lfunc_begin16:
	.loc	4 502 0                         @ ../std/GD32C2x1_Firmware_Library/GD32C2x1_standard_peripheral/Source/gd32c2x1_spi.c:502:0
	.fnstart
	.cfi_startproc
@ %bb.0:
	.pad	#8
	sub	sp, #8
	.cfi_def_cfa_offset 8
                                        @ kill: def $r2 killed $r1
	str	r0, [sp, #4]
	mov	r0, sp
	strh	r1, [r0]
.Ltmp79:
	.loc	4 504 5 prologue_end            @ ../std/GD32C2x1_Firmware_Library/GD32C2x1_standard_peripheral/Source/gd32c2x1_spi.c:504:5
	ldr	r2, [sp, #4]
	.loc	4 504 26 is_stmt 0              @ ../std/GD32C2x1_Firmware_Library/GD32C2x1_standard_peripheral/Source/gd32c2x1_spi.c:504:26
	ldr	r1, [r2, #4]
	movw	r3, #8192
	bics	r1, r3
	str	r1, [r2, #4]
	.loc	4 506 40 is_stmt 1              @ ../std/GD32C2x1_Firmware_Library/GD32C2x1_standard_peripheral/Source/gd32c2x1_spi.c:506:40
	ldrh	r2, [r0]
	movw	r0, #16384
	.loc	4 506 44 is_stmt 0              @ ../std/GD32C2x1_Firmware_Library/GD32C2x1_standard_peripheral/Source/gd32c2x1_spi.c:506:44
	ands	r2, r0
	.loc	4 506 5                         @ ../std/GD32C2x1_Firmware_Library/GD32C2x1_standard_peripheral/Source/gd32c2x1_spi.c:506:5
	ldr	r1, [sp, #4]
	.loc	4 506 26                        @ ../std/GD32C2x1_Firmware_Library/GD32C2x1_standard_peripheral/Source/gd32c2x1_spi.c:506:26
	ldr	r0, [r1, #4]
	orrs	r0, r2
	str	r0, [r1, #4]
	.loc	4 507 1 is_stmt 1               @ ../std/GD32C2x1_Firmware_Library/GD32C2x1_standard_peripheral/Source/gd32c2x1_spi.c:507:1
	add	sp, #8
	bx	lr
.Ltmp80:
.Lfunc_end16:
	.size	spi_receive_odd_config, .Lfunc_end16-spi_receive_odd_config
	.cfi_endproc
	.cantunwind
	.fnend
                                        @ -- End function
	.section	.text.spi_fifo_access_size_config,"ax",%progbits
	.hidden	spi_fifo_access_size_config     @ -- Begin function spi_fifo_access_size_config
	.globl	spi_fifo_access_size_config
	.p2align	1
	.type	spi_fifo_access_size_config,%function
	.code	16                              @ @spi_fifo_access_size_config
	.thumb_func
spi_fifo_access_size_config:
.Lfunc_begin17:
	.loc	4 520 0                         @ ../std/GD32C2x1_Firmware_Library/GD32C2x1_standard_peripheral/Source/gd32c2x1_spi.c:520:0
	.fnstart
	.cfi_startproc
@ %bb.0:
	.pad	#12
	sub	sp, #12
	.cfi_def_cfa_offset 12
	str	r1, [sp]                        @ 4-byte Spill
	mov	r1, r0
	ldr	r0, [sp]                        @ 4-byte Reload
                                        @ kill: def $r2 killed $r0
	str	r1, [sp, #8]
	add	r1, sp, #4
	strh	r0, [r1]
.Ltmp81:
	.loc	4 522 5 prologue_end            @ ../std/GD32C2x1_Firmware_Library/GD32C2x1_standard_peripheral/Source/gd32c2x1_spi.c:522:5
	ldr	r3, [sp, #8]
	.loc	4 522 26 is_stmt 0              @ ../std/GD32C2x1_Firmware_Library/GD32C2x1_standard_peripheral/Source/gd32c2x1_spi.c:522:26
	ldr	r2, [r3, #4]
	movw	r0, #4096
	bics	r2, r0
	str	r2, [r3, #4]
	.loc	4 524 40 is_stmt 1              @ ../std/GD32C2x1_Firmware_Library/GD32C2x1_standard_peripheral/Source/gd32c2x1_spi.c:524:40
	ldrh	r2, [r1]
	.loc	4 524 57 is_stmt 0              @ ../std/GD32C2x1_Firmware_Library/GD32C2x1_standard_peripheral/Source/gd32c2x1_spi.c:524:57
	ands	r2, r0
	.loc	4 524 5                         @ ../std/GD32C2x1_Firmware_Library/GD32C2x1_standard_peripheral/Source/gd32c2x1_spi.c:524:5
	ldr	r1, [sp, #8]
	.loc	4 524 26                        @ ../std/GD32C2x1_Firmware_Library/GD32C2x1_standard_peripheral/Source/gd32c2x1_spi.c:524:26
	ldr	r0, [r1, #4]
	orrs	r0, r2
	str	r0, [r1, #4]
	.loc	4 525 1 is_stmt 1               @ ../std/GD32C2x1_Firmware_Library/GD32C2x1_standard_peripheral/Source/gd32c2x1_spi.c:525:1
	add	sp, #12
	bx	lr
.Ltmp82:
.Lfunc_end17:
	.size	spi_fifo_access_size_config, .Lfunc_end17-spi_fifo_access_size_config
	.cfi_endproc
	.cantunwind
	.fnend
                                        @ -- End function
	.section	.text.spi_i2s_data_frame_format_config,"ax",%progbits
	.hidden	spi_i2s_data_frame_format_config @ -- Begin function spi_i2s_data_frame_format_config
	.globl	spi_i2s_data_frame_format_config
	.p2align	2
	.type	spi_i2s_data_frame_format_config,%function
	.code	16                              @ @spi_i2s_data_frame_format_config
	.thumb_func
spi_i2s_data_frame_format_config:
.Lfunc_begin18:
	.loc	4 537 0                         @ ../std/GD32C2x1_Firmware_Library/GD32C2x1_standard_peripheral/Source/gd32c2x1_spi.c:537:0
	.fnstart
	.cfi_startproc
@ %bb.0:
	.pad	#16
	sub	sp, #16
	.cfi_def_cfa_offset 16
                                        @ kill: def $r2 killed $r1
	str	r0, [sp, #12]
	add	r0, sp, #8
	strh	r1, [r0]
	add	r1, sp, #4
	movs	r0, #1
.Ltmp83:
	.loc	4 538 15 prologue_end           @ ../std/GD32C2x1_Firmware_Library/GD32C2x1_standard_peripheral/Source/gd32c2x1_spi.c:538:15
	strb	r0, [r1]
.Ltmp84:
	.loc	4 541 16                        @ ../std/GD32C2x1_Firmware_Library/GD32C2x1_standard_peripheral/Source/gd32c2x1_spi.c:541:16
	ldr	r0, [sp, #12]
	ldr	r1, __arm_cp.18_0
.Ltmp85:
	.loc	4 541 8 is_stmt 0               @ ../std/GD32C2x1_Firmware_Library/GD32C2x1_standard_peripheral/Source/gd32c2x1_spi.c:541:8
	cmp	r0, r1
	bne	.LBB18_6
	b	.LBB18_1
.LBB18_1:
	.loc	4 0 8                           @ ../std/GD32C2x1_Firmware_Library/GD32C2x1_standard_peripheral/Source/gd32c2x1_spi.c:0:8
	add	r0, sp, #8
.Ltmp86:
	.loc	4 543 35 is_stmt 1              @ ../std/GD32C2x1_Firmware_Library/GD32C2x1_standard_peripheral/Source/gd32c2x1_spi.c:543:35
	ldrh	r0, [r0]
	movw	r1, #1792
	.loc	4 543 49 is_stmt 0              @ ../std/GD32C2x1_Firmware_Library/GD32C2x1_standard_peripheral/Source/gd32c2x1_spi.c:543:49
	cmp	r0, r1
	beq	.LBB18_4
	b	.LBB18_2
.LBB18_2:
	.loc	4 0 49                          @ ../std/GD32C2x1_Firmware_Library/GD32C2x1_standard_peripheral/Source/gd32c2x1_spi.c:0:49
	add	r0, sp, #8
	.loc	4 543 76                        @ ../std/GD32C2x1_Firmware_Library/GD32C2x1_standard_peripheral/Source/gd32c2x1_spi.c:543:76
	ldrh	r0, [r0]
	movw	r1, #3840
.Ltmp87:
	.loc	4 543 12                        @ ../std/GD32C2x1_Firmware_Library/GD32C2x1_standard_peripheral/Source/gd32c2x1_spi.c:543:12
	cmp	r0, r1
	beq	.LBB18_4
	b	.LBB18_3
.LBB18_3:
	.loc	4 0 12                          @ ../std/GD32C2x1_Firmware_Library/GD32C2x1_standard_peripheral/Source/gd32c2x1_spi.c:0:12
	add	r1, sp, #4
	movs	r0, #0
.Ltmp88:
	.loc	4 544 19 is_stmt 1              @ ../std/GD32C2x1_Firmware_Library/GD32C2x1_standard_peripheral/Source/gd32c2x1_spi.c:544:19
	strb	r0, [r1]
	.loc	4 545 9                         @ ../std/GD32C2x1_Firmware_Library/GD32C2x1_standard_peripheral/Source/gd32c2x1_spi.c:545:9
	b	.LBB18_5
.Ltmp89:
.LBB18_4:
	.loc	4 547 13                        @ ../std/GD32C2x1_Firmware_Library/GD32C2x1_standard_peripheral/Source/gd32c2x1_spi.c:547:13
	ldr	r2, [sp, #12]
	.loc	4 547 34 is_stmt 0              @ ../std/GD32C2x1_Firmware_Library/GD32C2x1_standard_peripheral/Source/gd32c2x1_spi.c:547:34
	ldr	r1, [r2]
	movw	r0, #2048
	bics	r1, r0
	str	r1, [r2]
	add	r1, sp, #8
	.loc	4 549 38 is_stmt 1              @ ../std/GD32C2x1_Firmware_Library/GD32C2x1_standard_peripheral/Source/gd32c2x1_spi.c:549:38
	ldrh	r2, [r1]
	.loc	4 549 61 is_stmt 0              @ ../std/GD32C2x1_Firmware_Library/GD32C2x1_standard_peripheral/Source/gd32c2x1_spi.c:549:61
	ands	r2, r0
	.loc	4 549 13                        @ ../std/GD32C2x1_Firmware_Library/GD32C2x1_standard_peripheral/Source/gd32c2x1_spi.c:549:13
	ldr	r1, [sp, #12]
	.loc	4 549 34                        @ ../std/GD32C2x1_Firmware_Library/GD32C2x1_standard_peripheral/Source/gd32c2x1_spi.c:549:34
	ldr	r0, [r1]
	orrs	r0, r2
	str	r0, [r1]
	b	.LBB18_5
.Ltmp90:
.LBB18_5:
	.loc	4 551 5 is_stmt 1               @ ../std/GD32C2x1_Firmware_Library/GD32C2x1_standard_peripheral/Source/gd32c2x1_spi.c:551:5
	b	.LBB18_7
.Ltmp91:
.LBB18_6:
	.loc	4 552 15                        @ ../std/GD32C2x1_Firmware_Library/GD32C2x1_standard_peripheral/Source/gd32c2x1_spi.c:552:15
	ldr	r0, [sp, #12]
	ldr	r0, [r0, #4]
	.loc	4 552 13 is_stmt 0              @ ../std/GD32C2x1_Firmware_Library/GD32C2x1_standard_peripheral/Source/gd32c2x1_spi.c:552:13
	str	r0, [sp]
	.loc	4 554 13 is_stmt 1              @ ../std/GD32C2x1_Firmware_Library/GD32C2x1_standard_peripheral/Source/gd32c2x1_spi.c:554:13
	ldr	r1, [sp]
	movw	r0, #3840
	bics	r1, r0
	str	r1, [sp]
	add	r1, sp, #8
	.loc	4 555 27                        @ ../std/GD32C2x1_Firmware_Library/GD32C2x1_standard_peripheral/Source/gd32c2x1_spi.c:555:27
	ldrh	r1, [r1]
	.loc	4 555 40 is_stmt 0              @ ../std/GD32C2x1_Firmware_Library/GD32C2x1_standard_peripheral/Source/gd32c2x1_spi.c:555:40
	ands	r1, r0
	.loc	4 555 13                        @ ../std/GD32C2x1_Firmware_Library/GD32C2x1_standard_peripheral/Source/gd32c2x1_spi.c:555:13
	ldr	r0, [sp]
	orrs	r0, r1
	str	r0, [sp]
	.loc	4 557 32 is_stmt 1              @ ../std/GD32C2x1_Firmware_Library/GD32C2x1_standard_peripheral/Source/gd32c2x1_spi.c:557:32
	ldr	r0, [sp]
	.loc	4 557 9 is_stmt 0               @ ../std/GD32C2x1_Firmware_Library/GD32C2x1_standard_peripheral/Source/gd32c2x1_spi.c:557:9
	ldr	r1, [sp, #12]
	.loc	4 557 30                        @ ../std/GD32C2x1_Firmware_Library/GD32C2x1_standard_peripheral/Source/gd32c2x1_spi.c:557:30
	str	r0, [r1, #4]
	b	.LBB18_7
.Ltmp92:
.LBB18_7:
	.loc	4 0 30                          @ ../std/GD32C2x1_Firmware_Library/GD32C2x1_standard_peripheral/Source/gd32c2x1_spi.c:0:30
	add	r0, sp, #4
	.loc	4 559 12 is_stmt 1              @ ../std/GD32C2x1_Firmware_Library/GD32C2x1_standard_peripheral/Source/gd32c2x1_spi.c:559:12
	ldrb	r0, [r0]
	.loc	4 559 5 is_stmt 0               @ ../std/GD32C2x1_Firmware_Library/GD32C2x1_standard_peripheral/Source/gd32c2x1_spi.c:559:5
	add	sp, #16
	bx	lr
.Ltmp93:
	.p2align	2
@ %bb.8:
	.loc	4 0 5                           @ ../std/GD32C2x1_Firmware_Library/GD32C2x1_standard_peripheral/Source/gd32c2x1_spi.c:0:5
__arm_cp.18_0:
	.long	1073819648                      @ 0x40013000
.Lcpi_end9:
	.size	__arm_cp.18_0, .Lcpi_end9-__arm_cp.18_0
.Lfunc_end18:
	.size	spi_i2s_data_frame_format_config, .Lfunc_end18-spi_i2s_data_frame_format_config
	.cfi_endproc
	.cantunwind
	.fnend
                                        @ -- End function
	.section	.text.spi_bidirectional_transfer_config,"ax",%progbits
	.hidden	spi_bidirectional_transfer_config @ -- Begin function spi_bidirectional_transfer_config
	.globl	spi_bidirectional_transfer_config
	.p2align	1
	.type	spi_bidirectional_transfer_config,%function
	.code	16                              @ @spi_bidirectional_transfer_config
	.thumb_func
spi_bidirectional_transfer_config:
.Lfunc_begin19:
	.loc	4 573 0 is_stmt 1               @ ../std/GD32C2x1_Firmware_Library/GD32C2x1_standard_peripheral/Source/gd32c2x1_spi.c:573:0
	.fnstart
	.cfi_startproc
@ %bb.0:
	.pad	#8
	sub	sp, #8
	.cfi_def_cfa_offset 8
	str	r0, [sp, #4]
	str	r1, [sp]
.Ltmp94:
	.loc	4 574 38 prologue_end           @ ../std/GD32C2x1_Firmware_Library/GD32C2x1_standard_peripheral/Source/gd32c2x1_spi.c:574:38
	ldr	r0, [sp]
	movw	r1, #16384
.Ltmp95:
	.loc	4 574 8 is_stmt 0               @ ../std/GD32C2x1_Firmware_Library/GD32C2x1_standard_peripheral/Source/gd32c2x1_spi.c:574:8
	cmp	r0, r1
	bne	.LBB19_2
	b	.LBB19_1
.LBB19_1:
.Ltmp96:
	.loc	4 576 9 is_stmt 1               @ ../std/GD32C2x1_Firmware_Library/GD32C2x1_standard_peripheral/Source/gd32c2x1_spi.c:576:9
	ldr	r1, [sp, #4]
	.loc	4 576 30 is_stmt 0              @ ../std/GD32C2x1_Firmware_Library/GD32C2x1_standard_peripheral/Source/gd32c2x1_spi.c:576:30
	ldr	r0, [r1]
	movw	r2, #16384
	orrs	r0, r2
	str	r0, [r1]
	.loc	4 577 5 is_stmt 1               @ ../std/GD32C2x1_Firmware_Library/GD32C2x1_standard_peripheral/Source/gd32c2x1_spi.c:577:5
	b	.LBB19_3
.Ltmp97:
.LBB19_2:
	.loc	4 579 9                         @ ../std/GD32C2x1_Firmware_Library/GD32C2x1_standard_peripheral/Source/gd32c2x1_spi.c:579:9
	ldr	r1, [sp, #4]
	.loc	4 579 30 is_stmt 0              @ ../std/GD32C2x1_Firmware_Library/GD32C2x1_standard_peripheral/Source/gd32c2x1_spi.c:579:30
	ldr	r0, [r1]
	movw	r2, #16384
	bics	r0, r2
	str	r0, [r1]
	b	.LBB19_3
.Ltmp98:
.LBB19_3:
	.loc	4 581 1 is_stmt 1               @ ../std/GD32C2x1_Firmware_Library/GD32C2x1_standard_peripheral/Source/gd32c2x1_spi.c:581:1
	add	sp, #8
	bx	lr
.Ltmp99:
.Lfunc_end19:
	.size	spi_bidirectional_transfer_config, .Lfunc_end19-spi_bidirectional_transfer_config
	.cfi_endproc
	.cantunwind
	.fnend
                                        @ -- End function
	.section	.text.spi_i2s_data_transmit,"ax",%progbits
	.hidden	spi_i2s_data_transmit           @ -- Begin function spi_i2s_data_transmit
	.globl	spi_i2s_data_transmit
	.p2align	2
	.type	spi_i2s_data_transmit,%function
	.code	16                              @ @spi_i2s_data_transmit
	.thumb_func
spi_i2s_data_transmit:
.Lfunc_begin20:
	.loc	4 591 0                         @ ../std/GD32C2x1_Firmware_Library/GD32C2x1_standard_peripheral/Source/gd32c2x1_spi.c:591:0
	.fnstart
	.cfi_startproc
@ %bb.0:
	.pad	#16
	sub	sp, #16
	.cfi_def_cfa_offset 16
                                        @ kill: def $r2 killed $r1
	str	r0, [sp, #12]
	add	r0, sp, #8
	strh	r1, [r0]
.Ltmp100:
	.loc	4 594 16 prologue_end           @ ../std/GD32C2x1_Firmware_Library/GD32C2x1_standard_peripheral/Source/gd32c2x1_spi.c:594:16
	ldr	r0, [sp, #12]
	ldr	r1, __arm_cp.20_0
.Ltmp101:
	.loc	4 594 8 is_stmt 0               @ ../std/GD32C2x1_Firmware_Library/GD32C2x1_standard_peripheral/Source/gd32c2x1_spi.c:594:8
	cmp	r0, r1
	bne	.LBB20_2
	b	.LBB20_1
.LBB20_1:
	.loc	4 0 8                           @ ../std/GD32C2x1_Firmware_Library/GD32C2x1_standard_peripheral/Source/gd32c2x1_spi.c:0:8
	add	r0, sp, #8
.Ltmp102:
	.loc	4 595 42 is_stmt 1              @ ../std/GD32C2x1_Firmware_Library/GD32C2x1_standard_peripheral/Source/gd32c2x1_spi.c:595:42
	ldrh	r0, [r0]
	.loc	4 595 9 is_stmt 0               @ ../std/GD32C2x1_Firmware_Library/GD32C2x1_standard_peripheral/Source/gd32c2x1_spi.c:595:9
	ldr	r1, [sp, #12]
	.loc	4 595 30                        @ ../std/GD32C2x1_Firmware_Library/GD32C2x1_standard_peripheral/Source/gd32c2x1_spi.c:595:30
	str	r0, [r1, #12]
	.loc	4 596 5 is_stmt 1               @ ../std/GD32C2x1_Firmware_Library/GD32C2x1_standard_peripheral/Source/gd32c2x1_spi.c:596:5
	b	.LBB20_6
.Ltmp103:
.LBB20_2:
	.loc	4 598 17                        @ ../std/GD32C2x1_Firmware_Library/GD32C2x1_standard_peripheral/Source/gd32c2x1_spi.c:598:17
	ldr	r0, [sp, #12]
	ldr	r0, [r0, #4]
	movw	r1, #4096
	.loc	4 598 38 is_stmt 0              @ ../std/GD32C2x1_Firmware_Library/GD32C2x1_standard_peripheral/Source/gd32c2x1_spi.c:598:38
	ands	r0, r1
	.loc	4 598 15                        @ ../std/GD32C2x1_Firmware_Library/GD32C2x1_standard_peripheral/Source/gd32c2x1_spi.c:598:15
	str	r0, [sp]
.Ltmp104:
	.loc	4 599 18 is_stmt 1              @ ../std/GD32C2x1_Firmware_Library/GD32C2x1_standard_peripheral/Source/gd32c2x1_spi.c:599:18
	ldr	r0, [sp]
.Ltmp105:
	.loc	4 599 12 is_stmt 0              @ ../std/GD32C2x1_Firmware_Library/GD32C2x1_standard_peripheral/Source/gd32c2x1_spi.c:599:12
	cbz	r0, .LBB20_4
	b	.LBB20_3
.LBB20_3:
.Ltmp106:
	.loc	4 600 19 is_stmt 1              @ ../std/GD32C2x1_Firmware_Library/GD32C2x1_standard_peripheral/Source/gd32c2x1_spi.c:600:19
	ldr	r0, [sp, #12]
	.loc	4 600 30 is_stmt 0              @ ../std/GD32C2x1_Firmware_Library/GD32C2x1_standard_peripheral/Source/gd32c2x1_spi.c:600:30
	adds	r0, #12
	.loc	4 600 17                        @ ../std/GD32C2x1_Firmware_Library/GD32C2x1_standard_peripheral/Source/gd32c2x1_spi.c:600:17
	str	r0, [sp, #4]
	.loc	4 601 42 is_stmt 1              @ ../std/GD32C2x1_Firmware_Library/GD32C2x1_standard_peripheral/Source/gd32c2x1_spi.c:601:42
	ldr	r0, [sp, #8]
	.loc	4 601 26 is_stmt 0              @ ../std/GD32C2x1_Firmware_Library/GD32C2x1_standard_peripheral/Source/gd32c2x1_spi.c:601:26
	ldr	r1, [sp, #4]
	.loc	4 601 31                        @ ../std/GD32C2x1_Firmware_Library/GD32C2x1_standard_peripheral/Source/gd32c2x1_spi.c:601:31
	strb	r0, [r1]
	.loc	4 602 9 is_stmt 1               @ ../std/GD32C2x1_Firmware_Library/GD32C2x1_standard_peripheral/Source/gd32c2x1_spi.c:602:9
	b	.LBB20_5
.Ltmp107:
.LBB20_4:
	.loc	4 0 9 is_stmt 0                 @ ../std/GD32C2x1_Firmware_Library/GD32C2x1_standard_peripheral/Source/gd32c2x1_spi.c:0:9
	add	r0, sp, #8
.Ltmp108:
	.loc	4 603 46 is_stmt 1              @ ../std/GD32C2x1_Firmware_Library/GD32C2x1_standard_peripheral/Source/gd32c2x1_spi.c:603:46
	ldrh	r0, [r0]
	.loc	4 603 13 is_stmt 0              @ ../std/GD32C2x1_Firmware_Library/GD32C2x1_standard_peripheral/Source/gd32c2x1_spi.c:603:13
	ldr	r1, [sp, #12]
	.loc	4 603 34                        @ ../std/GD32C2x1_Firmware_Library/GD32C2x1_standard_peripheral/Source/gd32c2x1_spi.c:603:34
	str	r0, [r1, #12]
	b	.LBB20_5
.Ltmp109:
.LBB20_5:
	.loc	4 0 34                          @ ../std/GD32C2x1_Firmware_Library/GD32C2x1_standard_peripheral/Source/gd32c2x1_spi.c:0:34
	b	.LBB20_6
.LBB20_6:
	.loc	4 606 1 is_stmt 1               @ ../std/GD32C2x1_Firmware_Library/GD32C2x1_standard_peripheral/Source/gd32c2x1_spi.c:606:1
	add	sp, #16
	bx	lr
.Ltmp110:
	.p2align	2
@ %bb.7:
	.loc	4 0 1 is_stmt 0                 @ ../std/GD32C2x1_Firmware_Library/GD32C2x1_standard_peripheral/Source/gd32c2x1_spi.c:0:1
__arm_cp.20_0:
	.long	1073819648                      @ 0x40013000
.Lcpi_end10:
	.size	__arm_cp.20_0, .Lcpi_end10-__arm_cp.20_0
.Lfunc_end20:
	.size	spi_i2s_data_transmit, .Lfunc_end20-spi_i2s_data_transmit
	.cfi_endproc
	.cantunwind
	.fnend
                                        @ -- End function
	.section	.text.spi_i2s_data_receive,"ax",%progbits
	.hidden	spi_i2s_data_receive            @ -- Begin function spi_i2s_data_receive
	.globl	spi_i2s_data_receive
	.p2align	2
	.type	spi_i2s_data_receive,%function
	.code	16                              @ @spi_i2s_data_receive
	.thumb_func
spi_i2s_data_receive:
.Lfunc_begin21:
	.loc	4 615 0 is_stmt 1               @ ../std/GD32C2x1_Firmware_Library/GD32C2x1_standard_peripheral/Source/gd32c2x1_spi.c:615:0
	.fnstart
	.cfi_startproc
@ %bb.0:
	.pad	#16
	sub	sp, #16
	.cfi_def_cfa_offset 16
	str	r0, [sp, #12]
	add	r1, sp, #8
	movs	r0, #0
.Ltmp111:
	.loc	4 616 14 prologue_end           @ ../std/GD32C2x1_Firmware_Library/GD32C2x1_standard_peripheral/Source/gd32c2x1_spi.c:616:14
	strh	r0, [r1]
.Ltmp112:
	.loc	4 620 16                        @ ../std/GD32C2x1_Firmware_Library/GD32C2x1_standard_peripheral/Source/gd32c2x1_spi.c:620:16
	ldr	r0, [sp, #12]
	ldr	r1, __arm_cp.21_0
.Ltmp113:
	.loc	4 620 8 is_stmt 0               @ ../std/GD32C2x1_Firmware_Library/GD32C2x1_standard_peripheral/Source/gd32c2x1_spi.c:620:8
	cmp	r0, r1
	bne	.LBB21_2
	b	.LBB21_1
.LBB21_1:
.Ltmp114:
	.loc	4 621 28 is_stmt 1              @ ../std/GD32C2x1_Firmware_Library/GD32C2x1_standard_peripheral/Source/gd32c2x1_spi.c:621:28
	ldr	r0, [sp, #12]
	ldr	r0, [r0, #12]
	add	r1, sp, #8
	.loc	4 621 15 is_stmt 0              @ ../std/GD32C2x1_Firmware_Library/GD32C2x1_standard_peripheral/Source/gd32c2x1_spi.c:621:15
	strh	r0, [r1]
	.loc	4 622 5 is_stmt 1               @ ../std/GD32C2x1_Firmware_Library/GD32C2x1_standard_peripheral/Source/gd32c2x1_spi.c:622:5
	b	.LBB21_6
.Ltmp115:
.LBB21_2:
	.loc	4 624 17                        @ ../std/GD32C2x1_Firmware_Library/GD32C2x1_standard_peripheral/Source/gd32c2x1_spi.c:624:17
	ldr	r0, [sp, #12]
	ldr	r0, [r0, #4]
	movw	r1, #4096
	.loc	4 624 38 is_stmt 0              @ ../std/GD32C2x1_Firmware_Library/GD32C2x1_standard_peripheral/Source/gd32c2x1_spi.c:624:38
	ands	r0, r1
	.loc	4 624 15                        @ ../std/GD32C2x1_Firmware_Library/GD32C2x1_standard_peripheral/Source/gd32c2x1_spi.c:624:15
	str	r0, [sp]
.Ltmp116:
	.loc	4 625 18 is_stmt 1              @ ../std/GD32C2x1_Firmware_Library/GD32C2x1_standard_peripheral/Source/gd32c2x1_spi.c:625:18
	ldr	r0, [sp]
.Ltmp117:
	.loc	4 625 12 is_stmt 0              @ ../std/GD32C2x1_Firmware_Library/GD32C2x1_standard_peripheral/Source/gd32c2x1_spi.c:625:12
	cbz	r0, .LBB21_4
	b	.LBB21_3
.LBB21_3:
.Ltmp118:
	.loc	4 626 19 is_stmt 1              @ ../std/GD32C2x1_Firmware_Library/GD32C2x1_standard_peripheral/Source/gd32c2x1_spi.c:626:19
	ldr	r0, [sp, #12]
	.loc	4 626 30 is_stmt 0              @ ../std/GD32C2x1_Firmware_Library/GD32C2x1_standard_peripheral/Source/gd32c2x1_spi.c:626:30
	adds	r0, #12
	.loc	4 626 17                        @ ../std/GD32C2x1_Firmware_Library/GD32C2x1_standard_peripheral/Source/gd32c2x1_spi.c:626:17
	str	r0, [sp, #4]
	.loc	4 627 45 is_stmt 1              @ ../std/GD32C2x1_Firmware_Library/GD32C2x1_standard_peripheral/Source/gd32c2x1_spi.c:627:45
	ldr	r0, [sp, #4]
	.loc	4 627 32 is_stmt 0              @ ../std/GD32C2x1_Firmware_Library/GD32C2x1_standard_peripheral/Source/gd32c2x1_spi.c:627:32
	ldrb	r0, [r0]
	add	r1, sp, #8
	.loc	4 627 19                        @ ../std/GD32C2x1_Firmware_Library/GD32C2x1_standard_peripheral/Source/gd32c2x1_spi.c:627:19
	strh	r0, [r1]
	.loc	4 628 9 is_stmt 1               @ ../std/GD32C2x1_Firmware_Library/GD32C2x1_standard_peripheral/Source/gd32c2x1_spi.c:628:9
	b	.LBB21_5
.Ltmp119:
.LBB21_4:
	.loc	4 629 32                        @ ../std/GD32C2x1_Firmware_Library/GD32C2x1_standard_peripheral/Source/gd32c2x1_spi.c:629:32
	ldr	r0, [sp, #12]
	ldr	r0, [r0, #12]
	add	r1, sp, #8
	.loc	4 629 19 is_stmt 0              @ ../std/GD32C2x1_Firmware_Library/GD32C2x1_standard_peripheral/Source/gd32c2x1_spi.c:629:19
	strh	r0, [r1]
	b	.LBB21_5
.Ltmp120:
.LBB21_5:
	.loc	4 0 19                          @ ../std/GD32C2x1_Firmware_Library/GD32C2x1_standard_peripheral/Source/gd32c2x1_spi.c:0:19
	b	.LBB21_6
.LBB21_6:
	add	r0, sp, #8
	.loc	4 633 12 is_stmt 1              @ ../std/GD32C2x1_Firmware_Library/GD32C2x1_standard_peripheral/Source/gd32c2x1_spi.c:633:12
	ldrh	r0, [r0]
	.loc	4 633 5 is_stmt 0               @ ../std/GD32C2x1_Firmware_Library/GD32C2x1_standard_peripheral/Source/gd32c2x1_spi.c:633:5
	add	sp, #16
	bx	lr
.Ltmp121:
	.p2align	2
@ %bb.7:
	.loc	4 0 5                           @ ../std/GD32C2x1_Firmware_Library/GD32C2x1_standard_peripheral/Source/gd32c2x1_spi.c:0:5
__arm_cp.21_0:
	.long	1073819648                      @ 0x40013000
.Lcpi_end11:
	.size	__arm_cp.21_0, .Lcpi_end11-__arm_cp.21_0
.Lfunc_end21:
	.size	spi_i2s_data_receive, .Lfunc_end21-spi_i2s_data_receive
	.cfi_endproc
	.cantunwind
	.fnend
                                        @ -- End function
	.section	.text.spi_crc_polynomial_set,"ax",%progbits
	.hidden	spi_crc_polynomial_set          @ -- Begin function spi_crc_polynomial_set
	.globl	spi_crc_polynomial_set
	.p2align	1
	.type	spi_crc_polynomial_set,%function
	.code	16                              @ @spi_crc_polynomial_set
	.thumb_func
spi_crc_polynomial_set:
.Lfunc_begin22:
	.loc	4 644 0 is_stmt 1               @ ../std/GD32C2x1_Firmware_Library/GD32C2x1_standard_peripheral/Source/gd32c2x1_spi.c:644:0
	.fnstart
	.cfi_startproc
@ %bb.0:
	.pad	#8
	sub	sp, #8
	.cfi_def_cfa_offset 8
                                        @ kill: def $r2 killed $r1
	str	r0, [sp, #4]
	mov	r0, sp
	strh	r1, [r0]
.Ltmp122:
	.loc	4 646 41 prologue_end           @ ../std/GD32C2x1_Firmware_Library/GD32C2x1_standard_peripheral/Source/gd32c2x1_spi.c:646:41
	ldrh	r0, [r0]
	.loc	4 646 5 is_stmt 0               @ ../std/GD32C2x1_Firmware_Library/GD32C2x1_standard_peripheral/Source/gd32c2x1_spi.c:646:5
	ldr	r1, [sp, #4]
	.loc	4 646 29                        @ ../std/GD32C2x1_Firmware_Library/GD32C2x1_standard_peripheral/Source/gd32c2x1_spi.c:646:29
	str	r0, [r1, #16]
	.loc	4 647 1 is_stmt 1               @ ../std/GD32C2x1_Firmware_Library/GD32C2x1_standard_peripheral/Source/gd32c2x1_spi.c:647:1
	add	sp, #8
	bx	lr
.Ltmp123:
.Lfunc_end22:
	.size	spi_crc_polynomial_set, .Lfunc_end22-spi_crc_polynomial_set
	.cfi_endproc
	.cantunwind
	.fnend
                                        @ -- End function
	.section	.text.spi_crc_polynomial_get,"ax",%progbits
	.hidden	spi_crc_polynomial_get          @ -- Begin function spi_crc_polynomial_get
	.globl	spi_crc_polynomial_get
	.p2align	1
	.type	spi_crc_polynomial_get,%function
	.code	16                              @ @spi_crc_polynomial_get
	.thumb_func
spi_crc_polynomial_get:
.Lfunc_begin23:
	.loc	4 656 0                         @ ../std/GD32C2x1_Firmware_Library/GD32C2x1_standard_peripheral/Source/gd32c2x1_spi.c:656:0
	.fnstart
	.cfi_startproc
@ %bb.0:
	.pad	#8
	sub	sp, #8
	.cfi_def_cfa_offset 8
	str	r0, [sp, #4]
	mov	r0, sp
	movs	r1, #0
.Ltmp124:
	.loc	4 657 14 prologue_end           @ ../std/GD32C2x1_Firmware_Library/GD32C2x1_standard_peripheral/Source/gd32c2x1_spi.c:657:14
	strh	r1, [r0]
	.loc	4 659 24                        @ ../std/GD32C2x1_Firmware_Library/GD32C2x1_standard_peripheral/Source/gd32c2x1_spi.c:659:24
	ldr	r1, [sp, #4]
	ldr	r1, [r1, #16]
	.loc	4 659 11 is_stmt 0              @ ../std/GD32C2x1_Firmware_Library/GD32C2x1_standard_peripheral/Source/gd32c2x1_spi.c:659:11
	strh	r1, [r0]
	.loc	4 660 12 is_stmt 1              @ ../std/GD32C2x1_Firmware_Library/GD32C2x1_standard_peripheral/Source/gd32c2x1_spi.c:660:12
	ldrh	r0, [r0]
	.loc	4 660 5 is_stmt 0               @ ../std/GD32C2x1_Firmware_Library/GD32C2x1_standard_peripheral/Source/gd32c2x1_spi.c:660:5
	add	sp, #8
	bx	lr
.Ltmp125:
.Lfunc_end23:
	.size	spi_crc_polynomial_get, .Lfunc_end23-spi_crc_polynomial_get
	.cfi_endproc
	.cantunwind
	.fnend
                                        @ -- End function
	.section	.text.spi_crc_length_set,"ax",%progbits
	.hidden	spi_crc_length_set              @ -- Begin function spi_crc_length_set
	.globl	spi_crc_length_set
	.p2align	1
	.type	spi_crc_length_set,%function
	.code	16                              @ @spi_crc_length_set
	.thumb_func
spi_crc_length_set:
.Lfunc_begin24:
	.loc	4 674 0 is_stmt 1               @ ../std/GD32C2x1_Firmware_Library/GD32C2x1_standard_peripheral/Source/gd32c2x1_spi.c:674:0
	.fnstart
	.cfi_startproc
@ %bb.0:
	.pad	#12
	sub	sp, #12
	.cfi_def_cfa_offset 12
	str	r1, [sp]                        @ 4-byte Spill
	mov	r1, r0
	ldr	r0, [sp]                        @ 4-byte Reload
                                        @ kill: def $r2 killed $r0
	str	r1, [sp, #8]
	add	r1, sp, #4
	strh	r0, [r1]
.Ltmp126:
	.loc	4 676 5 prologue_end            @ ../std/GD32C2x1_Firmware_Library/GD32C2x1_standard_peripheral/Source/gd32c2x1_spi.c:676:5
	ldr	r3, [sp, #8]
	.loc	4 676 26 is_stmt 0              @ ../std/GD32C2x1_Firmware_Library/GD32C2x1_standard_peripheral/Source/gd32c2x1_spi.c:676:26
	ldr	r2, [r3]
	movw	r0, #2048
	bics	r2, r0
	str	r2, [r3]
	.loc	4 678 40 is_stmt 1              @ ../std/GD32C2x1_Firmware_Library/GD32C2x1_standard_peripheral/Source/gd32c2x1_spi.c:678:40
	ldrh	r2, [r1]
	.loc	4 678 51 is_stmt 0              @ ../std/GD32C2x1_Firmware_Library/GD32C2x1_standard_peripheral/Source/gd32c2x1_spi.c:678:51
	ands	r2, r0
	.loc	4 678 5                         @ ../std/GD32C2x1_Firmware_Library/GD32C2x1_standard_peripheral/Source/gd32c2x1_spi.c:678:5
	ldr	r1, [sp, #8]
	.loc	4 678 26                        @ ../std/GD32C2x1_Firmware_Library/GD32C2x1_standard_peripheral/Source/gd32c2x1_spi.c:678:26
	ldr	r0, [r1]
	orrs	r0, r2
	str	r0, [r1]
	.loc	4 679 1 is_stmt 1               @ ../std/GD32C2x1_Firmware_Library/GD32C2x1_standard_peripheral/Source/gd32c2x1_spi.c:679:1
	add	sp, #12
	bx	lr
.Ltmp127:
.Lfunc_end24:
	.size	spi_crc_length_set, .Lfunc_end24-spi_crc_length_set
	.cfi_endproc
	.cantunwind
	.fnend
                                        @ -- End function
	.section	.text.spi_crc_on,"ax",%progbits
	.hidden	spi_crc_on                      @ -- Begin function spi_crc_on
	.globl	spi_crc_on
	.p2align	1
	.type	spi_crc_on,%function
	.code	16                              @ @spi_crc_on
	.thumb_func
spi_crc_on:
.Lfunc_begin25:
	.loc	4 688 0                         @ ../std/GD32C2x1_Firmware_Library/GD32C2x1_standard_peripheral/Source/gd32c2x1_spi.c:688:0
	.fnstart
	.cfi_startproc
@ %bb.0:
	.pad	#4
	sub	sp, #4
	.cfi_def_cfa_offset 4
	str	r0, [sp]
.Ltmp128:
	.loc	4 689 5 prologue_end            @ ../std/GD32C2x1_Firmware_Library/GD32C2x1_standard_peripheral/Source/gd32c2x1_spi.c:689:5
	ldr	r1, [sp]
	.loc	4 689 26 is_stmt 0              @ ../std/GD32C2x1_Firmware_Library/GD32C2x1_standard_peripheral/Source/gd32c2x1_spi.c:689:26
	ldr	r0, [r1]
	movw	r2, #8192
	orrs	r0, r2
	str	r0, [r1]
	.loc	4 690 1 is_stmt 1               @ ../std/GD32C2x1_Firmware_Library/GD32C2x1_standard_peripheral/Source/gd32c2x1_spi.c:690:1
	add	sp, #4
	bx	lr
.Ltmp129:
.Lfunc_end25:
	.size	spi_crc_on, .Lfunc_end25-spi_crc_on
	.cfi_endproc
	.cantunwind
	.fnend
                                        @ -- End function
	.section	.text.spi_crc_off,"ax",%progbits
	.hidden	spi_crc_off                     @ -- Begin function spi_crc_off
	.globl	spi_crc_off
	.p2align	1
	.type	spi_crc_off,%function
	.code	16                              @ @spi_crc_off
	.thumb_func
spi_crc_off:
.Lfunc_begin26:
	.loc	4 699 0                         @ ../std/GD32C2x1_Firmware_Library/GD32C2x1_standard_peripheral/Source/gd32c2x1_spi.c:699:0
	.fnstart
	.cfi_startproc
@ %bb.0:
	.pad	#4
	sub	sp, #4
	.cfi_def_cfa_offset 4
	str	r0, [sp]
.Ltmp130:
	.loc	4 700 5 prologue_end            @ ../std/GD32C2x1_Firmware_Library/GD32C2x1_standard_peripheral/Source/gd32c2x1_spi.c:700:5
	ldr	r1, [sp]
	.loc	4 700 26 is_stmt 0              @ ../std/GD32C2x1_Firmware_Library/GD32C2x1_standard_peripheral/Source/gd32c2x1_spi.c:700:26
	ldr	r0, [r1]
	movw	r2, #8192
	bics	r0, r2
	str	r0, [r1]
	.loc	4 701 1 is_stmt 1               @ ../std/GD32C2x1_Firmware_Library/GD32C2x1_standard_peripheral/Source/gd32c2x1_spi.c:701:1
	add	sp, #4
	bx	lr
.Ltmp131:
.Lfunc_end26:
	.size	spi_crc_off, .Lfunc_end26-spi_crc_off
	.cfi_endproc
	.cantunwind
	.fnend
                                        @ -- End function
	.section	.text.spi_crc_next,"ax",%progbits
	.hidden	spi_crc_next                    @ -- Begin function spi_crc_next
	.globl	spi_crc_next
	.p2align	1
	.type	spi_crc_next,%function
	.code	16                              @ @spi_crc_next
	.thumb_func
spi_crc_next:
.Lfunc_begin27:
	.loc	4 710 0                         @ ../std/GD32C2x1_Firmware_Library/GD32C2x1_standard_peripheral/Source/gd32c2x1_spi.c:710:0
	.fnstart
	.cfi_startproc
@ %bb.0:
	.pad	#4
	sub	sp, #4
	.cfi_def_cfa_offset 4
	str	r0, [sp]
.Ltmp132:
	.loc	4 711 5 prologue_end            @ ../std/GD32C2x1_Firmware_Library/GD32C2x1_standard_peripheral/Source/gd32c2x1_spi.c:711:5
	ldr	r1, [sp]
	.loc	4 711 26 is_stmt 0              @ ../std/GD32C2x1_Firmware_Library/GD32C2x1_standard_peripheral/Source/gd32c2x1_spi.c:711:26
	ldr	r0, [r1]
	movw	r2, #4096
	orrs	r0, r2
	str	r0, [r1]
	.loc	4 712 1 is_stmt 1               @ ../std/GD32C2x1_Firmware_Library/GD32C2x1_standard_peripheral/Source/gd32c2x1_spi.c:712:1
	add	sp, #4
	bx	lr
.Ltmp133:
.Lfunc_end27:
	.size	spi_crc_next, .Lfunc_end27-spi_crc_next
	.cfi_endproc
	.cantunwind
	.fnend
                                        @ -- End function
	.section	.text.spi_crc_get,"ax",%progbits
	.hidden	spi_crc_get                     @ -- Begin function spi_crc_get
	.globl	spi_crc_get
	.p2align	1
	.type	spi_crc_get,%function
	.code	16                              @ @spi_crc_get
	.thumb_func
spi_crc_get:
.Lfunc_begin28:
	.loc	4 725 0                         @ ../std/GD32C2x1_Firmware_Library/GD32C2x1_standard_peripheral/Source/gd32c2x1_spi.c:725:0
	.fnstart
	.cfi_startproc
@ %bb.0:
	.pad	#12
	sub	sp, #12
	.cfi_def_cfa_offset 12
                                        @ kill: def $r2 killed $r1
	str	r0, [sp, #8]
	add	r0, sp, #4
	strb	r1, [r0]
	mov	r2, sp
	movs	r1, #0
.Ltmp134:
	.loc	4 726 14 prologue_end           @ ../std/GD32C2x1_Firmware_Library/GD32C2x1_standard_peripheral/Source/gd32c2x1_spi.c:726:14
	strh	r1, [r2]
.Ltmp135:
	.loc	4 728 22                        @ ../std/GD32C2x1_Firmware_Library/GD32C2x1_standard_peripheral/Source/gd32c2x1_spi.c:728:22
	ldrb	r0, [r0]
.Ltmp136:
	.loc	4 728 8 is_stmt 0               @ ../std/GD32C2x1_Firmware_Library/GD32C2x1_standard_peripheral/Source/gd32c2x1_spi.c:728:8
	cbnz	r0, .LBB28_2
	b	.LBB28_1
.LBB28_1:
.Ltmp137:
	.loc	4 729 29 is_stmt 1              @ ../std/GD32C2x1_Firmware_Library/GD32C2x1_standard_peripheral/Source/gd32c2x1_spi.c:729:29
	ldr	r0, [sp, #8]
	ldr	r0, [r0, #24]
	mov	r1, sp
	.loc	4 729 15 is_stmt 0              @ ../std/GD32C2x1_Firmware_Library/GD32C2x1_standard_peripheral/Source/gd32c2x1_spi.c:729:15
	strh	r0, [r1]
	.loc	4 730 5 is_stmt 1               @ ../std/GD32C2x1_Firmware_Library/GD32C2x1_standard_peripheral/Source/gd32c2x1_spi.c:730:5
	b	.LBB28_3
.Ltmp138:
.LBB28_2:
	.loc	4 731 29                        @ ../std/GD32C2x1_Firmware_Library/GD32C2x1_standard_peripheral/Source/gd32c2x1_spi.c:731:29
	ldr	r0, [sp, #8]
	ldr	r0, [r0, #20]
	mov	r1, sp
	.loc	4 731 15 is_stmt 0              @ ../std/GD32C2x1_Firmware_Library/GD32C2x1_standard_peripheral/Source/gd32c2x1_spi.c:731:15
	strh	r0, [r1]
	b	.LBB28_3
.Ltmp139:
.LBB28_3:
	.loc	4 0 15                          @ ../std/GD32C2x1_Firmware_Library/GD32C2x1_standard_peripheral/Source/gd32c2x1_spi.c:0:15
	mov	r0, sp
	.loc	4 733 12 is_stmt 1              @ ../std/GD32C2x1_Firmware_Library/GD32C2x1_standard_peripheral/Source/gd32c2x1_spi.c:733:12
	ldrh	r0, [r0]
	.loc	4 733 5 is_stmt 0               @ ../std/GD32C2x1_Firmware_Library/GD32C2x1_standard_peripheral/Source/gd32c2x1_spi.c:733:5
	add	sp, #12
	bx	lr
.Ltmp140:
.Lfunc_end28:
	.size	spi_crc_get, .Lfunc_end28-spi_crc_get
	.cfi_endproc
	.cantunwind
	.fnend
                                        @ -- End function
	.section	.text.spi_crc_error_clear,"ax",%progbits
	.hidden	spi_crc_error_clear             @ -- Begin function spi_crc_error_clear
	.globl	spi_crc_error_clear
	.p2align	1
	.type	spi_crc_error_clear,%function
	.code	16                              @ @spi_crc_error_clear
	.thumb_func
spi_crc_error_clear:
.Lfunc_begin29:
	.loc	4 743 0 is_stmt 1               @ ../std/GD32C2x1_Firmware_Library/GD32C2x1_standard_peripheral/Source/gd32c2x1_spi.c:743:0
	.fnstart
	.cfi_startproc
@ %bb.0:
	.pad	#4
	sub	sp, #4
	.cfi_def_cfa_offset 4
	str	r0, [sp]
.Ltmp141:
	.loc	4 744 5 prologue_end            @ ../std/GD32C2x1_Firmware_Library/GD32C2x1_standard_peripheral/Source/gd32c2x1_spi.c:744:5
	ldr	r1, [sp]
	.loc	4 744 26 is_stmt 0              @ ../std/GD32C2x1_Firmware_Library/GD32C2x1_standard_peripheral/Source/gd32c2x1_spi.c:744:26
	ldr	r0, [r1, #8]
	movs	r2, #16
	bics	r0, r2
	str	r0, [r1, #8]
	.loc	4 745 1 is_stmt 1               @ ../std/GD32C2x1_Firmware_Library/GD32C2x1_standard_peripheral/Source/gd32c2x1_spi.c:745:1
	add	sp, #4
	bx	lr
.Ltmp142:
.Lfunc_end29:
	.size	spi_crc_error_clear, .Lfunc_end29-spi_crc_error_clear
	.cfi_endproc
	.cantunwind
	.fnend
                                        @ -- End function
	.section	.text.spi_ti_mode_enable,"ax",%progbits
	.hidden	spi_ti_mode_enable              @ -- Begin function spi_ti_mode_enable
	.globl	spi_ti_mode_enable
	.p2align	1
	.type	spi_ti_mode_enable,%function
	.code	16                              @ @spi_ti_mode_enable
	.thumb_func
spi_ti_mode_enable:
.Lfunc_begin30:
	.loc	4 754 0                         @ ../std/GD32C2x1_Firmware_Library/GD32C2x1_standard_peripheral/Source/gd32c2x1_spi.c:754:0
	.fnstart
	.cfi_startproc
@ %bb.0:
	.pad	#4
	sub	sp, #4
	.cfi_def_cfa_offset 4
	str	r0, [sp]
.Ltmp143:
	.loc	4 755 5 prologue_end            @ ../std/GD32C2x1_Firmware_Library/GD32C2x1_standard_peripheral/Source/gd32c2x1_spi.c:755:5
	ldr	r1, [sp]
	.loc	4 755 26 is_stmt 0              @ ../std/GD32C2x1_Firmware_Library/GD32C2x1_standard_peripheral/Source/gd32c2x1_spi.c:755:26
	ldr	r0, [r1, #4]
	movs	r2, #16
	orrs	r0, r2
	str	r0, [r1, #4]
	.loc	4 756 1 is_stmt 1               @ ../std/GD32C2x1_Firmware_Library/GD32C2x1_standard_peripheral/Source/gd32c2x1_spi.c:756:1
	add	sp, #4
	bx	lr
.Ltmp144:
.Lfunc_end30:
	.size	spi_ti_mode_enable, .Lfunc_end30-spi_ti_mode_enable
	.cfi_endproc
	.cantunwind
	.fnend
                                        @ -- End function
	.section	.text.spi_ti_mode_disable,"ax",%progbits
	.hidden	spi_ti_mode_disable             @ -- Begin function spi_ti_mode_disable
	.globl	spi_ti_mode_disable
	.p2align	1
	.type	spi_ti_mode_disable,%function
	.code	16                              @ @spi_ti_mode_disable
	.thumb_func
spi_ti_mode_disable:
.Lfunc_begin31:
	.loc	4 765 0                         @ ../std/GD32C2x1_Firmware_Library/GD32C2x1_standard_peripheral/Source/gd32c2x1_spi.c:765:0
	.fnstart
	.cfi_startproc
@ %bb.0:
	.pad	#4
	sub	sp, #4
	.cfi_def_cfa_offset 4
	str	r0, [sp]
.Ltmp145:
	.loc	4 766 5 prologue_end            @ ../std/GD32C2x1_Firmware_Library/GD32C2x1_standard_peripheral/Source/gd32c2x1_spi.c:766:5
	ldr	r1, [sp]
	.loc	4 766 26 is_stmt 0              @ ../std/GD32C2x1_Firmware_Library/GD32C2x1_standard_peripheral/Source/gd32c2x1_spi.c:766:26
	ldr	r0, [r1, #4]
	movs	r2, #16
	bics	r0, r2
	str	r0, [r1, #4]
	.loc	4 767 1 is_stmt 1               @ ../std/GD32C2x1_Firmware_Library/GD32C2x1_standard_peripheral/Source/gd32c2x1_spi.c:767:1
	add	sp, #4
	bx	lr
.Ltmp146:
.Lfunc_end31:
	.size	spi_ti_mode_disable, .Lfunc_end31-spi_ti_mode_disable
	.cfi_endproc
	.cantunwind
	.fnend
                                        @ -- End function
	.section	.text.spi_nssp_mode_enable,"ax",%progbits
	.hidden	spi_nssp_mode_enable            @ -- Begin function spi_nssp_mode_enable
	.globl	spi_nssp_mode_enable
	.p2align	1
	.type	spi_nssp_mode_enable,%function
	.code	16                              @ @spi_nssp_mode_enable
	.thumb_func
spi_nssp_mode_enable:
.Lfunc_begin32:
	.loc	4 776 0                         @ ../std/GD32C2x1_Firmware_Library/GD32C2x1_standard_peripheral/Source/gd32c2x1_spi.c:776:0
	.fnstart
	.cfi_startproc
@ %bb.0:
	.pad	#4
	sub	sp, #4
	.cfi_def_cfa_offset 4
	str	r0, [sp]
.Ltmp147:
	.loc	4 777 5 prologue_end            @ ../std/GD32C2x1_Firmware_Library/GD32C2x1_standard_peripheral/Source/gd32c2x1_spi.c:777:5
	ldr	r1, [sp]
	.loc	4 777 26 is_stmt 0              @ ../std/GD32C2x1_Firmware_Library/GD32C2x1_standard_peripheral/Source/gd32c2x1_spi.c:777:26
	ldr	r0, [r1, #4]
	movs	r2, #8
	orrs	r0, r2
	str	r0, [r1, #4]
	.loc	4 778 1 is_stmt 1               @ ../std/GD32C2x1_Firmware_Library/GD32C2x1_standard_peripheral/Source/gd32c2x1_spi.c:778:1
	add	sp, #4
	bx	lr
.Ltmp148:
.Lfunc_end32:
	.size	spi_nssp_mode_enable, .Lfunc_end32-spi_nssp_mode_enable
	.cfi_endproc
	.cantunwind
	.fnend
                                        @ -- End function
	.section	.text.spi_nssp_mode_disable,"ax",%progbits
	.hidden	spi_nssp_mode_disable           @ -- Begin function spi_nssp_mode_disable
	.globl	spi_nssp_mode_disable
	.p2align	1
	.type	spi_nssp_mode_disable,%function
	.code	16                              @ @spi_nssp_mode_disable
	.thumb_func
spi_nssp_mode_disable:
.Lfunc_begin33:
	.loc	4 787 0                         @ ../std/GD32C2x1_Firmware_Library/GD32C2x1_standard_peripheral/Source/gd32c2x1_spi.c:787:0
	.fnstart
	.cfi_startproc
@ %bb.0:
	.pad	#4
	sub	sp, #4
	.cfi_def_cfa_offset 4
	str	r0, [sp]
.Ltmp149:
	.loc	4 788 5 prologue_end            @ ../std/GD32C2x1_Firmware_Library/GD32C2x1_standard_peripheral/Source/gd32c2x1_spi.c:788:5
	ldr	r1, [sp]
	.loc	4 788 26 is_stmt 0              @ ../std/GD32C2x1_Firmware_Library/GD32C2x1_standard_peripheral/Source/gd32c2x1_spi.c:788:26
	ldr	r0, [r1, #4]
	movs	r2, #8
	bics	r0, r2
	str	r0, [r1, #4]
	.loc	4 789 1 is_stmt 1               @ ../std/GD32C2x1_Firmware_Library/GD32C2x1_standard_peripheral/Source/gd32c2x1_spi.c:789:1
	add	sp, #4
	bx	lr
.Ltmp150:
.Lfunc_end33:
	.size	spi_nssp_mode_disable, .Lfunc_end33-spi_nssp_mode_disable
	.cfi_endproc
	.cantunwind
	.fnend
                                        @ -- End function
	.section	.text.spi_quad_enable,"ax",%progbits
	.hidden	spi_quad_enable                 @ -- Begin function spi_quad_enable
	.globl	spi_quad_enable
	.p2align	1
	.type	spi_quad_enable,%function
	.code	16                              @ @spi_quad_enable
	.thumb_func
spi_quad_enable:
.Lfunc_begin34:
	.loc	4 798 0                         @ ../std/GD32C2x1_Firmware_Library/GD32C2x1_standard_peripheral/Source/gd32c2x1_spi.c:798:0
	.fnstart
	.cfi_startproc
@ %bb.0:
	.pad	#4
	sub	sp, #4
	.cfi_def_cfa_offset 4
	str	r0, [sp]
.Ltmp151:
	.loc	4 799 5 prologue_end            @ ../std/GD32C2x1_Firmware_Library/GD32C2x1_standard_peripheral/Source/gd32c2x1_spi.c:799:5
	ldr	r1, [sp]
	movs	r2, #128
	.loc	4 799 26 is_stmt 0              @ ../std/GD32C2x1_Firmware_Library/GD32C2x1_standard_peripheral/Source/gd32c2x1_spi.c:799:26
	ldr	r0, [r1, r2]
	movs	r3, #1
	orrs	r0, r3
	str	r0, [r1, r2]
	.loc	4 800 1 is_stmt 1               @ ../std/GD32C2x1_Firmware_Library/GD32C2x1_standard_peripheral/Source/gd32c2x1_spi.c:800:1
	add	sp, #4
	bx	lr
.Ltmp152:
.Lfunc_end34:
	.size	spi_quad_enable, .Lfunc_end34-spi_quad_enable
	.cfi_endproc
	.cantunwind
	.fnend
                                        @ -- End function
	.section	.text.spi_quad_disable,"ax",%progbits
	.hidden	spi_quad_disable                @ -- Begin function spi_quad_disable
	.globl	spi_quad_disable
	.p2align	1
	.type	spi_quad_disable,%function
	.code	16                              @ @spi_quad_disable
	.thumb_func
spi_quad_disable:
.Lfunc_begin35:
	.loc	4 809 0                         @ ../std/GD32C2x1_Firmware_Library/GD32C2x1_standard_peripheral/Source/gd32c2x1_spi.c:809:0
	.fnstart
	.cfi_startproc
@ %bb.0:
	.pad	#4
	sub	sp, #4
	.cfi_def_cfa_offset 4
	str	r0, [sp]
.Ltmp153:
	.loc	4 810 5 prologue_end            @ ../std/GD32C2x1_Firmware_Library/GD32C2x1_standard_peripheral/Source/gd32c2x1_spi.c:810:5
	ldr	r1, [sp]
	movs	r2, #128
	.loc	4 810 26 is_stmt 0              @ ../std/GD32C2x1_Firmware_Library/GD32C2x1_standard_peripheral/Source/gd32c2x1_spi.c:810:26
	ldr	r0, [r1, r2]
	movs	r3, #1
	bics	r0, r3
	str	r0, [r1, r2]
	.loc	4 811 1 is_stmt 1               @ ../std/GD32C2x1_Firmware_Library/GD32C2x1_standard_peripheral/Source/gd32c2x1_spi.c:811:1
	add	sp, #4
	bx	lr
.Ltmp154:
.Lfunc_end35:
	.size	spi_quad_disable, .Lfunc_end35-spi_quad_disable
	.cfi_endproc
	.cantunwind
	.fnend
                                        @ -- End function
	.section	.text.spi_quad_write_enable,"ax",%progbits
	.hidden	spi_quad_write_enable           @ -- Begin function spi_quad_write_enable
	.globl	spi_quad_write_enable
	.p2align	1
	.type	spi_quad_write_enable,%function
	.code	16                              @ @spi_quad_write_enable
	.thumb_func
spi_quad_write_enable:
.Lfunc_begin36:
	.loc	4 820 0                         @ ../std/GD32C2x1_Firmware_Library/GD32C2x1_standard_peripheral/Source/gd32c2x1_spi.c:820:0
	.fnstart
	.cfi_startproc
@ %bb.0:
	.pad	#4
	sub	sp, #4
	.cfi_def_cfa_offset 4
	str	r0, [sp]
.Ltmp155:
	.loc	4 821 5 prologue_end            @ ../std/GD32C2x1_Firmware_Library/GD32C2x1_standard_peripheral/Source/gd32c2x1_spi.c:821:5
	ldr	r1, [sp]
	movs	r2, #128
	.loc	4 821 26 is_stmt 0              @ ../std/GD32C2x1_Firmware_Library/GD32C2x1_standard_peripheral/Source/gd32c2x1_spi.c:821:26
	ldr	r0, [r1, r2]
	movs	r3, #2
	bics	r0, r3
	str	r0, [r1, r2]
	.loc	4 822 1 is_stmt 1               @ ../std/GD32C2x1_Firmware_Library/GD32C2x1_standard_peripheral/Source/gd32c2x1_spi.c:822:1
	add	sp, #4
	bx	lr
.Ltmp156:
.Lfunc_end36:
	.size	spi_quad_write_enable, .Lfunc_end36-spi_quad_write_enable
	.cfi_endproc
	.cantunwind
	.fnend
                                        @ -- End function
	.section	.text.spi_quad_read_enable,"ax",%progbits
	.hidden	spi_quad_read_enable            @ -- Begin function spi_quad_read_enable
	.globl	spi_quad_read_enable
	.p2align	1
	.type	spi_quad_read_enable,%function
	.code	16                              @ @spi_quad_read_enable
	.thumb_func
spi_quad_read_enable:
.Lfunc_begin37:
	.loc	4 831 0                         @ ../std/GD32C2x1_Firmware_Library/GD32C2x1_standard_peripheral/Source/gd32c2x1_spi.c:831:0
	.fnstart
	.cfi_startproc
@ %bb.0:
	.pad	#4
	sub	sp, #4
	.cfi_def_cfa_offset 4
	str	r0, [sp]
.Ltmp157:
	.loc	4 832 5 prologue_end            @ ../std/GD32C2x1_Firmware_Library/GD32C2x1_standard_peripheral/Source/gd32c2x1_spi.c:832:5
	ldr	r1, [sp]
	movs	r2, #128
	.loc	4 832 26 is_stmt 0              @ ../std/GD32C2x1_Firmware_Library/GD32C2x1_standard_peripheral/Source/gd32c2x1_spi.c:832:26
	ldr	r0, [r1, r2]
	movs	r3, #2
	orrs	r0, r3
	str	r0, [r1, r2]
	.loc	4 833 1 is_stmt 1               @ ../std/GD32C2x1_Firmware_Library/GD32C2x1_standard_peripheral/Source/gd32c2x1_spi.c:833:1
	add	sp, #4
	bx	lr
.Ltmp158:
.Lfunc_end37:
	.size	spi_quad_read_enable, .Lfunc_end37-spi_quad_read_enable
	.cfi_endproc
	.cantunwind
	.fnend
                                        @ -- End function
	.section	.text.spi_quad_io23_output_enable,"ax",%progbits
	.hidden	spi_quad_io23_output_enable     @ -- Begin function spi_quad_io23_output_enable
	.globl	spi_quad_io23_output_enable
	.p2align	1
	.type	spi_quad_io23_output_enable,%function
	.code	16                              @ @spi_quad_io23_output_enable
	.thumb_func
spi_quad_io23_output_enable:
.Lfunc_begin38:
	.loc	4 842 0                         @ ../std/GD32C2x1_Firmware_Library/GD32C2x1_standard_peripheral/Source/gd32c2x1_spi.c:842:0
	.fnstart
	.cfi_startproc
@ %bb.0:
	.pad	#4
	sub	sp, #4
	.cfi_def_cfa_offset 4
	str	r0, [sp]
.Ltmp159:
	.loc	4 843 5 prologue_end            @ ../std/GD32C2x1_Firmware_Library/GD32C2x1_standard_peripheral/Source/gd32c2x1_spi.c:843:5
	ldr	r1, [sp]
	movs	r2, #128
	.loc	4 843 26 is_stmt 0              @ ../std/GD32C2x1_Firmware_Library/GD32C2x1_standard_peripheral/Source/gd32c2x1_spi.c:843:26
	ldr	r0, [r1, r2]
	movs	r3, #4
	orrs	r0, r3
	str	r0, [r1, r2]
	.loc	4 844 1 is_stmt 1               @ ../std/GD32C2x1_Firmware_Library/GD32C2x1_standard_peripheral/Source/gd32c2x1_spi.c:844:1
	add	sp, #4
	bx	lr
.Ltmp160:
.Lfunc_end38:
	.size	spi_quad_io23_output_enable, .Lfunc_end38-spi_quad_io23_output_enable
	.cfi_endproc
	.cantunwind
	.fnend
                                        @ -- End function
	.section	.text.spi_quad_io23_output_disable,"ax",%progbits
	.hidden	spi_quad_io23_output_disable    @ -- Begin function spi_quad_io23_output_disable
	.globl	spi_quad_io23_output_disable
	.p2align	1
	.type	spi_quad_io23_output_disable,%function
	.code	16                              @ @spi_quad_io23_output_disable
	.thumb_func
spi_quad_io23_output_disable:
.Lfunc_begin39:
	.loc	4 853 0                         @ ../std/GD32C2x1_Firmware_Library/GD32C2x1_standard_peripheral/Source/gd32c2x1_spi.c:853:0
	.fnstart
	.cfi_startproc
@ %bb.0:
	.pad	#4
	sub	sp, #4
	.cfi_def_cfa_offset 4
	str	r0, [sp]
.Ltmp161:
	.loc	4 854 5 prologue_end            @ ../std/GD32C2x1_Firmware_Library/GD32C2x1_standard_peripheral/Source/gd32c2x1_spi.c:854:5
	ldr	r1, [sp]
	movs	r2, #128
	.loc	4 854 26 is_stmt 0              @ ../std/GD32C2x1_Firmware_Library/GD32C2x1_standard_peripheral/Source/gd32c2x1_spi.c:854:26
	ldr	r0, [r1, r2]
	movs	r3, #4
	bics	r0, r3
	str	r0, [r1, r2]
	.loc	4 855 1 is_stmt 1               @ ../std/GD32C2x1_Firmware_Library/GD32C2x1_standard_peripheral/Source/gd32c2x1_spi.c:855:1
	add	sp, #4
	bx	lr
.Ltmp162:
.Lfunc_end39:
	.size	spi_quad_io23_output_disable, .Lfunc_end39-spi_quad_io23_output_disable
	.cfi_endproc
	.cantunwind
	.fnend
                                        @ -- End function
	.section	.text.spi_i2s_format_error_clear,"ax",%progbits
	.hidden	spi_i2s_format_error_clear      @ -- Begin function spi_i2s_format_error_clear
	.globl	spi_i2s_format_error_clear
	.p2align	1
	.type	spi_i2s_format_error_clear,%function
	.code	16                              @ @spi_i2s_format_error_clear
	.thumb_func
spi_i2s_format_error_clear:
.Lfunc_begin40:
	.loc	4 868 0                         @ ../std/GD32C2x1_Firmware_Library/GD32C2x1_standard_peripheral/Source/gd32c2x1_spi.c:868:0
	.fnstart
	.cfi_startproc
@ %bb.0:
	.pad	#8
	sub	sp, #8
	.cfi_def_cfa_offset 8
	str	r0, [sp, #4]
	str	r1, [sp]
.Ltmp163:
	.loc	4 869 40 prologue_end           @ ../std/GD32C2x1_Firmware_Library/GD32C2x1_standard_peripheral/Source/gd32c2x1_spi.c:869:40
	ldr	r0, [sp]
	.loc	4 869 39 is_stmt 0              @ ../std/GD32C2x1_Firmware_Library/GD32C2x1_standard_peripheral/Source/gd32c2x1_spi.c:869:39
	mvns	r0, r0
	.loc	4 869 5                         @ ../std/GD32C2x1_Firmware_Library/GD32C2x1_standard_peripheral/Source/gd32c2x1_spi.c:869:5
	ldr	r1, [sp, #4]
	.loc	4 869 26                        @ ../std/GD32C2x1_Firmware_Library/GD32C2x1_standard_peripheral/Source/gd32c2x1_spi.c:869:26
	str	r0, [r1, #8]
	.loc	4 870 1 is_stmt 1               @ ../std/GD32C2x1_Firmware_Library/GD32C2x1_standard_peripheral/Source/gd32c2x1_spi.c:870:1
	add	sp, #8
	bx	lr
.Ltmp164:
.Lfunc_end40:
	.size	spi_i2s_format_error_clear, .Lfunc_end40-spi_i2s_format_error_clear
	.cfi_endproc
	.cantunwind
	.fnend
                                        @ -- End function
	.section	.text.spi_i2s_flag_get,"ax",%progbits
	.hidden	spi_i2s_flag_get                @ -- Begin function spi_i2s_flag_get
	.globl	spi_i2s_flag_get
	.p2align	1
	.type	spi_i2s_flag_get,%function
	.code	16                              @ @spi_i2s_flag_get
	.thumb_func
spi_i2s_flag_get:
.Lfunc_begin41:
	.loc	4 904 0                         @ ../std/GD32C2x1_Firmware_Library/GD32C2x1_standard_peripheral/Source/gd32c2x1_spi.c:904:0
	.fnstart
	.cfi_startproc
@ %bb.0:
	.pad	#16
	sub	sp, #16
	.cfi_def_cfa_offset 16
	str	r0, [sp, #12]
	str	r1, [sp, #8]
	add	r1, sp, #4
	movs	r0, #0
.Ltmp165:
	.loc	4 905 16 prologue_end           @ ../std/GD32C2x1_Firmware_Library/GD32C2x1_standard_peripheral/Source/gd32c2x1_spi.c:905:16
	strb	r0, [r1]
	.loc	4 906 20                        @ ../std/GD32C2x1_Firmware_Library/GD32C2x1_standard_peripheral/Source/gd32c2x1_spi.c:906:20
	ldr	r0, [sp, #12]
	ldr	r0, [r0, #8]
	.loc	4 906 14 is_stmt 0              @ ../std/GD32C2x1_Firmware_Library/GD32C2x1_standard_peripheral/Source/gd32c2x1_spi.c:906:14
	str	r0, [sp]
@ %bb.1:
.Ltmp166:
	.loc	4 936 19 is_stmt 1              @ ../std/GD32C2x1_Firmware_Library/GD32C2x1_standard_peripheral/Source/gd32c2x1_spi.c:936:19
	ldr	r0, [sp]
	.loc	4 936 25 is_stmt 0              @ ../std/GD32C2x1_Firmware_Library/GD32C2x1_standard_peripheral/Source/gd32c2x1_spi.c:936:25
	ldr	r1, [sp, #8]
.Ltmp167:
	.loc	4 936 12                        @ ../std/GD32C2x1_Firmware_Library/GD32C2x1_standard_peripheral/Source/gd32c2x1_spi.c:936:12
	tst	r0, r1
	beq	.LBB41_3
	b	.LBB41_2
.LBB41_2:
	.loc	4 0 12                          @ ../std/GD32C2x1_Firmware_Library/GD32C2x1_standard_peripheral/Source/gd32c2x1_spi.c:0:12
	add	r1, sp, #4
	movs	r0, #1
.Ltmp168:
	.loc	4 937 19 is_stmt 1              @ ../std/GD32C2x1_Firmware_Library/GD32C2x1_standard_peripheral/Source/gd32c2x1_spi.c:937:19
	strb	r0, [r1]
	.loc	4 938 9                         @ ../std/GD32C2x1_Firmware_Library/GD32C2x1_standard_peripheral/Source/gd32c2x1_spi.c:938:9
	b	.LBB41_3
.Ltmp169:
.LBB41_3:
	.loc	4 939 9                         @ ../std/GD32C2x1_Firmware_Library/GD32C2x1_standard_peripheral/Source/gd32c2x1_spi.c:939:9
	b	.LBB41_4
.Ltmp170:
.LBB41_4:
	.loc	4 0 9 is_stmt 0                 @ ../std/GD32C2x1_Firmware_Library/GD32C2x1_standard_peripheral/Source/gd32c2x1_spi.c:0:9
	add	r0, sp, #4
	.loc	4 942 12 is_stmt 1              @ ../std/GD32C2x1_Firmware_Library/GD32C2x1_standard_peripheral/Source/gd32c2x1_spi.c:942:12
	ldrb	r0, [r0]
	.loc	4 942 5 is_stmt 0               @ ../std/GD32C2x1_Firmware_Library/GD32C2x1_standard_peripheral/Source/gd32c2x1_spi.c:942:5
	add	sp, #16
	bx	lr
.Ltmp171:
.Lfunc_end41:
	.size	spi_i2s_flag_get, .Lfunc_end41-spi_i2s_flag_get
	.cfi_endproc
	.cantunwind
	.fnend
                                        @ -- End function
	.section	.text.spi_i2s_interrupt_enable,"ax",%progbits
	.hidden	spi_i2s_interrupt_enable        @ -- Begin function spi_i2s_interrupt_enable
	.globl	spi_i2s_interrupt_enable
	.p2align	1
	.type	spi_i2s_interrupt_enable,%function
	.code	16                              @ @spi_i2s_interrupt_enable
	.thumb_func
spi_i2s_interrupt_enable:
.Lfunc_begin42:
	.loc	4 958 0 is_stmt 1               @ ../std/GD32C2x1_Firmware_Library/GD32C2x1_standard_peripheral/Source/gd32c2x1_spi.c:958:0
	.fnstart
	.cfi_startproc
@ %bb.0:
	.pad	#8
	sub	sp, #8
	.cfi_def_cfa_offset 8
                                        @ kill: def $r2 killed $r1
	str	r0, [sp, #4]
	mov	r0, sp
	strb	r1, [r0]
.Ltmp172:
	.loc	4 959 40 prologue_end           @ ../std/GD32C2x1_Firmware_Library/GD32C2x1_standard_peripheral/Source/gd32c2x1_spi.c:959:40
	ldrb	r2, [r0]
	movs	r0, #224
	.loc	4 959 50 is_stmt 0              @ ../std/GD32C2x1_Firmware_Library/GD32C2x1_standard_peripheral/Source/gd32c2x1_spi.c:959:50
	ands	r2, r0
	.loc	4 959 5                         @ ../std/GD32C2x1_Firmware_Library/GD32C2x1_standard_peripheral/Source/gd32c2x1_spi.c:959:5
	ldr	r1, [sp, #4]
	.loc	4 959 26                        @ ../std/GD32C2x1_Firmware_Library/GD32C2x1_standard_peripheral/Source/gd32c2x1_spi.c:959:26
	ldr	r0, [r1, #4]
	orrs	r0, r2
	str	r0, [r1, #4]
	.loc	4 960 1 is_stmt 1               @ ../std/GD32C2x1_Firmware_Library/GD32C2x1_standard_peripheral/Source/gd32c2x1_spi.c:960:1
	add	sp, #8
	bx	lr
.Ltmp173:
.Lfunc_end42:
	.size	spi_i2s_interrupt_enable, .Lfunc_end42-spi_i2s_interrupt_enable
	.cfi_endproc
	.cantunwind
	.fnend
                                        @ -- End function
	.section	.text.spi_i2s_interrupt_disable,"ax",%progbits
	.hidden	spi_i2s_interrupt_disable       @ -- Begin function spi_i2s_interrupt_disable
	.globl	spi_i2s_interrupt_disable
	.p2align	1
	.type	spi_i2s_interrupt_disable,%function
	.code	16                              @ @spi_i2s_interrupt_disable
	.thumb_func
spi_i2s_interrupt_disable:
.Lfunc_begin43:
	.loc	4 975 0                         @ ../std/GD32C2x1_Firmware_Library/GD32C2x1_standard_peripheral/Source/gd32c2x1_spi.c:975:0
	.fnstart
	.cfi_startproc
@ %bb.0:
	.pad	#8
	sub	sp, #8
	.cfi_def_cfa_offset 8
                                        @ kill: def $r2 killed $r1
	str	r0, [sp, #4]
	mov	r0, sp
	strb	r1, [r0]
.Ltmp174:
	.loc	4 976 41 prologue_end           @ ../std/GD32C2x1_Firmware_Library/GD32C2x1_standard_peripheral/Source/gd32c2x1_spi.c:976:41
	ldr	r0, [sp]
	mvns	r2, r0
	movs	r0, #224
	mvns	r0, r0
	.loc	4 976 29 is_stmt 0              @ ../std/GD32C2x1_Firmware_Library/GD32C2x1_standard_peripheral/Source/gd32c2x1_spi.c:976:29
	orrs	r2, r0
	.loc	4 976 5                         @ ../std/GD32C2x1_Firmware_Library/GD32C2x1_standard_peripheral/Source/gd32c2x1_spi.c:976:5
	ldr	r1, [sp, #4]
	.loc	4 976 26                        @ ../std/GD32C2x1_Firmware_Library/GD32C2x1_standard_peripheral/Source/gd32c2x1_spi.c:976:26
	ldr	r0, [r1, #4]
	ands	r0, r2
	str	r0, [r1, #4]
	.loc	4 977 1 is_stmt 1               @ ../std/GD32C2x1_Firmware_Library/GD32C2x1_standard_peripheral/Source/gd32c2x1_spi.c:977:1
	add	sp, #8
	bx	lr
.Ltmp175:
.Lfunc_end43:
	.size	spi_i2s_interrupt_disable, .Lfunc_end43-spi_i2s_interrupt_disable
	.cfi_endproc
	.cantunwind
	.fnend
                                        @ -- End function
	.section	.text.spi_i2s_interrupt_flag_get,"ax",%progbits
	.hidden	spi_i2s_interrupt_flag_get      @ -- Begin function spi_i2s_interrupt_flag_get
	.globl	spi_i2s_interrupt_flag_get
	.p2align	2
	.type	spi_i2s_interrupt_flag_get,%function
	.code	16                              @ @spi_i2s_interrupt_flag_get
	.thumb_func
spi_i2s_interrupt_flag_get:
.Lfunc_begin44:
	.loc	4 995 0                         @ ../std/GD32C2x1_Firmware_Library/GD32C2x1_standard_peripheral/Source/gd32c2x1_spi.c:995:0
	.fnstart
	.cfi_startproc
@ %bb.0:
	.pad	#24
	sub	sp, #24
	.cfi_def_cfa_offset 24
                                        @ kill: def $r2 killed $r1
	str	r0, [sp, #20]
	add	r0, sp, #16
	strb	r1, [r0]
	add	r2, sp, #12
	movs	r1, #0
.Ltmp176:
	.loc	4 996 16 prologue_end           @ ../std/GD32C2x1_Firmware_Library/GD32C2x1_standard_peripheral/Source/gd32c2x1_spi.c:996:16
	strb	r1, [r2]
	.loc	4 997 21                        @ ../std/GD32C2x1_Firmware_Library/GD32C2x1_standard_peripheral/Source/gd32c2x1_spi.c:997:21
	ldr	r1, [sp, #20]
	ldr	r1, [r1, #8]
	.loc	4 997 14 is_stmt 0              @ ../std/GD32C2x1_Firmware_Library/GD32C2x1_standard_peripheral/Source/gd32c2x1_spi.c:997:14
	str	r1, [sp, #8]
	.loc	4 998 21 is_stmt 1              @ ../std/GD32C2x1_Firmware_Library/GD32C2x1_standard_peripheral/Source/gd32c2x1_spi.c:998:21
	ldr	r1, [sp, #20]
	ldr	r1, [r1, #4]
	.loc	4 998 14 is_stmt 0              @ ../std/GD32C2x1_Firmware_Library/GD32C2x1_standard_peripheral/Source/gd32c2x1_spi.c:998:14
	str	r1, [sp, #4]
	.loc	4 1000 12 is_stmt 1             @ ../std/GD32C2x1_Firmware_Library/GD32C2x1_standard_peripheral/Source/gd32c2x1_spi.c:1000:12
	ldrb	r0, [r0]
	.loc	4 1000 5 is_stmt 0              @ ../std/GD32C2x1_Firmware_Library/GD32C2x1_standard_peripheral/Source/gd32c2x1_spi.c:1000:5
	str	r0, [sp]                        @ 4-byte Spill
	cmp	r0, #6
	bhi	.LBB44_10
@ %bb.1:
	.loc	4 0 5                           @ ../std/GD32C2x1_Firmware_Library/GD32C2x1_standard_peripheral/Source/gd32c2x1_spi.c:0:5
	ldr	r1, [sp]                        @ 4-byte Reload
	lsls	r2, r1, #2
	adr	r0, .LJTI44_0
	adds	r0, r0, r2
	mov	pc, r0
@ %bb.2:
	.p2align	2
.LJTI44_0:
	b.w	.LBB44_3
	b.w	.LBB44_4
	b.w	.LBB44_5
	b.w	.LBB44_6
	b.w	.LBB44_7
	b.w	.LBB44_9
	b.w	.LBB44_8
.LBB44_3:
.Ltmp177:
	.loc	4 1003 16 is_stmt 1             @ ../std/GD32C2x1_Firmware_Library/GD32C2x1_standard_peripheral/Source/gd32c2x1_spi.c:1003:16
	ldr	r0, [sp, #8]
	movs	r1, #2
	.loc	4 1003 21 is_stmt 0             @ ../std/GD32C2x1_Firmware_Library/GD32C2x1_standard_peripheral/Source/gd32c2x1_spi.c:1003:21
	ands	r0, r1
	.loc	4 1003 14                       @ ../std/GD32C2x1_Firmware_Library/GD32C2x1_standard_peripheral/Source/gd32c2x1_spi.c:1003:14
	str	r0, [sp, #8]
	.loc	4 1004 16 is_stmt 1             @ ../std/GD32C2x1_Firmware_Library/GD32C2x1_standard_peripheral/Source/gd32c2x1_spi.c:1004:16
	ldr	r0, [sp, #4]
	movs	r1, #128
	.loc	4 1004 21 is_stmt 0             @ ../std/GD32C2x1_Firmware_Library/GD32C2x1_standard_peripheral/Source/gd32c2x1_spi.c:1004:21
	ands	r0, r1
	.loc	4 1004 14                       @ ../std/GD32C2x1_Firmware_Library/GD32C2x1_standard_peripheral/Source/gd32c2x1_spi.c:1004:14
	str	r0, [sp, #4]
	.loc	4 1005 9 is_stmt 1              @ ../std/GD32C2x1_Firmware_Library/GD32C2x1_standard_peripheral/Source/gd32c2x1_spi.c:1005:9
	b	.LBB44_11
.LBB44_4:
	.loc	4 1008 16                       @ ../std/GD32C2x1_Firmware_Library/GD32C2x1_standard_peripheral/Source/gd32c2x1_spi.c:1008:16
	ldr	r0, [sp, #8]
	movs	r1, #1
	.loc	4 1008 21 is_stmt 0             @ ../std/GD32C2x1_Firmware_Library/GD32C2x1_standard_peripheral/Source/gd32c2x1_spi.c:1008:21
	ands	r0, r1
	.loc	4 1008 14                       @ ../std/GD32C2x1_Firmware_Library/GD32C2x1_standard_peripheral/Source/gd32c2x1_spi.c:1008:14
	str	r0, [sp, #8]
	.loc	4 1009 16 is_stmt 1             @ ../std/GD32C2x1_Firmware_Library/GD32C2x1_standard_peripheral/Source/gd32c2x1_spi.c:1009:16
	ldr	r0, [sp, #4]
	movs	r1, #64
	.loc	4 1009 21 is_stmt 0             @ ../std/GD32C2x1_Firmware_Library/GD32C2x1_standard_peripheral/Source/gd32c2x1_spi.c:1009:21
	ands	r0, r1
	.loc	4 1009 14                       @ ../std/GD32C2x1_Firmware_Library/GD32C2x1_standard_peripheral/Source/gd32c2x1_spi.c:1009:14
	str	r0, [sp, #4]
	.loc	4 1010 9 is_stmt 1              @ ../std/GD32C2x1_Firmware_Library/GD32C2x1_standard_peripheral/Source/gd32c2x1_spi.c:1010:9
	b	.LBB44_11
.LBB44_5:
	.loc	4 1013 16                       @ ../std/GD32C2x1_Firmware_Library/GD32C2x1_standard_peripheral/Source/gd32c2x1_spi.c:1013:16
	ldr	r0, [sp, #8]
	movs	r1, #64
	.loc	4 1013 21 is_stmt 0             @ ../std/GD32C2x1_Firmware_Library/GD32C2x1_standard_peripheral/Source/gd32c2x1_spi.c:1013:21
	ands	r0, r1
	.loc	4 1013 14                       @ ../std/GD32C2x1_Firmware_Library/GD32C2x1_standard_peripheral/Source/gd32c2x1_spi.c:1013:14
	str	r0, [sp, #8]
	.loc	4 1014 16 is_stmt 1             @ ../std/GD32C2x1_Firmware_Library/GD32C2x1_standard_peripheral/Source/gd32c2x1_spi.c:1014:16
	ldr	r0, [sp, #4]
	movs	r1, #32
	.loc	4 1014 21 is_stmt 0             @ ../std/GD32C2x1_Firmware_Library/GD32C2x1_standard_peripheral/Source/gd32c2x1_spi.c:1014:21
	ands	r0, r1
	.loc	4 1014 14                       @ ../std/GD32C2x1_Firmware_Library/GD32C2x1_standard_peripheral/Source/gd32c2x1_spi.c:1014:14
	str	r0, [sp, #4]
	.loc	4 1015 9 is_stmt 1              @ ../std/GD32C2x1_Firmware_Library/GD32C2x1_standard_peripheral/Source/gd32c2x1_spi.c:1015:9
	b	.LBB44_11
.LBB44_6:
	.loc	4 1018 16                       @ ../std/GD32C2x1_Firmware_Library/GD32C2x1_standard_peripheral/Source/gd32c2x1_spi.c:1018:16
	ldr	r0, [sp, #8]
	movs	r1, #32
	.loc	4 1018 21 is_stmt 0             @ ../std/GD32C2x1_Firmware_Library/GD32C2x1_standard_peripheral/Source/gd32c2x1_spi.c:1018:21
	ands	r0, r1
	.loc	4 1018 14                       @ ../std/GD32C2x1_Firmware_Library/GD32C2x1_standard_peripheral/Source/gd32c2x1_spi.c:1018:14
	str	r0, [sp, #8]
	.loc	4 1019 16 is_stmt 1             @ ../std/GD32C2x1_Firmware_Library/GD32C2x1_standard_peripheral/Source/gd32c2x1_spi.c:1019:16
	ldr	r0, [sp, #4]
	.loc	4 1019 21 is_stmt 0             @ ../std/GD32C2x1_Firmware_Library/GD32C2x1_standard_peripheral/Source/gd32c2x1_spi.c:1019:21
	ands	r0, r1
	.loc	4 1019 14                       @ ../std/GD32C2x1_Firmware_Library/GD32C2x1_standard_peripheral/Source/gd32c2x1_spi.c:1019:14
	str	r0, [sp, #4]
	.loc	4 1020 9 is_stmt 1              @ ../std/GD32C2x1_Firmware_Library/GD32C2x1_standard_peripheral/Source/gd32c2x1_spi.c:1020:9
	b	.LBB44_11
.LBB44_7:
	.loc	4 1023 16                       @ ../std/GD32C2x1_Firmware_Library/GD32C2x1_standard_peripheral/Source/gd32c2x1_spi.c:1023:16
	ldr	r0, [sp, #8]
	movs	r1, #16
	.loc	4 1023 21 is_stmt 0             @ ../std/GD32C2x1_Firmware_Library/GD32C2x1_standard_peripheral/Source/gd32c2x1_spi.c:1023:21
	ands	r0, r1
	.loc	4 1023 14                       @ ../std/GD32C2x1_Firmware_Library/GD32C2x1_standard_peripheral/Source/gd32c2x1_spi.c:1023:14
	str	r0, [sp, #8]
	.loc	4 1024 16 is_stmt 1             @ ../std/GD32C2x1_Firmware_Library/GD32C2x1_standard_peripheral/Source/gd32c2x1_spi.c:1024:16
	ldr	r0, [sp, #4]
	movs	r1, #32
	.loc	4 1024 21 is_stmt 0             @ ../std/GD32C2x1_Firmware_Library/GD32C2x1_standard_peripheral/Source/gd32c2x1_spi.c:1024:21
	ands	r0, r1
	.loc	4 1024 14                       @ ../std/GD32C2x1_Firmware_Library/GD32C2x1_standard_peripheral/Source/gd32c2x1_spi.c:1024:14
	str	r0, [sp, #4]
	.loc	4 1025 9 is_stmt 1              @ ../std/GD32C2x1_Firmware_Library/GD32C2x1_standard_peripheral/Source/gd32c2x1_spi.c:1025:9
	b	.LBB44_11
.LBB44_8:
	.loc	4 1028 16                       @ ../std/GD32C2x1_Firmware_Library/GD32C2x1_standard_peripheral/Source/gd32c2x1_spi.c:1028:16
	ldr	r0, [sp, #8]
	movs	r1, #8
	.loc	4 1028 21 is_stmt 0             @ ../std/GD32C2x1_Firmware_Library/GD32C2x1_standard_peripheral/Source/gd32c2x1_spi.c:1028:21
	ands	r0, r1
	.loc	4 1028 14                       @ ../std/GD32C2x1_Firmware_Library/GD32C2x1_standard_peripheral/Source/gd32c2x1_spi.c:1028:14
	str	r0, [sp, #8]
	.loc	4 1029 16 is_stmt 1             @ ../std/GD32C2x1_Firmware_Library/GD32C2x1_standard_peripheral/Source/gd32c2x1_spi.c:1029:16
	ldr	r0, [sp, #4]
	movs	r1, #32
	.loc	4 1029 21 is_stmt 0             @ ../std/GD32C2x1_Firmware_Library/GD32C2x1_standard_peripheral/Source/gd32c2x1_spi.c:1029:21
	ands	r0, r1
	.loc	4 1029 14                       @ ../std/GD32C2x1_Firmware_Library/GD32C2x1_standard_peripheral/Source/gd32c2x1_spi.c:1029:14
	str	r0, [sp, #4]
	.loc	4 1030 9 is_stmt 1              @ ../std/GD32C2x1_Firmware_Library/GD32C2x1_standard_peripheral/Source/gd32c2x1_spi.c:1030:9
	b	.LBB44_11
.LBB44_9:
	.loc	4 1033 16                       @ ../std/GD32C2x1_Firmware_Library/GD32C2x1_standard_peripheral/Source/gd32c2x1_spi.c:1033:16
	ldr	r0, [sp, #8]
	movw	r1, #256
	.loc	4 1033 21 is_stmt 0             @ ../std/GD32C2x1_Firmware_Library/GD32C2x1_standard_peripheral/Source/gd32c2x1_spi.c:1033:21
	ands	r0, r1
	.loc	4 1033 14                       @ ../std/GD32C2x1_Firmware_Library/GD32C2x1_standard_peripheral/Source/gd32c2x1_spi.c:1033:14
	str	r0, [sp, #8]
	.loc	4 1034 16 is_stmt 1             @ ../std/GD32C2x1_Firmware_Library/GD32C2x1_standard_peripheral/Source/gd32c2x1_spi.c:1034:16
	ldr	r0, [sp, #4]
	movs	r1, #32
	.loc	4 1034 21 is_stmt 0             @ ../std/GD32C2x1_Firmware_Library/GD32C2x1_standard_peripheral/Source/gd32c2x1_spi.c:1034:21
	ands	r0, r1
	.loc	4 1034 14                       @ ../std/GD32C2x1_Firmware_Library/GD32C2x1_standard_peripheral/Source/gd32c2x1_spi.c:1034:14
	str	r0, [sp, #4]
	.loc	4 1035 9 is_stmt 1              @ ../std/GD32C2x1_Firmware_Library/GD32C2x1_standard_peripheral/Source/gd32c2x1_spi.c:1035:9
	b	.LBB44_11
.LBB44_10:
	.loc	4 1037 9                        @ ../std/GD32C2x1_Firmware_Library/GD32C2x1_standard_peripheral/Source/gd32c2x1_spi.c:1037:9
	b	.LBB44_11
.Ltmp178:
.LBB44_11:
	.loc	4 1040 15                       @ ../std/GD32C2x1_Firmware_Library/GD32C2x1_standard_peripheral/Source/gd32c2x1_spi.c:1040:15
	ldr	r0, [sp, #8]
	.loc	4 1040 21 is_stmt 0             @ ../std/GD32C2x1_Firmware_Library/GD32C2x1_standard_peripheral/Source/gd32c2x1_spi.c:1040:21
	cbz	r0, .LBB44_14
	b	.LBB44_12
.LBB44_12:
	.loc	4 1040 31                       @ ../std/GD32C2x1_Firmware_Library/GD32C2x1_standard_peripheral/Source/gd32c2x1_spi.c:1040:31
	ldr	r0, [sp, #4]
.Ltmp179:
	.loc	4 1040 8                        @ ../std/GD32C2x1_Firmware_Library/GD32C2x1_standard_peripheral/Source/gd32c2x1_spi.c:1040:8
	cbz	r0, .LBB44_14
	b	.LBB44_13
.LBB44_13:
	.loc	4 0 8                           @ ../std/GD32C2x1_Firmware_Library/GD32C2x1_standard_peripheral/Source/gd32c2x1_spi.c:0:8
	add	r1, sp, #12
	movs	r0, #1
.Ltmp180:
	.loc	4 1041 15 is_stmt 1             @ ../std/GD32C2x1_Firmware_Library/GD32C2x1_standard_peripheral/Source/gd32c2x1_spi.c:1041:15
	strb	r0, [r1]
	.loc	4 1042 5                        @ ../std/GD32C2x1_Firmware_Library/GD32C2x1_standard_peripheral/Source/gd32c2x1_spi.c:1042:5
	b	.LBB44_15
.Ltmp181:
.LBB44_14:
	.loc	4 0 5 is_stmt 0                 @ ../std/GD32C2x1_Firmware_Library/GD32C2x1_standard_peripheral/Source/gd32c2x1_spi.c:0:5
	add	r1, sp, #12
	movs	r0, #0
.Ltmp182:
	.loc	4 1043 15 is_stmt 1             @ ../std/GD32C2x1_Firmware_Library/GD32C2x1_standard_peripheral/Source/gd32c2x1_spi.c:1043:15
	strb	r0, [r1]
	b	.LBB44_15
.Ltmp183:
.LBB44_15:
	.loc	4 0 15 is_stmt 0                @ ../std/GD32C2x1_Firmware_Library/GD32C2x1_standard_peripheral/Source/gd32c2x1_spi.c:0:15
	add	r0, sp, #12
	.loc	4 1045 12 is_stmt 1             @ ../std/GD32C2x1_Firmware_Library/GD32C2x1_standard_peripheral/Source/gd32c2x1_spi.c:1045:12
	ldrb	r0, [r0]
	.loc	4 1045 5 is_stmt 0              @ ../std/GD32C2x1_Firmware_Library/GD32C2x1_standard_peripheral/Source/gd32c2x1_spi.c:1045:5
	add	sp, #24
	bx	lr
.Ltmp184:
.Lfunc_end44:
	.size	spi_i2s_interrupt_flag_get, .Lfunc_end44-spi_i2s_interrupt_flag_get
	.cfi_endproc
	.cantunwind
	.fnend
                                        @ -- End function
	.file	5 "E:\\work\\CX_NFC_RX\\prj" "../std/GD32C2x1_Firmware_Library/GD32C2x1_standard_peripheral/Include\\gd32c2x1_spi.h"
	.section	".note.GNU-stack","",%progbits
	.eabi_attribute	30, 6	@ Tag_ABI_optimization_goals
	.ARM_attribute	16, 1	@ Tag_AV_eba