	.text
	.syntax unified
	.eabi_attribute	67, "2.09"	@ Tag_conformance
	.cpu	cortex-m23
	.eabi_attribute	6, 16	@ Tag_CPU_arch
	.eabi_attribute	7, 77	@ Tag_CPU_arch_profile
	.eabi_attribute	8, 0	@ Tag_ARM_ISA_use
	.eabi_attribute	9, 3	@ Tag_THUMB_ISA_use
	.eabi_attribute	34, 0	@ Tag_CPU_unaligned_access
	.eabi_attribute	17, 1	@ Tag_ABI_PCS_GOT_use
	.eabi_attribute	20, 2	@ Tag_ABI_FP_denormal
	.eabi_attribute	21, 0	@ Tag_ABI_FP_exceptions
	.eabi_attribute	23, 1	@ Tag_ABI_FP_number_model
	.eabi_attribute	24, 1	@ Tag_ABI_align_needed
	.eabi_attribute	25, 1	@ Tag_ABI_align_preserved
	.eabi_attribute	38, 1	@ Tag_ABI_FP_16bit_format
	.eabi_attribute	18, 2	@ Tag_ABI_PCS_wchar_t
	.eabi_attribute	26, 1	@ Tag_ABI_enum_size
	.eabi_attribute	14, 0	@ Tag_ABI_PCS_R9_use
	.file	"gd32c2x1_usart.c"
	.file	1 "E:\\work\\CX_NFC_RX\\prj" "../std/GD32C2x1_Firmware_Library/GD32C2x1_standard_peripheral/Include\\gd32c2x1_rcu.h"
	.file	2 "E:\\work\\CX_NFC_RX\\prj" "../std/GD32C2x1_Firmware_Library/GD32C2x1_standard_peripheral/Include\\gd32c2x1_usart.h"
	.file	3 "E:\\work\\CX_NFC_RX\\prj" "../std/GD32C2x1_Firmware_Library/CMSIS/GD/GD32C2x1/Include/gd32c2x1.h"
	.file	4 "D:\\Keil_v5\\ARM\\ARMCLANG\\Bin\\..\\include" "stdint.h"
	.section	.text.usart_deinit,"ax",%progbits
	.hidden	usart_deinit                    @ -- Begin function usart_deinit
	.globl	usart_deinit
	.p2align	2
	.type	usart_deinit,%function
	.code	16                              @ @usart_deinit
	.thumb_func
usart_deinit:
.Lfunc_begin0:
	.file	5 "E:\\work\\CX_NFC_RX\\prj" "../std/GD32C2x1_Firmware_Library/GD32C2x1_standard_peripheral/Source/gd32c2x1_usart.c"
	.loc	5 54 0                          @ ../std/GD32C2x1_Firmware_Library/GD32C2x1_standard_peripheral/Source/gd32c2x1_usart.c:54:0
	.fnstart
	.cfi_sections .debug_frame
	.cfi_startproc
@ %bb.0:
	.save	{r7, lr}
	push	{r7, lr}
	.cfi_def_cfa_offset 8
	.cfi_offset lr, -4
	.cfi_offset r7, -8
	.pad	#24
	sub	sp, #24
	.cfi_def_cfa_offset 32
	str	r0, [sp, #20]
.Ltmp0:
	.loc	5 55 12 prologue_end            @ ../std/GD32C2x1_Firmware_Library/GD32C2x1_standard_peripheral/Source/gd32c2x1_usart.c:55:12
	ldr	r0, [sp, #20]
	str	r0, [sp, #16]                   @ 4-byte Spill
	ldr	r1, __arm_cp.0_0
	.loc	5 55 5 is_stmt 0                @ ../std/GD32C2x1_Firmware_Library/GD32C2x1_standard_peripheral/Source/gd32c2x1_usart.c:55:5
	cmp	r0, r1
	beq	.LBB0_4
	b	.LBB0_1
.LBB0_1:
	.loc	5 0 5                           @ ../std/GD32C2x1_Firmware_Library/GD32C2x1_standard_peripheral/Source/gd32c2x1_usart.c:0:5
	ldr	r0, [sp, #16]                   @ 4-byte Reload
	ldr	r1, __arm_cp.0_1
	.loc	5 55 5                          @ ../std/GD32C2x1_Firmware_Library/GD32C2x1_standard_peripheral/Source/gd32c2x1_usart.c:55:5
	cmp	r0, r1
	beq	.LBB0_5
	b	.LBB0_2
.LBB0_2:
	.loc	5 0 5                           @ ../std/GD32C2x1_Firmware_Library/GD32C2x1_standard_peripheral/Source/gd32c2x1_usart.c:0:5
	ldr	r0, [sp, #16]                   @ 4-byte Reload
	ldr	r1, __arm_cp.0_2
	.loc	5 55 5                          @ ../std/GD32C2x1_Firmware_Library/GD32C2x1_standard_peripheral/Source/gd32c2x1_usart.c:55:5
	cmp	r0, r1
	bne	.LBB0_6
	b	.LBB0_3
.LBB0_3:
	.loc	5 0 5                           @ ../std/GD32C2x1_Firmware_Library/GD32C2x1_standard_peripheral/Source/gd32c2x1_usart.c:0:5
	ldr	r0, __arm_cp.0_5
.Ltmp1:
	.loc	5 58 9 is_stmt 1                @ ../std/GD32C2x1_Firmware_Library/GD32C2x1_standard_peripheral/Source/gd32c2x1_usart.c:58:9
	str	r0, [sp, #12]                   @ 4-byte Spill
	bl	rcu_periph_reset_enable
	ldr	r0, [sp, #12]                   @ 4-byte Reload
	.loc	5 59 9                          @ ../std/GD32C2x1_Firmware_Library/GD32C2x1_standard_peripheral/Source/gd32c2x1_usart.c:59:9
	bl	rcu_periph_reset_disable
	.loc	5 60 9                          @ ../std/GD32C2x1_Firmware_Library/GD32C2x1_standard_peripheral/Source/gd32c2x1_usart.c:60:9
	b	.LBB0_7
.LBB0_4:
	.loc	5 0 9 is_stmt 0                 @ ../std/GD32C2x1_Firmware_Library/GD32C2x1_standard_peripheral/Source/gd32c2x1_usart.c:0:9
	ldr	r0, __arm_cp.0_4
	.loc	5 63 9 is_stmt 1                @ ../std/GD32C2x1_Firmware_Library/GD32C2x1_standard_peripheral/Source/gd32c2x1_usart.c:63:9
	str	r0, [sp, #8]                    @ 4-byte Spill
	bl	rcu_periph_reset_enable
	ldr	r0, [sp, #8]                    @ 4-byte Reload
	.loc	5 64 9                          @ ../std/GD32C2x1_Firmware_Library/GD32C2x1_standard_peripheral/Source/gd32c2x1_usart.c:64:9
	bl	rcu_periph_reset_disable
	.loc	5 65 9                          @ ../std/GD32C2x1_Firmware_Library/GD32C2x1_standard_peripheral/Source/gd32c2x1_usart.c:65:9
	b	.LBB0_7
.LBB0_5:
	.loc	5 0 9 is_stmt 0                 @ ../std/GD32C2x1_Firmware_Library/GD32C2x1_standard_peripheral/Source/gd32c2x1_usart.c:0:9
	ldr	r0, __arm_cp.0_3
	.loc	5 68 9 is_stmt 1                @ ../std/GD32C2x1_Firmware_Library/GD32C2x1_standard_peripheral/Source/gd32c2x1_usart.c:68:9
	str	r0, [sp, #4]                    @ 4-byte Spill
	bl	rcu_periph_reset_enable
	ldr	r0, [sp, #4]                    @ 4-byte Reload
	.loc	5 69 9                          @ ../std/GD32C2x1_Firmware_Library/GD32C2x1_standard_peripheral/Source/gd32c2x1_usart.c:69:9
	bl	rcu_periph_reset_disable
	.loc	5 70 9                          @ ../std/GD32C2x1_Firmware_Library/GD32C2x1_standard_peripheral/Source/gd32c2x1_usart.c:70:9
	b	.LBB0_7
.LBB0_6:
	.loc	5 72 9                          @ ../std/GD32C2x1_Firmware_Library/GD32C2x1_standard_peripheral/Source/gd32c2x1_usart.c:72:9
	b	.LBB0_7
.Ltmp2:
.LBB0_7:
	.loc	5 74 1                          @ ../std/GD32C2x1_Firmware_Library/GD32C2x1_standard_peripheral/Source/gd32c2x1_usart.c:74:1
	add	sp, #24
	pop	{r7, pc}
.Ltmp3:
	.p2align	2
@ %bb.8:
	.loc	5 0 1 is_stmt 0                 @ ../std/GD32C2x1_Firmware_Library/GD32C2x1_standard_peripheral/Source/gd32c2x1_usart.c:0:1
__arm_cp.0_0:
	.long	1073759232                      @ 0x40004400
.Lcpi_end0:
	.size	__arm_cp.0_0, .Lcpi_end0-__arm_cp.0_0
__arm_cp.0_1:
	.long	1073760256                      @ 0x40004800
.Lcpi_end1:
	.size	__arm_cp.0_1, .Lcpi_end1-__arm_cp.0_1
__arm_cp.0_2:
	.long	1073821696                      @ 0x40013800
.Lcpi_end2:
	.size	__arm_cp.0_2, .Lcpi_end2-__arm_cp.0_2
__arm_cp.0_3:
	.long	2323                            @ 0x913
.Lcpi_end3:
	.size	__arm_cp.0_3, .Lcpi_end3-__arm_cp.0_3
__arm_cp.0_4:
	.long	2319                            @ 0x90f
.Lcpi_end4:
	.size	__arm_cp.0_4, .Lcpi_end4-__arm_cp.0_4
__arm_cp.0_5:
	.long	2318                            @ 0x90e
.Lcpi_end5:
	.size	__arm_cp.0_5, .Lcpi_end5-__arm_cp.0_5
.Lfunc_end0:
	.size	usart_deinit, .Lfunc_end0-usart_deinit
	.cfi_endproc
	.cantunwind
	.fnend
                                        @ -- End function
	.section	.text.usart_baudrate_set,"ax",%progbits
	.hidden	usart_baudrate_set              @ -- Begin function usart_baudrate_set
	.globl	usart_baudrate_set
	.p2align	2
	.type	usart_baudrate_set,%function
	.code	16                              @ @usart_baudrate_set
	.thumb_func
usart_baudrate_set:
.Lfunc_begin1:
	.loc	5 84 0 is_stmt 1                @ ../std/GD32C2x1_Firmware_Library/GD32C2x1_standard_peripheral/Source/gd32c2x1_usart.c:84:0
	.fnstart
	.cfi_startproc
@ %bb.0:
	.save	{r7, lr}
	push	{r7, lr}
	.cfi_def_cfa_offset 8
	.cfi_offset lr, -4
	.cfi_offset r7, -8
	.pad	#32
	sub	sp, #32
	.cfi_def_cfa_offset 40
	str	r0, [sp, #28]
	str	r1, [sp, #24]
	movs	r0, #0
.Ltmp4:
	.loc	5 85 14 prologue_end            @ ../std/GD32C2x1_Firmware_Library/GD32C2x1_standard_peripheral/Source/gd32c2x1_usart.c:85:14
	str	r0, [sp, #20]
.Ltmp5:
	.loc	5 94 16                         @ ../std/GD32C2x1_Firmware_Library/GD32C2x1_standard_peripheral/Source/gd32c2x1_usart.c:94:16
	ldr	r0, [sp, #28]
	str	r0, [sp, #4]                    @ 4-byte Spill
	ldr	r1, __arm_cp.1_0
	.loc	5 94 9 is_stmt 0                @ ../std/GD32C2x1_Firmware_Library/GD32C2x1_standard_peripheral/Source/gd32c2x1_usart.c:94:9
	cmp	r0, r1
	beq	.LBB1_4
	b	.LBB1_1
.LBB1_1:
	.loc	5 0 9                           @ ../std/GD32C2x1_Firmware_Library/GD32C2x1_standard_peripheral/Source/gd32c2x1_usart.c:0:9
	ldr	r0, [sp, #4]                    @ 4-byte Reload
	ldr	r1, __arm_cp.1_1
	.loc	5 94 9                          @ ../std/GD32C2x1_Firmware_Library/GD32C2x1_standard_peripheral/Source/gd32c2x1_usart.c:94:9
	cmp	r0, r1
	beq	.LBB1_5
	b	.LBB1_2
.LBB1_2:
	.loc	5 0 9                           @ ../std/GD32C2x1_Firmware_Library/GD32C2x1_standard_peripheral/Source/gd32c2x1_usart.c:0:9
	ldr	r0, [sp, #4]                    @ 4-byte Reload
	ldr	r1, __arm_cp.1_2
	.loc	5 94 9                          @ ../std/GD32C2x1_Firmware_Library/GD32C2x1_standard_peripheral/Source/gd32c2x1_usart.c:94:9
	cmp	r0, r1
	bne	.LBB1_6
	b	.LBB1_3
.LBB1_3:
	.loc	5 0 9                           @ ../std/GD32C2x1_Firmware_Library/GD32C2x1_standard_peripheral/Source/gd32c2x1_usart.c:0:9
	movs	r0, #4
.Ltmp6:
	.loc	5 98 20 is_stmt 1               @ ../std/GD32C2x1_Firmware_Library/GD32C2x1_standard_peripheral/Source/gd32c2x1_usart.c:98:20
	bl	rcu_clock_freq_get
	.loc	5 98 18 is_stmt 0               @ ../std/GD32C2x1_Firmware_Library/GD32C2x1_standard_peripheral/Source/gd32c2x1_usart.c:98:18
	str	r0, [sp, #20]
	.loc	5 99 13 is_stmt 1               @ ../std/GD32C2x1_Firmware_Library/GD32C2x1_standard_peripheral/Source/gd32c2x1_usart.c:99:13
	b	.LBB1_7
.LBB1_4:
	.loc	5 0 13 is_stmt 0                @ ../std/GD32C2x1_Firmware_Library/GD32C2x1_standard_peripheral/Source/gd32c2x1_usart.c:0:13
	movs	r0, #2
	.loc	5 102 20 is_stmt 1              @ ../std/GD32C2x1_Firmware_Library/GD32C2x1_standard_peripheral/Source/gd32c2x1_usart.c:102:20
	bl	rcu_clock_freq_get
	.loc	5 102 18 is_stmt 0              @ ../std/GD32C2x1_Firmware_Library/GD32C2x1_standard_peripheral/Source/gd32c2x1_usart.c:102:18
	str	r0, [sp, #20]
	.loc	5 103 13 is_stmt 1              @ ../std/GD32C2x1_Firmware_Library/GD32C2x1_standard_peripheral/Source/gd32c2x1_usart.c:103:13
	b	.LBB1_7
.LBB1_5:
	.loc	5 0 13 is_stmt 0                @ ../std/GD32C2x1_Firmware_Library/GD32C2x1_standard_peripheral/Source/gd32c2x1_usart.c:0:13
	movs	r0, #2
	.loc	5 106 20 is_stmt 1              @ ../std/GD32C2x1_Firmware_Library/GD32C2x1_standard_peripheral/Source/gd32c2x1_usart.c:106:20
	bl	rcu_clock_freq_get
	.loc	5 106 18 is_stmt 0              @ ../std/GD32C2x1_Firmware_Library/GD32C2x1_standard_peripheral/Source/gd32c2x1_usart.c:106:18
	str	r0, [sp, #20]
	.loc	5 107 13 is_stmt 1              @ ../std/GD32C2x1_Firmware_Library/GD32C2x1_standard_peripheral/Source/gd32c2x1_usart.c:107:13
	b	.LBB1_7
.LBB1_6:
	.loc	5 109 13                        @ ../std/GD32C2x1_Firmware_Library/GD32C2x1_standard_peripheral/Source/gd32c2x1_usart.c:109:13
	b	.LBB1_7
.Ltmp7:
.LBB1_7:
	.loc	5 111 34                        @ ../std/GD32C2x1_Firmware_Library/GD32C2x1_standard_peripheral/Source/gd32c2x1_usart.c:111:34
	ldr	r0, [sp, #28]
	ldr	r0, [r0]
.Ltmp8:
	.loc	5 111 12 is_stmt 0              @ ../std/GD32C2x1_Firmware_Library/GD32C2x1_standard_peripheral/Source/gd32c2x1_usart.c:111:12
	lsls	r0, r0, #16
	cmp	r0, #0
	bpl	.LBB1_9
	b	.LBB1_8
.LBB1_8:
.Ltmp9:
	.loc	5 113 27 is_stmt 1              @ ../std/GD32C2x1_Firmware_Library/GD32C2x1_standard_peripheral/Source/gd32c2x1_usart.c:113:27
	ldr	r0, [sp, #20]
	.loc	5 113 25 is_stmt 0              @ ../std/GD32C2x1_Firmware_Library/GD32C2x1_standard_peripheral/Source/gd32c2x1_usart.c:113:25
	lsls	r0, r0, #1
	.loc	5 113 35                        @ ../std/GD32C2x1_Firmware_Library/GD32C2x1_standard_peripheral/Source/gd32c2x1_usart.c:113:35
	ldr	r1, [sp, #24]
	.loc	5 113 43                        @ ../std/GD32C2x1_Firmware_Library/GD32C2x1_standard_peripheral/Source/gd32c2x1_usart.c:113:43
	lsrs	r2, r1, #1
	.loc	5 113 33                        @ ../std/GD32C2x1_Firmware_Library/GD32C2x1_standard_peripheral/Source/gd32c2x1_usart.c:113:33
	adds	r0, r0, r2
	.loc	5 113 49                        @ ../std/GD32C2x1_Firmware_Library/GD32C2x1_standard_peripheral/Source/gd32c2x1_usart.c:113:49
	udiv	r0, r0, r1
	.loc	5 113 18                        @ ../std/GD32C2x1_Firmware_Library/GD32C2x1_standard_peripheral/Source/gd32c2x1_usart.c:113:18
	str	r0, [sp, #8]
	.loc	5 114 22 is_stmt 1              @ ../std/GD32C2x1_Firmware_Library/GD32C2x1_standard_peripheral/Source/gd32c2x1_usart.c:114:22
	ldr	r0, [sp, #8]
	ldr	r1, __arm_cp.1_3
	.loc	5 114 27 is_stmt 0              @ ../std/GD32C2x1_Firmware_Library/GD32C2x1_standard_peripheral/Source/gd32c2x1_usart.c:114:27
	ands	r0, r1
	.loc	5 114 20                        @ ../std/GD32C2x1_Firmware_Library/GD32C2x1_standard_peripheral/Source/gd32c2x1_usart.c:114:20
	str	r0, [sp, #16]
	.loc	5 115 23 is_stmt 1              @ ../std/GD32C2x1_Firmware_Library/GD32C2x1_standard_peripheral/Source/gd32c2x1_usart.c:115:23
	ldr	r0, [sp, #8]
	.loc	5 115 35 is_stmt 0              @ ../std/GD32C2x1_Firmware_Library/GD32C2x1_standard_peripheral/Source/gd32c2x1_usart.c:115:35
	lsls	r0, r0, #28
	lsrs	r0, r0, #29
	.loc	5 115 20                        @ ../std/GD32C2x1_Firmware_Library/GD32C2x1_standard_peripheral/Source/gd32c2x1_usart.c:115:20
	str	r0, [sp, #12]
	add	r0, sp, #16
	.loc	5 116 84 is_stmt 1              @ ../std/GD32C2x1_Firmware_Library/GD32C2x1_standard_peripheral/Source/gd32c2x1_usart.c:116:84
	ldrh	r0, [r0]
	add	r1, sp, #12
	.loc	5 116 93 is_stmt 0              @ ../std/GD32C2x1_Firmware_Library/GD32C2x1_standard_peripheral/Source/gd32c2x1_usart.c:116:93
	ldrh	r1, [r1]
	.loc	5 116 91                        @ ../std/GD32C2x1_Firmware_Library/GD32C2x1_standard_peripheral/Source/gd32c2x1_usart.c:116:91
	orrs	r0, r1
	.loc	5 116 13                        @ ../std/GD32C2x1_Firmware_Library/GD32C2x1_standard_peripheral/Source/gd32c2x1_usart.c:116:13
	ldr	r1, [sp, #28]
	.loc	5 116 38                        @ ../std/GD32C2x1_Firmware_Library/GD32C2x1_standard_peripheral/Source/gd32c2x1_usart.c:116:38
	str	r0, [r1, #12]
	.loc	5 117 9 is_stmt 1               @ ../std/GD32C2x1_Firmware_Library/GD32C2x1_standard_peripheral/Source/gd32c2x1_usart.c:117:9
	b	.LBB1_10
.Ltmp10:
.LBB1_9:
	.loc	5 119 21                        @ ../std/GD32C2x1_Firmware_Library/GD32C2x1_standard_peripheral/Source/gd32c2x1_usart.c:119:21
	ldr	r0, [sp, #20]
	.loc	5 119 28 is_stmt 0              @ ../std/GD32C2x1_Firmware_Library/GD32C2x1_standard_peripheral/Source/gd32c2x1_usart.c:119:28
	ldr	r1, [sp, #24]
	.loc	5 119 36                        @ ../std/GD32C2x1_Firmware_Library/GD32C2x1_standard_peripheral/Source/gd32c2x1_usart.c:119:36
	lsrs	r2, r1, #1
	.loc	5 119 26                        @ ../std/GD32C2x1_Firmware_Library/GD32C2x1_standard_peripheral/Source/gd32c2x1_usart.c:119:26
	adds	r0, r0, r2
	.loc	5 119 42                        @ ../std/GD32C2x1_Firmware_Library/GD32C2x1_standard_peripheral/Source/gd32c2x1_usart.c:119:42
	udiv	r0, r0, r1
	.loc	5 119 18                        @ ../std/GD32C2x1_Firmware_Library/GD32C2x1_standard_peripheral/Source/gd32c2x1_usart.c:119:18
	str	r0, [sp, #8]
	.loc	5 120 22 is_stmt 1              @ ../std/GD32C2x1_Firmware_Library/GD32C2x1_standard_peripheral/Source/gd32c2x1_usart.c:120:22
	ldr	r0, [sp, #8]
	ldr	r1, __arm_cp.1_3
	.loc	5 120 27 is_stmt 0              @ ../std/GD32C2x1_Firmware_Library/GD32C2x1_standard_peripheral/Source/gd32c2x1_usart.c:120:27
	ands	r0, r1
	.loc	5 120 20                        @ ../std/GD32C2x1_Firmware_Library/GD32C2x1_standard_peripheral/Source/gd32c2x1_usart.c:120:20
	str	r0, [sp, #16]
	.loc	5 121 22 is_stmt 1              @ ../std/GD32C2x1_Firmware_Library/GD32C2x1_standard_peripheral/Source/gd32c2x1_usart.c:121:22
	ldr	r0, [sp, #8]
	movs	r1, #15
	.loc	5 121 27 is_stmt 0              @ ../std/GD32C2x1_Firmware_Library/GD32C2x1_standard_peripheral/Source/gd32c2x1_usart.c:121:27
	ands	r0, r1
	.loc	5 121 20                        @ ../std/GD32C2x1_Firmware_Library/GD32C2x1_standard_peripheral/Source/gd32c2x1_usart.c:121:20
	str	r0, [sp, #12]
	add	r0, sp, #16
	.loc	5 122 84 is_stmt 1              @ ../std/GD32C2x1_Firmware_Library/GD32C2x1_standard_peripheral/Source/gd32c2x1_usart.c:122:84
	ldrh	r0, [r0]
	add	r1, sp, #12
	.loc	5 122 93 is_stmt 0              @ ../std/GD32C2x1_Firmware_Library/GD32C2x1_standard_peripheral/Source/gd32c2x1_usart.c:122:93
	ldrh	r1, [r1]
	.loc	5 122 91                        @ ../std/GD32C2x1_Firmware_Library/GD32C2x1_standard_peripheral/Source/gd32c2x1_usart.c:122:91
	orrs	r0, r1
	.loc	5 122 13                        @ ../std/GD32C2x1_Firmware_Library/GD32C2x1_standard_peripheral/Source/gd32c2x1_usart.c:122:13
	ldr	r1, [sp, #28]
	.loc	5 122 38                        @ ../std/GD32C2x1_Firmware_Library/GD32C2x1_standard_peripheral/Source/gd32c2x1_usart.c:122:38
	str	r0, [r1, #12]
	b	.LBB1_10
.Ltmp11:
.LBB1_10:
	.loc	5 125 1 is_stmt 1               @ ../std/GD32C2x1_Firmware_Library/GD32C2x1_standard_peripheral/Source/gd32c2x1_usart.c:125:1
	add	sp, #32
	pop	{r7, pc}
.Ltmp12:
	.p2align	2
@ %bb.11:
	.loc	5 0 1 is_stmt 0                 @ ../std/GD32C2x1_Firmware_Library/GD32C2x1_standard_peripheral/Source/gd32c2x1_usart.c:0:1
__arm_cp.1_0:
	.long	1073759232                      @ 0x40004400
.Lcpi_end6:
	.size	__arm_cp.1_0, .Lcpi_end6-__arm_cp.1_0
__arm_cp.1_1:
	.long	1073760256                      @ 0x40004800
.Lcpi_end7:
	.size	__arm_cp.1_1, .Lcpi_end7-__arm_cp.1_1
__arm_cp.1_2:
	.long	1073821696                      @ 0x40013800
.Lcpi_end8:
	.size	__arm_cp.1_2, .Lcpi_end8-__arm_cp.1_2
__arm_cp.1_3:
	.long	65520                           @ 0xfff0
.Lcpi_end9:
	.size	__arm_cp.1_3, .Lcpi_end9-__arm_cp.1_3
.Lfunc_end1:
	.size	usart_baudrate_set, .Lfunc_end1-usart_baudrate_set
	.cfi_endproc
	.cantunwind
	.fnend
                                        @ -- End function
	.section	.text.usart_parity_config,"ax",%progbits
	.hidden	usart_parity_config             @ -- Begin function usart_parity_config
	.globl	usart_parity_config
	.p2align	1
	.type	usart_parity_config,%function
	.code	16                              @ @usart_parity_config
	.thumb_func
usart_parity_config:
.Lfunc_begin2:
	.loc	5 139 0 is_stmt 1               @ ../std/GD32C2x1_Firmware_Library/GD32C2x1_standard_peripheral/Source/gd32c2x1_usart.c:139:0
	.fnstart
	.cfi_startproc
@ %bb.0:
	.pad	#8
	sub	sp, #8
	.cfi_def_cfa_offset 8
	str	r0, [sp, #4]
	str	r1, [sp]
.Ltmp13:
	.loc	5 141 5 prologue_end            @ ../std/GD32C2x1_Firmware_Library/GD32C2x1_standard_peripheral/Source/gd32c2x1_usart.c:141:5
	ldr	r1, [sp, #4]
	.loc	5 141 30 is_stmt 0              @ ../std/GD32C2x1_Firmware_Library/GD32C2x1_standard_peripheral/Source/gd32c2x1_usart.c:141:30
	ldr	r0, [r1]
	movs	r2, #1
	bics	r0, r2
	str	r0, [r1]
	.loc	5 143 5 is_stmt 1               @ ../std/GD32C2x1_Firmware_Library/GD32C2x1_standard_peripheral/Source/gd32c2x1_usart.c:143:5
	ldr	r2, [sp, #4]
	.loc	5 143 30 is_stmt 0              @ ../std/GD32C2x1_Firmware_Library/GD32C2x1_standard_peripheral/Source/gd32c2x1_usart.c:143:30
	ldr	r1, [r2]
	movw	r0, #1536
	bics	r1, r0
	str	r1, [r2]
	.loc	5 145 33 is_stmt 1              @ ../std/GD32C2x1_Firmware_Library/GD32C2x1_standard_peripheral/Source/gd32c2x1_usart.c:145:33
	ldr	r2, [sp]
	.loc	5 145 43 is_stmt 0              @ ../std/GD32C2x1_Firmware_Library/GD32C2x1_standard_peripheral/Source/gd32c2x1_usart.c:145:43
	ands	r2, r0
	.loc	5 145 5                         @ ../std/GD32C2x1_Firmware_Library/GD32C2x1_standard_peripheral/Source/gd32c2x1_usart.c:145:5
	ldr	r1, [sp, #4]
	.loc	5 145 30                        @ ../std/GD32C2x1_Firmware_Library/GD32C2x1_standard_peripheral/Source/gd32c2x1_usart.c:145:30
	ldr	r0, [r1]
	orrs	r0, r2
	str	r0, [r1]
	.loc	5 146 1 is_stmt 1               @ ../std/GD32C2x1_Firmware_Library/GD32C2x1_standard_peripheral/Source/gd32c2x1_usart.c:146:1
	add	sp, #8
	bx	lr
.Ltmp14:
.Lfunc_end2:
	.size	usart_parity_config, .Lfunc_end2-usart_parity_config
	.cfi_endproc
	.cantunwind
	.fnend
                                        @ -- End function
	.section	.text.usart_word_length_set,"ax",%progbits
	.hidden	usart_word_length_set           @ -- Begin function usart_word_length_set
	.globl	usart_word_length_set
	.p2align	1
	.type	usart_word_length_set,%function
	.code	16                              @ @usart_word_length_set
	.thumb_func
usart_word_length_set:
.Lfunc_begin3:
	.loc	5 159 0                         @ ../std/GD32C2x1_Firmware_Library/GD32C2x1_standard_peripheral/Source/gd32c2x1_usart.c:159:0
	.fnstart
	.cfi_startproc
@ %bb.0:
	.pad	#8
	sub	sp, #8
	.cfi_def_cfa_offset 8
	str	r0, [sp, #4]
	str	r1, [sp]
.Ltmp15:
	.loc	5 161 5 prologue_end            @ ../std/GD32C2x1_Firmware_Library/GD32C2x1_standard_peripheral/Source/gd32c2x1_usart.c:161:5
	ldr	r1, [sp, #4]
	.loc	5 161 30 is_stmt 0              @ ../std/GD32C2x1_Firmware_Library/GD32C2x1_standard_peripheral/Source/gd32c2x1_usart.c:161:30
	ldr	r0, [r1]
	movs	r2, #1
	bics	r0, r2
	str	r0, [r1]
	.loc	5 163 5 is_stmt 1               @ ../std/GD32C2x1_Firmware_Library/GD32C2x1_standard_peripheral/Source/gd32c2x1_usart.c:163:5
	ldr	r2, [sp, #4]
	.loc	5 163 30 is_stmt 0              @ ../std/GD32C2x1_Firmware_Library/GD32C2x1_standard_peripheral/Source/gd32c2x1_usart.c:163:30
	ldr	r1, [r2]
	movw	r0, #4096
	bics	r1, r0
	str	r1, [r2]
	.loc	5 165 33 is_stmt 1              @ ../std/GD32C2x1_Firmware_Library/GD32C2x1_standard_peripheral/Source/gd32c2x1_usart.c:165:33
	ldr	r2, [sp]
	.loc	5 165 38 is_stmt 0              @ ../std/GD32C2x1_Firmware_Library/GD32C2x1_standard_peripheral/Source/gd32c2x1_usart.c:165:38
	ands	r2, r0
	.loc	5 165 5                         @ ../std/GD32C2x1_Firmware_Library/GD32C2x1_standard_peripheral/Source/gd32c2x1_usart.c:165:5
	ldr	r1, [sp, #4]
	.loc	5 165 30                        @ ../std/GD32C2x1_Firmware_Library/GD32C2x1_standard_peripheral/Source/gd32c2x1_usart.c:165:30
	ldr	r0, [r1]
	orrs	r0, r2
	str	r0, [r1]
	.loc	5 166 1 is_stmt 1               @ ../std/GD32C2x1_Firmware_Library/GD32C2x1_standard_peripheral/Source/gd32c2x1_usart.c:166:1
	add	sp, #8
	bx	lr
.Ltmp16:
.Lfunc_end3:
	.size	usart_word_length_set, .Lfunc_end3-usart_word_length_set
	.cfi_endproc
	.cantunwind
	.fnend
                                        @ -- End function
	.section	.text.usart_stop_bit_set,"ax",%progbits
	.hidden	usart_stop_bit_set              @ -- Begin function usart_stop_bit_set
	.globl	usart_stop_bit_set
	.p2align	1
	.type	usart_stop_bit_set,%function
	.code	16                              @ @usart_stop_bit_set
	.thumb_func
usart_stop_bit_set:
.Lfunc_begin4:
	.loc	5 181 0                         @ ../std/GD32C2x1_Firmware_Library/GD32C2x1_standard_peripheral/Source/gd32c2x1_usart.c:181:0
	.fnstart
	.cfi_startproc
@ %bb.0:
	.pad	#8
	sub	sp, #8
	.cfi_def_cfa_offset 8
	str	r0, [sp, #4]
	str	r1, [sp]
.Ltmp17:
	.loc	5 183 5 prologue_end            @ ../std/GD32C2x1_Firmware_Library/GD32C2x1_standard_peripheral/Source/gd32c2x1_usart.c:183:5
	ldr	r1, [sp, #4]
	.loc	5 183 30 is_stmt 0              @ ../std/GD32C2x1_Firmware_Library/GD32C2x1_standard_peripheral/Source/gd32c2x1_usart.c:183:30
	ldr	r0, [r1]
	movs	r2, #1
	bics	r0, r2
	str	r0, [r1]
	.loc	5 185 5 is_stmt 1               @ ../std/GD32C2x1_Firmware_Library/GD32C2x1_standard_peripheral/Source/gd32c2x1_usart.c:185:5
	ldr	r1, [sp, #4]
	.loc	5 185 30 is_stmt 0              @ ../std/GD32C2x1_Firmware_Library/GD32C2x1_standard_peripheral/Source/gd32c2x1_usart.c:185:30
	ldr	r0, [r1, #4]
	movw	r2, #12288
	bics	r0, r2
	str	r0, [r1, #4]
	.loc	5 186 34 is_stmt 1              @ ../std/GD32C2x1_Firmware_Library/GD32C2x1_standard_peripheral/Source/gd32c2x1_usart.c:186:34
	ldr	r0, [sp]
	.loc	5 186 62 is_stmt 0              @ ../std/GD32C2x1_Firmware_Library/GD32C2x1_standard_peripheral/Source/gd32c2x1_usart.c:186:62
	lsls	r0, r0, #30
	lsrs	r2, r0, #18
	.loc	5 186 5                         @ ../std/GD32C2x1_Firmware_Library/GD32C2x1_standard_peripheral/Source/gd32c2x1_usart.c:186:5
	ldr	r1, [sp, #4]
	.loc	5 186 30                        @ ../std/GD32C2x1_Firmware_Library/GD32C2x1_standard_peripheral/Source/gd32c2x1_usart.c:186:30
	ldr	r0, [r1, #4]
	orrs	r0, r2
	str	r0, [r1, #4]
	.loc	5 187 1 is_stmt 1               @ ../std/GD32C2x1_Firmware_Library/GD32C2x1_standard_peripheral/Source/gd32c2x1_usart.c:187:1
	add	sp, #8
	bx	lr
.Ltmp18:
.Lfunc_end4:
	.size	usart_stop_bit_set, .Lfunc_end4-usart_stop_bit_set
	.cfi_endproc
	.cantunwind
	.fnend
                                        @ -- End function
	.section	.text.usart_enable,"ax",%progbits
	.hidden	usart_enable                    @ -- Begin function usart_enable
	.globl	usart_enable
	.p2align	1
	.type	usart_enable,%function
	.code	16                              @ @usart_enable
	.thumb_func
usart_enable:
.Lfunc_begin5:
	.loc	5 196 0                         @ ../std/GD32C2x1_Firmware_Library/GD32C2x1_standard_peripheral/Source/gd32c2x1_usart.c:196:0
	.fnstart
	.cfi_startproc
@ %bb.0:
	.pad	#4
	sub	sp, #4
	.cfi_def_cfa_offset 4
	str	r0, [sp]
.Ltmp19:
	.loc	5 197 5 prologue_end            @ ../std/GD32C2x1_Firmware_Library/GD32C2x1_standard_peripheral/Source/gd32c2x1_usart.c:197:5
	ldr	r1, [sp]
	.loc	5 197 30 is_stmt 0              @ ../std/GD32C2x1_Firmware_Library/GD32C2x1_standard_peripheral/Source/gd32c2x1_usart.c:197:30
	ldr	r0, [r1]
	movs	r2, #1
	orrs	r0, r2
	str	r0, [r1]
	.loc	5 198 1 is_stmt 1               @ ../std/GD32C2x1_Firmware_Library/GD32C2x1_standard_peripheral/Source/gd32c2x1_usart.c:198:1
	add	sp, #4
	bx	lr
.Ltmp20:
.Lfunc_end5:
	.size	usart_enable, .Lfunc_end5-usart_enable
	.cfi_endproc
	.cantunwind
	.fnend
                                        @ -- End function
	.section	.text.usart_disable,"ax",%progbits
	.hidden	usart_disable                   @ -- Begin function usart_disable
	.globl	usart_disable
	.p2align	1
	.type	usart_disable,%function
	.code	16                              @ @usart_disable
	.thumb_func
usart_disable:
.Lfunc_begin6:
	.loc	5 207 0                         @ ../std/GD32C2x1_Firmware_Library/GD32C2x1_standard_peripheral/Source/gd32c2x1_usart.c:207:0
	.fnstart
	.cfi_startproc
@ %bb.0:
	.pad	#4
	sub	sp, #4
	.cfi_def_cfa_offset 4
	str	r0, [sp]
.Ltmp21:
	.loc	5 208 5 prologue_end            @ ../std/GD32C2x1_Firmware_Library/GD32C2x1_standard_peripheral/Source/gd32c2x1_usart.c:208:5
	ldr	r1, [sp]
	.loc	5 208 30 is_stmt 0              @ ../std/GD32C2x1_Firmware_Library/GD32C2x1_standard_peripheral/Source/gd32c2x1_usart.c:208:30
	ldr	r0, [r1]
	movs	r2, #1
	bics	r0, r2
	str	r0, [r1]
	.loc	5 209 1 is_stmt 1               @ ../std/GD32C2x1_Firmware_Library/GD32C2x1_standard_peripheral/Source/gd32c2x1_usart.c:209:1
	add	sp, #4
	bx	lr
.Ltmp22:
.Lfunc_end6:
	.size	usart_disable, .Lfunc_end6-usart_disable
	.cfi_endproc
	.cantunwind
	.fnend
                                        @ -- End function
	.section	.text.usart_transmit_config,"ax",%progbits
	.hidden	usart_transmit_config           @ -- Begin function usart_transmit_config
	.globl	usart_transmit_config
	.p2align	1
	.type	usart_transmit_config,%function
	.code	16                              @ @usart_transmit_config
	.thumb_func
usart_transmit_config:
.Lfunc_begin7:
	.loc	5 222 0                         @ ../std/GD32C2x1_Firmware_Library/GD32C2x1_standard_peripheral/Source/gd32c2x1_usart.c:222:0
	.fnstart
	.cfi_startproc
@ %bb.0:
	.pad	#8
	sub	sp, #8
	.cfi_def_cfa_offset 8
	str	r0, [sp, #4]
	str	r1, [sp]
.Ltmp23:
	.loc	5 223 5 prologue_end            @ ../std/GD32C2x1_Firmware_Library/GD32C2x1_standard_peripheral/Source/gd32c2x1_usart.c:223:5
	ldr	r2, [sp, #4]
	.loc	5 223 30 is_stmt 0              @ ../std/GD32C2x1_Firmware_Library/GD32C2x1_standard_peripheral/Source/gd32c2x1_usart.c:223:30
	ldr	r1, [r2]
	movs	r0, #8
	bics	r1, r0
	str	r1, [r2]
	.loc	5 225 33 is_stmt 1              @ ../std/GD32C2x1_Firmware_Library/GD32C2x1_standard_peripheral/Source/gd32c2x1_usart.c:225:33
	ldr	r2, [sp]
	.loc	5 225 42 is_stmt 0              @ ../std/GD32C2x1_Firmware_Library/GD32C2x1_standard_peripheral/Source/gd32c2x1_usart.c:225:42
	ands	r2, r0
	.loc	5 225 5                         @ ../std/GD32C2x1_Firmware_Library/GD32C2x1_standard_peripheral/Source/gd32c2x1_usart.c:225:5
	ldr	r1, [sp, #4]
	.loc	5 225 30                        @ ../std/GD32C2x1_Firmware_Library/GD32C2x1_standard_peripheral/Source/gd32c2x1_usart.c:225:30
	ldr	r0, [r1]
	orrs	r0, r2
	str	r0, [r1]
	.loc	5 226 1 is_stmt 1               @ ../std/GD32C2x1_Firmware_Library/GD32C2x1_standard_peripheral/Source/gd32c2x1_usart.c:226:1
	add	sp, #8
	bx	lr
.Ltmp24:
.Lfunc_end7:
	.size	usart_transmit_config, .Lfunc_end7-usart_transmit_config
	.cfi_endproc
	.cantunwind
	.fnend
                                        @ -- End function
	.section	.text.usart_receive_config,"ax",%progbits
	.hidden	usart_receive_config            @ -- Begin function usart_receive_config
	.globl	usart_receive_config
	.p2align	1
	.type	usart_receive_config,%function
	.code	16                              @ @usart_receive_config
	.thumb_func
usart_receive_config:
.Lfunc_begin8:
	.loc	5 239 0                         @ ../std/GD32C2x1_Firmware_Library/GD32C2x1_standard_peripheral/Source/gd32c2x1_usart.c:239:0
	.fnstart
	.cfi_startproc
@ %bb.0:
	.pad	#8
	sub	sp, #8
	.cfi_def_cfa_offset 8
	str	r0, [sp, #4]
	str	r1, [sp]
.Ltmp25:
	.loc	5 240 5 prologue_end            @ ../std/GD32C2x1_Firmware_Library/GD32C2x1_standard_peripheral/Source/gd32c2x1_usart.c:240:5
	ldr	r2, [sp, #4]
	.loc	5 240 30 is_stmt 0              @ ../std/GD32C2x1_Firmware_Library/GD32C2x1_standard_peripheral/Source/gd32c2x1_usart.c:240:30
	ldr	r1, [r2]
	movs	r0, #4
	bics	r1, r0
	str	r1, [r2]
	.loc	5 242 33 is_stmt 1              @ ../std/GD32C2x1_Firmware_Library/GD32C2x1_standard_peripheral/Source/gd32c2x1_usart.c:242:33
	ldr	r2, [sp]
	.loc	5 242 42 is_stmt 0              @ ../std/GD32C2x1_Firmware_Library/GD32C2x1_standard_peripheral/Source/gd32c2x1_usart.c:242:42
	ands	r2, r0
	.loc	5 242 5                         @ ../std/GD32C2x1_Firmware_Library/GD32C2x1_standard_peripheral/Source/gd32c2x1_usart.c:242:5
	ldr	r1, [sp, #4]
	.loc	5 242 30                        @ ../std/GD32C2x1_Firmware_Library/GD32C2x1_standard_peripheral/Source/gd32c2x1_usart.c:242:30
	ldr	r0, [r1]
	orrs	r0, r2
	str	r0, [r1]
	.loc	5 243 1 is_stmt 1               @ ../std/GD32C2x1_Firmware_Library/GD32C2x1_standard_peripheral/Source/gd32c2x1_usart.c:243:1
	add	sp, #8
	bx	lr
.Ltmp26:
.Lfunc_end8:
	.size	usart_receive_config, .Lfunc_end8-usart_receive_config
	.cfi_endproc
	.cantunwind
	.fnend
                                        @ -- End function
	.section	.text.usart_data_first_config,"ax",%progbits
	.hidden	usart_data_first_config         @ -- Begin function usart_data_first_config
	.globl	usart_data_first_config
	.p2align	1
	.type	usart_data_first_config,%function
	.code	16                              @ @usart_data_first_config
	.thumb_func
usart_data_first_config:
.Lfunc_begin9:
	.loc	5 256 0                         @ ../std/GD32C2x1_Firmware_Library/GD32C2x1_standard_peripheral/Source/gd32c2x1_usart.c:256:0
	.fnstart
	.cfi_startproc
@ %bb.0:
	.pad	#8
	sub	sp, #8
	.cfi_def_cfa_offset 8
	str	r0, [sp, #4]
	str	r1, [sp]
.Ltmp27:
	.loc	5 257 5 prologue_end            @ ../std/GD32C2x1_Firmware_Library/GD32C2x1_standard_peripheral/Source/gd32c2x1_usart.c:257:5
	ldr	r2, [sp, #4]
	.loc	5 257 30 is_stmt 0              @ ../std/GD32C2x1_Firmware_Library/GD32C2x1_standard_peripheral/Source/gd32c2x1_usart.c:257:30
	ldr	r1, [r2]
	movs	r0, #1
	bics	r1, r0
	str	r1, [r2]
	.loc	5 259 5 is_stmt 1               @ ../std/GD32C2x1_Firmware_Library/GD32C2x1_standard_peripheral/Source/gd32c2x1_usart.c:259:5
	ldr	r2, [sp, #4]
	.loc	5 259 30 is_stmt 0              @ ../std/GD32C2x1_Firmware_Library/GD32C2x1_standard_peripheral/Source/gd32c2x1_usart.c:259:30
	ldr	r1, [r2, #4]
	lsls	r0, r0, #19
	bics	r1, r0
	str	r1, [r2, #4]
	.loc	5 260 52 is_stmt 1              @ ../std/GD32C2x1_Firmware_Library/GD32C2x1_standard_peripheral/Source/gd32c2x1_usart.c:260:52
	ldr	r2, [sp]
	.loc	5 260 50 is_stmt 0              @ ../std/GD32C2x1_Firmware_Library/GD32C2x1_standard_peripheral/Source/gd32c2x1_usart.c:260:50
	ands	r2, r0
	.loc	5 260 5                         @ ../std/GD32C2x1_Firmware_Library/GD32C2x1_standard_peripheral/Source/gd32c2x1_usart.c:260:5
	ldr	r1, [sp, #4]
	.loc	5 260 30                        @ ../std/GD32C2x1_Firmware_Library/GD32C2x1_standard_peripheral/Source/gd32c2x1_usart.c:260:30
	ldr	r0, [r1, #4]
	orrs	r0, r2
	str	r0, [r1, #4]
	.loc	5 261 1 is_stmt 1               @ ../std/GD32C2x1_Firmware_Library/GD32C2x1_standard_peripheral/Source/gd32c2x1_usart.c:261:1
	add	sp, #8
	bx	lr
.Ltmp28:
.Lfunc_end9:
	.size	usart_data_first_config, .Lfunc_end9-usart_data_first_config
	.cfi_endproc
	.cantunwind
	.fnend
                                        @ -- End function
	.section	.text.usart_invert_config,"ax",%progbits
	.hidden	usart_invert_config             @ -- Begin function usart_invert_config
	.globl	usart_invert_config
	.p2align	2
	.type	usart_invert_config,%function
	.code	16                              @ @usart_invert_config
	.thumb_func
usart_invert_config:
.Lfunc_begin10:
	.loc	5 280 0                         @ ../std/GD32C2x1_Firmware_Library/GD32C2x1_standard_peripheral/Source/gd32c2x1_usart.c:280:0
	.fnstart
	.cfi_startproc
@ %bb.0:
	.pad	#12
	sub	sp, #12
	.cfi_def_cfa_offset 12
                                        @ kill: def $r2 killed $r1
	str	r0, [sp, #8]
	add	r0, sp, #4
	strb	r1, [r0]
.Ltmp29:
	.loc	5 281 5 prologue_end            @ ../std/GD32C2x1_Firmware_Library/GD32C2x1_standard_peripheral/Source/gd32c2x1_usart.c:281:5
	ldr	r2, [sp, #8]
	.loc	5 281 30 is_stmt 0              @ ../std/GD32C2x1_Firmware_Library/GD32C2x1_standard_peripheral/Source/gd32c2x1_usart.c:281:30
	ldr	r1, [r2]
	movs	r3, #1
	bics	r1, r3
	str	r1, [r2]
	.loc	5 283 12 is_stmt 1              @ ../std/GD32C2x1_Firmware_Library/GD32C2x1_standard_peripheral/Source/gd32c2x1_usart.c:283:12
	ldrb	r0, [r0]
	.loc	5 283 5 is_stmt 0               @ ../std/GD32C2x1_Firmware_Library/GD32C2x1_standard_peripheral/Source/gd32c2x1_usart.c:283:5
	str	r0, [sp]                        @ 4-byte Spill
	cmp	r0, #7
	bhi	.LBB10_11
@ %bb.1:
	.loc	5 0 5                           @ ../std/GD32C2x1_Firmware_Library/GD32C2x1_standard_peripheral/Source/gd32c2x1_usart.c:0:5
	ldr	r1, [sp]                        @ 4-byte Reload
	lsls	r2, r1, #2
	adr	r0, .LJTI10_0
	adds	r0, r0, r2
	mov	pc, r0
@ %bb.2:
	.p2align	2
.LJTI10_0:
	b.w	.LBB10_3
	b.w	.LBB10_4
	b.w	.LBB10_5
	b.w	.LBB10_6
	b.w	.LBB10_7
	b.w	.LBB10_8
	b.w	.LBB10_9
	b.w	.LBB10_10
.LBB10_3:
.Ltmp30:
	.loc	5 285 9 is_stmt 1               @ ../std/GD32C2x1_Firmware_Library/GD32C2x1_standard_peripheral/Source/gd32c2x1_usart.c:285:9
	ldr	r1, [sp, #8]
	.loc	5 285 34 is_stmt 0              @ ../std/GD32C2x1_Firmware_Library/GD32C2x1_standard_peripheral/Source/gd32c2x1_usart.c:285:34
	ldr	r0, [r1, #4]
	movs	r2, #1
	lsls	r2, r2, #18
	orrs	r0, r2
	str	r0, [r1, #4]
	.loc	5 286 9 is_stmt 1               @ ../std/GD32C2x1_Firmware_Library/GD32C2x1_standard_peripheral/Source/gd32c2x1_usart.c:286:9
	b	.LBB10_12
.LBB10_4:
	.loc	5 288 9                         @ ../std/GD32C2x1_Firmware_Library/GD32C2x1_standard_peripheral/Source/gd32c2x1_usart.c:288:9
	ldr	r1, [sp, #8]
	.loc	5 288 34 is_stmt 0              @ ../std/GD32C2x1_Firmware_Library/GD32C2x1_standard_peripheral/Source/gd32c2x1_usart.c:288:34
	ldr	r0, [r1, #4]
	movs	r2, #1
	lsls	r2, r2, #18
	bics	r0, r2
	str	r0, [r1, #4]
	.loc	5 289 9 is_stmt 1               @ ../std/GD32C2x1_Firmware_Library/GD32C2x1_standard_peripheral/Source/gd32c2x1_usart.c:289:9
	b	.LBB10_12
.LBB10_5:
	.loc	5 291 9                         @ ../std/GD32C2x1_Firmware_Library/GD32C2x1_standard_peripheral/Source/gd32c2x1_usart.c:291:9
	ldr	r1, [sp, #8]
	.loc	5 291 34 is_stmt 0              @ ../std/GD32C2x1_Firmware_Library/GD32C2x1_standard_peripheral/Source/gd32c2x1_usart.c:291:34
	ldr	r0, [r1, #4]
	movs	r2, #1
	lsls	r2, r2, #17
	orrs	r0, r2
	str	r0, [r1, #4]
	.loc	5 292 9 is_stmt 1               @ ../std/GD32C2x1_Firmware_Library/GD32C2x1_standard_peripheral/Source/gd32c2x1_usart.c:292:9
	b	.LBB10_12
.LBB10_6:
	.loc	5 294 9                         @ ../std/GD32C2x1_Firmware_Library/GD32C2x1_standard_peripheral/Source/gd32c2x1_usart.c:294:9
	ldr	r1, [sp, #8]
	.loc	5 294 34 is_stmt 0              @ ../std/GD32C2x1_Firmware_Library/GD32C2x1_standard_peripheral/Source/gd32c2x1_usart.c:294:34
	ldr	r0, [r1, #4]
	movs	r2, #1
	lsls	r2, r2, #17
	bics	r0, r2
	str	r0, [r1, #4]
	.loc	5 295 9 is_stmt 1               @ ../std/GD32C2x1_Firmware_Library/GD32C2x1_standard_peripheral/Source/gd32c2x1_usart.c:295:9
	b	.LBB10_12
.LBB10_7:
	.loc	5 297 9                         @ ../std/GD32C2x1_Firmware_Library/GD32C2x1_standard_peripheral/Source/gd32c2x1_usart.c:297:9
	ldr	r1, [sp, #8]
	.loc	5 297 34 is_stmt 0              @ ../std/GD32C2x1_Firmware_Library/GD32C2x1_standard_peripheral/Source/gd32c2x1_usart.c:297:34
	ldr	r0, [r1, #4]
	movs	r2, #1
	lsls	r2, r2, #16
	orrs	r0, r2
	str	r0, [r1, #4]
	.loc	5 298 9 is_stmt 1               @ ../std/GD32C2x1_Firmware_Library/GD32C2x1_standard_peripheral/Source/gd32c2x1_usart.c:298:9
	b	.LBB10_12
.LBB10_8:
	.loc	5 300 9                         @ ../std/GD32C2x1_Firmware_Library/GD32C2x1_standard_peripheral/Source/gd32c2x1_usart.c:300:9
	ldr	r1, [sp, #8]
	.loc	5 300 34 is_stmt 0              @ ../std/GD32C2x1_Firmware_Library/GD32C2x1_standard_peripheral/Source/gd32c2x1_usart.c:300:34
	ldr	r0, [r1, #4]
	movs	r2, #1
	lsls	r2, r2, #16
	bics	r0, r2
	str	r0, [r1, #4]
	.loc	5 301 9 is_stmt 1               @ ../std/GD32C2x1_Firmware_Library/GD32C2x1_standard_peripheral/Source/gd32c2x1_usart.c:301:9
	b	.LBB10_12
.LBB10_9:
	.loc	5 303 9                         @ ../std/GD32C2x1_Firmware_Library/GD32C2x1_standard_peripheral/Source/gd32c2x1_usart.c:303:9
	ldr	r1, [sp, #8]
	.loc	5 303 34 is_stmt 0              @ ../std/GD32C2x1_Firmware_Library/GD32C2x1_standard_peripheral/Source/gd32c2x1_usart.c:303:34
	ldr	r0, [r1, #4]
	movw	r2, #32768
	orrs	r0, r2
	str	r0, [r1, #4]
	.loc	5 304 9 is_stmt 1               @ ../std/GD32C2x1_Firmware_Library/GD32C2x1_standard_peripheral/Source/gd32c2x1_usart.c:304:9
	b	.LBB10_12
.LBB10_10:
	.loc	5 306 9                         @ ../std/GD32C2x1_Firmware_Library/GD32C2x1_standard_peripheral/Source/gd32c2x1_usart.c:306:9
	ldr	r1, [sp, #8]
	.loc	5 306 34 is_stmt 0              @ ../std/GD32C2x1_Firmware_Library/GD32C2x1_standard_peripheral/Source/gd32c2x1_usart.c:306:34
	ldr	r0, [r1, #4]
	movw	r2, #32768
	bics	r0, r2
	str	r0, [r1, #4]
	.loc	5 307 9 is_stmt 1               @ ../std/GD32C2x1_Firmware_Library/GD32C2x1_standard_peripheral/Source/gd32c2x1_usart.c:307:9
	b	.LBB10_12
.LBB10_11:
	.loc	5 309 9                         @ ../std/GD32C2x1_Firmware_Library/GD32C2x1_standard_peripheral/Source/gd32c2x1_usart.c:309:9
	b	.LBB10_12
.Ltmp31:
.LBB10_12:
	.loc	5 311 1                         @ ../std/GD32C2x1_Firmware_Library/GD32C2x1_standard_peripheral/Source/gd32c2x1_usart.c:311:1
	add	sp, #12
	bx	lr
.Ltmp32:
.Lfunc_end10:
	.size	usart_invert_config, .Lfunc_end10-usart_invert_config
	.cfi_endproc
	.cantunwind
	.fnend
                                        @ -- End function
	.section	.text.usart_overrun_enable,"ax",%progbits
	.hidden	usart_overrun_enable            @ -- Begin function usart_overrun_enable
	.globl	usart_overrun_enable
	.p2align	1
	.type	usart_overrun_enable,%function
	.code	16                              @ @usart_overrun_enable
	.thumb_func
usart_overrun_enable:
.Lfunc_begin11:
	.loc	5 320 0                         @ ../std/GD32C2x1_Firmware_Library/GD32C2x1_standard_peripheral/Source/gd32c2x1_usart.c:320:0
	.fnstart
	.cfi_startproc
@ %bb.0:
	.pad	#4
	sub	sp, #4
	.cfi_def_cfa_offset 4
	str	r0, [sp]
.Ltmp33:
	.loc	5 321 5 prologue_end            @ ../std/GD32C2x1_Firmware_Library/GD32C2x1_standard_peripheral/Source/gd32c2x1_usart.c:321:5
	ldr	r1, [sp]
	.loc	5 321 30 is_stmt 0              @ ../std/GD32C2x1_Firmware_Library/GD32C2x1_standard_peripheral/Source/gd32c2x1_usart.c:321:30
	ldr	r0, [r1]
	movs	r2, #1
	bics	r0, r2
	str	r0, [r1]
	.loc	5 323 5 is_stmt 1               @ ../std/GD32C2x1_Firmware_Library/GD32C2x1_standard_peripheral/Source/gd32c2x1_usart.c:323:5
	ldr	r1, [sp]
	.loc	5 323 30 is_stmt 0              @ ../std/GD32C2x1_Firmware_Library/GD32C2x1_standard_peripheral/Source/gd32c2x1_usart.c:323:30
	ldr	r0, [r1, #8]
	movw	r2, #4096
	bics	r0, r2
	str	r0, [r1, #8]
	.loc	5 324 1 is_stmt 1               @ ../std/GD32C2x1_Firmware_Library/GD32C2x1_standard_peripheral/Source/gd32c2x1_usart.c:324:1
	add	sp, #4
	bx	lr
.Ltmp34:
.Lfunc_end11:
	.size	usart_overrun_enable, .Lfunc_end11-usart_overrun_enable
	.cfi_endproc
	.cantunwind
	.fnend
                                        @ -- End function
	.section	.text.usart_overrun_disable,"ax",%progbits
	.hidden	usart_overrun_disable           @ -- Begin function usart_overrun_disable
	.globl	usart_overrun_disable
	.p2align	1
	.type	usart_overrun_disable,%function
	.code	16                              @ @usart_overrun_disable
	.thumb_func
usart_overrun_disable:
.Lfunc_begin12:
	.loc	5 333 0                         @ ../std/GD32C2x1_Firmware_Library/GD32C2x1_standard_peripheral/Source/gd32c2x1_usart.c:333:0
	.fnstart
	.cfi_startproc
@ %bb.0:
	.pad	#4
	sub	sp, #4
	.cfi_def_cfa_offset 4
	str	r0, [sp]
.Ltmp35:
	.loc	5 334 5 prologue_end            @ ../std/GD32C2x1_Firmware_Library/GD32C2x1_standard_peripheral/Source/gd32c2x1_usart.c:334:5
	ldr	r1, [sp]
	.loc	5 334 30 is_stmt 0              @ ../std/GD32C2x1_Firmware_Library/GD32C2x1_standard_peripheral/Source/gd32c2x1_usart.c:334:30
	ldr	r0, [r1]
	movs	r2, #1
	bics	r0, r2
	str	r0, [r1]
	.loc	5 336 5 is_stmt 1               @ ../std/GD32C2x1_Firmware_Library/GD32C2x1_standard_peripheral/Source/gd32c2x1_usart.c:336:5
	ldr	r1, [sp]
	.loc	5 336 30 is_stmt 0              @ ../std/GD32C2x1_Firmware_Library/GD32C2x1_standard_peripheral/Source/gd32c2x1_usart.c:336:30
	ldr	r0, [r1, #8]
	movw	r2, #4096
	orrs	r0, r2
	str	r0, [r1, #8]
	.loc	5 337 1 is_stmt 1               @ ../std/GD32C2x1_Firmware_Library/GD32C2x1_standard_peripheral/Source/gd32c2x1_usart.c:337:1
	add	sp, #4
	bx	lr
.Ltmp36:
.Lfunc_end12:
	.size	usart_overrun_disable, .Lfunc_end12-usart_overrun_disable
	.cfi_endproc
	.cantunwind
	.fnend
                                        @ -- End function
	.section	.text.usart_oversample_config,"ax",%progbits
	.hidden	usart_oversample_config         @ -- Begin function usart_oversample_config
	.globl	usart_oversample_config
	.p2align	1
	.type	usart_oversample_config,%function
	.code	16                              @ @usart_oversample_config
	.thumb_func
usart_oversample_config:
.Lfunc_begin13:
	.loc	5 350 0                         @ ../std/GD32C2x1_Firmware_Library/GD32C2x1_standard_peripheral/Source/gd32c2x1_usart.c:350:0
	.fnstart
	.cfi_startproc
@ %bb.0:
	.pad	#8
	sub	sp, #8
	.cfi_def_cfa_offset 8
	str	r0, [sp, #4]
	str	r1, [sp]
.Ltmp37:
	.loc	5 352 5 prologue_end            @ ../std/GD32C2x1_Firmware_Library/GD32C2x1_standard_peripheral/Source/gd32c2x1_usart.c:352:5
	ldr	r1, [sp, #4]
	.loc	5 352 30 is_stmt 0              @ ../std/GD32C2x1_Firmware_Library/GD32C2x1_standard_peripheral/Source/gd32c2x1_usart.c:352:30
	ldr	r0, [r1]
	movs	r2, #1
	bics	r0, r2
	str	r0, [r1]
	.loc	5 354 5 is_stmt 1               @ ../std/GD32C2x1_Firmware_Library/GD32C2x1_standard_peripheral/Source/gd32c2x1_usart.c:354:5
	ldr	r2, [sp, #4]
	.loc	5 354 30 is_stmt 0              @ ../std/GD32C2x1_Firmware_Library/GD32C2x1_standard_peripheral/Source/gd32c2x1_usart.c:354:30
	ldr	r1, [r2]
	movw	r0, #32768
	bics	r1, r0
	str	r1, [r2]
	.loc	5 355 33 is_stmt 1              @ ../std/GD32C2x1_Firmware_Library/GD32C2x1_standard_peripheral/Source/gd32c2x1_usart.c:355:33
	ldr	r2, [sp]
	.loc	5 355 42 is_stmt 0              @ ../std/GD32C2x1_Firmware_Library/GD32C2x1_standard_peripheral/Source/gd32c2x1_usart.c:355:42
	ands	r2, r0
	.loc	5 355 5                         @ ../std/GD32C2x1_Firmware_Library/GD32C2x1_standard_peripheral/Source/gd32c2x1_usart.c:355:5
	ldr	r1, [sp, #4]
	.loc	5 355 30                        @ ../std/GD32C2x1_Firmware_Library/GD32C2x1_standard_peripheral/Source/gd32c2x1_usart.c:355:30
	ldr	r0, [r1]
	orrs	r0, r2
	str	r0, [r1]
	.loc	5 356 1 is_stmt 1               @ ../std/GD32C2x1_Firmware_Library/GD32C2x1_standard_peripheral/Source/gd32c2x1_usart.c:356:1
	add	sp, #8
	bx	lr
.Ltmp38:
.Lfunc_end13:
	.size	usart_oversample_config, .Lfunc_end13-usart_oversample_config
	.cfi_endproc
	.cantunwind
	.fnend
                                        @ -- End function
	.section	.text.usart_sample_bit_config,"ax",%progbits
	.hidden	usart_sample_bit_config         @ -- Begin function usart_sample_bit_config
	.globl	usart_sample_bit_config
	.p2align	1
	.type	usart_sample_bit_config,%function
	.code	16                              @ @usart_sample_bit_config
	.thumb_func
usart_sample_bit_config:
.Lfunc_begin14:
	.loc	5 369 0                         @ ../std/GD32C2x1_Firmware_Library/GD32C2x1_standard_peripheral/Source/gd32c2x1_usart.c:369:0
	.fnstart
	.cfi_startproc
@ %bb.0:
	.pad	#8
	sub	sp, #8
	.cfi_def_cfa_offset 8
	str	r0, [sp, #4]
	str	r1, [sp]
.Ltmp39:
	.loc	5 371 5 prologue_end            @ ../std/GD32C2x1_Firmware_Library/GD32C2x1_standard_peripheral/Source/gd32c2x1_usart.c:371:5
	ldr	r1, [sp, #4]
	.loc	5 371 30 is_stmt 0              @ ../std/GD32C2x1_Firmware_Library/GD32C2x1_standard_peripheral/Source/gd32c2x1_usart.c:371:30
	ldr	r0, [r1]
	movs	r2, #1
	bics	r0, r2
	str	r0, [r1]
	.loc	5 372 5 is_stmt 1               @ ../std/GD32C2x1_Firmware_Library/GD32C2x1_standard_peripheral/Source/gd32c2x1_usart.c:372:5
	ldr	r2, [sp, #4]
	.loc	5 372 30 is_stmt 0              @ ../std/GD32C2x1_Firmware_Library/GD32C2x1_standard_peripheral/Source/gd32c2x1_usart.c:372:30
	ldr	r1, [r2, #8]
	movw	r0, #2048
	bics	r1, r0
	str	r1, [r2, #8]
	.loc	5 373 33 is_stmt 1              @ ../std/GD32C2x1_Firmware_Library/GD32C2x1_standard_peripheral/Source/gd32c2x1_usart.c:373:33
	ldr	r2, [sp]
	.loc	5 373 37 is_stmt 0              @ ../std/GD32C2x1_Firmware_Library/GD32C2x1_standard_peripheral/Source/gd32c2x1_usart.c:373:37
	ands	r2, r0
	.loc	5 373 5                         @ ../std/GD32C2x1_Firmware_Library/GD32C2x1_standard_peripheral/Source/gd32c2x1_usart.c:373:5
	ldr	r1, [sp, #4]
	.loc	5 373 30                        @ ../std/GD32C2x1_Firmware_Library/GD32C2x1_standard_peripheral/Source/gd32c2x1_usart.c:373:30
	ldr	r0, [r1, #8]
	orrs	r0, r2
	str	r0, [r1, #8]
	.loc	5 374 1 is_stmt 1               @ ../std/GD32C2x1_Firmware_Library/GD32C2x1_standard_peripheral/Source/gd32c2x1_usart.c:374:1
	add	sp, #8
	bx	lr
.Ltmp40:
.Lfunc_end14:
	.size	usart_sample_bit_config, .Lfunc_end14-usart_sample_bit_config
	.cfi_endproc
	.cantunwind
	.fnend
                                        @ -- End function
	.section	.text.usart_receiver_timeout_enable,"ax",%progbits
	.hidden	usart_receiver_timeout_enable   @ -- Begin function usart_receiver_timeout_enable
	.globl	usart_receiver_timeout_enable
	.p2align	1
	.type	usart_receiver_timeout_enable,%function
	.code	16                              @ @usart_receiver_timeout_enable
	.thumb_func
usart_receiver_timeout_enable:
.Lfunc_begin15:
	.loc	5 383 0                         @ ../std/GD32C2x1_Firmware_Library/GD32C2x1_standard_peripheral/Source/gd32c2x1_usart.c:383:0
	.fnstart
	.cfi_startproc
@ %bb.0:
	.pad	#4
	sub	sp, #4
	.cfi_def_cfa_offset 4
	str	r0, [sp]
.Ltmp41:
	.loc	5 384 5 prologue_end            @ ../std/GD32C2x1_Firmware_Library/GD32C2x1_standard_peripheral/Source/gd32c2x1_usart.c:384:5
	ldr	r1, [sp]
	.loc	5 384 30 is_stmt 0              @ ../std/GD32C2x1_Firmware_Library/GD32C2x1_standard_peripheral/Source/gd32c2x1_usart.c:384:30
	ldr	r0, [r1, #4]
	movs	r2, #1
	lsls	r2, r2, #23
	orrs	r0, r2
	str	r0, [r1, #4]
	.loc	5 385 1 is_stmt 1               @ ../std/GD32C2x1_Firmware_Library/GD32C2x1_standard_peripheral/Source/gd32c2x1_usart.c:385:1
	add	sp, #4
	bx	lr
.Ltmp42:
.Lfunc_end15:
	.size	usart_receiver_timeout_enable, .Lfunc_end15-usart_receiver_timeout_enable
	.cfi_endproc
	.cantunwind
	.fnend
                                        @ -- End function
	.section	.text.usart_receiver_timeout_disable,"ax",%progbits
	.hidden	usart_receiver_timeout_disable  @ -- Begin function usart_receiver_timeout_disable
	.globl	usart_receiver_timeout_disable
	.p2align	1
	.type	usart_receiver_timeout_disable,%function
	.code	16                              @ @usart_receiver_timeout_disable
	.thumb_func
usart_receiver_timeout_disable:
.Lfunc_begin16:
	.loc	5 394 0                         @ ../std/GD32C2x1_Firmware_Library/GD32C2x1_standard_peripheral/Source/gd32c2x1_usart.c:394:0
	.fnstart
	.cfi_startproc
@ %bb.0:
	.pad	#4
	sub	sp, #4
	.cfi_def_cfa_offset 4
	str	r0, [sp]
.Ltmp43:
	.loc	5 395 5 prologue_end            @ ../std/GD32C2x1_Firmware_Library/GD32C2x1_standard_peripheral/Source/gd32c2x1_usart.c:395:5
	ldr	r1, [sp]
	.loc	5 395 30 is_stmt 0              @ ../std/GD32C2x1_Firmware_Library/GD32C2x1_standard_peripheral/Source/gd32c2x1_usart.c:395:30
	ldr	r0, [r1, #4]
	movs	r2, #1
	lsls	r2, r2, #23
	bics	r0, r2
	str	r0, [r1, #4]
	.loc	5 397 1 is_stmt 1               @ ../std/GD32C2x1_Firmware_Library/GD32C2x1_standard_peripheral/Source/gd32c2x1_usart.c:397:1
	add	sp, #4
	bx	lr
.Ltmp44:
.Lfunc_end16:
	.size	usart_receiver_timeout_disable, .Lfunc_end16-usart_receiver_timeout_disable
	.cfi_endproc
	.cantunwind
	.fnend
                                        @ -- End function
	.section	.text.usart_receiver_timeout_threshold_config,"ax",%progbits
	.hidden	usart_receiver_timeout_threshold_config @ -- Begin function usart_receiver_timeout_threshold_config
	.globl	usart_receiver_timeout_threshold_config
	.p2align	1
	.type	usart_receiver_timeout_threshold_config,%function
	.code	16                              @ @usart_receiver_timeout_threshold_config
	.thumb_func
usart_receiver_timeout_threshold_config:
.Lfunc_begin17:
	.loc	5 407 0                         @ ../std/GD32C2x1_Firmware_Library/GD32C2x1_standard_peripheral/Source/gd32c2x1_usart.c:407:0
	.fnstart
	.cfi_startproc
@ %bb.0:
	.pad	#8
	sub	sp, #8
	.cfi_def_cfa_offset 8
	str	r0, [sp, #4]
	str	r1, [sp]
.Ltmp45:
	.loc	5 414 9 prologue_end            @ ../std/GD32C2x1_Firmware_Library/GD32C2x1_standard_peripheral/Source/gd32c2x1_usart.c:414:9
	ldr	r2, [sp, #4]
	.loc	5 414 32 is_stmt 0              @ ../std/GD32C2x1_Firmware_Library/GD32C2x1_standard_peripheral/Source/gd32c2x1_usart.c:414:32
	ldr	r1, [r2, #20]
	movs	r0, #255
	lsls	r0, r0, #24
	ands	r1, r0
	str	r1, [r2, #20]
	.loc	5 415 35 is_stmt 1              @ ../std/GD32C2x1_Firmware_Library/GD32C2x1_standard_peripheral/Source/gd32c2x1_usart.c:415:35
	ldr	r2, [sp]
	.loc	5 415 44 is_stmt 0              @ ../std/GD32C2x1_Firmware_Library/GD32C2x1_standard_peripheral/Source/gd32c2x1_usart.c:415:44
	bics	r2, r0
	.loc	5 415 9                         @ ../std/GD32C2x1_Firmware_Library/GD32C2x1_standard_peripheral/Source/gd32c2x1_usart.c:415:9
	ldr	r1, [sp, #4]
	.loc	5 415 32                        @ ../std/GD32C2x1_Firmware_Library/GD32C2x1_standard_peripheral/Source/gd32c2x1_usart.c:415:32
	ldr	r0, [r1, #20]
	orrs	r0, r2
	str	r0, [r1, #20]
.Ltmp46:
	.loc	5 417 1 is_stmt 1               @ ../std/GD32C2x1_Firmware_Library/GD32C2x1_standard_peripheral/Source/gd32c2x1_usart.c:417:1
	add	sp, #8
	bx	lr
.Ltmp47:
.Lfunc_end17:
	.size	usart_receiver_timeout_threshold_config, .Lfunc_end17-usart_receiver_timeout_threshold_config
	.cfi_endproc
	.cantunwind
	.fnend
                                        @ -- End function
	.section	.text.usart_data_transmit,"ax",%progbits
	.hidden	usart_data_transmit             @ -- Begin function usart_data_transmit
	.globl	usart_data_transmit
	.p2align	2
	.type	usart_data_transmit,%function
	.code	16                              @ @usart_data_transmit
	.thumb_func
usart_data_transmit:
.Lfunc_begin18:
	.loc	5 427 0                         @ ../std/GD32C2x1_Firmware_Library/GD32C2x1_standard_peripheral/Source/gd32c2x1_usart.c:427:0
	.fnstart
	.cfi_startproc
@ %bb.0:
	.pad	#8
	sub	sp, #8
	.cfi_def_cfa_offset 8
                                        @ kill: def $r2 killed $r1
	str	r0, [sp, #4]
	mov	r0, sp
	strh	r1, [r0]
.Ltmp48:
	.loc	5 428 54 prologue_end           @ ../std/GD32C2x1_Firmware_Library/GD32C2x1_standard_peripheral/Source/gd32c2x1_usart.c:428:54
	ldrh	r0, [r0]
	ldr	r1, __arm_cp.18_0
	.loc	5 428 52 is_stmt 0              @ ../std/GD32C2x1_Firmware_Library/GD32C2x1_standard_peripheral/Source/gd32c2x1_usart.c:428:52
	ands	r0, r1
	.loc	5 428 5                         @ ../std/GD32C2x1_Firmware_Library/GD32C2x1_standard_peripheral/Source/gd32c2x1_usart.c:428:5
	ldr	r1, [sp, #4]
	.loc	5 428 31                        @ ../std/GD32C2x1_Firmware_Library/GD32C2x1_standard_peripheral/Source/gd32c2x1_usart.c:428:31
	str	r0, [r1, #40]
	.loc	5 429 1 is_stmt 1               @ ../std/GD32C2x1_Firmware_Library/GD32C2x1_standard_peripheral/Source/gd32c2x1_usart.c:429:1
	add	sp, #8
	bx	lr
.Ltmp49:
	.p2align	2
@ %bb.1:
	.loc	5 0 1 is_stmt 0                 @ ../std/GD32C2x1_Firmware_Library/GD32C2x1_standard_peripheral/Source/gd32c2x1_usart.c:0:1
__arm_cp.18_0:
	.long	511                             @ 0x1ff
.Lcpi_end10:
	.size	__arm_cp.18_0, .Lcpi_end10-__arm_cp.18_0
.Lfunc_end18:
	.size	usart_data_transmit, .Lfunc_end18-usart_data_transmit
	.cfi_endproc
	.cantunwind
	.fnend
                                        @ -- End function
	.section	.text.usart_data_receive,"ax",%progbits
	.hidden	usart_data_receive              @ -- Begin function usart_data_receive
	.globl	usart_data_receive
	.p2align	2
	.type	usart_data_receive,%function
	.code	16                              @ @usart_data_receive
	.thumb_func
usart_data_receive:
.Lfunc_begin19:
	.loc	5 438 0 is_stmt 1               @ ../std/GD32C2x1_Firmware_Library/GD32C2x1_standard_peripheral/Source/gd32c2x1_usart.c:438:0
	.fnstart
	.cfi_startproc
@ %bb.0:
	.pad	#8
	sub	sp, #8
	.cfi_def_cfa_offset 8
	str	r0, [sp, #4]
	mov	r0, sp
	movs	r1, #0
.Ltmp50:
	.loc	5 439 14 prologue_end           @ ../std/GD32C2x1_Firmware_Library/GD32C2x1_standard_peripheral/Source/gd32c2x1_usart.c:439:14
	strh	r1, [r0]
	.loc	5 441 23                        @ ../std/GD32C2x1_Firmware_Library/GD32C2x1_standard_peripheral/Source/gd32c2x1_usart.c:441:23
	ldr	r1, [sp, #4]
	ldr	r1, [r1, #36]
	ldr	r2, __arm_cp.19_0
	ands	r1, r2
	.loc	5 441 10 is_stmt 0              @ ../std/GD32C2x1_Firmware_Library/GD32C2x1_standard_peripheral/Source/gd32c2x1_usart.c:441:10
	strh	r1, [r0]
	.loc	5 442 12 is_stmt 1              @ ../std/GD32C2x1_Firmware_Library/GD32C2x1_standard_peripheral/Source/gd32c2x1_usart.c:442:12
	ldrh	r0, [r0]
	.loc	5 442 5 is_stmt 0               @ ../std/GD32C2x1_Firmware_Library/GD32C2x1_standard_peripheral/Source/gd32c2x1_usart.c:442:5
	add	sp, #8
	bx	lr
.Ltmp51:
	.p2align	2
@ %bb.1:
	.loc	5 0 5                           @ ../std/GD32C2x1_Firmware_Library/GD32C2x1_standard_peripheral/Source/gd32c2x1_usart.c:0:5
__arm_cp.19_0:
	.long	511                             @ 0x1ff
.Lcpi_end11:
	.size	__arm_cp.19_0, .Lcpi_end11-__arm_cp.19_0
.Lfunc_end19:
	.size	usart_data_receive, .Lfunc_end19-usart_data_receive
	.cfi_endproc
	.cantunwind
	.fnend
                                        @ -- End function
	.section	.text.usart_command_enable,"ax",%progbits
	.hidden	usart_command_enable            @ -- Begin function usart_command_enable
	.globl	usart_command_enable
	.p2align	1
	.type	usart_command_enable,%function
	.code	16                              @ @usart_command_enable
	.thumb_func
usart_command_enable:
.Lfunc_begin20:
	.loc	5 459 0 is_stmt 1               @ ../std/GD32C2x1_Firmware_Library/GD32C2x1_standard_peripheral/Source/gd32c2x1_usart.c:459:0
	.fnstart
	.cfi_startproc
@ %bb.0:
	.pad	#8
	sub	sp, #8
	.cfi_def_cfa_offset 8
	str	r0, [sp, #4]
	str	r1, [sp]
.Ltmp52:
	.loc	5 460 33 prologue_end           @ ../std/GD32C2x1_Firmware_Library/GD32C2x1_standard_peripheral/Source/gd32c2x1_usart.c:460:33
	ldr	r2, [sp]
	movs	r0, #31
	.loc	5 460 41 is_stmt 0              @ ../std/GD32C2x1_Firmware_Library/GD32C2x1_standard_peripheral/Source/gd32c2x1_usart.c:460:41
	ands	r2, r0
	.loc	5 460 5                         @ ../std/GD32C2x1_Firmware_Library/GD32C2x1_standard_peripheral/Source/gd32c2x1_usart.c:460:5
	ldr	r1, [sp, #4]
	.loc	5 460 29                        @ ../std/GD32C2x1_Firmware_Library/GD32C2x1_standard_peripheral/Source/gd32c2x1_usart.c:460:29
	ldr	r0, [r1, #24]
	orrs	r0, r2
	str	r0, [r1, #24]
	.loc	5 461 1 is_stmt 1               @ ../std/GD32C2x1_Firmware_Library/GD32C2x1_standard_peripheral/Source/gd32c2x1_usart.c:461:1
	add	sp, #8
	bx	lr
.Ltmp53:
.Lfunc_end20:
	.size	usart_command_enable, .Lfunc_end20-usart_command_enable
	.cfi_endproc
	.cantunwind
	.fnend
                                        @ -- End function
	.section	.text.usart_autobaud_detection_enable,"ax",%progbits
	.hidden	usart_autobaud_detection_enable @ -- Begin function usart_autobaud_detection_enable
	.globl	usart_autobaud_detection_enable
	.p2align	1
	.type	usart_autobaud_detection_enable,%function
	.code	16                              @ @usart_autobaud_detection_enable
	.thumb_func
usart_autobaud_detection_enable:
.Lfunc_begin21:
	.loc	5 470 0                         @ ../std/GD32C2x1_Firmware_Library/GD32C2x1_standard_peripheral/Source/gd32c2x1_usart.c:470:0
	.fnstart
	.cfi_startproc
@ %bb.0:
	.pad	#4
	sub	sp, #4
	.cfi_def_cfa_offset 4
	str	r0, [sp]
.Ltmp54:
	.loc	5 471 5 prologue_end            @ ../std/GD32C2x1_Firmware_Library/GD32C2x1_standard_peripheral/Source/gd32c2x1_usart.c:471:5
	ldr	r1, [sp]
	.loc	5 471 30 is_stmt 0              @ ../std/GD32C2x1_Firmware_Library/GD32C2x1_standard_peripheral/Source/gd32c2x1_usart.c:471:30
	ldr	r0, [r1, #4]
	movs	r2, #1
	lsls	r2, r2, #20
	orrs	r0, r2
	str	r0, [r1, #4]
	.loc	5 472 1 is_stmt 1               @ ../std/GD32C2x1_Firmware_Library/GD32C2x1_standard_peripheral/Source/gd32c2x1_usart.c:472:1
	add	sp, #4
	bx	lr
.Ltmp55:
.Lfunc_end21:
	.size	usart_autobaud_detection_enable, .Lfunc_end21-usart_autobaud_detection_enable
	.cfi_endproc
	.cantunwind
	.fnend
                                        @ -- End function
	.section	.text.usart_autobaud_detection_disable,"ax",%progbits
	.hidden	usart_autobaud_detection_disable @ -- Begin function usart_autobaud_detection_disable
	.globl	usart_autobaud_detection_disable
	.p2align	1
	.type	usart_autobaud_detection_disable,%function
	.code	16                              @ @usart_autobaud_detection_disable
	.thumb_func
usart_autobaud_detection_disable:
.Lfunc_begin22:
	.loc	5 481 0                         @ ../std/GD32C2x1_Firmware_Library/GD32C2x1_standard_peripheral/Source/gd32c2x1_usart.c:481:0
	.fnstart
	.cfi_startproc
@ %bb.0:
	.pad	#4
	sub	sp, #4
	.cfi_def_cfa_offset 4
	str	r0, [sp]
.Ltmp56:
	.loc	5 482 5 prologue_end            @ ../std/GD32C2x1_Firmware_Library/GD32C2x1_standard_peripheral/Source/gd32c2x1_usart.c:482:5
	ldr	r1, [sp]
	.loc	5 482 30 is_stmt 0              @ ../std/GD32C2x1_Firmware_Library/GD32C2x1_standard_peripheral/Source/gd32c2x1_usart.c:482:30
	ldr	r0, [r1, #4]
	movs	r2, #1
	lsls	r2, r2, #20
	bics	r0, r2
	str	r0, [r1, #4]
	.loc	5 483 1 is_stmt 1               @ ../std/GD32C2x1_Firmware_Library/GD32C2x1_standard_peripheral/Source/gd32c2x1_usart.c:483:1
	add	sp, #4
	bx	lr
.Ltmp57:
.Lfunc_end22:
	.size	usart_autobaud_detection_disable, .Lfunc_end22-usart_autobaud_detection_disable
	.cfi_endproc
	.cantunwind
	.fnend
                                        @ -- End function
	.section	.text.usart_autobaud_detection_mode_config,"ax",%progbits
	.hidden	usart_autobaud_detection_mode_config @ -- Begin function usart_autobaud_detection_mode_config
	.globl	usart_autobaud_detection_mode_config
	.p2align	1
	.type	usart_autobaud_detection_mode_config,%function
	.code	16                              @ @usart_autobaud_detection_mode_config
	.thumb_func
usart_autobaud_detection_mode_config:
.Lfunc_begin23:
	.loc	5 496 0                         @ ../std/GD32C2x1_Firmware_Library/GD32C2x1_standard_peripheral/Source/gd32c2x1_usart.c:496:0
	.fnstart
	.cfi_startproc
@ %bb.0:
	.pad	#8
	sub	sp, #8
	.cfi_def_cfa_offset 8
	str	r0, [sp, #4]
	str	r1, [sp]
.Ltmp58:
	.loc	5 498 5 prologue_end            @ ../std/GD32C2x1_Firmware_Library/GD32C2x1_standard_peripheral/Source/gd32c2x1_usart.c:498:5
	ldr	r2, [sp, #4]
	.loc	5 498 30 is_stmt 0              @ ../std/GD32C2x1_Firmware_Library/GD32C2x1_standard_peripheral/Source/gd32c2x1_usart.c:498:30
	ldr	r1, [r2, #4]
	movs	r0, #3
	lsls	r0, r0, #21
	bics	r1, r0
	str	r1, [r2, #4]
	.loc	5 499 33 is_stmt 1              @ ../std/GD32C2x1_Firmware_Library/GD32C2x1_standard_peripheral/Source/gd32c2x1_usart.c:499:33
	ldr	r2, [sp]
	.loc	5 499 40 is_stmt 0              @ ../std/GD32C2x1_Firmware_Library/GD32C2x1_standard_peripheral/Source/gd32c2x1_usart.c:499:40
	ands	r2, r0
	.loc	5 499 5                         @ ../std/GD32C2x1_Firmware_Library/GD32C2x1_standard_peripheral/Source/gd32c2x1_usart.c:499:5
	ldr	r1, [sp, #4]
	.loc	5 499 30                        @ ../std/GD32C2x1_Firmware_Library/GD32C2x1_standard_peripheral/Source/gd32c2x1_usart.c:499:30
	ldr	r0, [r1, #4]
	orrs	r0, r2
	str	r0, [r1, #4]
	.loc	5 500 1 is_stmt 1               @ ../std/GD32C2x1_Firmware_Library/GD32C2x1_standard_peripheral/Source/gd32c2x1_usart.c:500:1
	add	sp, #8
	bx	lr
.Ltmp59:
.Lfunc_end23:
	.size	usart_autobaud_detection_mode_config, .Lfunc_end23-usart_autobaud_detection_mode_config
	.cfi_endproc
	.cantunwind
	.fnend
                                        @ -- End function
	.section	.text.usart_address_config,"ax",%progbits
	.hidden	usart_address_config            @ -- Begin function usart_address_config
	.globl	usart_address_config
	.p2align	1
	.type	usart_address_config,%function
	.code	16                              @ @usart_address_config
	.thumb_func
usart_address_config:
.Lfunc_begin24:
	.loc	5 510 0                         @ ../std/GD32C2x1_Firmware_Library/GD32C2x1_standard_peripheral/Source/gd32c2x1_usart.c:510:0
	.fnstart
	.cfi_startproc
@ %bb.0:
	.pad	#8
	sub	sp, #8
	.cfi_def_cfa_offset 8
                                        @ kill: def $r2 killed $r1
	str	r0, [sp, #4]
	mov	r0, sp
	strb	r1, [r0]
.Ltmp60:
	.loc	5 512 5 prologue_end            @ ../std/GD32C2x1_Firmware_Library/GD32C2x1_standard_peripheral/Source/gd32c2x1_usart.c:512:5
	ldr	r1, [sp, #4]
	.loc	5 512 30 is_stmt 0              @ ../std/GD32C2x1_Firmware_Library/GD32C2x1_standard_peripheral/Source/gd32c2x1_usart.c:512:30
	ldr	r0, [r1]
	movs	r2, #1
	bics	r0, r2
	str	r0, [r1]
	.loc	5 514 5 is_stmt 1               @ ../std/GD32C2x1_Firmware_Library/GD32C2x1_standard_peripheral/Source/gd32c2x1_usart.c:514:5
	ldr	r1, [sp, #4]
	.loc	5 514 30 is_stmt 0              @ ../std/GD32C2x1_Firmware_Library/GD32C2x1_standard_peripheral/Source/gd32c2x1_usart.c:514:30
	ldr	r0, [r1, #4]
	movs	r2, #255
	lsls	r2, r2, #24
	bics	r0, r2
	str	r0, [r1, #4]
	.loc	5 515 54 is_stmt 1              @ ../std/GD32C2x1_Firmware_Library/GD32C2x1_standard_peripheral/Source/gd32c2x1_usart.c:515:54
	ldr	r0, [sp]
	.loc	5 515 70 is_stmt 0              @ ../std/GD32C2x1_Firmware_Library/GD32C2x1_standard_peripheral/Source/gd32c2x1_usart.c:515:70
	lsls	r2, r0, #24
	.loc	5 515 5                         @ ../std/GD32C2x1_Firmware_Library/GD32C2x1_standard_peripheral/Source/gd32c2x1_usart.c:515:5
	ldr	r1, [sp, #4]
	.loc	5 515 30                        @ ../std/GD32C2x1_Firmware_Library/GD32C2x1_standard_peripheral/Source/gd32c2x1_usart.c:515:30
	ldr	r0, [r1, #4]
	orrs	r0, r2
	str	r0, [r1, #4]
	.loc	5 517 1 is_stmt 1               @ ../std/GD32C2x1_Firmware_Library/GD32C2x1_standard_peripheral/Source/gd32c2x1_usart.c:517:1
	add	sp, #8
	bx	lr
.Ltmp61:
.Lfunc_end24:
	.size	usart_address_config, .Lfunc_end24-usart_address_config
	.cfi_endproc
	.cantunwind
	.fnend
                                        @ -- End function
	.section	.text.usart_address_detection_mode_config,"ax",%progbits
	.hidden	usart_address_detection_mode_config @ -- Begin function usart_address_detection_mode_config
	.globl	usart_address_detection_mode_config
	.p2align	1
	.type	usart_address_detection_mode_config,%function
	.code	16                              @ @usart_address_detection_mode_config
	.thumb_func
usart_address_detection_mode_config:
.Lfunc_begin25:
	.loc	5 530 0                         @ ../std/GD32C2x1_Firmware_Library/GD32C2x1_standard_peripheral/Source/gd32c2x1_usart.c:530:0
	.fnstart
	.cfi_startproc
@ %bb.0:
	.pad	#8
	sub	sp, #8
	.cfi_def_cfa_offset 8
	str	r0, [sp, #4]
	str	r1, [sp]
.Ltmp62:
	.loc	5 532 5 prologue_end            @ ../std/GD32C2x1_Firmware_Library/GD32C2x1_standard_peripheral/Source/gd32c2x1_usart.c:532:5
	ldr	r1, [sp, #4]
	.loc	5 532 30 is_stmt 0              @ ../std/GD32C2x1_Firmware_Library/GD32C2x1_standard_peripheral/Source/gd32c2x1_usart.c:532:30
	ldr	r0, [r1]
	movs	r2, #1
	bics	r0, r2
	str	r0, [r1]
	.loc	5 534 5 is_stmt 1               @ ../std/GD32C2x1_Firmware_Library/GD32C2x1_standard_peripheral/Source/gd32c2x1_usart.c:534:5
	ldr	r2, [sp, #4]
	.loc	5 534 30 is_stmt 0              @ ../std/GD32C2x1_Firmware_Library/GD32C2x1_standard_peripheral/Source/gd32c2x1_usart.c:534:30
	ldr	r1, [r2, #4]
	movs	r0, #16
	bics	r1, r0
	str	r1, [r2, #4]
	.loc	5 535 52 is_stmt 1              @ ../std/GD32C2x1_Firmware_Library/GD32C2x1_standard_peripheral/Source/gd32c2x1_usart.c:535:52
	ldr	r2, [sp]
	.loc	5 535 49 is_stmt 0              @ ../std/GD32C2x1_Firmware_Library/GD32C2x1_standard_peripheral/Source/gd32c2x1_usart.c:535:49
	ands	r2, r0
	.loc	5 535 5                         @ ../std/GD32C2x1_Firmware_Library/GD32C2x1_standard_peripheral/Source/gd32c2x1_usart.c:535:5
	ldr	r1, [sp, #4]
	.loc	5 535 30                        @ ../std/GD32C2x1_Firmware_Library/GD32C2x1_standard_peripheral/Source/gd32c2x1_usart.c:535:30
	ldr	r0, [r1, #4]
	orrs	r0, r2
	str	r0, [r1, #4]
	.loc	5 536 1 is_stmt 1               @ ../std/GD32C2x1_Firmware_Library/GD32C2x1_standard_peripheral/Source/gd32c2x1_usart.c:536:1
	add	sp, #8
	bx	lr
.Ltmp63:
.Lfunc_end25:
	.size	usart_address_detection_mode_config, .Lfunc_end25-usart_address_detection_mode_config
	.cfi_endproc
	.cantunwind
	.fnend
                                        @ -- End function
	.section	.text.usart_mute_mode_enable,"ax",%progbits
	.hidden	usart_mute_mode_enable          @ -- Begin function usart_mute_mode_enable
	.globl	usart_mute_mode_enable
	.p2align	1
	.type	usart_mute_mode_enable,%function
	.code	16                              @ @usart_mute_mode_enable
	.thumb_func
usart_mute_mode_enable:
.Lfunc_begin26:
	.loc	5 545 0                         @ ../std/GD32C2x1_Firmware_Library/GD32C2x1_standard_peripheral/Source/gd32c2x1_usart.c:545:0
	.fnstart
	.cfi_startproc
@ %bb.0:
	.pad	#4
	sub	sp, #4
	.cfi_def_cfa_offset 4
	str	r0, [sp]
.Ltmp64:
	.loc	5 546 5 prologue_end            @ ../std/GD32C2x1_Firmware_Library/GD32C2x1_standard_peripheral/Source/gd32c2x1_usart.c:546:5
	ldr	r1, [sp]
	.loc	5 546 30 is_stmt 0              @ ../std/GD32C2x1_Firmware_Library/GD32C2x1_standard_peripheral/Source/gd32c2x1_usart.c:546:30
	ldr	r0, [r1]
	movw	r2, #8192
	orrs	r0, r2
	str	r0, [r1]
	.loc	5 547 1 is_stmt 1               @ ../std/GD32C2x1_Firmware_Library/GD32C2x1_standard_peripheral/Source/gd32c2x1_usart.c:547:1
	add	sp, #4
	bx	lr
.Ltmp65:
.Lfunc_end26:
	.size	usart_mute_mode_enable, .Lfunc_end26-usart_mute_mode_enable
	.cfi_endproc
	.cantunwind
	.fnend
                                        @ -- End function
	.section	.text.usart_mute_mode_disable,"ax",%progbits
	.hidden	usart_mute_mode_disable         @ -- Begin function usart_mute_mode_disable
	.globl	usart_mute_mode_disable
	.p2align	1
	.type	usart_mute_mode_disable,%function
	.code	16                              @ @usart_mute_mode_disable
	.thumb_func
usart_mute_mode_disable:
.Lfunc_begin27:
	.loc	5 556 0                         @ ../std/GD32C2x1_Firmware_Library/GD32C2x1_standard_peripheral/Source/gd32c2x1_usart.c:556:0
	.fnstart
	.cfi_startproc
@ %bb.0:
	.pad	#4
	sub	sp, #4
	.cfi_def_cfa_offset 4
	str	r0, [sp]
.Ltmp66:
	.loc	5 557 5 prologue_end            @ ../std/GD32C2x1_Firmware_Library/GD32C2x1_standard_peripheral/Source/gd32c2x1_usart.c:557:5
	ldr	r1, [sp]
	.loc	5 557 30 is_stmt 0              @ ../std/GD32C2x1_Firmware_Library/GD32C2x1_standard_peripheral/Source/gd32c2x1_usart.c:557:30
	ldr	r0, [r1]
	movw	r2, #8192
	bics	r0, r2
	str	r0, [r1]
	.loc	5 558 1 is_stmt 1               @ ../std/GD32C2x1_Firmware_Library/GD32C2x1_standard_peripheral/Source/gd32c2x1_usart.c:558:1
	add	sp, #4
	bx	lr
.Ltmp67:
.Lfunc_end27:
	.size	usart_mute_mode_disable, .Lfunc_end27-usart_mute_mode_disable
	.cfi_endproc
	.cantunwind
	.fnend
                                        @ -- End function
	.section	.text.usart_mute_mode_wakeup_config,"ax",%progbits
	.hidden	usart_mute_mode_wakeup_config   @ -- Begin function usart_mute_mode_wakeup_config
	.globl	usart_mute_mode_wakeup_config
	.p2align	1
	.type	usart_mute_mode_wakeup_config,%function
	.code	16                              @ @usart_mute_mode_wakeup_config
	.thumb_func
usart_mute_mode_wakeup_config:
.Lfunc_begin28:
	.loc	5 571 0                         @ ../std/GD32C2x1_Firmware_Library/GD32C2x1_standard_peripheral/Source/gd32c2x1_usart.c:571:0
	.fnstart
	.cfi_startproc
@ %bb.0:
	.pad	#8
	sub	sp, #8
	.cfi_def_cfa_offset 8
	str	r0, [sp, #4]
	str	r1, [sp]
.Ltmp68:
	.loc	5 573 5 prologue_end            @ ../std/GD32C2x1_Firmware_Library/GD32C2x1_standard_peripheral/Source/gd32c2x1_usart.c:573:5
	ldr	r1, [sp, #4]
	.loc	5 573 30 is_stmt 0              @ ../std/GD32C2x1_Firmware_Library/GD32C2x1_standard_peripheral/Source/gd32c2x1_usart.c:573:30
	ldr	r0, [r1]
	movs	r2, #1
	bics	r0, r2
	str	r0, [r1]
	.loc	5 575 5 is_stmt 1               @ ../std/GD32C2x1_Firmware_Library/GD32C2x1_standard_peripheral/Source/gd32c2x1_usart.c:575:5
	ldr	r2, [sp, #4]
	.loc	5 575 30 is_stmt 0              @ ../std/GD32C2x1_Firmware_Library/GD32C2x1_standard_peripheral/Source/gd32c2x1_usart.c:575:30
	ldr	r1, [r2]
	movw	r0, #2048
	bics	r1, r0
	str	r1, [r2]
	.loc	5 576 33 is_stmt 1              @ ../std/GD32C2x1_Firmware_Library/GD32C2x1_standard_peripheral/Source/gd32c2x1_usart.c:576:33
	ldr	r2, [sp]
	.loc	5 576 41 is_stmt 0              @ ../std/GD32C2x1_Firmware_Library/GD32C2x1_standard_peripheral/Source/gd32c2x1_usart.c:576:41
	ands	r2, r0
	.loc	5 576 5                         @ ../std/GD32C2x1_Firmware_Library/GD32C2x1_standard_peripheral/Source/gd32c2x1_usart.c:576:5
	ldr	r1, [sp, #4]
	.loc	5 576 30                        @ ../std/GD32C2x1_Firmware_Library/GD32C2x1_standard_peripheral/Source/gd32c2x1_usart.c:576:30
	ldr	r0, [r1]
	orrs	r0, r2
	str	r0, [r1]
	.loc	5 577 1 is_stmt 1               @ ../std/GD32C2x1_Firmware_Library/GD32C2x1_standard_peripheral/Source/gd32c2x1_usart.c:577:1
	add	sp, #8
	bx	lr
.Ltmp69:
.Lfunc_end28:
	.size	usart_mute_mode_wakeup_config, .Lfunc_end28-usart_mute_mode_wakeup_config
	.cfi_endproc
	.cantunwind
	.fnend
                                        @ -- End function
	.section	.text.usart_lin_mode_enable,"ax",%progbits
	.hidden	usart_lin_mode_enable           @ -- Begin function usart_lin_mode_enable
	.globl	usart_lin_mode_enable
	.p2align	1
	.type	usart_lin_mode_enable,%function
	.code	16                              @ @usart_lin_mode_enable
	.thumb_func
usart_lin_mode_enable:
.Lfunc_begin29:
	.loc	5 586 0                         @ ../std/GD32C2x1_Firmware_Library/GD32C2x1_standard_peripheral/Source/gd32c2x1_usart.c:586:0
	.fnstart
	.cfi_startproc
@ %bb.0:
	.pad	#4
	sub	sp, #4
	.cfi_def_cfa_offset 4
	str	r0, [sp]
.Ltmp70:
	.loc	5 588 9 prologue_end            @ ../std/GD32C2x1_Firmware_Library/GD32C2x1_standard_peripheral/Source/gd32c2x1_usart.c:588:9
	ldr	r1, [sp]
	.loc	5 588 34 is_stmt 0              @ ../std/GD32C2x1_Firmware_Library/GD32C2x1_standard_peripheral/Source/gd32c2x1_usart.c:588:34
	ldr	r0, [r1]
	movs	r2, #1
	bics	r0, r2
	str	r0, [r1]
	.loc	5 589 9 is_stmt 1               @ ../std/GD32C2x1_Firmware_Library/GD32C2x1_standard_peripheral/Source/gd32c2x1_usart.c:589:9
	ldr	r1, [sp]
	.loc	5 589 34 is_stmt 0              @ ../std/GD32C2x1_Firmware_Library/GD32C2x1_standard_peripheral/Source/gd32c2x1_usart.c:589:34
	ldr	r0, [r1, #4]
	movw	r2, #16384
	orrs	r0, r2
	str	r0, [r1, #4]
	.loc	5 590 1 is_stmt 1               @ ../std/GD32C2x1_Firmware_Library/GD32C2x1_standard_peripheral/Source/gd32c2x1_usart.c:590:1
	add	sp, #4
	bx	lr
.Ltmp71:
.Lfunc_end29:
	.size	usart_lin_mode_enable, .Lfunc_end29-usart_lin_mode_enable
	.cfi_endproc
	.cantunwind
	.fnend
                                        @ -- End function
	.section	.text.usart_lin_mode_disable,"ax",%progbits
	.hidden	usart_lin_mode_disable          @ -- Begin function usart_lin_mode_disable
	.globl	usart_lin_mode_disable
	.p2align	1
	.type	usart_lin_mode_disable,%function
	.code	16                              @ @usart_lin_mode_disable
	.thumb_func
usart_lin_mode_disable:
.Lfunc_begin30:
	.loc	5 599 0                         @ ../std/GD32C2x1_Firmware_Library/GD32C2x1_standard_peripheral/Source/gd32c2x1_usart.c:599:0
	.fnstart
	.cfi_startproc
@ %bb.0:
	.pad	#4
	sub	sp, #4
	.cfi_def_cfa_offset 4
	str	r0, [sp]
.Ltmp72:
	.loc	5 601 5 prologue_end            @ ../std/GD32C2x1_Firmware_Library/GD32C2x1_standard_peripheral/Source/gd32c2x1_usart.c:601:5
	ldr	r1, [sp]
	.loc	5 601 30 is_stmt 0              @ ../std/GD32C2x1_Firmware_Library/GD32C2x1_standard_peripheral/Source/gd32c2x1_usart.c:601:30
	ldr	r0, [r1]
	movs	r2, #1
	bics	r0, r2
	str	r0, [r1]
	.loc	5 602 5 is_stmt 1               @ ../std/GD32C2x1_Firmware_Library/GD32C2x1_standard_peripheral/Source/gd32c2x1_usart.c:602:5
	ldr	r1, [sp]
	.loc	5 602 30 is_stmt 0              @ ../std/GD32C2x1_Firmware_Library/GD32C2x1_standard_peripheral/Source/gd32c2x1_usart.c:602:30
	ldr	r0, [r1, #4]
	movw	r2, #16384
	bics	r0, r2
	str	r0, [r1, #4]
	.loc	5 603 1 is_stmt 1               @ ../std/GD32C2x1_Firmware_Library/GD32C2x1_standard_peripheral/Source/gd32c2x1_usart.c:603:1
	add	sp, #4
	bx	lr
.Ltmp73:
.Lfunc_end30:
	.size	usart_lin_mode_disable, .Lfunc_end30-usart_lin_mode_disable
	.cfi_endproc
	.cantunwind
	.fnend
                                        @ -- End function
	.section	.text.usart_lin_break_detection_length_config,"ax",%progbits
	.hidden	usart_lin_break_detection_length_config @ -- Begin function usart_lin_break_detection_length_config
	.globl	usart_lin_break_detection_length_config
	.p2align	1
	.type	usart_lin_break_detection_length_config,%function
	.code	16                              @ @usart_lin_break_detection_length_config
	.thumb_func
usart_lin_break_detection_length_config:
.Lfunc_begin31:
	.loc	5 616 0                         @ ../std/GD32C2x1_Firmware_Library/GD32C2x1_standard_peripheral/Source/gd32c2x1_usart.c:616:0
	.fnstart
	.cfi_startproc
@ %bb.0:
	.pad	#8
	sub	sp, #8
	.cfi_def_cfa_offset 8
	str	r0, [sp, #4]
	str	r1, [sp]
.Ltmp74:
	.loc	5 618 5 prologue_end            @ ../std/GD32C2x1_Firmware_Library/GD32C2x1_standard_peripheral/Source/gd32c2x1_usart.c:618:5
	ldr	r1, [sp, #4]
	.loc	5 618 30 is_stmt 0              @ ../std/GD32C2x1_Firmware_Library/GD32C2x1_standard_peripheral/Source/gd32c2x1_usart.c:618:30
	ldr	r0, [r1]
	movs	r2, #1
	bics	r0, r2
	str	r0, [r1]
	.loc	5 619 5 is_stmt 1               @ ../std/GD32C2x1_Firmware_Library/GD32C2x1_standard_peripheral/Source/gd32c2x1_usart.c:619:5
	ldr	r2, [sp, #4]
	.loc	5 619 30 is_stmt 0              @ ../std/GD32C2x1_Firmware_Library/GD32C2x1_standard_peripheral/Source/gd32c2x1_usart.c:619:30
	ldr	r1, [r2, #4]
	movs	r0, #32
	bics	r1, r0
	str	r1, [r2, #4]
	.loc	5 620 53 is_stmt 1              @ ../std/GD32C2x1_Firmware_Library/GD32C2x1_standard_peripheral/Source/gd32c2x1_usart.c:620:53
	ldr	r2, [sp]
	.loc	5 620 50 is_stmt 0              @ ../std/GD32C2x1_Firmware_Library/GD32C2x1_standard_peripheral/Source/gd32c2x1_usart.c:620:50
	ands	r2, r0
	.loc	5 620 5                         @ ../std/GD32C2x1_Firmware_Library/GD32C2x1_standard_peripheral/Source/gd32c2x1_usart.c:620:5
	ldr	r1, [sp, #4]
	.loc	5 620 30                        @ ../std/GD32C2x1_Firmware_Library/GD32C2x1_standard_peripheral/Source/gd32c2x1_usart.c:620:30
	ldr	r0, [r1, #4]
	orrs	r0, r2
	str	r0, [r1, #4]
	.loc	5 621 1 is_stmt 1               @ ../std/GD32C2x1_Firmware_Library/GD32C2x1_standard_peripheral/Source/gd32c2x1_usart.c:621:1
	add	sp, #8
	bx	lr
.Ltmp75:
.Lfunc_end31:
	.size	usart_lin_break_detection_length_config, .Lfunc_end31-usart_lin_break_detection_length_config
	.cfi_endproc
	.cantunwind
	.fnend
                                        @ -- End function
	.section	.text.usart_halfduplex_enable,"ax",%progbits
	.hidden	usart_halfduplex_enable         @ -- Begin function usart_halfduplex_enable
	.globl	usart_halfduplex_enable
	.p2align	1
	.type	usart_halfduplex_enable,%function
	.code	16                              @ @usart_halfduplex_enable
	.thumb_func
usart_halfduplex_enable:
.Lfunc_begin32:
	.loc	5 630 0                         @ ../std/GD32C2x1_Firmware_Library/GD32C2x1_standard_peripheral/Source/gd32c2x1_usart.c:630:0
	.fnstart
	.cfi_startproc
@ %bb.0:
	.pad	#4
	sub	sp, #4
	.cfi_def_cfa_offset 4
	str	r0, [sp]
.Ltmp76:
	.loc	5 632 5 prologue_end            @ ../std/GD32C2x1_Firmware_Library/GD32C2x1_standard_peripheral/Source/gd32c2x1_usart.c:632:5
	ldr	r1, [sp]
	.loc	5 632 30 is_stmt 0              @ ../std/GD32C2x1_Firmware_Library/GD32C2x1_standard_peripheral/Source/gd32c2x1_usart.c:632:30
	ldr	r0, [r1]
	movs	r2, #1
	bics	r0, r2
	str	r0, [r1]
	.loc	5 633 5 is_stmt 1               @ ../std/GD32C2x1_Firmware_Library/GD32C2x1_standard_peripheral/Source/gd32c2x1_usart.c:633:5
	ldr	r1, [sp]
	.loc	5 633 30 is_stmt 0              @ ../std/GD32C2x1_Firmware_Library/GD32C2x1_standard_peripheral/Source/gd32c2x1_usart.c:633:30
	ldr	r0, [r1, #8]
	movs	r2, #8
	orrs	r0, r2
	str	r0, [r1, #8]
	.loc	5 634 1 is_stmt 1               @ ../std/GD32C2x1_Firmware_Library/GD32C2x1_standard_peripheral/Source/gd32c2x1_usart.c:634:1
	add	sp, #4
	bx	lr
.Ltmp77:
.Lfunc_end32:
	.size	usart_halfduplex_enable, .Lfunc_end32-usart_halfduplex_enable
	.cfi_endproc
	.cantunwind
	.fnend
                                        @ -- End function
	.section	.text.usart_halfduplex_disable,"ax",%progbits
	.hidden	usart_halfduplex_disable        @ -- Begin function usart_halfduplex_disable
	.globl	usart_halfduplex_disable
	.p2align	1
	.type	usart_halfduplex_disable,%function
	.code	16                              @ @usart_halfduplex_disable
	.thumb_func
usart_halfduplex_disable:
.Lfunc_begin33:
	.loc	5 643 0                         @ ../std/GD32C2x1_Firmware_Library/GD32C2x1_standard_peripheral/Source/gd32c2x1_usart.c:643:0
	.fnstart
	.cfi_startproc
@ %bb.0:
	.pad	#4
	sub	sp, #4
	.cfi_def_cfa_offset 4
	str	r0, [sp]
.Ltmp78:
	.loc	5 645 5 prologue_end            @ ../std/GD32C2x1_Firmware_Library/GD32C2x1_standard_peripheral/Source/gd32c2x1_usart.c:645:5
	ldr	r1, [sp]
	.loc	5 645 30 is_stmt 0              @ ../std/GD32C2x1_Firmware_Library/GD32C2x1_standard_peripheral/Source/gd32c2x1_usart.c:645:30
	ldr	r0, [r1]
	movs	r2, #1
	bics	r0, r2
	str	r0, [r1]
	.loc	5 646 5 is_stmt 1               @ ../std/GD32C2x1_Firmware_Library/GD32C2x1_standard_peripheral/Source/gd32c2x1_usart.c:646:5
	ldr	r1, [sp]
	.loc	5 646 30 is_stmt 0              @ ../std/GD32C2x1_Firmware_Library/GD32C2x1_standard_peripheral/Source/gd32c2x1_usart.c:646:30
	ldr	r0, [r1, #8]
	movs	r2, #8
	bics	r0, r2
	str	r0, [r1, #8]
	.loc	5 647 1 is_stmt 1               @ ../std/GD32C2x1_Firmware_Library/GD32C2x1_standard_peripheral/Source/gd32c2x1_usart.c:647:1
	add	sp, #4
	bx	lr
.Ltmp79:
.Lfunc_end33:
	.size	usart_halfduplex_disable, .Lfunc_end33-usart_halfduplex_disable
	.cfi_endproc
	.cantunwind
	.fnend
                                        @ -- End function
	.section	.text.usart_clock_enable,"ax",%progbits
	.hidden	usart_clock_enable              @ -- Begin function usart_clock_enable
	.globl	usart_clock_enable
	.p2align	1
	.type	usart_clock_enable,%function
	.code	16                              @ @usart_clock_enable
	.thumb_func
usart_clock_enable:
.Lfunc_begin34:
	.loc	5 656 0                         @ ../std/GD32C2x1_Firmware_Library/GD32C2x1_standard_peripheral/Source/gd32c2x1_usart.c:656:0
	.fnstart
	.cfi_startproc
@ %bb.0:
	.pad	#4
	sub	sp, #4
	.cfi_def_cfa_offset 4
	str	r0, [sp]
.Ltmp80:
	.loc	5 658 5 prologue_end            @ ../std/GD32C2x1_Firmware_Library/GD32C2x1_standard_peripheral/Source/gd32c2x1_usart.c:658:5
	ldr	r1, [sp]
	.loc	5 658 30 is_stmt 0              @ ../std/GD32C2x1_Firmware_Library/GD32C2x1_standard_peripheral/Source/gd32c2x1_usart.c:658:30
	ldr	r0, [r1]
	movs	r2, #1
	bics	r0, r2
	str	r0, [r1]
	.loc	5 660 5 is_stmt 1               @ ../std/GD32C2x1_Firmware_Library/GD32C2x1_standard_peripheral/Source/gd32c2x1_usart.c:660:5
	ldr	r1, [sp]
	.loc	5 660 30 is_stmt 0              @ ../std/GD32C2x1_Firmware_Library/GD32C2x1_standard_peripheral/Source/gd32c2x1_usart.c:660:30
	ldr	r0, [r1, #4]
	movw	r2, #2048
	orrs	r0, r2
	str	r0, [r1, #4]
	.loc	5 661 1 is_stmt 1               @ ../std/GD32C2x1_Firmware_Library/GD32C2x1_standard_peripheral/Source/gd32c2x1_usart.c:661:1
	add	sp, #4
	bx	lr
.Ltmp81:
.Lfunc_end34:
	.size	usart_clock_enable, .Lfunc_end34-usart_clock_enable
	.cfi_endproc
	.cantunwind
	.fnend
                                        @ -- End function
	.section	.text.usart_clock_disable,"ax",%progbits
	.hidden	usart_clock_disable             @ -- Begin function usart_clock_disable
	.globl	usart_clock_disable
	.p2align	1
	.type	usart_clock_disable,%function
	.code	16                              @ @usart_clock_disable
	.thumb_func
usart_clock_disable:
.Lfunc_begin35:
	.loc	5 670 0                         @ ../std/GD32C2x1_Firmware_Library/GD32C2x1_standard_peripheral/Source/gd32c2x1_usart.c:670:0
	.fnstart
	.cfi_startproc
@ %bb.0:
	.pad	#4
	sub	sp, #4
	.cfi_def_cfa_offset 4
	str	r0, [sp]
.Ltmp82:
	.loc	5 672 5 prologue_end            @ ../std/GD32C2x1_Firmware_Library/GD32C2x1_standard_peripheral/Source/gd32c2x1_usart.c:672:5
	ldr	r1, [sp]
	.loc	5 672 30 is_stmt 0              @ ../std/GD32C2x1_Firmware_Library/GD32C2x1_standard_peripheral/Source/gd32c2x1_usart.c:672:30
	ldr	r0, [r1]
	movs	r2, #1
	bics	r0, r2
	str	r0, [r1]
	.loc	5 674 5 is_stmt 1               @ ../std/GD32C2x1_Firmware_Library/GD32C2x1_standard_peripheral/Source/gd32c2x1_usart.c:674:5
	ldr	r1, [sp]
	.loc	5 674 30 is_stmt 0              @ ../std/GD32C2x1_Firmware_Library/GD32C2x1_standard_peripheral/Source/gd32c2x1_usart.c:674:30
	ldr	r0, [r1, #4]
	movw	r2, #2048
	bics	r0, r2
	str	r0, [r1, #4]
	.loc	5 675 1 is_stmt 1               @ ../std/GD32C2x1_Firmware_Library/GD32C2x1_standard_peripheral/Source/gd32c2x1_usart.c:675:1
	add	sp, #4
	bx	lr
.Ltmp83:
.Lfunc_end35:
	.size	usart_clock_disable, .Lfunc_end35-usart_clock_disable
	.cfi_endproc
	.cantunwind
	.fnend
                                        @ -- End function
	.section	.text.usart_synchronous_clock_config,"ax",%progbits
	.hidden	usart_synchronous_clock_config  @ -- Begin function usart_synchronous_clock_config
	.globl	usart_synchronous_clock_config
	.p2align	1
	.type	usart_synchronous_clock_config,%function
	.code	16                              @ @usart_synchronous_clock_config
	.thumb_func
usart_synchronous_clock_config:
.Lfunc_begin36:
	.loc	5 696 0                         @ ../std/GD32C2x1_Firmware_Library/GD32C2x1_standard_peripheral/Source/gd32c2x1_usart.c:696:0
	.fnstart
	.cfi_startproc
@ %bb.0:
	.pad	#16
	sub	sp, #16
	.cfi_def_cfa_offset 16
	str	r0, [sp, #12]
	str	r1, [sp, #8]
	str	r2, [sp, #4]
	str	r3, [sp]
.Ltmp84:
	.loc	5 698 5 prologue_end            @ ../std/GD32C2x1_Firmware_Library/GD32C2x1_standard_peripheral/Source/gd32c2x1_usart.c:698:5
	ldr	r1, [sp, #12]
	.loc	5 698 30 is_stmt 0              @ ../std/GD32C2x1_Firmware_Library/GD32C2x1_standard_peripheral/Source/gd32c2x1_usart.c:698:30
	ldr	r0, [r1]
	movs	r2, #1
	bics	r0, r2
	str	r0, [r1]
	.loc	5 700 5 is_stmt 1               @ ../std/GD32C2x1_Firmware_Library/GD32C2x1_standard_peripheral/Source/gd32c2x1_usart.c:700:5
	ldr	r1, [sp, #12]
	.loc	5 700 30 is_stmt 0              @ ../std/GD32C2x1_Firmware_Library/GD32C2x1_standard_peripheral/Source/gd32c2x1_usart.c:700:30
	ldr	r0, [r1, #4]
	movw	r2, #1792
	bics	r0, r2
	str	r0, [r1, #4]
	.loc	5 702 52 is_stmt 1              @ ../std/GD32C2x1_Firmware_Library/GD32C2x1_standard_peripheral/Source/gd32c2x1_usart.c:702:52
	ldr	r2, [sp, #8]
	movw	r0, #256
	.loc	5 702 50 is_stmt 0              @ ../std/GD32C2x1_Firmware_Library/GD32C2x1_standard_peripheral/Source/gd32c2x1_usart.c:702:50
	ands	r2, r0
	.loc	5 702 5                         @ ../std/GD32C2x1_Firmware_Library/GD32C2x1_standard_peripheral/Source/gd32c2x1_usart.c:702:5
	ldr	r1, [sp, #12]
	.loc	5 702 30                        @ ../std/GD32C2x1_Firmware_Library/GD32C2x1_standard_peripheral/Source/gd32c2x1_usart.c:702:30
	ldr	r0, [r1, #4]
	orrs	r0, r2
	str	r0, [r1, #4]
	.loc	5 703 51 is_stmt 1              @ ../std/GD32C2x1_Firmware_Library/GD32C2x1_standard_peripheral/Source/gd32c2x1_usart.c:703:51
	ldr	r2, [sp, #4]
	movw	r0, #512
	.loc	5 703 49 is_stmt 0              @ ../std/GD32C2x1_Firmware_Library/GD32C2x1_standard_peripheral/Source/gd32c2x1_usart.c:703:49
	ands	r2, r0
	.loc	5 703 5                         @ ../std/GD32C2x1_Firmware_Library/GD32C2x1_standard_peripheral/Source/gd32c2x1_usart.c:703:5
	ldr	r1, [sp, #12]
	.loc	5 703 30                        @ ../std/GD32C2x1_Firmware_Library/GD32C2x1_standard_peripheral/Source/gd32c2x1_usart.c:703:30
	ldr	r0, [r1, #4]
	orrs	r0, r2
	str	r0, [r1, #4]
	.loc	5 704 51 is_stmt 1              @ ../std/GD32C2x1_Firmware_Library/GD32C2x1_standard_peripheral/Source/gd32c2x1_usart.c:704:51
	ldr	r2, [sp]
	movw	r0, #1024
	.loc	5 704 49 is_stmt 0              @ ../std/GD32C2x1_Firmware_Library/GD32C2x1_standard_peripheral/Source/gd32c2x1_usart.c:704:49
	ands	r2, r0
	.loc	5 704 5                         @ ../std/GD32C2x1_Firmware_Library/GD32C2x1_standard_peripheral/Source/gd32c2x1_usart.c:704:5
	ldr	r1, [sp, #12]
	.loc	5 704 30                        @ ../std/GD32C2x1_Firmware_Library/GD32C2x1_standard_peripheral/Source/gd32c2x1_usart.c:704:30
	ldr	r0, [r1, #4]
	orrs	r0, r2
	str	r0, [r1, #4]
	.loc	5 705 1 is_stmt 1               @ ../std/GD32C2x1_Firmware_Library/GD32C2x1_standard_peripheral/Source/gd32c2x1_usart.c:705:1
	add	sp, #16
	bx	lr
.Ltmp85:
.Lfunc_end36:
	.size	usart_synchronous_clock_config, .Lfunc_end36-usart_synchronous_clock_config
	.cfi_endproc
	.cantunwind
	.fnend
                                        @ -- End function
	.section	.text.usart_guard_time_config,"ax",%progbits
	.hidden	usart_guard_time_config         @ -- Begin function usart_guard_time_config
	.globl	usart_guard_time_config
	.p2align	1
	.type	usart_guard_time_config,%function
	.code	16                              @ @usart_guard_time_config
	.thumb_func
usart_guard_time_config:
.Lfunc_begin37:
	.loc	5 715 0                         @ ../std/GD32C2x1_Firmware_Library/GD32C2x1_standard_peripheral/Source/gd32c2x1_usart.c:715:0
	.fnstart
	.cfi_startproc
@ %bb.0:
	.pad	#8
	sub	sp, #8
	.cfi_def_cfa_offset 8
                                        @ kill: def $r2 killed $r1
	str	r0, [sp, #4]
	mov	r0, sp
	strb	r1, [r0]
.Ltmp86:
	.loc	5 717 5 prologue_end            @ ../std/GD32C2x1_Firmware_Library/GD32C2x1_standard_peripheral/Source/gd32c2x1_usart.c:717:5
	ldr	r2, [sp, #4]
	.loc	5 717 30 is_stmt 0              @ ../std/GD32C2x1_Firmware_Library/GD32C2x1_standard_peripheral/Source/gd32c2x1_usart.c:717:30
	ldr	r1, [r2]
	movs	r3, #1
	bics	r1, r3
	str	r1, [r2]
	.loc	5 719 5 is_stmt 1               @ ../std/GD32C2x1_Firmware_Library/GD32C2x1_standard_peripheral/Source/gd32c2x1_usart.c:719:5
	ldr	r2, [sp, #4]
	.loc	5 719 28 is_stmt 0              @ ../std/GD32C2x1_Firmware_Library/GD32C2x1_standard_peripheral/Source/gd32c2x1_usart.c:719:28
	ldr	r1, [r2, #16]
	movw	r3, #65280
	bics	r1, r3
	str	r1, [r2, #16]
	.loc	5 720 60 is_stmt 1              @ ../std/GD32C2x1_Firmware_Library/GD32C2x1_standard_peripheral/Source/gd32c2x1_usart.c:720:60
	ldrb	r0, [r0]
	.loc	5 720 66 is_stmt 0              @ ../std/GD32C2x1_Firmware_Library/GD32C2x1_standard_peripheral/Source/gd32c2x1_usart.c:720:66
	lsls	r2, r0, #8
	.loc	5 720 5                         @ ../std/GD32C2x1_Firmware_Library/GD32C2x1_standard_peripheral/Source/gd32c2x1_usart.c:720:5
	ldr	r1, [sp, #4]
	.loc	5 720 28                        @ ../std/GD32C2x1_Firmware_Library/GD32C2x1_standard_peripheral/Source/gd32c2x1_usart.c:720:28
	ldr	r0, [r1, #16]
	orrs	r0, r2
	str	r0, [r1, #16]
	.loc	5 721 1 is_stmt 1               @ ../std/GD32C2x1_Firmware_Library/GD32C2x1_standard_peripheral/Source/gd32c2x1_usart.c:721:1
	add	sp, #8
	bx	lr
.Ltmp87:
.Lfunc_end37:
	.size	usart_guard_time_config, .Lfunc_end37-usart_guard_time_config
	.cfi_endproc
	.cantunwind
	.fnend
                                        @ -- End function
	.section	.text.usart_smartcard_mode_enable,"ax",%progbits
	.hidden	usart_smartcard_mode_enable     @ -- Begin function usart_smartcard_mode_enable
	.globl	usart_smartcard_mode_enable
	.p2align	1
	.type	usart_smartcard_mode_enable,%function
	.code	16                              @ @usart_smartcard_mode_enable
	.thumb_func
usart_smartcard_mode_enable:
.Lfunc_begin38:
	.loc	5 730 0                         @ ../std/GD32C2x1_Firmware_Library/GD32C2x1_standard_peripheral/Source/gd32c2x1_usart.c:730:0
	.fnstart
	.cfi_startproc
@ %bb.0:
	.pad	#4
	sub	sp, #4
	.cfi_def_cfa_offset 4
	str	r0, [sp]
.Ltmp88:
	.loc	5 732 9 prologue_end            @ ../std/GD32C2x1_Firmware_Library/GD32C2x1_standard_peripheral/Source/gd32c2x1_usart.c:732:9
	ldr	r1, [sp]
	.loc	5 732 34 is_stmt 0              @ ../std/GD32C2x1_Firmware_Library/GD32C2x1_standard_peripheral/Source/gd32c2x1_usart.c:732:34
	ldr	r0, [r1]
	movs	r2, #1
	bics	r0, r2
	str	r0, [r1]
	.loc	5 734 9 is_stmt 1               @ ../std/GD32C2x1_Firmware_Library/GD32C2x1_standard_peripheral/Source/gd32c2x1_usart.c:734:9
	ldr	r1, [sp]
	.loc	5 734 34 is_stmt 0              @ ../std/GD32C2x1_Firmware_Library/GD32C2x1_standard_peripheral/Source/gd32c2x1_usart.c:734:34
	ldr	r0, [r1, #8]
	movs	r2, #32
	orrs	r0, r2
	str	r0, [r1, #8]
	.loc	5 735 1 is_stmt 1               @ ../std/GD32C2x1_Firmware_Library/GD32C2x1_standard_peripheral/Source/gd32c2x1_usart.c:735:1
	add	sp, #4
	bx	lr
.Ltmp89:
.Lfunc_end38:
	.size	usart_smartcard_mode_enable, .Lfunc_end38-usart_smartcard_mode_enable
	.cfi_endproc
	.cantunwind
	.fnend
                                        @ -- End function
	.section	.text.usart_smartcard_mode_disable,"ax",%progbits
	.hidden	usart_smartcard_mode_disable    @ -- Begin function usart_smartcard_mode_disable
	.globl	usart_smartcard_mode_disable
	.p2align	1
	.type	usart_smartcard_mode_disable,%function
	.code	16                              @ @usart_smartcard_mode_disable
	.thumb_func
usart_smartcard_mode_disable:
.Lfunc_begin39:
	.loc	5 744 0                         @ ../std/GD32C2x1_Firmware_Library/GD32C2x1_standard_peripheral/Source/gd32c2x1_usart.c:744:0
	.fnstart
	.cfi_startproc
@ %bb.0:
	.pad	#4
	sub	sp, #4
	.cfi_def_cfa_offset 4
	str	r0, [sp]
.Ltmp90:
	.loc	5 746 5 prologue_end            @ ../std/GD32C2x1_Firmware_Library/GD32C2x1_standard_peripheral/Source/gd32c2x1_usart.c:746:5
	ldr	r1, [sp]
	.loc	5 746 30 is_stmt 0              @ ../std/GD32C2x1_Firmware_Library/GD32C2x1_standard_peripheral/Source/gd32c2x1_usart.c:746:30
	ldr	r0, [r1]
	movs	r2, #1
	bics	r0, r2
	str	r0, [r1]
	.loc	5 748 5 is_stmt 1               @ ../std/GD32C2x1_Firmware_Library/GD32C2x1_standard_peripheral/Source/gd32c2x1_usart.c:748:5
	ldr	r1, [sp]
	.loc	5 748 30 is_stmt 0              @ ../std/GD32C2x1_Firmware_Library/GD32C2x1_standard_peripheral/Source/gd32c2x1_usart.c:748:30
	ldr	r0, [r1, #8]
	movs	r2, #32
	bics	r0, r2
	str	r0, [r1, #8]
	.loc	5 749 1 is_stmt 1               @ ../std/GD32C2x1_Firmware_Library/GD32C2x1_standard_peripheral/Source/gd32c2x1_usart.c:749:1
	add	sp, #4
	bx	lr
.Ltmp91:
.Lfunc_end39:
	.size	usart_smartcard_mode_disable, .Lfunc_end39-usart_smartcard_mode_disable
	.cfi_endproc
	.cantunwind
	.fnend
                                        @ -- End function
	.section	.text.usart_smartcard_mode_nack_enable,"ax",%progbits
	.hidden	usart_smartcard_mode_nack_enable @ -- Begin function usart_smartcard_mode_nack_enable
	.globl	usart_smartcard_mode_nack_enable
	.p2align	1
	.type	usart_smartcard_mode_nack_enable,%function
	.code	16                              @ @usart_smartcard_mode_nack_enable
	.thumb_func
usart_smartcard_mode_nack_enable:
.Lfunc_begin40:
	.loc	5 758 0                         @ ../std/GD32C2x1_Firmware_Library/GD32C2x1_standard_peripheral/Source/gd32c2x1_usart.c:758:0
	.fnstart
	.cfi_startproc
@ %bb.0:
	.pad	#4
	sub	sp, #4
	.cfi_def_cfa_offset 4
	str	r0, [sp]
.Ltmp92:
	.loc	5 760 5 prologue_end            @ ../std/GD32C2x1_Firmware_Library/GD32C2x1_standard_peripheral/Source/gd32c2x1_usart.c:760:5
	ldr	r1, [sp]
	.loc	5 760 30 is_stmt 0              @ ../std/GD32C2x1_Firmware_Library/GD32C2x1_standard_peripheral/Source/gd32c2x1_usart.c:760:30
	ldr	r0, [r1]
	movs	r2, #1
	bics	r0, r2
	str	r0, [r1]
	.loc	5 761 5 is_stmt 1               @ ../std/GD32C2x1_Firmware_Library/GD32C2x1_standard_peripheral/Source/gd32c2x1_usart.c:761:5
	ldr	r1, [sp]
	.loc	5 761 30 is_stmt 0              @ ../std/GD32C2x1_Firmware_Library/GD32C2x1_standard_peripheral/Source/gd32c2x1_usart.c:761:30
	ldr	r0, [r1, #8]
	movs	r2, #16
	orrs	r0, r2
	str	r0, [r1, #8]
	.loc	5 762 1 is_stmt 1               @ ../std/GD32C2x1_Firmware_Library/GD32C2x1_standard_peripheral/Source/gd32c2x1_usart.c:762:1
	add	sp, #4
	bx	lr
.Ltmp93:
.Lfunc_end40:
	.size	usart_smartcard_mode_nack_enable, .Lfunc_end40-usart_smartcard_mode_nack_enable
	.cfi_endproc
	.cantunwind
	.fnend
                                        @ -- End function
	.section	.text.usart_smartcard_mode_nack_disable,"ax",%progbits
	.hidden	usart_smartcard_mode_nack_disable @ -- Begin function usart_smartcard_mode_nack_disable
	.globl	usart_smartcard_mode_nack_disable
	.p2align	1
	.type	usart_smartcard_mode_nack_disable,%function
	.code	16                              @ @usart_smartcard_mode_nack_disable
	.thumb_func
usart_smartcard_mode_nack_disable:
.Lfunc_begin41:
	.loc	5 771 0                         @ ../std/GD32C2x1_Firmware_Library/GD32C2x1_standard_peripheral/Source/gd32c2x1_usart.c:771:0
	.fnstart
	.cfi_startproc
@ %bb.0:
	.pad	#4
	sub	sp, #4
	.cfi_def_cfa_offset 4
	str	r0, [sp]
.Ltmp94:
	.loc	5 773 5 prologue_end            @ ../std/GD32C2x1_Firmware_Library/GD32C2x1_standard_peripheral/Source/gd32c2x1_usart.c:773:5
	ldr	r1, [sp]
	.loc	5 773 30 is_stmt 0              @ ../std/GD32C2x1_Firmware_Library/GD32C2x1_standard_peripheral/Source/gd32c2x1_usart.c:773:30
	ldr	r0, [r1]
	movs	r2, #1
	bics	r0, r2
	str	r0, [r1]
	.loc	5 774 5 is_stmt 1               @ ../std/GD32C2x1_Firmware_Library/GD32C2x1_standard_peripheral/Source/gd32c2x1_usart.c:774:5
	ldr	r1, [sp]
	.loc	5 774 30 is_stmt 0              @ ../std/GD32C2x1_Firmware_Library/GD32C2x1_standard_peripheral/Source/gd32c2x1_usart.c:774:30
	ldr	r0, [r1, #8]
	movs	r2, #16
	bics	r0, r2
	str	r0, [r1, #8]
	.loc	5 775 1 is_stmt 1               @ ../std/GD32C2x1_Firmware_Library/GD32C2x1_standard_peripheral/Source/gd32c2x1_usart.c:775:1
	add	sp, #4
	bx	lr
.Ltmp95:
.Lfunc_end41:
	.size	usart_smartcard_mode_nack_disable, .Lfunc_end41-usart_smartcard_mode_nack_disable
	.cfi_endproc
	.cantunwind
	.fnend
                                        @ -- End function
	.section	.text.usart_smartcard_mode_early_nack_enable,"ax",%progbits
	.hidden	usart_smartcard_mode_early_nack_enable @ -- Begin function usart_smartcard_mode_early_nack_enable
	.globl	usart_smartcard_mode_early_nack_enable
	.p2align	1
	.type	usart_smartcard_mode_early_nack_enable,%function
	.code	16                              @ @usart_smartcard_mode_early_nack_enable
	.thumb_func
usart_smartcard_mode_early_nack_enable:
.Lfunc_begin42:
	.loc	5 784 0                         @ ../std/GD32C2x1_Firmware_Library/GD32C2x1_standard_peripheral/Source/gd32c2x1_usart.c:784:0
	.fnstart
	.cfi_startproc
@ %bb.0:
	.pad	#4
	sub	sp, #4
	.cfi_def_cfa_offset 4
	str	r0, [sp]
.Ltmp96:
	.loc	5 785 5 prologue_end            @ ../std/GD32C2x1_Firmware_Library/GD32C2x1_standard_peripheral/Source/gd32c2x1_usart.c:785:5
	ldr	r1, [sp]
	movs	r2, #208
	.loc	5 785 30 is_stmt 0              @ ../std/GD32C2x1_Firmware_Library/GD32C2x1_standard_peripheral/Source/gd32c2x1_usart.c:785:30
	ldr	r0, [r1, r2]
	movs	r3, #1
	orrs	r0, r3
	str	r0, [r1, r2]
	.loc	5 786 1 is_stmt 1               @ ../std/GD32C2x1_Firmware_Library/GD32C2x1_standard_peripheral/Source/gd32c2x1_usart.c:786:1
	add	sp, #4
	bx	lr
.Ltmp97:
.Lfunc_end42:
	.size	usart_smartcard_mode_early_nack_enable, .Lfunc_end42-usart_smartcard_mode_early_nack_enable
	.cfi_endproc
	.cantunwind
	.fnend
                                        @ -- End function
	.section	.text.usart_smartcard_mode_early_nack_disable,"ax",%progbits
	.hidden	usart_smartcard_mode_early_nack_disable @ -- Begin function usart_smartcard_mode_early_nack_disable
	.globl	usart_smartcard_mode_early_nack_disable
	.p2align	1
	.type	usart_smartcard_mode_early_nack_disable,%function
	.code	16                              @ @usart_smartcard_mode_early_nack_disable
	.thumb_func
usart_smartcard_mode_early_nack_disable:
.Lfunc_begin43:
	.loc	5 795 0                         @ ../std/GD32C2x1_Firmware_Library/GD32C2x1_standard_peripheral/Source/gd32c2x1_usart.c:795:0
	.fnstart
	.cfi_startproc
@ %bb.0:
	.pad	#4
	sub	sp, #4
	.cfi_def_cfa_offset 4
	str	r0, [sp]
.Ltmp98:
	.loc	5 796 5 prologue_end            @ ../std/GD32C2x1_Firmware_Library/GD32C2x1_standard_peripheral/Source/gd32c2x1_usart.c:796:5
	ldr	r1, [sp]
	movs	r2, #208
	.loc	5 796 30 is_stmt 0              @ ../std/GD32C2x1_Firmware_Library/GD32C2x1_standard_peripheral/Source/gd32c2x1_usart.c:796:30
	ldr	r0, [r1, r2]
	movs	r3, #1
	bics	r0, r3
	str	r0, [r1, r2]
	.loc	5 797 1 is_stmt 1               @ ../std/GD32C2x1_Firmware_Library/GD32C2x1_standard_peripheral/Source/gd32c2x1_usart.c:797:1
	add	sp, #4
	bx	lr
.Ltmp99:
.Lfunc_end43:
	.size	usart_smartcard_mode_early_nack_disable, .Lfunc_end43-usart_smartcard_mode_early_nack_disable
	.cfi_endproc
	.cantunwind
	.fnend
                                        @ -- End function
	.section	.text.usart_smartcard_autoretry_config,"ax",%progbits
	.hidden	usart_smartcard_autoretry_config @ -- Begin function usart_smartcard_autoretry_config
	.globl	usart_smartcard_autoretry_config
	.p2align	1
	.type	usart_smartcard_autoretry_config,%function
	.code	16                              @ @usart_smartcard_autoretry_config
	.thumb_func
usart_smartcard_autoretry_config:
.Lfunc_begin44:
	.loc	5 807 0                         @ ../std/GD32C2x1_Firmware_Library/GD32C2x1_standard_peripheral/Source/gd32c2x1_usart.c:807:0
	.fnstart
	.cfi_startproc
@ %bb.0:
	.pad	#8
	sub	sp, #8
	.cfi_def_cfa_offset 8
                                        @ kill: def $r2 killed $r1
	str	r0, [sp, #4]
	mov	r0, sp
	strb	r1, [r0]
.Ltmp100:
	.loc	5 809 5 prologue_end            @ ../std/GD32C2x1_Firmware_Library/GD32C2x1_standard_peripheral/Source/gd32c2x1_usart.c:809:5
	ldr	r1, [sp, #4]
	.loc	5 809 30 is_stmt 0              @ ../std/GD32C2x1_Firmware_Library/GD32C2x1_standard_peripheral/Source/gd32c2x1_usart.c:809:30
	ldr	r0, [r1]
	movs	r2, #1
	bics	r0, r2
	str	r0, [r1]
	.loc	5 810 5 is_stmt 1               @ ../std/GD32C2x1_Firmware_Library/GD32C2x1_standard_peripheral/Source/gd32c2x1_usart.c:810:5
	ldr	r1, [sp, #4]
	.loc	5 810 30 is_stmt 0              @ ../std/GD32C2x1_Firmware_Library/GD32C2x1_standard_peripheral/Source/gd32c2x1_usart.c:810:30
	ldr	r0, [r1, #8]
	movs	r2, #7
	lsls	r2, r2, #17
	bics	r0, r2
	str	r0, [r1, #8]
	.loc	5 811 57 is_stmt 1              @ ../std/GD32C2x1_Firmware_Library/GD32C2x1_standard_peripheral/Source/gd32c2x1_usart.c:811:57
	ldr	r0, [sp]
	.loc	5 811 53 is_stmt 0              @ ../std/GD32C2x1_Firmware_Library/GD32C2x1_standard_peripheral/Source/gd32c2x1_usart.c:811:53
	lsls	r0, r0, #29
	lsrs	r2, r0, #12
	.loc	5 811 5                         @ ../std/GD32C2x1_Firmware_Library/GD32C2x1_standard_peripheral/Source/gd32c2x1_usart.c:811:5
	ldr	r1, [sp, #4]
	.loc	5 811 30                        @ ../std/GD32C2x1_Firmware_Library/GD32C2x1_standard_peripheral/Source/gd32c2x1_usart.c:811:30
	ldr	r0, [r1, #8]
	orrs	r0, r2
	str	r0, [r1, #8]
	.loc	5 812 1 is_stmt 1               @ ../std/GD32C2x1_Firmware_Library/GD32C2x1_standard_peripheral/Source/gd32c2x1_usart.c:812:1
	add	sp, #8
	bx	lr
.Ltmp101:
.Lfunc_end44:
	.size	usart_smartcard_autoretry_config, .Lfunc_end44-usart_smartcard_autoretry_config
	.cfi_endproc
	.cantunwind
	.fnend
                                        @ -- End function
	.section	.text.usart_block_length_config,"ax",%progbits
	.hidden	usart_block_length_config       @ -- Begin function usart_block_length_config
	.globl	usart_block_length_config
	.p2align	1
	.type	usart_block_length_config,%function
	.code	16                              @ @usart_block_length_config
	.thumb_func
usart_block_length_config:
.Lfunc_begin45:
	.loc	5 822 0                         @ ../std/GD32C2x1_Firmware_Library/GD32C2x1_standard_peripheral/Source/gd32c2x1_usart.c:822:0
	.fnstart
	.cfi_startproc
@ %bb.0:
	.pad	#8
	sub	sp, #8
	.cfi_def_cfa_offset 8
                                        @ kill: def $r2 killed $r1
	str	r0, [sp, #4]
	mov	r0, sp
	strb	r1, [r0]
.Ltmp102:
	.loc	5 823 5 prologue_end            @ ../std/GD32C2x1_Firmware_Library/GD32C2x1_standard_peripheral/Source/gd32c2x1_usart.c:823:5
	ldr	r1, [sp, #4]
	.loc	5 823 28 is_stmt 0              @ ../std/GD32C2x1_Firmware_Library/GD32C2x1_standard_peripheral/Source/gd32c2x1_usart.c:823:28
	ldr	r0, [r1, #20]
	movs	r2, #255
	lsls	r2, r2, #24
	bics	r0, r2
	str	r0, [r1, #20]
	.loc	5 824 48 is_stmt 1              @ ../std/GD32C2x1_Firmware_Library/GD32C2x1_standard_peripheral/Source/gd32c2x1_usart.c:824:48
	ldr	r0, [sp]
	.loc	5 824 62 is_stmt 0              @ ../std/GD32C2x1_Firmware_Library/GD32C2x1_standard_peripheral/Source/gd32c2x1_usart.c:824:62
	lsls	r2, r0, #24
	.loc	5 824 5                         @ ../std/GD32C2x1_Firmware_Library/GD32C2x1_standard_peripheral/Source/gd32c2x1_usart.c:824:5
	ldr	r1, [sp, #4]
	.loc	5 824 28                        @ ../std/GD32C2x1_Firmware_Library/GD32C2x1_standard_peripheral/Source/gd32c2x1_usart.c:824:28
	ldr	r0, [r1, #20]
	orrs	r0, r2
	str	r0, [r1, #20]
	.loc	5 825 1 is_stmt 1               @ ../std/GD32C2x1_Firmware_Library/GD32C2x1_standard_peripheral/Source/gd32c2x1_usart.c:825:1
	add	sp, #8
	bx	lr
.Ltmp103:
.Lfunc_end45:
	.size	usart_block_length_config, .Lfunc_end45-usart_block_length_config
	.cfi_endproc
	.cantunwind
	.fnend
                                        @ -- End function
	.section	.text.usart_irda_mode_enable,"ax",%progbits
	.hidden	usart_irda_mode_enable          @ -- Begin function usart_irda_mode_enable
	.globl	usart_irda_mode_enable
	.p2align	1
	.type	usart_irda_mode_enable,%function
	.code	16                              @ @usart_irda_mode_enable
	.thumb_func
usart_irda_mode_enable:
.Lfunc_begin46:
	.loc	5 834 0                         @ ../std/GD32C2x1_Firmware_Library/GD32C2x1_standard_peripheral/Source/gd32c2x1_usart.c:834:0
	.fnstart
	.cfi_startproc
@ %bb.0:
	.pad	#4
	sub	sp, #4
	.cfi_def_cfa_offset 4
	str	r0, [sp]
.Ltmp104:
	.loc	5 836 5 prologue_end            @ ../std/GD32C2x1_Firmware_Library/GD32C2x1_standard_peripheral/Source/gd32c2x1_usart.c:836:5
	ldr	r1, [sp]
	.loc	5 836 30 is_stmt 0              @ ../std/GD32C2x1_Firmware_Library/GD32C2x1_standard_peripheral/Source/gd32c2x1_usart.c:836:30
	ldr	r0, [r1]
	movs	r2, #1
	bics	r0, r2
	str	r0, [r1]
	.loc	5 838 5 is_stmt 1               @ ../std/GD32C2x1_Firmware_Library/GD32C2x1_standard_peripheral/Source/gd32c2x1_usart.c:838:5
	ldr	r1, [sp]
	.loc	5 838 30 is_stmt 0              @ ../std/GD32C2x1_Firmware_Library/GD32C2x1_standard_peripheral/Source/gd32c2x1_usart.c:838:30
	ldr	r0, [r1, #8]
	movs	r2, #2
	orrs	r0, r2
	str	r0, [r1, #8]
	.loc	5 839 1 is_stmt 1               @ ../std/GD32C2x1_Firmware_Library/GD32C2x1_standard_peripheral/Source/gd32c2x1_usart.c:839:1
	add	sp, #4
	bx	lr
.Ltmp105:
.Lfunc_end46:
	.size	usart_irda_mode_enable, .Lfunc_end46-usart_irda_mode_enable
	.cfi_endproc
	.cantunwind
	.fnend
                                        @ -- End function
	.section	.text.usart_irda_mode_disable,"ax",%progbits
	.hidden	usart_irda_mode_disable         @ -- Begin function usart_irda_mode_disable
	.globl	usart_irda_mode_disable
	.p2align	1
	.type	usart_irda_mode_disable,%function
	.code	16                              @ @usart_irda_mode_disable
	.thumb_func
usart_irda_mode_disable:
.Lfunc_begin47:
	.loc	5 848 0                         @ ../std/GD32C2x1_Firmware_Library/GD32C2x1_standard_peripheral/Source/gd32c2x1_usart.c:848:0
	.fnstart
	.cfi_startproc
@ %bb.0:
	.pad	#4
	sub	sp, #4
	.cfi_def_cfa_offset 4
	str	r0, [sp]
.Ltmp106:
	.loc	5 850 5 prologue_end            @ ../std/GD32C2x1_Firmware_Library/GD32C2x1_standard_peripheral/Source/gd32c2x1_usart.c:850:5
	ldr	r1, [sp]
	.loc	5 850 30 is_stmt 0              @ ../std/GD32C2x1_Firmware_Library/GD32C2x1_standard_peripheral/Source/gd32c2x1_usart.c:850:30
	ldr	r0, [r1]
	movs	r2, #1
	bics	r0, r2
	str	r0, [r1]
	.loc	5 852 5 is_stmt 1               @ ../std/GD32C2x1_Firmware_Library/GD32C2x1_standard_peripheral/Source/gd32c2x1_usart.c:852:5
	ldr	r1, [sp]
	.loc	5 852 30 is_stmt 0              @ ../std/GD32C2x1_Firmware_Library/GD32C2x1_standard_peripheral/Source/gd32c2x1_usart.c:852:30
	ldr	r0, [r1, #8]
	movs	r2, #2
	bics	r0, r2
	str	r0, [r1, #8]
	.loc	5 853 1 is_stmt 1               @ ../std/GD32C2x1_Firmware_Library/GD32C2x1_standard_peripheral/Source/gd32c2x1_usart.c:853:1
	add	sp, #4
	bx	lr
.Ltmp107:
.Lfunc_end47:
	.size	usart_irda_mode_disable, .Lfunc_end47-usart_irda_mode_disable
	.cfi_endproc
	.cantunwind
	.fnend
                                        @ -- End function
	.section	.text.usart_prescaler_config,"ax",%progbits
	.hidden	usart_prescaler_config          @ -- Begin function usart_prescaler_config
	.globl	usart_prescaler_config
	.p2align	1
	.type	usart_prescaler_config,%function
	.code	16                              @ @usart_prescaler_config
	.thumb_func
usart_prescaler_config:
.Lfunc_begin48:
	.loc	5 863 0                         @ ../std/GD32C2x1_Firmware_Library/GD32C2x1_standard_peripheral/Source/gd32c2x1_usart.c:863:0
	.fnstart
	.cfi_startproc
@ %bb.0:
	.pad	#8
	sub	sp, #8
	.cfi_def_cfa_offset 8
                                        @ kill: def $r2 killed $r1
	str	r0, [sp, #4]
	mov	r0, sp
	strb	r1, [r0]
.Ltmp108:
	.loc	5 865 5 prologue_end            @ ../std/GD32C2x1_Firmware_Library/GD32C2x1_standard_peripheral/Source/gd32c2x1_usart.c:865:5
	ldr	r2, [sp, #4]
	.loc	5 865 30 is_stmt 0              @ ../std/GD32C2x1_Firmware_Library/GD32C2x1_standard_peripheral/Source/gd32c2x1_usart.c:865:30
	ldr	r1, [r2]
	movs	r3, #1
	bics	r1, r3
	str	r1, [r2]
	.loc	5 866 5 is_stmt 1               @ ../std/GD32C2x1_Firmware_Library/GD32C2x1_standard_peripheral/Source/gd32c2x1_usart.c:866:5
	ldr	r2, [sp, #4]
	.loc	5 866 28 is_stmt 0              @ ../std/GD32C2x1_Firmware_Library/GD32C2x1_standard_peripheral/Source/gd32c2x1_usart.c:866:28
	ldr	r1, [r2, #16]
	movs	r3, #255
	bics	r1, r3
	str	r1, [r2, #16]
	.loc	5 867 31 is_stmt 1              @ ../std/GD32C2x1_Firmware_Library/GD32C2x1_standard_peripheral/Source/gd32c2x1_usart.c:867:31
	ldrb	r2, [r0]
	.loc	5 867 5 is_stmt 0               @ ../std/GD32C2x1_Firmware_Library/GD32C2x1_standard_peripheral/Source/gd32c2x1_usart.c:867:5
	ldr	r1, [sp, #4]
	.loc	5 867 28                        @ ../std/GD32C2x1_Firmware_Library/GD32C2x1_standard_peripheral/Source/gd32c2x1_usart.c:867:28
	ldr	r0, [r1, #16]
	orrs	r0, r2
	str	r0, [r1, #16]
	.loc	5 868 1 is_stmt 1               @ ../std/GD32C2x1_Firmware_Library/GD32C2x1_standard_peripheral/Source/gd32c2x1_usart.c:868:1
	add	sp, #8
	bx	lr
.Ltmp109:
.Lfunc_end48:
	.size	usart_prescaler_config, .Lfunc_end48-usart_prescaler_config
	.cfi_endproc
	.cantunwind
	.fnend
                                        @ -- End function
	.section	.text.usart_irda_lowpower_config,"ax",%progbits
	.hidden	usart_irda_lowpower_config      @ -- Begin function usart_irda_lowpower_config
	.globl	usart_irda_lowpower_config
	.p2align	1
	.type	usart_irda_lowpower_config,%function
	.code	16                              @ @usart_irda_lowpower_config
	.thumb_func
usart_irda_lowpower_config:
.Lfunc_begin49:
	.loc	5 881 0                         @ ../std/GD32C2x1_Firmware_Library/GD32C2x1_standard_peripheral/Source/gd32c2x1_usart.c:881:0
	.fnstart
	.cfi_startproc
@ %bb.0:
	.pad	#8
	sub	sp, #8
	.cfi_def_cfa_offset 8
	str	r0, [sp, #4]
	str	r1, [sp]
.Ltmp110:
	.loc	5 883 5 prologue_end            @ ../std/GD32C2x1_Firmware_Library/GD32C2x1_standard_peripheral/Source/gd32c2x1_usart.c:883:5
	ldr	r1, [sp, #4]
	.loc	5 883 30 is_stmt 0              @ ../std/GD32C2x1_Firmware_Library/GD32C2x1_standard_peripheral/Source/gd32c2x1_usart.c:883:30
	ldr	r0, [r1]
	movs	r2, #1
	bics	r0, r2
	str	r0, [r1]
	.loc	5 884 5 is_stmt 1               @ ../std/GD32C2x1_Firmware_Library/GD32C2x1_standard_peripheral/Source/gd32c2x1_usart.c:884:5
	ldr	r2, [sp, #4]
	.loc	5 884 30 is_stmt 0              @ ../std/GD32C2x1_Firmware_Library/GD32C2x1_standard_peripheral/Source/gd32c2x1_usart.c:884:30
	ldr	r1, [r2, #8]
	movs	r0, #4
	bics	r1, r0
	str	r1, [r2, #8]
	.loc	5 885 52 is_stmt 1              @ ../std/GD32C2x1_Firmware_Library/GD32C2x1_standard_peripheral/Source/gd32c2x1_usart.c:885:52
	ldr	r2, [sp]
	.loc	5 885 50 is_stmt 0              @ ../std/GD32C2x1_Firmware_Library/GD32C2x1_standard_peripheral/Source/gd32c2x1_usart.c:885:50
	ands	r2, r0
	.loc	5 885 5                         @ ../std/GD32C2x1_Firmware_Library/GD32C2x1_standard_peripheral/Source/gd32c2x1_usart.c:885:5
	ldr	r1, [sp, #4]
	.loc	5 885 30                        @ ../std/GD32C2x1_Firmware_Library/GD32C2x1_standard_peripheral/Source/gd32c2x1_usart.c:885:30
	ldr	r0, [r1, #8]
	orrs	r0, r2
	str	r0, [r1, #8]
	.loc	5 886 1 is_stmt 1               @ ../std/GD32C2x1_Firmware_Library/GD32C2x1_standard_peripheral/Source/gd32c2x1_usart.c:886:1
	add	sp, #8
	bx	lr
.Ltmp111:
.Lfunc_end49:
	.size	usart_irda_lowpower_config, .Lfunc_end49-usart_irda_lowpower_config
	.cfi_endproc
	.cantunwind
	.fnend
                                        @ -- End function
	.section	.text.usart_hardware_flow_rts_config,"ax",%progbits
	.hidden	usart_hardware_flow_rts_config  @ -- Begin function usart_hardware_flow_rts_config
	.globl	usart_hardware_flow_rts_config
	.p2align	1
	.type	usart_hardware_flow_rts_config,%function
	.code	16                              @ @usart_hardware_flow_rts_config
	.thumb_func
usart_hardware_flow_rts_config:
.Lfunc_begin50:
	.loc	5 899 0                         @ ../std/GD32C2x1_Firmware_Library/GD32C2x1_standard_peripheral/Source/gd32c2x1_usart.c:899:0
	.fnstart
	.cfi_startproc
@ %bb.0:
	.pad	#8
	sub	sp, #8
	.cfi_def_cfa_offset 8
	str	r0, [sp, #4]
	str	r1, [sp]
.Ltmp112:
	.loc	5 901 5 prologue_end            @ ../std/GD32C2x1_Firmware_Library/GD32C2x1_standard_peripheral/Source/gd32c2x1_usart.c:901:5
	ldr	r1, [sp, #4]
	.loc	5 901 30 is_stmt 0              @ ../std/GD32C2x1_Firmware_Library/GD32C2x1_standard_peripheral/Source/gd32c2x1_usart.c:901:30
	ldr	r0, [r1]
	movs	r2, #1
	bics	r0, r2
	str	r0, [r1]
	.loc	5 903 5 is_stmt 1               @ ../std/GD32C2x1_Firmware_Library/GD32C2x1_standard_peripheral/Source/gd32c2x1_usart.c:903:5
	ldr	r2, [sp, #4]
	.loc	5 903 30 is_stmt 0              @ ../std/GD32C2x1_Firmware_Library/GD32C2x1_standard_peripheral/Source/gd32c2x1_usart.c:903:30
	ldr	r1, [r2, #8]
	movw	r0, #256
	bics	r1, r0
	str	r1, [r2, #8]
	.loc	5 904 33 is_stmt 1              @ ../std/GD32C2x1_Firmware_Library/GD32C2x1_standard_peripheral/Source/gd32c2x1_usart.c:904:33
	ldr	r2, [sp]
	.loc	5 904 43 is_stmt 0              @ ../std/GD32C2x1_Firmware_Library/GD32C2x1_standard_peripheral/Source/gd32c2x1_usart.c:904:43
	ands	r2, r0
	.loc	5 904 5                         @ ../std/GD32C2x1_Firmware_Library/GD32C2x1_standard_peripheral/Source/gd32c2x1_usart.c:904:5
	ldr	r1, [sp, #4]
	.loc	5 904 30                        @ ../std/GD32C2x1_Firmware_Library/GD32C2x1_standard_peripheral/Source/gd32c2x1_usart.c:904:30
	ldr	r0, [r1, #8]
	orrs	r0, r2
	str	r0, [r1, #8]
	.loc	5 905 1 is_stmt 1               @ ../std/GD32C2x1_Firmware_Library/GD32C2x1_standard_peripheral/Source/gd32c2x1_usart.c:905:1
	add	sp, #8
	bx	lr
.Ltmp113:
.Lfunc_end50:
	.size	usart_hardware_flow_rts_config, .Lfunc_end50-usart_hardware_flow_rts_config
	.cfi_endproc
	.cantunwind
	.fnend
                                        @ -- End function
	.section	.text.usart_hardware_flow_cts_config,"ax",%progbits
	.hidden	usart_hardware_flow_cts_config  @ -- Begin function usart_hardware_flow_cts_config
	.globl	usart_hardware_flow_cts_config
	.p2align	1
	.type	usart_hardware_flow_cts_config,%function
	.code	16                              @ @usart_hardware_flow_cts_config
	.thumb_func
usart_hardware_flow_cts_config:
.Lfunc_begin51:
	.loc	5 918 0                         @ ../std/GD32C2x1_Firmware_Library/GD32C2x1_standard_peripheral/Source/gd32c2x1_usart.c:918:0
	.fnstart
	.cfi_startproc
@ %bb.0:
	.pad	#8
	sub	sp, #8
	.cfi_def_cfa_offset 8
	str	r0, [sp, #4]
	str	r1, [sp]
.Ltmp114:
	.loc	5 920 5 prologue_end            @ ../std/GD32C2x1_Firmware_Library/GD32C2x1_standard_peripheral/Source/gd32c2x1_usart.c:920:5
	ldr	r1, [sp, #4]
	.loc	5 920 30 is_stmt 0              @ ../std/GD32C2x1_Firmware_Library/GD32C2x1_standard_peripheral/Source/gd32c2x1_usart.c:920:30
	ldr	r0, [r1]
	movs	r2, #1
	bics	r0, r2
	str	r0, [r1]
	.loc	5 922 5 is_stmt 1               @ ../std/GD32C2x1_Firmware_Library/GD32C2x1_standard_peripheral/Source/gd32c2x1_usart.c:922:5
	ldr	r2, [sp, #4]
	.loc	5 922 30 is_stmt 0              @ ../std/GD32C2x1_Firmware_Library/GD32C2x1_standard_peripheral/Source/gd32c2x1_usart.c:922:30
	ldr	r1, [r2, #8]
	movw	r0, #512
	bics	r1, r0
	str	r1, [r2, #8]
	.loc	5 923 33 is_stmt 1              @ ../std/GD32C2x1_Firmware_Library/GD32C2x1_standard_peripheral/Source/gd32c2x1_usart.c:923:33
	ldr	r2, [sp]
	.loc	5 923 43 is_stmt 0              @ ../std/GD32C2x1_Firmware_Library/GD32C2x1_standard_peripheral/Source/gd32c2x1_usart.c:923:43
	ands	r2, r0
	.loc	5 923 5                         @ ../std/GD32C2x1_Firmware_Library/GD32C2x1_standard_peripheral/Source/gd32c2x1_usart.c:923:5
	ldr	r1, [sp, #4]
	.loc	5 923 30                        @ ../std/GD32C2x1_Firmware_Library/GD32C2x1_standard_peripheral/Source/gd32c2x1_usart.c:923:30
	ldr	r0, [r1, #8]
	orrs	r0, r2
	str	r0, [r1, #8]
	.loc	5 924 1 is_stmt 1               @ ../std/GD32C2x1_Firmware_Library/GD32C2x1_standard_peripheral/Source/gd32c2x1_usart.c:924:1
	add	sp, #8
	bx	lr
.Ltmp115:
.Lfunc_end51:
	.size	usart_hardware_flow_cts_config, .Lfunc_end51-usart_hardware_flow_cts_config
	.cfi_endproc
	.cantunwind
	.fnend
                                        @ -- End function
	.section	.text.usart_hardware_flow_coherence_config,"ax",%progbits
	.hidden	usart_hardware_flow_coherence_config @ -- Begin function usart_hardware_flow_coherence_config
	.globl	usart_hardware_flow_coherence_config
	.p2align	1
	.type	usart_hardware_flow_coherence_config,%function
	.code	16                              @ @usart_hardware_flow_coherence_config
	.thumb_func
usart_hardware_flow_coherence_config:
.Lfunc_begin52:
	.loc	5 937 0                         @ ../std/GD32C2x1_Firmware_Library/GD32C2x1_standard_peripheral/Source/gd32c2x1_usart.c:937:0
	.fnstart
	.cfi_startproc
@ %bb.0:
	.pad	#8
	sub	sp, #8
	.cfi_def_cfa_offset 8
	str	r0, [sp, #4]
	str	r1, [sp]
.Ltmp116:
	.loc	5 938 5 prologue_end            @ ../std/GD32C2x1_Firmware_Library/GD32C2x1_standard_peripheral/Source/gd32c2x1_usart.c:938:5
	ldr	r3, [sp, #4]
	movs	r2, #192
	.loc	5 938 29 is_stmt 0              @ ../std/GD32C2x1_Firmware_Library/GD32C2x1_standard_peripheral/Source/gd32c2x1_usart.c:938:29
	ldr	r1, [r3, r2]
	movs	r0, #1
	bics	r1, r0
	str	r1, [r3, r2]
	.loc	5 939 49 is_stmt 1              @ ../std/GD32C2x1_Firmware_Library/GD32C2x1_standard_peripheral/Source/gd32c2x1_usart.c:939:49
	ldr	r3, [sp]
	.loc	5 939 47 is_stmt 0              @ ../std/GD32C2x1_Firmware_Library/GD32C2x1_standard_peripheral/Source/gd32c2x1_usart.c:939:47
	ands	r3, r0
	.loc	5 939 5                         @ ../std/GD32C2x1_Firmware_Library/GD32C2x1_standard_peripheral/Source/gd32c2x1_usart.c:939:5
	ldr	r1, [sp, #4]
	.loc	5 939 29                        @ ../std/GD32C2x1_Firmware_Library/GD32C2x1_standard_peripheral/Source/gd32c2x1_usart.c:939:29
	ldr	r0, [r1, r2]
	orrs	r0, r3
	str	r0, [r1, r2]
	.loc	5 940 1 is_stmt 1               @ ../std/GD32C2x1_Firmware_Library/GD32C2x1_standard_peripheral/Source/gd32c2x1_usart.c:940:1
	add	sp, #8
	bx	lr
.Ltmp117:
.Lfunc_end52:
	.size	usart_hardware_flow_coherence_config, .Lfunc_end52-usart_hardware_flow_coherence_config
	.cfi_endproc
	.cantunwind
	.fnend
                                        @ -- End function
	.section	.text.usart_rs485_driver_enable,"ax",%progbits
	.hidden	usart_rs485_driver_enable       @ -- Begin function usart_rs485_driver_enable
	.globl	usart_rs485_driver_enable
	.p2align	1
	.type	usart_rs485_driver_enable,%function
	.code	16                              @ @usart_rs485_driver_enable
	.thumb_func
usart_rs485_driver_enable:
.Lfunc_begin53:
	.loc	5 949 0                         @ ../std/GD32C2x1_Firmware_Library/GD32C2x1_standard_peripheral/Source/gd32c2x1_usart.c:949:0
	.fnstart
	.cfi_startproc
@ %bb.0:
	.pad	#4
	sub	sp, #4
	.cfi_def_cfa_offset 4
	str	r0, [sp]
.Ltmp118:
	.loc	5 951 5 prologue_end            @ ../std/GD32C2x1_Firmware_Library/GD32C2x1_standard_peripheral/Source/gd32c2x1_usart.c:951:5
	ldr	r1, [sp]
	.loc	5 951 30 is_stmt 0              @ ../std/GD32C2x1_Firmware_Library/GD32C2x1_standard_peripheral/Source/gd32c2x1_usart.c:951:30
	ldr	r0, [r1]
	movs	r2, #1
	bics	r0, r2
	str	r0, [r1]
	.loc	5 953 5 is_stmt 1               @ ../std/GD32C2x1_Firmware_Library/GD32C2x1_standard_peripheral/Source/gd32c2x1_usart.c:953:5
	ldr	r1, [sp]
	.loc	5 953 30 is_stmt 0              @ ../std/GD32C2x1_Firmware_Library/GD32C2x1_standard_peripheral/Source/gd32c2x1_usart.c:953:30
	ldr	r0, [r1, #8]
	movw	r2, #16384
	orrs	r0, r2
	str	r0, [r1, #8]
	.loc	5 954 1 is_stmt 1               @ ../std/GD32C2x1_Firmware_Library/GD32C2x1_standard_peripheral/Source/gd32c2x1_usart.c:954:1
	add	sp, #4
	bx	lr
.Ltmp119:
.Lfunc_end53:
	.size	usart_rs485_driver_enable, .Lfunc_end53-usart_rs485_driver_enable
	.cfi_endproc
	.cantunwind
	.fnend
                                        @ -- End function
	.section	.text.usart_rs485_driver_disable,"ax",%progbits
	.hidden	usart_rs485_driver_disable      @ -- Begin function usart_rs485_driver_disable
	.globl	usart_rs485_driver_disable
	.p2align	1
	.type	usart_rs485_driver_disable,%function
	.code	16                              @ @usart_rs485_driver_disable
	.thumb_func
usart_rs485_driver_disable:
.Lfunc_begin54:
	.loc	5 963 0                         @ ../std/GD32C2x1_Firmware_Library/GD32C2x1_standard_peripheral/Source/gd32c2x1_usart.c:963:0
	.fnstart
	.cfi_startproc
@ %bb.0:
	.pad	#4
	sub	sp, #4
	.cfi_def_cfa_offset 4
	str	r0, [sp]
.Ltmp120:
	.loc	5 965 5 prologue_end            @ ../std/GD32C2x1_Firmware_Library/GD32C2x1_standard_peripheral/Source/gd32c2x1_usart.c:965:5
	ldr	r1, [sp]
	.loc	5 965 30 is_stmt 0              @ ../std/GD32C2x1_Firmware_Library/GD32C2x1_standard_peripheral/Source/gd32c2x1_usart.c:965:30
	ldr	r0, [r1]
	movs	r2, #1
	bics	r0, r2
	str	r0, [r1]
	.loc	5 967 5 is_stmt 1               @ ../std/GD32C2x1_Firmware_Library/GD32C2x1_standard_peripheral/Source/gd32c2x1_usart.c:967:5
	ldr	r1, [sp]
	.loc	5 967 30 is_stmt 0              @ ../std/GD32C2x1_Firmware_Library/GD32C2x1_standard_peripheral/Source/gd32c2x1_usart.c:967:30
	ldr	r0, [r1, #8]
	movw	r2, #16384
	bics	r0, r2
	str	r0, [r1, #8]
	.loc	5 968 1 is_stmt 1               @ ../std/GD32C2x1_Firmware_Library/GD32C2x1_standard_peripheral/Source/gd32c2x1_usart.c:968:1
	add	sp, #4
	bx	lr
.Ltmp121:
.Lfunc_end54:
	.size	usart_rs485_driver_disable, .Lfunc_end54-usart_rs485_driver_disable
	.cfi_endproc
	.cantunwind
	.fnend
                                        @ -- End function
	.section	.text.usart_driver_assertime_config,"ax",%progbits
	.hidden	usart_driver_assertime_config   @ -- Begin function usart_driver_assertime_config
	.globl	usart_driver_assertime_config
	.p2align	1
	.type	usart_driver_assertime_config,%function
	.code	16                              @ @usart_driver_assertime_config
	.thumb_func
usart_driver_assertime_config:
.Lfunc_begin55:
	.loc	5 978 0                         @ ../std/GD32C2x1_Firmware_Library/GD32C2x1_standard_peripheral/Source/gd32c2x1_usart.c:978:0
	.fnstart
	.cfi_startproc
@ %bb.0:
	.pad	#8
	sub	sp, #8
	.cfi_def_cfa_offset 8
                                        @ kill: def $r2 killed $r1
	str	r0, [sp, #4]
	mov	r0, sp
	strb	r1, [r0]
.Ltmp122:
	.loc	5 980 5 prologue_end            @ ../std/GD32C2x1_Firmware_Library/GD32C2x1_standard_peripheral/Source/gd32c2x1_usart.c:980:5
	ldr	r1, [sp, #4]
	.loc	5 980 30 is_stmt 0              @ ../std/GD32C2x1_Firmware_Library/GD32C2x1_standard_peripheral/Source/gd32c2x1_usart.c:980:30
	ldr	r0, [r1]
	movs	r2, #1
	bics	r0, r2
	str	r0, [r1]
	.loc	5 982 5 is_stmt 1               @ ../std/GD32C2x1_Firmware_Library/GD32C2x1_standard_peripheral/Source/gd32c2x1_usart.c:982:5
	ldr	r1, [sp, #4]
	.loc	5 982 30 is_stmt 0              @ ../std/GD32C2x1_Firmware_Library/GD32C2x1_standard_peripheral/Source/gd32c2x1_usart.c:982:30
	ldr	r0, [r1]
	movs	r2, #31
	lsls	r2, r2, #21
	bics	r0, r2
	str	r0, [r1]
	.loc	5 983 53 is_stmt 1              @ ../std/GD32C2x1_Firmware_Library/GD32C2x1_standard_peripheral/Source/gd32c2x1_usart.c:983:53
	ldr	r0, [sp]
	.loc	5 983 49 is_stmt 0              @ ../std/GD32C2x1_Firmware_Library/GD32C2x1_standard_peripheral/Source/gd32c2x1_usart.c:983:49
	lsls	r0, r0, #27
	lsrs	r2, r0, #6
	.loc	5 983 5                         @ ../std/GD32C2x1_Firmware_Library/GD32C2x1_standard_peripheral/Source/gd32c2x1_usart.c:983:5
	ldr	r1, [sp, #4]
	.loc	5 983 30                        @ ../std/GD32C2x1_Firmware_Library/GD32C2x1_standard_peripheral/Source/gd32c2x1_usart.c:983:30
	ldr	r0, [r1]
	orrs	r0, r2
	str	r0, [r1]
	.loc	5 984 1 is_stmt 1               @ ../std/GD32C2x1_Firmware_Library/GD32C2x1_standard_peripheral/Source/gd32c2x1_usart.c:984:1
	add	sp, #8
	bx	lr
.Ltmp123:
.Lfunc_end55:
	.size	usart_driver_assertime_config, .Lfunc_end55-usart_driver_assertime_config
	.cfi_endproc
	.cantunwind
	.fnend
                                        @ -- End function
	.section	.text.usart_driver_deassertime_config,"ax",%progbits
	.hidden	usart_driver_deassertime_config @ -- Begin function usart_driver_deassertime_config
	.globl	usart_driver_deassertime_config
	.p2align	1
	.type	usart_driver_deassertime_config,%function
	.code	16                              @ @usart_driver_deassertime_config
	.thumb_func
usart_driver_deassertime_config:
.Lfunc_begin56:
	.loc	5 994 0                         @ ../std/GD32C2x1_Firmware_Library/GD32C2x1_standard_peripheral/Source/gd32c2x1_usart.c:994:0
	.fnstart
	.cfi_startproc
@ %bb.0:
	.pad	#8
	sub	sp, #8
	.cfi_def_cfa_offset 8
                                        @ kill: def $r2 killed $r1
	str	r0, [sp, #4]
	mov	r0, sp
	strb	r1, [r0]
.Ltmp124:
	.loc	5 996 5 prologue_end            @ ../std/GD32C2x1_Firmware_Library/GD32C2x1_standard_peripheral/Source/gd32c2x1_usart.c:996:5
	ldr	r1, [sp, #4]
	.loc	5 996 30 is_stmt 0              @ ../std/GD32C2x1_Firmware_Library/GD32C2x1_standard_peripheral/Source/gd32c2x1_usart.c:996:30
	ldr	r0, [r1]
	movs	r2, #1
	bics	r0, r2
	str	r0, [r1]
	.loc	5 998 5 is_stmt 1               @ ../std/GD32C2x1_Firmware_Library/GD32C2x1_standard_peripheral/Source/gd32c2x1_usart.c:998:5
	ldr	r1, [sp, #4]
	.loc	5 998 30 is_stmt 0              @ ../std/GD32C2x1_Firmware_Library/GD32C2x1_standard_peripheral/Source/gd32c2x1_usart.c:998:30
	ldr	r0, [r1]
	movs	r2, #31
	lsls	r2, r2, #16
	bics	r0, r2
	str	r0, [r1]
	.loc	5 999 53 is_stmt 1              @ ../std/GD32C2x1_Firmware_Library/GD32C2x1_standard_peripheral/Source/gd32c2x1_usart.c:999:53
	ldr	r0, [sp]
	.loc	5 999 49 is_stmt 0              @ ../std/GD32C2x1_Firmware_Library/GD32C2x1_standard_peripheral/Source/gd32c2x1_usart.c:999:49
	lsls	r0, r0, #27
	lsrs	r2, r0, #11
	.loc	5 999 5                         @ ../std/GD32C2x1_Firmware_Library/GD32C2x1_standard_peripheral/Source/gd32c2x1_usart.c:999:5
	ldr	r1, [sp, #4]
	.loc	5 999 30                        @ ../std/GD32C2x1_Firmware_Library/GD32C2x1_standard_peripheral/Source/gd32c2x1_usart.c:999:30
	ldr	r0, [r1]
	orrs	r0, r2
	str	r0, [r1]
	.loc	5 1000 1 is_stmt 1              @ ../std/GD32C2x1_Firmware_Library/GD32C2x1_standard_peripheral/Source/gd32c2x1_usart.c:1000:1
	add	sp, #8
	bx	lr
.Ltmp125:
.Lfunc_end56:
	.size	usart_driver_deassertime_config, .Lfunc_end56-usart_driver_deassertime_config
	.cfi_endproc
	.cantunwind
	.fnend
                                        @ -- End function
	.section	.text.usart_depolarity_config,"ax",%progbits
	.hidden	usart_depolarity_config         @ -- Begin function usart_depolarity_config
	.globl	usart_depolarity_config
	.p2align	1
	.type	usart_depolarity_config,%function
	.code	16                              @ @usart_depolarity_config
	.thumb_func
usart_depolarity_config:
.Lfunc_begin57:
	.loc	5 1013 0                        @ ../std/GD32C2x1_Firmware_Library/GD32C2x1_standard_peripheral/Source/gd32c2x1_usart.c:1013:0
	.fnstart
	.cfi_startproc
@ %bb.0:
	.pad	#8
	sub	sp, #8
	.cfi_def_cfa_offset 8
	str	r0, [sp, #4]
	str	r1, [sp]
.Ltmp126:
	.loc	5 1015 5 prologue_end           @ ../std/GD32C2x1_Firmware_Library/GD32C2x1_standard_peripheral/Source/gd32c2x1_usart.c:1015:5
	ldr	r1, [sp, #4]
	.loc	5 1015 30 is_stmt 0             @ ../std/GD32C2x1_Firmware_Library/GD32C2x1_standard_peripheral/Source/gd32c2x1_usart.c:1015:30
	ldr	r0, [r1]
	movs	r2, #1
	bics	r0, r2
	str	r0, [r1]
	.loc	5 1017 5 is_stmt 1              @ ../std/GD32C2x1_Firmware_Library/GD32C2x1_standard_peripheral/Source/gd32c2x1_usart.c:1017:5
	ldr	r2, [sp, #4]
	.loc	5 1017 30 is_stmt 0             @ ../std/GD32C2x1_Firmware_Library/GD32C2x1_standard_peripheral/Source/gd32c2x1_usart.c:1017:30
	ldr	r1, [r2, #8]
	movw	r0, #32768
	bics	r1, r0
	str	r1, [r2, #8]
	.loc	5 1018 51 is_stmt 1             @ ../std/GD32C2x1_Firmware_Library/GD32C2x1_standard_peripheral/Source/gd32c2x1_usart.c:1018:51
	ldr	r2, [sp]
	.loc	5 1018 49 is_stmt 0             @ ../std/GD32C2x1_Firmware_Library/GD32C2x1_standard_peripheral/Source/gd32c2x1_usart.c:1018:49
	ands	r2, r0
	.loc	5 1018 5                        @ ../std/GD32C2x1_Firmware_Library/GD32C2x1_standard_peripheral/Source/gd32c2x1_usart.c:1018:5
	ldr	r1, [sp, #4]
	.loc	5 1018 30                       @ ../std/GD32C2x1_Firmware_Library/GD32C2x1_standard_peripheral/Source/gd32c2x1_usart.c:1018:30
	ldr	r0, [r1, #8]
	orrs	r0, r2
	str	r0, [r1, #8]
	.loc	5 1019 1 is_stmt 1              @ ../std/GD32C2x1_Firmware_Library/GD32C2x1_standard_peripheral/Source/gd32c2x1_usart.c:1019:1
	add	sp, #8
	bx	lr
.Ltmp127:
.Lfunc_end57:
	.size	usart_depolarity_config, .Lfunc_end57-usart_depolarity_config
	.cfi_endproc
	.cantunwind
	.fnend
                                        @ -- End function
	.section	.text.usart_dma_receive_config,"ax",%progbits
	.hidden	usart_dma_receive_config        @ -- Begin function usart_dma_receive_config
	.globl	usart_dma_receive_config
	.p2align	1
	.type	usart_dma_receive_config,%function
	.code	16                              @ @usart_dma_receive_config
	.thumb_func
usart_dma_receive_config:
.Lfunc_begin58:
	.loc	5 1032 0                        @ ../std/GD32C2x1_Firmware_Library/GD32C2x1_standard_peripheral/Source/gd32c2x1_usart.c:1032:0
	.fnstart
	.cfi_startproc
@ %bb.0:
	.pad	#8
	sub	sp, #8
	.cfi_def_cfa_offset 8
	str	r0, [sp, #4]
	str	r1, [sp]
.Ltmp128:
	.loc	5 1033 5 prologue_end           @ ../std/GD32C2x1_Firmware_Library/GD32C2x1_standard_peripheral/Source/gd32c2x1_usart.c:1033:5
	ldr	r2, [sp, #4]
	.loc	5 1033 30 is_stmt 0             @ ../std/GD32C2x1_Firmware_Library/GD32C2x1_standard_peripheral/Source/gd32c2x1_usart.c:1033:30
	ldr	r1, [r2, #8]
	movs	r0, #64
	bics	r1, r0
	str	r1, [r2, #8]
	.loc	5 1035 33 is_stmt 1             @ ../std/GD32C2x1_Firmware_Library/GD32C2x1_standard_peripheral/Source/gd32c2x1_usart.c:1035:33
	ldr	r2, [sp]
	.loc	5 1035 40 is_stmt 0             @ ../std/GD32C2x1_Firmware_Library/GD32C2x1_standard_peripheral/Source/gd32c2x1_usart.c:1035:40
	ands	r2, r0
	.loc	5 1035 5                        @ ../std/GD32C2x1_Firmware_Library/GD32C2x1_standard_peripheral/Source/gd32c2x1_usart.c:1035:5
	ldr	r1, [sp, #4]
	.loc	5 1035 30                       @ ../std/GD32C2x1_Firmware_Library/GD32C2x1_standard_peripheral/Source/gd32c2x1_usart.c:1035:30
	ldr	r0, [r1, #8]
	orrs	r0, r2
	str	r0, [r1, #8]
	.loc	5 1036 1 is_stmt 1              @ ../std/GD32C2x1_Firmware_Library/GD32C2x1_standard_peripheral/Source/gd32c2x1_usart.c:1036:1
	add	sp, #8
	bx	lr
.Ltmp129:
.Lfunc_end58:
	.size	usart_dma_receive_config, .Lfunc_end58-usart_dma_receive_config
	.cfi_endproc
	.cantunwind
	.fnend
                                        @ -- End function
	.section	.text.usart_dma_transmit_config,"ax",%progbits
	.hidden	usart_dma_transmit_config       @ -- Begin function usart_dma_transmit_config
	.globl	usart_dma_transmit_config
	.p2align	1
	.type	usart_dma_transmit_config,%function
	.code	16                              @ @usart_dma_transmit_config
	.thumb_func
usart_dma_transmit_config:
.Lfunc_begin59:
	.loc	5 1049 0                        @ ../std/GD32C2x1_Firmware_Library/GD32C2x1_standard_peripheral/Source/gd32c2x1_usart.c:1049:0
	.fnstart
	.cfi_startproc
@ %bb.0:
	.pad	#8
	sub	sp, #8
	.cfi_def_cfa_offset 8
	str	r0, [sp, #4]
	str	r1, [sp]
.Ltmp130:
	.loc	5 1050 5 prologue_end           @ ../std/GD32C2x1_Firmware_Library/GD32C2x1_standard_peripheral/Source/gd32c2x1_usart.c:1050:5
	ldr	r2, [sp, #4]
	.loc	5 1050 30 is_stmt 0             @ ../std/GD32C2x1_Firmware_Library/GD32C2x1_standard_peripheral/Source/gd32c2x1_usart.c:1050:30
	ldr	r1, [r2, #8]
	movs	r0, #128
	bics	r1, r0
	str	r1, [r2, #8]
	.loc	5 1052 33 is_stmt 1             @ ../std/GD32C2x1_Firmware_Library/GD32C2x1_standard_peripheral/Source/gd32c2x1_usart.c:1052:33
	ldr	r2, [sp]
	.loc	5 1052 40 is_stmt 0             @ ../std/GD32C2x1_Firmware_Library/GD32C2x1_standard_peripheral/Source/gd32c2x1_usart.c:1052:40
	ands	r2, r0
	.loc	5 1052 5                        @ ../std/GD32C2x1_Firmware_Library/GD32C2x1_standard_peripheral/Source/gd32c2x1_usart.c:1052:5
	ldr	r1, [sp, #4]
	.loc	5 1052 30                       @ ../std/GD32C2x1_Firmware_Library/GD32C2x1_standard_peripheral/Source/gd32c2x1_usart.c:1052:30
	ldr	r0, [r1, #8]
	orrs	r0, r2
	str	r0, [r1, #8]
	.loc	5 1053 1 is_stmt 1              @ ../std/GD32C2x1_Firmware_Library/GD32C2x1_standard_peripheral/Source/gd32c2x1_usart.c:1053:1
	add	sp, #8
	bx	lr
.Ltmp131:
.Lfunc_end59:
	.size	usart_dma_transmit_config, .Lfunc_end59-usart_dma_transmit_config
	.cfi_endproc
	.cantunwind
	.fnend
                                        @ -- End function
	.section	.text.usart_reception_error_dma_disable,"ax",%progbits
	.hidden	usart_reception_error_dma_disable @ -- Begin function usart_reception_error_dma_disable
	.globl	usart_reception_error_dma_disable
	.p2align	1
	.type	usart_reception_error_dma_disable,%function
	.code	16                              @ @usart_reception_error_dma_disable
	.thumb_func
usart_reception_error_dma_disable:
.Lfunc_begin60:
	.loc	5 1062 0                        @ ../std/GD32C2x1_Firmware_Library/GD32C2x1_standard_peripheral/Source/gd32c2x1_usart.c:1062:0
	.fnstart
	.cfi_startproc
@ %bb.0:
	.pad	#4
	sub	sp, #4
	.cfi_def_cfa_offset 4
	str	r0, [sp]
.Ltmp132:
	.loc	5 1064 5 prologue_end           @ ../std/GD32C2x1_Firmware_Library/GD32C2x1_standard_peripheral/Source/gd32c2x1_usart.c:1064:5
	ldr	r1, [sp]
	.loc	5 1064 30 is_stmt 0             @ ../std/GD32C2x1_Firmware_Library/GD32C2x1_standard_peripheral/Source/gd32c2x1_usart.c:1064:30
	ldr	r0, [r1]
	movs	r2, #1
	bics	r0, r2
	str	r0, [r1]
	.loc	5 1065 5 is_stmt 1              @ ../std/GD32C2x1_Firmware_Library/GD32C2x1_standard_peripheral/Source/gd32c2x1_usart.c:1065:5
	ldr	r1, [sp]
	.loc	5 1065 30 is_stmt 0             @ ../std/GD32C2x1_Firmware_Library/GD32C2x1_standard_peripheral/Source/gd32c2x1_usart.c:1065:30
	ldr	r0, [r1, #8]
	movw	r2, #8192
	orrs	r0, r2
	str	r0, [r1, #8]
	.loc	5 1066 1 is_stmt 1              @ ../std/GD32C2x1_Firmware_Library/GD32C2x1_standard_peripheral/Source/gd32c2x1_usart.c:1066:1
	add	sp, #4
	bx	lr
.Ltmp133:
.Lfunc_end60:
	.size	usart_reception_error_dma_disable, .Lfunc_end60-usart_reception_error_dma_disable
	.cfi_endproc
	.cantunwind
	.fnend
                                        @ -- End function
	.section	.text.usart_reception_error_dma_enable,"ax",%progbits
	.hidden	usart_reception_error_dma_enable @ -- Begin function usart_reception_error_dma_enable
	.globl	usart_reception_error_dma_enable
	.p2align	1
	.type	usart_reception_error_dma_enable,%function
	.code	16                              @ @usart_reception_error_dma_enable
	.thumb_func
usart_reception_error_dma_enable:
.Lfunc_begin61:
	.loc	5 1075 0                        @ ../std/GD32C2x1_Firmware_Library/GD32C2x1_standard_peripheral/Source/gd32c2x1_usart.c:1075:0
	.fnstart
	.cfi_startproc
@ %bb.0:
	.pad	#4
	sub	sp, #4
	.cfi_def_cfa_offset 4
	str	r0, [sp]
.Ltmp134:
	.loc	5 1077 5 prologue_end           @ ../std/GD32C2x1_Firmware_Library/GD32C2x1_standard_peripheral/Source/gd32c2x1_usart.c:1077:5
	ldr	r1, [sp]
	.loc	5 1077 30 is_stmt 0             @ ../std/GD32C2x1_Firmware_Library/GD32C2x1_standard_peripheral/Source/gd32c2x1_usart.c:1077:30
	ldr	r0, [r1]
	movs	r2, #1
	bics	r0, r2
	str	r0, [r1]
	.loc	5 1078 5 is_stmt 1              @ ../std/GD32C2x1_Firmware_Library/GD32C2x1_standard_peripheral/Source/gd32c2x1_usart.c:1078:5
	ldr	r1, [sp]
	.loc	5 1078 30 is_stmt 0             @ ../std/GD32C2x1_Firmware_Library/GD32C2x1_standard_peripheral/Source/gd32c2x1_usart.c:1078:30
	ldr	r0, [r1, #8]
	movw	r2, #8192
	bics	r0, r2
	str	r0, [r1, #8]
	.loc	5 1079 1 is_stmt 1              @ ../std/GD32C2x1_Firmware_Library/GD32C2x1_standard_peripheral/Source/gd32c2x1_usart.c:1079:1
	add	sp, #4
	bx	lr
.Ltmp135:
.Lfunc_end61:
	.size	usart_reception_error_dma_enable, .Lfunc_end61-usart_reception_error_dma_enable
	.cfi_endproc
	.cantunwind
	.fnend
                                        @ -- End function
	.section	.text.usart_wakeup_enable,"ax",%progbits
	.hidden	usart_wakeup_enable             @ -- Begin function usart_wakeup_enable
	.globl	usart_wakeup_enable
	.p2align	1
	.type	usart_wakeup_enable,%function
	.code	16                              @ @usart_wakeup_enable
	.thumb_func
usart_wakeup_enable:
.Lfunc_begin62:
	.loc	5 1088 0                        @ ../std/GD32C2x1_Firmware_Library/GD32C2x1_standard_peripheral/Source/gd32c2x1_usart.c:1088:0
	.fnstart
	.cfi_startproc
@ %bb.0:
	.pad	#4
	sub	sp, #4
	.cfi_def_cfa_offset 4
	str	r0, [sp]
.Ltmp136:
	.loc	5 1089 5 prologue_end           @ ../std/GD32C2x1_Firmware_Library/GD32C2x1_standard_peripheral/Source/gd32c2x1_usart.c:1089:5
	ldr	r1, [sp]
	.loc	5 1089 30 is_stmt 0             @ ../std/GD32C2x1_Firmware_Library/GD32C2x1_standard_peripheral/Source/gd32c2x1_usart.c:1089:30
	ldr	r0, [r1]
	movs	r2, #2
	orrs	r0, r2
	str	r0, [r1]
	.loc	5 1090 1 is_stmt 1              @ ../std/GD32C2x1_Firmware_Library/GD32C2x1_standard_peripheral/Source/gd32c2x1_usart.c:1090:1
	add	sp, #4
	bx	lr
.Ltmp137:
.Lfunc_end62:
	.size	usart_wakeup_enable, .Lfunc_end62-usart_wakeup_enable
	.cfi_endproc
	.cantunwind
	.fnend
                                        @ -- End function
	.section	.text.usart_wakeup_disable,"ax",%progbits
	.hidden	usart_wakeup_disable            @ -- Begin function usart_wakeup_disable
	.globl	usart_wakeup_disable
	.p2align	1
	.type	usart_wakeup_disable,%function
	.code	16                              @ @usart_wakeup_disable
	.thumb_func
usart_wakeup_disable:
.Lfunc_begin63:
	.loc	5 1099 0                        @ ../std/GD32C2x1_Firmware_Library/GD32C2x1_standard_peripheral/Source/gd32c2x1_usart.c:1099:0
	.fnstart
	.cfi_startproc
@ %bb.0:
	.pad	#4
	sub	sp, #4
	.cfi_def_cfa_offset 4
	str	r0, [sp]
.Ltmp138:
	.loc	5 1100 5 prologue_end           @ ../std/GD32C2x1_Firmware_Library/GD32C2x1_standard_peripheral/Source/gd32c2x1_usart.c:1100:5
	ldr	r1, [sp]
	.loc	5 1100 30 is_stmt 0             @ ../std/GD32C2x1_Firmware_Library/GD32C2x1_standard_peripheral/Source/gd32c2x1_usart.c:1100:30
	ldr	r0, [r1]
	movs	r2, #2
	bics	r0, r2
	str	r0, [r1]
	.loc	5 1101 1 is_stmt 1              @ ../std/GD32C2x1_Firmware_Library/GD32C2x1_standard_peripheral/Source/gd32c2x1_usart.c:1101:1
	add	sp, #4
	bx	lr
.Ltmp139:
.Lfunc_end63:
	.size	usart_wakeup_disable, .Lfunc_end63-usart_wakeup_disable
	.cfi_endproc
	.cantunwind
	.fnend
                                        @ -- End function
	.section	.text.usart_wakeup_mode_config,"ax",%progbits
	.hidden	usart_wakeup_mode_config        @ -- Begin function usart_wakeup_mode_config
	.globl	usart_wakeup_mode_config
	.p2align	1
	.type	usart_wakeup_mode_config,%function
	.code	16                              @ @usart_wakeup_mode_config
	.thumb_func
usart_wakeup_mode_config:
.Lfunc_begin64:
	.loc	5 1115 0                        @ ../std/GD32C2x1_Firmware_Library/GD32C2x1_standard_peripheral/Source/gd32c2x1_usart.c:1115:0
	.fnstart
	.cfi_startproc
@ %bb.0:
	.pad	#8
	sub	sp, #8
	.cfi_def_cfa_offset 8
	str	r0, [sp, #4]
	str	r1, [sp]
.Ltmp140:
	.loc	5 1117 5 prologue_end           @ ../std/GD32C2x1_Firmware_Library/GD32C2x1_standard_peripheral/Source/gd32c2x1_usart.c:1117:5
	ldr	r1, [sp, #4]
	.loc	5 1117 30 is_stmt 0             @ ../std/GD32C2x1_Firmware_Library/GD32C2x1_standard_peripheral/Source/gd32c2x1_usart.c:1117:30
	ldr	r0, [r1]
	movs	r2, #1
	bics	r0, r2
	str	r0, [r1]
	.loc	5 1119 5 is_stmt 1              @ ../std/GD32C2x1_Firmware_Library/GD32C2x1_standard_peripheral/Source/gd32c2x1_usart.c:1119:5
	ldr	r2, [sp, #4]
	.loc	5 1119 30 is_stmt 0             @ ../std/GD32C2x1_Firmware_Library/GD32C2x1_standard_peripheral/Source/gd32c2x1_usart.c:1119:30
	ldr	r1, [r2, #8]
	movs	r0, #3
	lsls	r0, r0, #20
	bics	r1, r0
	str	r1, [r2, #8]
	.loc	5 1120 51 is_stmt 1             @ ../std/GD32C2x1_Firmware_Library/GD32C2x1_standard_peripheral/Source/gd32c2x1_usart.c:1120:51
	ldr	r2, [sp]
	.loc	5 1120 48 is_stmt 0             @ ../std/GD32C2x1_Firmware_Library/GD32C2x1_standard_peripheral/Source/gd32c2x1_usart.c:1120:48
	ands	r2, r0
	.loc	5 1120 5                        @ ../std/GD32C2x1_Firmware_Library/GD32C2x1_standard_peripheral/Source/gd32c2x1_usart.c:1120:5
	ldr	r1, [sp, #4]
	.loc	5 1120 30                       @ ../std/GD32C2x1_Firmware_Library/GD32C2x1_standard_peripheral/Source/gd32c2x1_usart.c:1120:30
	ldr	r0, [r1, #8]
	orrs	r0, r2
	str	r0, [r1, #8]
	.loc	5 1121 1 is_stmt 1              @ ../std/GD32C2x1_Firmware_Library/GD32C2x1_standard_peripheral/Source/gd32c2x1_usart.c:1121:1
	add	sp, #8
	bx	lr
.Ltmp141:
.Lfunc_end64:
	.size	usart_wakeup_mode_config, .Lfunc_end64-usart_wakeup_mode_config
	.cfi_endproc
	.cantunwind
	.fnend
                                        @ -- End function
	.section	.text.usart_receive_fifo_enable,"ax",%progbits
	.hidden	usart_receive_fifo_enable       @ -- Begin function usart_receive_fifo_enable
	.globl	usart_receive_fifo_enable
	.p2align	1
	.type	usart_receive_fifo_enable,%function
	.code	16                              @ @usart_receive_fifo_enable
	.thumb_func
usart_receive_fifo_enable:
.Lfunc_begin65:
	.loc	5 1130 0                        @ ../std/GD32C2x1_Firmware_Library/GD32C2x1_standard_peripheral/Source/gd32c2x1_usart.c:1130:0
	.fnstart
	.cfi_startproc
@ %bb.0:
	.pad	#4
	sub	sp, #4
	.cfi_def_cfa_offset 4
	str	r0, [sp]
.Ltmp142:
	.loc	5 1131 5 prologue_end           @ ../std/GD32C2x1_Firmware_Library/GD32C2x1_standard_peripheral/Source/gd32c2x1_usart.c:1131:5
	ldr	r1, [sp]
	movs	r2, #208
	.loc	5 1131 30 is_stmt 0             @ ../std/GD32C2x1_Firmware_Library/GD32C2x1_standard_peripheral/Source/gd32c2x1_usart.c:1131:30
	ldr	r0, [r1, r2]
	movw	r3, #256
	orrs	r0, r3
	str	r0, [r1, r2]
	.loc	5 1132 1 is_stmt 1              @ ../std/GD32C2x1_Firmware_Library/GD32C2x1_standard_peripheral/Source/gd32c2x1_usart.c:1132:1
	add	sp, #4
	bx	lr
.Ltmp143:
.Lfunc_end65:
	.size	usart_receive_fifo_enable, .Lfunc_end65-usart_receive_fifo_enable
	.cfi_endproc
	.cantunwind
	.fnend
                                        @ -- End function
	.section	.text.usart_receive_fifo_disable,"ax",%progbits
	.hidden	usart_receive_fifo_disable      @ -- Begin function usart_receive_fifo_disable
	.globl	usart_receive_fifo_disable
	.p2align	1
	.type	usart_receive_fifo_disable,%function
	.code	16                              @ @usart_receive_fifo_disable
	.thumb_func
usart_receive_fifo_disable:
.Lfunc_begin66:
	.loc	5 1141 0                        @ ../std/GD32C2x1_Firmware_Library/GD32C2x1_standard_peripheral/Source/gd32c2x1_usart.c:1141:0
	.fnstart
	.cfi_startproc
@ %bb.0:
	.pad	#4
	sub	sp, #4
	.cfi_def_cfa_offset 4
	str	r0, [sp]
.Ltmp144:
	.loc	5 1142 5 prologue_end           @ ../std/GD32C2x1_Firmware_Library/GD32C2x1_standard_peripheral/Source/gd32c2x1_usart.c:1142:5
	ldr	r1, [sp]
	movs	r2, #208
	.loc	5 1142 30 is_stmt 0             @ ../std/GD32C2x1_Firmware_Library/GD32C2x1_standard_peripheral/Source/gd32c2x1_usart.c:1142:30
	ldr	r0, [r1, r2]
	movw	r3, #256
	bics	r0, r3
	str	r0, [r1, r2]
	.loc	5 1143 1 is_stmt 1              @ ../std/GD32C2x1_Firmware_Library/GD32C2x1_standard_peripheral/Source/gd32c2x1_usart.c:1143:1
	add	sp, #4
	bx	lr
.Ltmp145:
.Lfunc_end66:
	.size	usart_receive_fifo_disable, .Lfunc_end66-usart_receive_fifo_disable
	.cfi_endproc
	.cantunwind
	.fnend
                                        @ -- End function
	.section	.text.usart_receive_fifo_counter_number,"ax",%progbits
	.hidden	usart_receive_fifo_counter_number @ -- Begin function usart_receive_fifo_counter_number
	.globl	usart_receive_fifo_counter_number
	.p2align	1
	.type	usart_receive_fifo_counter_number,%function
	.code	16                              @ @usart_receive_fifo_counter_number
	.thumb_func
usart_receive_fifo_counter_number:
.Lfunc_begin67:
	.loc	5 1152 0                        @ ../std/GD32C2x1_Firmware_Library/GD32C2x1_standard_peripheral/Source/gd32c2x1_usart.c:1152:0
	.fnstart
	.cfi_startproc
@ %bb.0:
	.pad	#8
	sub	sp, #8
	.cfi_def_cfa_offset 8
	str	r0, [sp, #4]
	mov	r0, sp
	movs	r1, #0
.Ltmp146:
	.loc	5 1153 13 prologue_end          @ ../std/GD32C2x1_Firmware_Library/GD32C2x1_standard_peripheral/Source/gd32c2x1_usart.c:1153:13
	strb	r1, [r0]
	.loc	5 1155 24                       @ ../std/GD32C2x1_Firmware_Library/GD32C2x1_standard_peripheral/Source/gd32c2x1_usart.c:1155:24
	ldr	r1, [sp, #4]
	movs	r2, #208
	ldr	r1, [r1, r2]
	movw	r2, #28672
	ands	r1, r2
	lsrs	r1, r1, #12
	.loc	5 1155 12 is_stmt 0             @ ../std/GD32C2x1_Firmware_Library/GD32C2x1_standard_peripheral/Source/gd32c2x1_usart.c:1155:12
	strb	r1, [r0]
	.loc	5 1156 12 is_stmt 1             @ ../std/GD32C2x1_Firmware_Library/GD32C2x1_standard_peripheral/Source/gd32c2x1_usart.c:1156:12
	ldrb	r0, [r0]
	.loc	5 1156 5 is_stmt 0              @ ../std/GD32C2x1_Firmware_Library/GD32C2x1_standard_peripheral/Source/gd32c2x1_usart.c:1156:5
	add	sp, #8
	bx	lr
.Ltmp147:
.Lfunc_end67:
	.size	usart_receive_fifo_counter_number, .Lfunc_end67-usart_receive_fifo_counter_number
	.cfi_endproc
	.cantunwind
	.fnend
                                        @ -- End function
	.section	.text.usart_flag_get,"ax",%progbits
	.hidden	usart_flag_get                  @ -- Begin function usart_flag_get
	.globl	usart_flag_get
	.p2align	1
	.type	usart_flag_get,%function
	.code	16                              @ @usart_flag_get
	.thumb_func
usart_flag_get:
.Lfunc_begin68:
	.loc	5 1194 0 is_stmt 1              @ ../std/GD32C2x1_Firmware_Library/GD32C2x1_standard_peripheral/Source/gd32c2x1_usart.c:1194:0
	.fnstart
	.cfi_startproc
@ %bb.0:
	.pad	#16
	sub	sp, #16
	.cfi_def_cfa_offset 16
	str	r1, [sp]                        @ 4-byte Spill
	mov	r1, r0
	ldr	r0, [sp]                        @ 4-byte Reload
                                        @ kill: def $r2 killed $r0
	str	r1, [sp, #12]
	add	r1, sp, #8
	strh	r0, [r1]
	add	r2, sp, #4
	movs	r0, #0
.Ltmp148:
	.loc	5 1195 16 prologue_end          @ ../std/GD32C2x1_Firmware_Library/GD32C2x1_standard_peripheral/Source/gd32c2x1_usart.c:1195:16
	strb	r0, [r2]
.Ltmp149:
	.loc	5 1197 15                       @ ../std/GD32C2x1_Firmware_Library/GD32C2x1_standard_peripheral/Source/gd32c2x1_usart.c:1197:15
	ldr	r0, [sp, #12]
	ldrh	r2, [r1]
	lsrs	r2, r2, #6
	ldr	r0, [r0, r2]
	.loc	5 1197 51 is_stmt 0             @ ../std/GD32C2x1_Firmware_Library/GD32C2x1_standard_peripheral/Source/gd32c2x1_usart.c:1197:51
	ldrh	r1, [r1]
	movs	r2, #31
	ands	r1, r2
.Ltmp150:
	.loc	5 1197 8                        @ ../std/GD32C2x1_Firmware_Library/GD32C2x1_standard_peripheral/Source/gd32c2x1_usart.c:1197:8
	lsrs	r0, r1
	lsls	r0, r0, #31
	cbz	r0, .LBB68_2
	b	.LBB68_1
.LBB68_1:
	.loc	5 0 8                           @ ../std/GD32C2x1_Firmware_Library/GD32C2x1_standard_peripheral/Source/gd32c2x1_usart.c:0:8
	add	r1, sp, #4
	movs	r0, #1
.Ltmp151:
	.loc	5 1198 16 is_stmt 1             @ ../std/GD32C2x1_Firmware_Library/GD32C2x1_standard_peripheral/Source/gd32c2x1_usart.c:1198:16
	strb	r0, [r1]
	.loc	5 1199 5                        @ ../std/GD32C2x1_Firmware_Library/GD32C2x1_standard_peripheral/Source/gd32c2x1_usart.c:1199:5
	b	.LBB68_3
.Ltmp152:
.LBB68_2:
	.loc	5 0 5 is_stmt 0                 @ ../std/GD32C2x1_Firmware_Library/GD32C2x1_standard_peripheral/Source/gd32c2x1_usart.c:0:5
	add	r1, sp, #4
	movs	r0, #0
.Ltmp153:
	.loc	5 1200 16 is_stmt 1             @ ../std/GD32C2x1_Firmware_Library/GD32C2x1_standard_peripheral/Source/gd32c2x1_usart.c:1200:16
	strb	r0, [r1]
	b	.LBB68_3
.Ltmp154:
.LBB68_3:
	.loc	5 0 16 is_stmt 0                @ ../std/GD32C2x1_Firmware_Library/GD32C2x1_standard_peripheral/Source/gd32c2x1_usart.c:0:16
	add	r0, sp, #4
	.loc	5 1202 12 is_stmt 1             @ ../std/GD32C2x1_Firmware_Library/GD32C2x1_standard_peripheral/Source/gd32c2x1_usart.c:1202:12
	ldrb	r0, [r0]
	.loc	5 1202 5 is_stmt 0              @ ../std/GD32C2x1_Firmware_Library/GD32C2x1_standard_peripheral/Source/gd32c2x1_usart.c:1202:5
	add	sp, #16
	bx	lr
.Ltmp155:
.Lfunc_end68:
	.size	usart_flag_get, .Lfunc_end68-usart_flag_get
	.cfi_endproc
	.cantunwind
	.fnend
                                        @ -- End function
	.section	.text.usart_flag_clear,"ax",%progbits
	.hidden	usart_flag_clear                @ -- Begin function usart_flag_clear
	.globl	usart_flag_clear
	.p2align	1
	.type	usart_flag_clear,%function
	.code	16                              @ @usart_flag_clear
	.thumb_func
usart_flag_clear:
.Lfunc_begin69:
	.loc	5 1227 0 is_stmt 1              @ ../std/GD32C2x1_Firmware_Library/GD32C2x1_standard_peripheral/Source/gd32c2x1_usart.c:1227:0
	.fnstart
	.cfi_startproc
@ %bb.0:
	.pad	#8
	sub	sp, #8
	.cfi_def_cfa_offset 8
                                        @ kill: def $r2 killed $r1
	str	r0, [sp, #4]
	mov	r0, sp
	strh	r1, [r0]
.Ltmp156:
	.loc	5 1228 33 prologue_end          @ ../std/GD32C2x1_Firmware_Library/GD32C2x1_standard_peripheral/Source/gd32c2x1_usart.c:1228:33
	ldrh	r0, [r0]
	movs	r1, #31
	ands	r0, r1
	movs	r2, #1
	lsls	r2, r0
	.loc	5 1228 5 is_stmt 0              @ ../std/GD32C2x1_Firmware_Library/GD32C2x1_standard_peripheral/Source/gd32c2x1_usart.c:1228:5
	ldr	r1, [sp, #4]
	.loc	5 1228 30                       @ ../std/GD32C2x1_Firmware_Library/GD32C2x1_standard_peripheral/Source/gd32c2x1_usart.c:1228:30
	ldr	r0, [r1, #32]
	orrs	r0, r2
	str	r0, [r1, #32]
	.loc	5 1229 1 is_stmt 1              @ ../std/GD32C2x1_Firmware_Library/GD32C2x1_standard_peripheral/Source/gd32c2x1_usart.c:1229:1
	add	sp, #8
	bx	lr
.Ltmp157:
.Lfunc_end69:
	.size	usart_flag_clear, .Lfunc_end69-usart_flag_clear
	.cfi_endproc
	.cantunwind
	.fnend
                                        @ -- End function
	.section	.text.usart_interrupt_enable,"ax",%progbits
	.hidden	usart_interrupt_enable          @ -- Begin function usart_interrupt_enable
	.globl	usart_interrupt_enable
	.p2align	1
	.type	usart_interrupt_enable,%function
	.code	16                              @ @usart_interrupt_enable
	.thumb_func
usart_interrupt_enable:
.Lfunc_begin70:
	.loc	5 1253 0                        @ ../std/GD32C2x1_Firmware_Library/GD32C2x1_standard_peripheral/Source/gd32c2x1_usart.c:1253:0
	.fnstart
	.cfi_startproc
@ %bb.0:
	.pad	#8
	sub	sp, #8
	.cfi_def_cfa_offset 8
                                        @ kill: def $r2 killed $r1
	str	r0, [sp, #4]
	mov	r0, sp
	strh	r1, [r0]
.Ltmp158:
	.loc	5 1254 47 prologue_end          @ ../std/GD32C2x1_Firmware_Library/GD32C2x1_standard_peripheral/Source/gd32c2x1_usart.c:1254:47
	ldrh	r0, [r0]
	movs	r2, #31
	mov	r1, r0
	ands	r1, r2
	movs	r3, #1
	lsls	r3, r1
	.loc	5 1254 5 is_stmt 0              @ ../std/GD32C2x1_Firmware_Library/GD32C2x1_standard_peripheral/Source/gd32c2x1_usart.c:1254:5
	ldr	r1, [sp, #4]
	lsrs	r2, r0, #6
	.loc	5 1254 44                       @ ../std/GD32C2x1_Firmware_Library/GD32C2x1_standard_peripheral/Source/gd32c2x1_usart.c:1254:44
	ldr	r0, [r1, r2]
	orrs	r0, r3
	str	r0, [r1, r2]
	.loc	5 1255 1 is_stmt 1              @ ../std/GD32C2x1_Firmware_Library/GD32C2x1_standard_peripheral/Source/gd32c2x1_usart.c:1255:1
	add	sp, #8
	bx	lr
.Ltmp159:
.Lfunc_end70:
	.size	usart_interrupt_enable, .Lfunc_end70-usart_interrupt_enable
	.cfi_endproc
	.cantunwind
	.fnend
                                        @ -- End function
	.section	.text.usart_interrupt_disable,"ax",%progbits
	.hidden	usart_interrupt_disable         @ -- Begin function usart_interrupt_disable
	.globl	usart_interrupt_disable
	.p2align	1
	.type	usart_interrupt_disable,%function
	.code	16                              @ @usart_interrupt_disable
	.thumb_func
usart_interrupt_disable:
.Lfunc_begin71:
	.loc	5 1279 0                        @ ../std/GD32C2x1_Firmware_Library/GD32C2x1_standard_peripheral/Source/gd32c2x1_usart.c:1279:0
	.fnstart
	.cfi_startproc
@ %bb.0:
	.pad	#8
	sub	sp, #8
	.cfi_def_cfa_offset 8
                                        @ kill: def $r2 killed $r1
	str	r0, [sp, #4]
	mov	r0, sp
	strh	r1, [r0]
.Ltmp160:
	.loc	5 1280 48 prologue_end          @ ../std/GD32C2x1_Firmware_Library/GD32C2x1_standard_peripheral/Source/gd32c2x1_usart.c:1280:48
	ldrh	r0, [r0]
	movs	r2, #31
	mov	r1, r0
	ands	r1, r2
	movs	r3, #1
	lsls	r3, r1
	.loc	5 1280 5 is_stmt 0              @ ../std/GD32C2x1_Firmware_Library/GD32C2x1_standard_peripheral/Source/gd32c2x1_usart.c:1280:5
	ldr	r1, [sp, #4]
	lsrs	r2, r0, #6
	.loc	5 1280 44                       @ ../std/GD32C2x1_Firmware_Library/GD32C2x1_standard_peripheral/Source/gd32c2x1_usart.c:1280:44
	ldr	r0, [r1, r2]
	bics	r0, r3
	str	r0, [r1, r2]
	.loc	5 1281 1 is_stmt 1              @ ../std/GD32C2x1_Firmware_Library/GD32C2x1_standard_peripheral/Source/gd32c2x1_usart.c:1281:1
	add	sp, #8
	bx	lr
.Ltmp161:
.Lfunc_end71:
	.size	usart_interrupt_disable, .Lfunc_end71-usart_interrupt_disable
	.cfi_endproc
	.cantunwind
	.fnend
                                        @ -- End function
	.section	.text.usart_interrupt_flag_get,"ax",%progbits
	.hidden	usart_interrupt_flag_get        @ -- Begin function usart_interrupt_flag_get
	.globl	usart_interrupt_flag_get
	.p2align	1
	.type	usart_interrupt_flag_get,%function
	.code	16                              @ @usart_interrupt_flag_get
	.thumb_func
usart_interrupt_flag_get:
.Lfunc_begin72:
	.loc	5 1308 0                        @ ../std/GD32C2x1_Firmware_Library/GD32C2x1_standard_peripheral/Source/gd32c2x1_usart.c:1308:0
	.fnstart
	.cfi_startproc
@ %bb.0:
	.save	{r4, lr}
	push	{r4, lr}
	.cfi_def_cfa_offset 8
	.cfi_offset lr, -4
	.cfi_offset r4, -8
	.pad	#20
	sub	sp, #20
	.cfi_def_cfa_offset 28
	str	r0, [sp, #16]
	str	r1, [sp, #12]
	mov	r1, sp
	movs	r0, #0
.Ltmp162:
	.loc	5 1310 16 prologue_end          @ ../std/GD32C2x1_Firmware_Library/GD32C2x1_standard_peripheral/Source/gd32c2x1_usart.c:1310:16
	strb	r0, [r1]
	.loc	5 1313 18                       @ ../std/GD32C2x1_Firmware_Library/GD32C2x1_standard_peripheral/Source/gd32c2x1_usart.c:1313:18
	ldr	r0, [sp, #16]
	add	r1, sp, #12
	ldrh	r1, [r1]
	lsrs	r1, r1, #6
	ldr	r0, [r0, r1]
	.loc	5 1313 58 is_stmt 0             @ ../std/GD32C2x1_Firmware_Library/GD32C2x1_standard_peripheral/Source/gd32c2x1_usart.c:1313:58
	ldr	r4, [sp, #12]
	movs	r3, #31
	ands	r4, r3
	movs	r1, #1
	mov	r2, r1
	lsls	r2, r4
	.loc	5 1313 56                       @ ../std/GD32C2x1_Firmware_Library/GD32C2x1_standard_peripheral/Source/gd32c2x1_usart.c:1313:56
	ands	r0, r2
	.loc	5 1313 15                       @ ../std/GD32C2x1_Firmware_Library/GD32C2x1_standard_peripheral/Source/gd32c2x1_usart.c:1313:15
	str	r0, [sp, #8]
	.loc	5 1315 19 is_stmt 1             @ ../std/GD32C2x1_Firmware_Library/GD32C2x1_standard_peripheral/Source/gd32c2x1_usart.c:1315:19
	ldr	r0, [sp, #16]
	ldr	r2, [sp, #12]
	lsrs	r2, r2, #22
	ldr	r0, [r0, r2]
	.loc	5 1315 60 is_stmt 0             @ ../std/GD32C2x1_Firmware_Library/GD32C2x1_standard_peripheral/Source/gd32c2x1_usart.c:1315:60
	ldr	r2, [sp, #12]
	lsls	r3, r3, #16
	ands	r2, r3
	lsrs	r2, r2, #16
	lsls	r1, r2
	.loc	5 1315 58                       @ ../std/GD32C2x1_Firmware_Library/GD32C2x1_standard_peripheral/Source/gd32c2x1_usart.c:1315:58
	ands	r0, r1
	.loc	5 1315 16                       @ ../std/GD32C2x1_Firmware_Library/GD32C2x1_standard_peripheral/Source/gd32c2x1_usart.c:1315:16
	str	r0, [sp, #4]
.Ltmp163:
	.loc	5 1317 15 is_stmt 1             @ ../std/GD32C2x1_Firmware_Library/GD32C2x1_standard_peripheral/Source/gd32c2x1_usart.c:1317:15
	ldr	r0, [sp, #4]
	.loc	5 1317 27 is_stmt 0             @ ../std/GD32C2x1_Firmware_Library/GD32C2x1_standard_peripheral/Source/gd32c2x1_usart.c:1317:27
	cbz	r0, .LBB72_3
	b	.LBB72_1
.LBB72_1:
	.loc	5 1317 37                       @ ../std/GD32C2x1_Firmware_Library/GD32C2x1_standard_peripheral/Source/gd32c2x1_usart.c:1317:37
	ldr	r0, [sp, #8]
.Ltmp164:
	.loc	5 1317 8                        @ ../std/GD32C2x1_Firmware_Library/GD32C2x1_standard_peripheral/Source/gd32c2x1_usart.c:1317:8
	cbz	r0, .LBB72_3
	b	.LBB72_2
.LBB72_2:
	.loc	5 0 8                           @ ../std/GD32C2x1_Firmware_Library/GD32C2x1_standard_peripheral/Source/gd32c2x1_usart.c:0:8
	mov	r1, sp
	movs	r0, #1
.Ltmp165:
	.loc	5 1318 16 is_stmt 1             @ ../std/GD32C2x1_Firmware_Library/GD32C2x1_standard_peripheral/Source/gd32c2x1_usart.c:1318:16
	strb	r0, [r1]
	.loc	5 1319 5                        @ ../std/GD32C2x1_Firmware_Library/GD32C2x1_standard_peripheral/Source/gd32c2x1_usart.c:1319:5
	b	.LBB72_4
.Ltmp166:
.LBB72_3:
	.loc	5 0 5 is_stmt 0                 @ ../std/GD32C2x1_Firmware_Library/GD32C2x1_standard_peripheral/Source/gd32c2x1_usart.c:0:5
	mov	r1, sp
	movs	r0, #0
.Ltmp167:
	.loc	5 1320 16 is_stmt 1             @ ../std/GD32C2x1_Firmware_Library/GD32C2x1_standard_peripheral/Source/gd32c2x1_usart.c:1320:16
	strb	r0, [r1]
	b	.LBB72_4
.Ltmp168:
.LBB72_4:
	.loc	5 0 16 is_stmt 0                @ ../std/GD32C2x1_Firmware_Library/GD32C2x1_standard_peripheral/Source/gd32c2x1_usart.c:0:16
	mov	r0, sp
	.loc	5 1322 12 is_stmt 1             @ ../std/GD32C2x1_Firmware_Library/GD32C2x1_standard_peripheral/Source/gd32c2x1_usart.c:1322:12
	ldrb	r0, [r0]
	.loc	5 1322 5 is_stmt 0              @ ../std/GD32C2x1_Firmware_Library/GD32C2x1_standard_peripheral/Source/gd32c2x1_usart.c:1322:5
	add	sp, #20
	pop	{r4, pc}
.Ltmp169:
.Lfunc_end72:
	.size	usart_interrupt_flag_get, .Lfunc_end72-usart_interrupt_flag_get
	.cfi_endproc
	.cantunwind
	.fnend
                                        @ -- End function
	.section	.text.usart_interrupt_flag_clear,"ax",%progbits
	.hidden	usart_interrupt_flag_clear      @ -- Begin function usart_interrupt_flag_clear
	.globl	usart_interrupt_flag_clear
	.p2align	2
	.type	usart_interrupt_flag_clear,%function
	.code	16                              @ @usart_interrupt_flag_clear
	.thumb_func
usart_interrupt_flag_clear:
.Lfunc_begin73:
	.loc	5 1348 0 is_stmt 1              @ ../std/GD32C2x1_Firmware_Library/GD32C2x1_standard_peripheral/Source/gd32c2x1_usart.c:1348:0
	.fnstart
	.cfi_startproc
@ %bb.0:
	.pad	#8
	sub	sp, #8
	.cfi_def_cfa_offset 8
	str	r0, [sp, #4]
	str	r1, [sp]
.Ltmp170:
	.loc	5 1349 30 prologue_end          @ ../std/GD32C2x1_Firmware_Library/GD32C2x1_standard_peripheral/Source/gd32c2x1_usart.c:1349:30
	ldr	r0, [sp]
	ldr	r1, __arm_cp.73_0
.Ltmp171:
	.loc	5 1349 8 is_stmt 0              @ ../std/GD32C2x1_Firmware_Library/GD32C2x1_standard_peripheral/Source/gd32c2x1_usart.c:1349:8
	cmp	r0, r1
	bne	.LBB73_2
	b	.LBB73_1
.LBB73_1:
.Ltmp172:
	.loc	5 1350 9 is_stmt 1              @ ../std/GD32C2x1_Firmware_Library/GD32C2x1_standard_peripheral/Source/gd32c2x1_usart.c:1350:9
	ldr	r1, [sp, #4]
	movs	r2, #208
	.loc	5 1350 34 is_stmt 0             @ ../std/GD32C2x1_Firmware_Library/GD32C2x1_standard_peripheral/Source/gd32c2x1_usart.c:1350:34
	ldr	r0, [r1, r2]
	movw	r3, #32768
	bics	r0, r3
	str	r0, [r1, r2]
	.loc	5 1351 5 is_stmt 1              @ ../std/GD32C2x1_Firmware_Library/GD32C2x1_standard_peripheral/Source/gd32c2x1_usart.c:1351:5
	b	.LBB73_3
.Ltmp173:
.LBB73_2:
	.loc	5 1352 37                       @ ../std/GD32C2x1_Firmware_Library/GD32C2x1_standard_peripheral/Source/gd32c2x1_usart.c:1352:37
	ldr	r0, [sp]
	movs	r1, #31
	lsls	r1, r1, #16
	ands	r0, r1
	lsrs	r0, r0, #16
	movs	r2, #1
	lsls	r2, r0
	.loc	5 1352 9 is_stmt 0              @ ../std/GD32C2x1_Firmware_Library/GD32C2x1_standard_peripheral/Source/gd32c2x1_usart.c:1352:9
	ldr	r1, [sp, #4]
	.loc	5 1352 34                       @ ../std/GD32C2x1_Firmware_Library/GD32C2x1_standard_peripheral/Source/gd32c2x1_usart.c:1352:34
	ldr	r0, [r1, #32]
	orrs	r0, r2
	str	r0, [r1, #32]
	b	.LBB73_3
.Ltmp174:
.LBB73_3:
	.loc	5 1354 1 is_stmt 1              @ ../std/GD32C2x1_Firmware_Library/GD32C2x1_standard_peripheral/Source/gd32c2x1_usart.c:1354:1
	add	sp, #8
	bx	lr
.Ltmp175:
	.p2align	2
@ %bb.4:
	.loc	5 0 1 is_stmt 0                 @ ../std/GD32C2x1_Firmware_Library/GD32C2x1_standard_peripheral/Source/gd32c2x1_usart.c:0:1
__arm_cp.73_0:
	.long	873411593                       @ 0x340f3409
.Lcpi_end12:
	.size	__arm_cp.73_0, .Lcpi_end12-__arm_cp.73_0
.Lfunc_end73:
	.size	usart_interrupt_flag_clear, .Lfunc_end73-usart_interrupt_flag_clear
	.cfi_endproc
	.cantunwind
	.fnend
                                        @ -- End function
	.section	".note.GNU-stack","",%progbits
	.eabi_attribute	30, 6	@ Tag_ABI_optimization_goals
	.ARM_attribute	16, 1	@ Tag_AV_eba