	.text
	.syntax unified
	.eabi_attribute	67, "2.09"	@ Tag_conformance
	.cpu	cortex-m23
	.eabi_attribute	6, 16	@ Tag_CPU_arch
	.eabi_attribute	7, 77	@ Tag_CPU_arch_profile
	.eabi_attribute	8, 0	@ Tag_ARM_ISA_use
	.eabi_attribute	9, 3	@ Tag_THUMB_ISA_use
	.eabi_attribute	34, 0	@ Tag_CPU_unaligned_access
	.eabi_attribute	17, 1	@ Tag_ABI_PCS_GOT_use
	.eabi_attribute	20, 2	@ Tag_ABI_FP_denormal
	.eabi_attribute	21, 0	@ Tag_ABI_FP_exceptions
	.eabi_attribute	23, 1	@ Tag_ABI_FP_number_model
	.eabi_attribute	24, 1	@ Tag_ABI_align_needed
	.eabi_attribute	25, 1	@ Tag_ABI_align_preserved
	.eabi_attribute	38, 1	@ Tag_ABI_FP_16bit_format
	.eabi_attribute	18, 2	@ Tag_ABI_PCS_wchar_t
	.eabi_attribute	26, 1	@ Tag_ABI_enum_size
	.eabi_attribute	14, 0	@ Tag_ABI_PCS_R9_use
	.file	"gd32c2x1_timer.c"
	.file	1 "E:\\work\\CX_NFC_RX\\prj" "../std/GD32C2x1_Firmware_Library/GD32C2x1_standard_peripheral/Include\\gd32c2x1_rcu.h"
	.file	2 "E:\\work\\CX_NFC_RX\\prj" "../std/GD32C2x1_Firmware_Library/CMSIS/GD/GD32C2x1/Include/gd32c2x1.h"
	.file	3 "D:\\Keil_v5\\ARM\\ARMCLANG\\Bin\\..\\include" "stdint.h"
	.section	.text.timer_deinit,"ax",%progbits
	.hidden	timer_deinit                    @ -- Begin function timer_deinit
	.globl	timer_deinit
	.p2align	2
	.type	timer_deinit,%function
	.code	16                              @ @timer_deinit
	.thumb_func
timer_deinit:
.Lfunc_begin0:
	.file	4 "E:\\work\\CX_NFC_RX\\prj" "../std/GD32C2x1_Firmware_Library/GD32C2x1_standard_peripheral/Source/gd32c2x1_timer.c"
	.loc	4 51 0                          @ ../std/GD32C2x1_Firmware_Library/GD32C2x1_standard_peripheral/Source/gd32c2x1_timer.c:51:0
	.fnstart
	.cfi_sections .debug_frame
	.cfi_startproc
@ %bb.0:
	.save	{r7, lr}
	push	{r7, lr}
	.cfi_def_cfa_offset 8
	.cfi_offset lr, -4
	.cfi_offset r7, -8
	.pad	#32
	sub	sp, #32
	.cfi_def_cfa_offset 40
	str	r0, [sp, #28]
.Ltmp0:
	.loc	4 52 12 prologue_end            @ ../std/GD32C2x1_Firmware_Library/GD32C2x1_standard_peripheral/Source/gd32c2x1_timer.c:52:12
	ldr	r0, [sp, #28]
	str	r0, [sp, #24]                   @ 4-byte Spill
	ldr	r1, __arm_cp.0_0
	.loc	4 52 5 is_stmt 0                @ ../std/GD32C2x1_Firmware_Library/GD32C2x1_standard_peripheral/Source/gd32c2x1_timer.c:52:5
	cmp	r0, r1
	beq	.LBB0_6
	b	.LBB0_1
.LBB0_1:
	.loc	4 0 5                           @ ../std/GD32C2x1_Firmware_Library/GD32C2x1_standard_peripheral/Source/gd32c2x1_timer.c:0:5
	ldr	r0, [sp, #24]                   @ 4-byte Reload
	ldr	r1, __arm_cp.0_1
	.loc	4 52 5                          @ ../std/GD32C2x1_Firmware_Library/GD32C2x1_standard_peripheral/Source/gd32c2x1_timer.c:52:5
	cmp	r0, r1
	beq	.LBB0_7
	b	.LBB0_2
.LBB0_2:
	.loc	4 0 5                           @ ../std/GD32C2x1_Firmware_Library/GD32C2x1_standard_peripheral/Source/gd32c2x1_timer.c:0:5
	ldr	r0, [sp, #24]                   @ 4-byte Reload
	ldr	r1, __arm_cp.0_2
	.loc	4 52 5                          @ ../std/GD32C2x1_Firmware_Library/GD32C2x1_standard_peripheral/Source/gd32c2x1_timer.c:52:5
	cmp	r0, r1
	beq	.LBB0_5
	b	.LBB0_3
.LBB0_3:
	.loc	4 0 5                           @ ../std/GD32C2x1_Firmware_Library/GD32C2x1_standard_peripheral/Source/gd32c2x1_timer.c:0:5
	ldr	r0, [sp, #24]                   @ 4-byte Reload
	ldr	r1, __arm_cp.0_3
	.loc	4 52 5                          @ ../std/GD32C2x1_Firmware_Library/GD32C2x1_standard_peripheral/Source/gd32c2x1_timer.c:52:5
	cmp	r0, r1
	beq	.LBB0_8
	b	.LBB0_4
.LBB0_4:
	.loc	4 0 5                           @ ../std/GD32C2x1_Firmware_Library/GD32C2x1_standard_peripheral/Source/gd32c2x1_timer.c:0:5
	ldr	r0, [sp, #24]                   @ 4-byte Reload
	ldr	r1, __arm_cp.0_4
	.loc	4 52 5                          @ ../std/GD32C2x1_Firmware_Library/GD32C2x1_standard_peripheral/Source/gd32c2x1_timer.c:52:5
	cmp	r0, r1
	beq	.LBB0_9
	b	.LBB0_10
.LBB0_5:
	.loc	4 0 5                           @ ../std/GD32C2x1_Firmware_Library/GD32C2x1_standard_peripheral/Source/gd32c2x1_timer.c:0:5
	ldr	r0, __arm_cp.0_8
.Ltmp1:
	.loc	4 55 9 is_stmt 1                @ ../std/GD32C2x1_Firmware_Library/GD32C2x1_standard_peripheral/Source/gd32c2x1_timer.c:55:9
	str	r0, [sp, #20]                   @ 4-byte Spill
	bl	rcu_periph_reset_enable
	ldr	r0, [sp, #20]                   @ 4-byte Reload
	.loc	4 56 9                          @ ../std/GD32C2x1_Firmware_Library/GD32C2x1_standard_peripheral/Source/gd32c2x1_timer.c:56:9
	bl	rcu_periph_reset_disable
	.loc	4 57 9                          @ ../std/GD32C2x1_Firmware_Library/GD32C2x1_standard_peripheral/Source/gd32c2x1_timer.c:57:9
	b	.LBB0_11
.LBB0_6:
	.loc	4 0 9 is_stmt 0                 @ ../std/GD32C2x1_Firmware_Library/GD32C2x1_standard_peripheral/Source/gd32c2x1_timer.c:0:9
	ldr	r0, __arm_cp.0_7
	.loc	4 60 9 is_stmt 1                @ ../std/GD32C2x1_Firmware_Library/GD32C2x1_standard_peripheral/Source/gd32c2x1_timer.c:60:9
	str	r0, [sp, #16]                   @ 4-byte Spill
	bl	rcu_periph_reset_enable
	ldr	r0, [sp, #16]                   @ 4-byte Reload
	.loc	4 61 9                          @ ../std/GD32C2x1_Firmware_Library/GD32C2x1_standard_peripheral/Source/gd32c2x1_timer.c:61:9
	bl	rcu_periph_reset_disable
	.loc	4 62 9                          @ ../std/GD32C2x1_Firmware_Library/GD32C2x1_standard_peripheral/Source/gd32c2x1_timer.c:62:9
	b	.LBB0_11
.LBB0_7:
	.loc	4 0 9 is_stmt 0                 @ ../std/GD32C2x1_Firmware_Library/GD32C2x1_standard_peripheral/Source/gd32c2x1_timer.c:0:9
	movw	r0, #2320
	.loc	4 65 9 is_stmt 1                @ ../std/GD32C2x1_Firmware_Library/GD32C2x1_standard_peripheral/Source/gd32c2x1_timer.c:65:9
	str	r0, [sp, #12]                   @ 4-byte Spill
	bl	rcu_periph_reset_enable
	ldr	r0, [sp, #12]                   @ 4-byte Reload
	.loc	4 66 9                          @ ../std/GD32C2x1_Firmware_Library/GD32C2x1_standard_peripheral/Source/gd32c2x1_timer.c:66:9
	bl	rcu_periph_reset_disable
	.loc	4 67 9                          @ ../std/GD32C2x1_Firmware_Library/GD32C2x1_standard_peripheral/Source/gd32c2x1_timer.c:67:9
	b	.LBB0_11
.LBB0_8:
	.loc	4 0 9 is_stmt 0                 @ ../std/GD32C2x1_Firmware_Library/GD32C2x1_standard_peripheral/Source/gd32c2x1_timer.c:0:9
	ldr	r0, __arm_cp.0_6
	.loc	4 70 9 is_stmt 1                @ ../std/GD32C2x1_Firmware_Library/GD32C2x1_standard_peripheral/Source/gd32c2x1_timer.c:70:9
	str	r0, [sp, #8]                    @ 4-byte Spill
	bl	rcu_periph_reset_enable
	ldr	r0, [sp, #8]                    @ 4-byte Reload
	.loc	4 71 9                          @ ../std/GD32C2x1_Firmware_Library/GD32C2x1_standard_peripheral/Source/gd32c2x1_timer.c:71:9
	bl	rcu_periph_reset_disable
	.loc	4 72 9                          @ ../std/GD32C2x1_Firmware_Library/GD32C2x1_standard_peripheral/Source/gd32c2x1_timer.c:72:9
	b	.LBB0_11
.LBB0_9:
	.loc	4 0 9 is_stmt 0                 @ ../std/GD32C2x1_Firmware_Library/GD32C2x1_standard_peripheral/Source/gd32c2x1_timer.c:0:9
	ldr	r0, __arm_cp.0_5
	.loc	4 75 9 is_stmt 1                @ ../std/GD32C2x1_Firmware_Library/GD32C2x1_standard_peripheral/Source/gd32c2x1_timer.c:75:9
	str	r0, [sp, #4]                    @ 4-byte Spill
	bl	rcu_periph_reset_enable
	ldr	r0, [sp, #4]                    @ 4-byte Reload
	.loc	4 76 9                          @ ../std/GD32C2x1_Firmware_Library/GD32C2x1_standard_peripheral/Source/gd32c2x1_timer.c:76:9
	bl	rcu_periph_reset_disable
	.loc	4 77 9                          @ ../std/GD32C2x1_Firmware_Library/GD32C2x1_standard_peripheral/Source/gd32c2x1_timer.c:77:9
	b	.LBB0_11
.LBB0_10:
	.loc	4 79 9                          @ ../std/GD32C2x1_Firmware_Library/GD32C2x1_standard_peripheral/Source/gd32c2x1_timer.c:79:9
	b	.LBB0_11
.Ltmp2:
.LBB0_11:
	.loc	4 81 1                          @ ../std/GD32C2x1_Firmware_Library/GD32C2x1_standard_peripheral/Source/gd32c2x1_timer.c:81:1
	add	sp, #32
	pop	{r7, pc}
.Ltmp3:
	.p2align	2
@ %bb.12:
	.loc	4 0 1 is_stmt 0                 @ ../std/GD32C2x1_Firmware_Library/GD32C2x1_standard_peripheral/Source/gd32c2x1_timer.c:0:1
__arm_cp.0_0:
	.long	1073742848                      @ 0x40000400
.Lcpi_end0:
	.size	__arm_cp.0_0, .Lcpi_end0-__arm_cp.0_0
__arm_cp.0_1:
	.long	1073750016                      @ 0x40002000
.Lcpi_end1:
	.size	__arm_cp.0_1, .Lcpi_end1-__arm_cp.0_1
__arm_cp.0_2:
	.long	1073818624                      @ 0x40012c00
.Lcpi_end2:
	.size	__arm_cp.0_2, .Lcpi_end2-__arm_cp.0_2
__arm_cp.0_3:
	.long	1073824768                      @ 0x40014400
.Lcpi_end3:
	.size	__arm_cp.0_3, .Lcpi_end3-__arm_cp.0_3
__arm_cp.0_4:
	.long	1073825792                      @ 0x40014800
.Lcpi_end4:
	.size	__arm_cp.0_4, .Lcpi_end4-__arm_cp.0_4
__arm_cp.0_5:
	.long	2322                            @ 0x912
.Lcpi_end5:
	.size	__arm_cp.0_5, .Lcpi_end5-__arm_cp.0_5
__arm_cp.0_6:
	.long	2321                            @ 0x911
.Lcpi_end6:
	.size	__arm_cp.0_6, .Lcpi_end6-__arm_cp.0_6
__arm_cp.0_7:
	.long	2315                            @ 0x90b
.Lcpi_end7:
	.size	__arm_cp.0_7, .Lcpi_end7-__arm_cp.0_7
__arm_cp.0_8:
	.long	2314                            @ 0x90a
.Lcpi_end8:
	.size	__arm_cp.0_8, .Lcpi_end8-__arm_cp.0_8
.Lfunc_end0:
	.size	timer_deinit, .Lfunc_end0-timer_deinit
	.cfi_endproc
	.cantunwind
	.fnend
                                        @ -- End function
	.section	.text.timer_struct_para_init,"ax",%progbits
	.hidden	timer_struct_para_init          @ -- Begin function timer_struct_para_init
	.globl	timer_struct_para_init
	.p2align	2
	.type	timer_struct_para_init,%function
	.code	16                              @ @timer_struct_para_init
	.thumb_func
timer_struct_para_init:
.Lfunc_begin1:
	.loc	4 90 0 is_stmt 1                @ ../std/GD32C2x1_Firmware_Library/GD32C2x1_standard_peripheral/Source/gd32c2x1_timer.c:90:0
	.fnstart
	.cfi_startproc
@ %bb.0:
	.pad	#4
	sub	sp, #4
	.cfi_def_cfa_offset 4
	str	r0, [sp]
.Ltmp4:
	.loc	4 98 9 prologue_end             @ ../std/GD32C2x1_Firmware_Library/GD32C2x1_standard_peripheral/Source/gd32c2x1_timer.c:98:9
	ldr	r1, [sp]
	movs	r0, #0
	.loc	4 98 37 is_stmt 0               @ ../std/GD32C2x1_Firmware_Library/GD32C2x1_standard_peripheral/Source/gd32c2x1_timer.c:98:37
	strh	r0, [r1]
	.loc	4 99 9 is_stmt 1                @ ../std/GD32C2x1_Firmware_Library/GD32C2x1_standard_peripheral/Source/gd32c2x1_timer.c:99:9
	ldr	r1, [sp]
	.loc	4 99 37 is_stmt 0               @ ../std/GD32C2x1_Firmware_Library/GD32C2x1_standard_peripheral/Source/gd32c2x1_timer.c:99:37
	strh	r0, [r1, #2]
	.loc	4 100 9 is_stmt 1               @ ../std/GD32C2x1_Firmware_Library/GD32C2x1_standard_peripheral/Source/gd32c2x1_timer.c:100:9
	ldr	r1, [sp]
	.loc	4 100 37 is_stmt 0              @ ../std/GD32C2x1_Firmware_Library/GD32C2x1_standard_peripheral/Source/gd32c2x1_timer.c:100:37
	strh	r0, [r1, #4]
	.loc	4 101 9 is_stmt 1               @ ../std/GD32C2x1_Firmware_Library/GD32C2x1_standard_peripheral/Source/gd32c2x1_timer.c:101:9
	ldr	r2, [sp]
	ldr	r1, __arm_cp.1_0
	.loc	4 101 37 is_stmt 0              @ ../std/GD32C2x1_Firmware_Library/GD32C2x1_standard_peripheral/Source/gd32c2x1_timer.c:101:37
	str	r1, [r2, #8]
	.loc	4 102 9 is_stmt 1               @ ../std/GD32C2x1_Firmware_Library/GD32C2x1_standard_peripheral/Source/gd32c2x1_timer.c:102:9
	ldr	r1, [sp]
	.loc	4 102 37 is_stmt 0              @ ../std/GD32C2x1_Firmware_Library/GD32C2x1_standard_peripheral/Source/gd32c2x1_timer.c:102:37
	strh	r0, [r1, #12]
	.loc	4 103 9 is_stmt 1               @ ../std/GD32C2x1_Firmware_Library/GD32C2x1_standard_peripheral/Source/gd32c2x1_timer.c:103:9
	ldr	r1, [sp]
	.loc	4 103 37 is_stmt 0              @ ../std/GD32C2x1_Firmware_Library/GD32C2x1_standard_peripheral/Source/gd32c2x1_timer.c:103:37
	strh	r0, [r1, #14]
.Ltmp5:
	.loc	4 105 1 is_stmt 1               @ ../std/GD32C2x1_Firmware_Library/GD32C2x1_standard_peripheral/Source/gd32c2x1_timer.c:105:1
	add	sp, #4
	bx	lr
.Ltmp6:
	.p2align	2
@ %bb.1:
	.loc	4 0 1 is_stmt 0                 @ ../std/GD32C2x1_Firmware_Library/GD32C2x1_standard_peripheral/Source/gd32c2x1_timer.c:0:1
__arm_cp.1_0:
	.long	65535                           @ 0xffff
.Lcpi_end9:
	.size	__arm_cp.1_0, .Lcpi_end9-__arm_cp.1_0
.Lfunc_end1:
	.size	timer_struct_para_init, .Lfunc_end1-timer_struct_para_init
	.cfi_endproc
	.cantunwind
	.fnend
                                        @ -- End function
	.section	.text.timer_init,"ax",%progbits
	.hidden	timer_init                      @ -- Begin function timer_init
	.globl	timer_init
	.p2align	2
	.type	timer_init,%function
	.code	16                              @ @timer_init
	.thumb_func
timer_init:
.Lfunc_begin2:
	.loc	4 121 0 is_stmt 1               @ ../std/GD32C2x1_Firmware_Library/GD32C2x1_standard_peripheral/Source/gd32c2x1_timer.c:121:0
	.fnstart
	.cfi_startproc
@ %bb.0:
	.pad	#8
	sub	sp, #8
	.cfi_def_cfa_offset 8
	str	r0, [sp, #4]
	str	r1, [sp]
.Ltmp7:
	.loc	4 129 45 prologue_end           @ ../std/GD32C2x1_Firmware_Library/GD32C2x1_standard_peripheral/Source/gd32c2x1_timer.c:129:45
	ldr	r0, [sp]
	.loc	4 129 55 is_stmt 0              @ ../std/GD32C2x1_Firmware_Library/GD32C2x1_standard_peripheral/Source/gd32c2x1_timer.c:129:55
	ldrh	r0, [r0]
	.loc	4 129 9                         @ ../std/GD32C2x1_Firmware_Library/GD32C2x1_standard_peripheral/Source/gd32c2x1_timer.c:129:9
	ldr	r1, [sp, #4]
	.loc	4 129 33                        @ ../std/GD32C2x1_Firmware_Library/GD32C2x1_standard_peripheral/Source/gd32c2x1_timer.c:129:33
	str	r0, [r1, #40]
.Ltmp8:
	.loc	4 132 23 is_stmt 1              @ ../std/GD32C2x1_Firmware_Library/GD32C2x1_standard_peripheral/Source/gd32c2x1_timer.c:132:23
	ldr	r0, [sp, #4]
	ldr	r1, __arm_cp.2_0
	.loc	4 132 37 is_stmt 0              @ ../std/GD32C2x1_Firmware_Library/GD32C2x1_standard_peripheral/Source/gd32c2x1_timer.c:132:37
	cmp	r0, r1
	beq	.LBB2_2
	b	.LBB2_1
.LBB2_1:
	.loc	4 132 51                        @ ../std/GD32C2x1_Firmware_Library/GD32C2x1_standard_peripheral/Source/gd32c2x1_timer.c:132:51
	ldr	r0, [sp, #4]
	ldr	r1, __arm_cp.2_1
.Ltmp9:
	.loc	4 132 12                        @ ../std/GD32C2x1_Firmware_Library/GD32C2x1_standard_peripheral/Source/gd32c2x1_timer.c:132:12
	cmp	r0, r1
	bne	.LBB2_3
	b	.LBB2_2
.LBB2_2:
.Ltmp10:
	.loc	4 133 13 is_stmt 1              @ ../std/GD32C2x1_Firmware_Library/GD32C2x1_standard_peripheral/Source/gd32c2x1_timer.c:133:13
	ldr	r1, [sp, #4]
	.loc	4 133 38 is_stmt 0              @ ../std/GD32C2x1_Firmware_Library/GD32C2x1_standard_peripheral/Source/gd32c2x1_timer.c:133:38
	ldr	r0, [r1]
	movs	r2, #112
	bics	r0, r2
	str	r0, [r1]
	.loc	4 134 52 is_stmt 1              @ ../std/GD32C2x1_Firmware_Library/GD32C2x1_standard_peripheral/Source/gd32c2x1_timer.c:134:52
	ldr	r0, [sp]
	ldrh	r2, [r0, #2]
	movs	r0, #96
	.loc	4 134 74 is_stmt 0              @ ../std/GD32C2x1_Firmware_Library/GD32C2x1_standard_peripheral/Source/gd32c2x1_timer.c:134:74
	ands	r2, r0
	.loc	4 134 13                        @ ../std/GD32C2x1_Firmware_Library/GD32C2x1_standard_peripheral/Source/gd32c2x1_timer.c:134:13
	ldr	r1, [sp, #4]
	.loc	4 134 38                        @ ../std/GD32C2x1_Firmware_Library/GD32C2x1_standard_peripheral/Source/gd32c2x1_timer.c:134:38
	ldr	r0, [r1]
	orrs	r0, r2
	str	r0, [r1]
	.loc	4 135 52 is_stmt 1              @ ../std/GD32C2x1_Firmware_Library/GD32C2x1_standard_peripheral/Source/gd32c2x1_timer.c:135:52
	ldr	r0, [sp]
	ldrh	r2, [r0, #4]
	movs	r0, #16
	.loc	4 135 79 is_stmt 0              @ ../std/GD32C2x1_Firmware_Library/GD32C2x1_standard_peripheral/Source/gd32c2x1_timer.c:135:79
	ands	r2, r0
	.loc	4 135 13                        @ ../std/GD32C2x1_Firmware_Library/GD32C2x1_standard_peripheral/Source/gd32c2x1_timer.c:135:13
	ldr	r1, [sp, #4]
	.loc	4 135 38                        @ ../std/GD32C2x1_Firmware_Library/GD32C2x1_standard_peripheral/Source/gd32c2x1_timer.c:135:38
	ldr	r0, [r1]
	orrs	r0, r2
	str	r0, [r1]
	.loc	4 136 9 is_stmt 1               @ ../std/GD32C2x1_Firmware_Library/GD32C2x1_standard_peripheral/Source/gd32c2x1_timer.c:136:9
	b	.LBB2_3
.Ltmp11:
.LBB2_3:
	.loc	4 139 45                        @ ../std/GD32C2x1_Firmware_Library/GD32C2x1_standard_peripheral/Source/gd32c2x1_timer.c:139:45
	ldr	r0, [sp]
	.loc	4 139 55 is_stmt 0              @ ../std/GD32C2x1_Firmware_Library/GD32C2x1_standard_peripheral/Source/gd32c2x1_timer.c:139:55
	ldr	r0, [r0, #8]
	.loc	4 139 9                         @ ../std/GD32C2x1_Firmware_Library/GD32C2x1_standard_peripheral/Source/gd32c2x1_timer.c:139:9
	ldr	r1, [sp, #4]
	.loc	4 139 33                        @ ../std/GD32C2x1_Firmware_Library/GD32C2x1_standard_peripheral/Source/gd32c2x1_timer.c:139:33
	str	r0, [r1, #44]
	.loc	4 141 9 is_stmt 1               @ ../std/GD32C2x1_Firmware_Library/GD32C2x1_standard_peripheral/Source/gd32c2x1_timer.c:141:9
	ldr	r2, [sp, #4]
	.loc	4 141 34 is_stmt 0              @ ../std/GD32C2x1_Firmware_Library/GD32C2x1_standard_peripheral/Source/gd32c2x1_timer.c:141:34
	ldr	r1, [r2]
	movw	r0, #768
	bics	r1, r0
	str	r1, [r2]
	.loc	4 142 49 is_stmt 1              @ ../std/GD32C2x1_Firmware_Library/GD32C2x1_standard_peripheral/Source/gd32c2x1_timer.c:142:49
	ldr	r1, [sp]
	.loc	4 142 48 is_stmt 0              @ ../std/GD32C2x1_Firmware_Library/GD32C2x1_standard_peripheral/Source/gd32c2x1_timer.c:142:48
	ldrh	r2, [r1, #12]
	.loc	4 142 74                        @ ../std/GD32C2x1_Firmware_Library/GD32C2x1_standard_peripheral/Source/gd32c2x1_timer.c:142:74
	ands	r2, r0
	.loc	4 142 9                         @ ../std/GD32C2x1_Firmware_Library/GD32C2x1_standard_peripheral/Source/gd32c2x1_timer.c:142:9
	ldr	r1, [sp, #4]
	.loc	4 142 34                        @ ../std/GD32C2x1_Firmware_Library/GD32C2x1_standard_peripheral/Source/gd32c2x1_timer.c:142:34
	ldr	r0, [r1]
	orrs	r0, r2
	str	r0, [r1]
.Ltmp12:
	.loc	4 144 23 is_stmt 1              @ ../std/GD32C2x1_Firmware_Library/GD32C2x1_standard_peripheral/Source/gd32c2x1_timer.c:144:23
	ldr	r0, [sp, #4]
	ldr	r1, __arm_cp.2_0
	.loc	4 144 37 is_stmt 0              @ ../std/GD32C2x1_Firmware_Library/GD32C2x1_standard_peripheral/Source/gd32c2x1_timer.c:144:37
	cmp	r0, r1
	beq	.LBB2_6
	b	.LBB2_4
.LBB2_4:
	.loc	4 144 52                        @ ../std/GD32C2x1_Firmware_Library/GD32C2x1_standard_peripheral/Source/gd32c2x1_timer.c:144:52
	ldr	r0, [sp, #4]
	ldr	r1, __arm_cp.2_2
	.loc	4 144 66                        @ ../std/GD32C2x1_Firmware_Library/GD32C2x1_standard_peripheral/Source/gd32c2x1_timer.c:144:66
	cmp	r0, r1
	beq	.LBB2_6
	b	.LBB2_5
.LBB2_5:
	.loc	4 144 81                        @ ../std/GD32C2x1_Firmware_Library/GD32C2x1_standard_peripheral/Source/gd32c2x1_timer.c:144:81
	ldr	r0, [sp, #4]
	ldr	r1, __arm_cp.2_3
.Ltmp13:
	.loc	4 144 12                        @ ../std/GD32C2x1_Firmware_Library/GD32C2x1_standard_peripheral/Source/gd32c2x1_timer.c:144:12
	cmp	r0, r1
	bne	.LBB2_7
	b	.LBB2_6
.LBB2_6:
.Ltmp14:
	.loc	4 146 50 is_stmt 1              @ ../std/GD32C2x1_Firmware_Library/GD32C2x1_standard_peripheral/Source/gd32c2x1_timer.c:146:50
	ldr	r0, [sp]
	.loc	4 146 60 is_stmt 0              @ ../std/GD32C2x1_Firmware_Library/GD32C2x1_standard_peripheral/Source/gd32c2x1_timer.c:146:60
	ldrh	r0, [r0, #14]
	.loc	4 146 13                        @ ../std/GD32C2x1_Firmware_Library/GD32C2x1_standard_peripheral/Source/gd32c2x1_timer.c:146:13
	ldr	r1, [sp, #4]
	.loc	4 146 38                        @ ../std/GD32C2x1_Firmware_Library/GD32C2x1_standard_peripheral/Source/gd32c2x1_timer.c:146:38
	str	r0, [r1, #48]
	.loc	4 147 9 is_stmt 1               @ ../std/GD32C2x1_Firmware_Library/GD32C2x1_standard_peripheral/Source/gd32c2x1_timer.c:147:9
	b	.LBB2_7
.Ltmp15:
.LBB2_7:
	.loc	4 150 9                         @ ../std/GD32C2x1_Firmware_Library/GD32C2x1_standard_peripheral/Source/gd32c2x1_timer.c:150:9
	ldr	r1, [sp, #4]
	.loc	4 150 35 is_stmt 0              @ ../std/GD32C2x1_Firmware_Library/GD32C2x1_standard_peripheral/Source/gd32c2x1_timer.c:150:35
	ldr	r0, [r1, #20]
	movs	r2, #1
	orrs	r0, r2
	str	r0, [r1, #20]
.Ltmp16:
	.loc	4 152 1 is_stmt 1               @ ../std/GD32C2x1_Firmware_Library/GD32C2x1_standard_peripheral/Source/gd32c2x1_timer.c:152:1
	add	sp, #8
	bx	lr
.Ltmp17:
	.p2align	2
@ %bb.8:
	.loc	4 0 1 is_stmt 0                 @ ../std/GD32C2x1_Firmware_Library/GD32C2x1_standard_peripheral/Source/gd32c2x1_timer.c:0:1
__arm_cp.2_0:
	.long	1073818624                      @ 0x40012c00
.Lcpi_end10:
	.size	__arm_cp.2_0, .Lcpi_end10-__arm_cp.2_0
__arm_cp.2_1:
	.long	1073742848                      @ 0x40000400
.Lcpi_end11:
	.size	__arm_cp.2_1, .Lcpi_end11-__arm_cp.2_1
__arm_cp.2_2:
	.long	1073824768                      @ 0x40014400
.Lcpi_end12:
	.size	__arm_cp.2_2, .Lcpi_end12-__arm_cp.2_2
__arm_cp.2_3:
	.long	1073825792                      @ 0x40014800
.Lcpi_end13:
	.size	__arm_cp.2_3, .Lcpi_end13-__arm_cp.2_3
.Lfunc_end2:
	.size	timer_init, .Lfunc_end2-timer_init
	.cfi_endproc
	.cantunwind
	.fnend
                                        @ -- End function
	.section	.text.timer_enable,"ax",%progbits
	.hidden	timer_enable                    @ -- Begin function timer_enable
	.globl	timer_enable
	.p2align	1
	.type	timer_enable,%function
	.code	16                              @ @timer_enable
	.thumb_func
timer_enable:
.Lfunc_begin3:
	.loc	4 161 0 is_stmt 1               @ ../std/GD32C2x1_Firmware_Library/GD32C2x1_standard_peripheral/Source/gd32c2x1_timer.c:161:0
	.fnstart
	.cfi_startproc
@ %bb.0:
	.pad	#4
	sub	sp, #4
	.cfi_def_cfa_offset 4
	str	r0, [sp]
.Ltmp18:
	.loc	4 162 5 prologue_end            @ ../std/GD32C2x1_Firmware_Library/GD32C2x1_standard_peripheral/Source/gd32c2x1_timer.c:162:5
	ldr	r1, [sp]
	.loc	4 162 30 is_stmt 0              @ ../std/GD32C2x1_Firmware_Library/GD32C2x1_standard_peripheral/Source/gd32c2x1_timer.c:162:30
	ldr	r0, [r1]
	movs	r2, #1
	orrs	r0, r2
	str	r0, [r1]
	.loc	4 163 1 is_stmt 1               @ ../std/GD32C2x1_Firmware_Library/GD32C2x1_standard_peripheral/Source/gd32c2x1_timer.c:163:1
	add	sp, #4
	bx	lr
.Ltmp19:
.Lfunc_end3:
	.size	timer_enable, .Lfunc_end3-timer_enable
	.cfi_endproc
	.cantunwind
	.fnend
                                        @ -- End function
	.section	.text.timer_disable,"ax",%progbits
	.hidden	timer_disable                   @ -- Begin function timer_disable
	.globl	timer_disable
	.p2align	1
	.type	timer_disable,%function
	.code	16                              @ @timer_disable
	.thumb_func
timer_disable:
.Lfunc_begin4:
	.loc	4 172 0                         @ ../std/GD32C2x1_Firmware_Library/GD32C2x1_standard_peripheral/Source/gd32c2x1_timer.c:172:0
	.fnstart
	.cfi_startproc
@ %bb.0:
	.pad	#4
	sub	sp, #4
	.cfi_def_cfa_offset 4
	str	r0, [sp]
.Ltmp20:
	.loc	4 173 5 prologue_end            @ ../std/GD32C2x1_Firmware_Library/GD32C2x1_standard_peripheral/Source/gd32c2x1_timer.c:173:5
	ldr	r1, [sp]
	.loc	4 173 30 is_stmt 0              @ ../std/GD32C2x1_Firmware_Library/GD32C2x1_standard_peripheral/Source/gd32c2x1_timer.c:173:30
	ldr	r0, [r1]
	movs	r2, #1
	bics	r0, r2
	str	r0, [r1]
	.loc	4 174 1 is_stmt 1               @ ../std/GD32C2x1_Firmware_Library/GD32C2x1_standard_peripheral/Source/gd32c2x1_timer.c:174:1
	add	sp, #4
	bx	lr
.Ltmp21:
.Lfunc_end4:
	.size	timer_disable, .Lfunc_end4-timer_disable
	.cfi_endproc
	.cantunwind
	.fnend
                                        @ -- End function
	.section	.text.timer_auto_reload_shadow_enable,"ax",%progbits
	.hidden	timer_auto_reload_shadow_enable @ -- Begin function timer_auto_reload_shadow_enable
	.globl	timer_auto_reload_shadow_enable
	.p2align	1
	.type	timer_auto_reload_shadow_enable,%function
	.code	16                              @ @timer_auto_reload_shadow_enable
	.thumb_func
timer_auto_reload_shadow_enable:
.Lfunc_begin5:
	.loc	4 183 0                         @ ../std/GD32C2x1_Firmware_Library/GD32C2x1_standard_peripheral/Source/gd32c2x1_timer.c:183:0
	.fnstart
	.cfi_startproc
@ %bb.0:
	.pad	#4
	sub	sp, #4
	.cfi_def_cfa_offset 4
	str	r0, [sp]
.Ltmp22:
	.loc	4 184 5 prologue_end            @ ../std/GD32C2x1_Firmware_Library/GD32C2x1_standard_peripheral/Source/gd32c2x1_timer.c:184:5
	ldr	r1, [sp]
	.loc	4 184 30 is_stmt 0              @ ../std/GD32C2x1_Firmware_Library/GD32C2x1_standard_peripheral/Source/gd32c2x1_timer.c:184:30
	ldr	r0, [r1]
	movs	r2, #128
	orrs	r0, r2
	str	r0, [r1]
	.loc	4 185 1 is_stmt 1               @ ../std/GD32C2x1_Firmware_Library/GD32C2x1_standard_peripheral/Source/gd32c2x1_timer.c:185:1
	add	sp, #4
	bx	lr
.Ltmp23:
.Lfunc_end5:
	.size	timer_auto_reload_shadow_enable, .Lfunc_end5-timer_auto_reload_shadow_enable
	.cfi_endproc
	.cantunwind
	.fnend
                                        @ -- End function
	.section	.text.timer_auto_reload_shadow_disable,"ax",%progbits
	.hidden	timer_auto_reload_shadow_disable @ -- Begin function timer_auto_reload_shadow_disable
	.globl	timer_auto_reload_shadow_disable
	.p2align	1
	.type	timer_auto_reload_shadow_disable,%function
	.code	16                              @ @timer_auto_reload_shadow_disable
	.thumb_func
timer_auto_reload_shadow_disable:
.Lfunc_begin6:
	.loc	4 194 0                         @ ../std/GD32C2x1_Firmware_Library/GD32C2x1_standard_peripheral/Source/gd32c2x1_timer.c:194:0
	.fnstart
	.cfi_startproc
@ %bb.0:
	.pad	#4
	sub	sp, #4
	.cfi_def_cfa_offset 4
	str	r0, [sp]
.Ltmp24:
	.loc	4 195 5 prologue_end            @ ../std/GD32C2x1_Firmware_Library/GD32C2x1_standard_peripheral/Source/gd32c2x1_timer.c:195:5
	ldr	r1, [sp]
	.loc	4 195 30 is_stmt 0              @ ../std/GD32C2x1_Firmware_Library/GD32C2x1_standard_peripheral/Source/gd32c2x1_timer.c:195:30
	ldr	r0, [r1]
	movs	r2, #128
	bics	r0, r2
	str	r0, [r1]
	.loc	4 196 1 is_stmt 1               @ ../std/GD32C2x1_Firmware_Library/GD32C2x1_standard_peripheral/Source/gd32c2x1_timer.c:196:1
	add	sp, #4
	bx	lr
.Ltmp25:
.Lfunc_end6:
	.size	timer_auto_reload_shadow_disable, .Lfunc_end6-timer_auto_reload_shadow_disable
	.cfi_endproc
	.cantunwind
	.fnend
                                        @ -- End function
	.section	.text.timer_update_event_enable,"ax",%progbits
	.hidden	timer_update_event_enable       @ -- Begin function timer_update_event_enable
	.globl	timer_update_event_enable
	.p2align	1
	.type	timer_update_event_enable,%function
	.code	16                              @ @timer_update_event_enable
	.thumb_func
timer_update_event_enable:
.Lfunc_begin7:
	.loc	4 205 0                         @ ../std/GD32C2x1_Firmware_Library/GD32C2x1_standard_peripheral/Source/gd32c2x1_timer.c:205:0
	.fnstart
	.cfi_startproc
@ %bb.0:
	.pad	#4
	sub	sp, #4
	.cfi_def_cfa_offset 4
	str	r0, [sp]
.Ltmp26:
	.loc	4 206 5 prologue_end            @ ../std/GD32C2x1_Firmware_Library/GD32C2x1_standard_peripheral/Source/gd32c2x1_timer.c:206:5
	ldr	r1, [sp]
	.loc	4 206 30 is_stmt 0              @ ../std/GD32C2x1_Firmware_Library/GD32C2x1_standard_peripheral/Source/gd32c2x1_timer.c:206:30
	ldr	r0, [r1]
	movs	r2, #2
	bics	r0, r2
	str	r0, [r1]
	.loc	4 207 1 is_stmt 1               @ ../std/GD32C2x1_Firmware_Library/GD32C2x1_standard_peripheral/Source/gd32c2x1_timer.c:207:1
	add	sp, #4
	bx	lr
.Ltmp27:
.Lfunc_end7:
	.size	timer_update_event_enable, .Lfunc_end7-timer_update_event_enable
	.cfi_endproc
	.cantunwind
	.fnend
                                        @ -- End function
	.section	.text.timer_update_event_disable,"ax",%progbits
	.hidden	timer_update_event_disable      @ -- Begin function timer_update_event_disable
	.globl	timer_update_event_disable
	.p2align	1
	.type	timer_update_event_disable,%function
	.code	16                              @ @timer_update_event_disable
	.thumb_func
timer_update_event_disable:
.Lfunc_begin8:
	.loc	4 216 0                         @ ../std/GD32C2x1_Firmware_Library/GD32C2x1_standard_peripheral/Source/gd32c2x1_timer.c:216:0
	.fnstart
	.cfi_startproc
@ %bb.0:
	.pad	#4
	sub	sp, #4
	.cfi_def_cfa_offset 4
	str	r0, [sp]
.Ltmp28:
	.loc	4 217 5 prologue_end            @ ../std/GD32C2x1_Firmware_Library/GD32C2x1_standard_peripheral/Source/gd32c2x1_timer.c:217:5
	ldr	r1, [sp]
	.loc	4 217 30 is_stmt 0              @ ../std/GD32C2x1_Firmware_Library/GD32C2x1_standard_peripheral/Source/gd32c2x1_timer.c:217:30
	ldr	r0, [r1]
	movs	r2, #2
	orrs	r0, r2
	str	r0, [r1]
	.loc	4 218 1 is_stmt 1               @ ../std/GD32C2x1_Firmware_Library/GD32C2x1_standard_peripheral/Source/gd32c2x1_timer.c:218:1
	add	sp, #4
	bx	lr
.Ltmp29:
.Lfunc_end8:
	.size	timer_update_event_disable, .Lfunc_end8-timer_update_event_disable
	.cfi_endproc
	.cantunwind
	.fnend
                                        @ -- End function
	.section	.text.timer_counter_alignment,"ax",%progbits
	.hidden	timer_counter_alignment         @ -- Begin function timer_counter_alignment
	.globl	timer_counter_alignment
	.p2align	1
	.type	timer_counter_alignment,%function
	.code	16                              @ @timer_counter_alignment
	.thumb_func
timer_counter_alignment:
.Lfunc_begin9:
	.loc	4 233 0                         @ ../std/GD32C2x1_Firmware_Library/GD32C2x1_standard_peripheral/Source/gd32c2x1_timer.c:233:0
	.fnstart
	.cfi_startproc
@ %bb.0:
	.pad	#12
	sub	sp, #12
	.cfi_def_cfa_offset 12
	str	r1, [sp]                        @ 4-byte Spill
	mov	r1, r0
	ldr	r0, [sp]                        @ 4-byte Reload
                                        @ kill: def $r2 killed $r0
	str	r1, [sp, #8]
	add	r1, sp, #4
	strh	r0, [r1]
.Ltmp30:
	.loc	4 234 5 prologue_end            @ ../std/GD32C2x1_Firmware_Library/GD32C2x1_standard_peripheral/Source/gd32c2x1_timer.c:234:5
	ldr	r3, [sp, #8]
	.loc	4 234 30 is_stmt 0              @ ../std/GD32C2x1_Firmware_Library/GD32C2x1_standard_peripheral/Source/gd32c2x1_timer.c:234:30
	ldr	r2, [r3]
	movs	r0, #96
	bics	r2, r0
	str	r2, [r3]
	.loc	4 235 44 is_stmt 1              @ ../std/GD32C2x1_Firmware_Library/GD32C2x1_standard_peripheral/Source/gd32c2x1_timer.c:235:44
	ldrh	r2, [r1]
	.loc	4 235 52 is_stmt 0              @ ../std/GD32C2x1_Firmware_Library/GD32C2x1_standard_peripheral/Source/gd32c2x1_timer.c:235:52
	ands	r2, r0
	.loc	4 235 5                         @ ../std/GD32C2x1_Firmware_Library/GD32C2x1_standard_peripheral/Source/gd32c2x1_timer.c:235:5
	ldr	r1, [sp, #8]
	.loc	4 235 30                        @ ../std/GD32C2x1_Firmware_Library/GD32C2x1_standard_peripheral/Source/gd32c2x1_timer.c:235:30
	ldr	r0, [r1]
	orrs	r0, r2
	str	r0, [r1]
	.loc	4 236 1 is_stmt 1               @ ../std/GD32C2x1_Firmware_Library/GD32C2x1_standard_peripheral/Source/gd32c2x1_timer.c:236:1
	add	sp, #12
	bx	lr
.Ltmp31:
.Lfunc_end9:
	.size	timer_counter_alignment, .Lfunc_end9-timer_counter_alignment
	.cfi_endproc
	.cantunwind
	.fnend
                                        @ -- End function
	.section	.text.timer_counter_up_direction,"ax",%progbits
	.hidden	timer_counter_up_direction      @ -- Begin function timer_counter_up_direction
	.globl	timer_counter_up_direction
	.p2align	1
	.type	timer_counter_up_direction,%function
	.code	16                              @ @timer_counter_up_direction
	.thumb_func
timer_counter_up_direction:
.Lfunc_begin10:
	.loc	4 245 0                         @ ../std/GD32C2x1_Firmware_Library/GD32C2x1_standard_peripheral/Source/gd32c2x1_timer.c:245:0
	.fnstart
	.cfi_startproc
@ %bb.0:
	.pad	#4
	sub	sp, #4
	.cfi_def_cfa_offset 4
	str	r0, [sp]
.Ltmp32:
	.loc	4 246 5 prologue_end            @ ../std/GD32C2x1_Firmware_Library/GD32C2x1_standard_peripheral/Source/gd32c2x1_timer.c:246:5
	ldr	r1, [sp]
	.loc	4 246 30 is_stmt 0              @ ../std/GD32C2x1_Firmware_Library/GD32C2x1_standard_peripheral/Source/gd32c2x1_timer.c:246:30
	ldr	r0, [r1]
	movs	r2, #16
	bics	r0, r2
	str	r0, [r1]
	.loc	4 247 1 is_stmt 1               @ ../std/GD32C2x1_Firmware_Library/GD32C2x1_standard_peripheral/Source/gd32c2x1_timer.c:247:1
	add	sp, #4
	bx	lr
.Ltmp33:
.Lfunc_end10:
	.size	timer_counter_up_direction, .Lfunc_end10-timer_counter_up_direction
	.cfi_endproc
	.cantunwind
	.fnend
                                        @ -- End function
	.section	.text.timer_counter_down_direction,"ax",%progbits
	.hidden	timer_counter_down_direction    @ -- Begin function timer_counter_down_direction
	.globl	timer_counter_down_direction
	.p2align	1
	.type	timer_counter_down_direction,%function
	.code	16                              @ @timer_counter_down_direction
	.thumb_func
timer_counter_down_direction:
.Lfunc_begin11:
	.loc	4 256 0                         @ ../std/GD32C2x1_Firmware_Library/GD32C2x1_standard_peripheral/Source/gd32c2x1_timer.c:256:0
	.fnstart
	.cfi_startproc
@ %bb.0:
	.pad	#4
	sub	sp, #4
	.cfi_def_cfa_offset 4
	str	r0, [sp]
.Ltmp34:
	.loc	4 257 5 prologue_end            @ ../std/GD32C2x1_Firmware_Library/GD32C2x1_standard_peripheral/Source/gd32c2x1_timer.c:257:5
	ldr	r1, [sp]
	.loc	4 257 30 is_stmt 0              @ ../std/GD32C2x1_Firmware_Library/GD32C2x1_standard_peripheral/Source/gd32c2x1_timer.c:257:30
	ldr	r0, [r1]
	movs	r2, #16
	orrs	r0, r2
	str	r0, [r1]
	.loc	4 258 1 is_stmt 1               @ ../std/GD32C2x1_Firmware_Library/GD32C2x1_standard_peripheral/Source/gd32c2x1_timer.c:258:1
	add	sp, #4
	bx	lr
.Ltmp35:
.Lfunc_end11:
	.size	timer_counter_down_direction, .Lfunc_end11-timer_counter_down_direction
	.cfi_endproc
	.cantunwind
	.fnend
                                        @ -- End function
	.section	.text.timer_prescaler_config,"ax",%progbits
	.hidden	timer_prescaler_config          @ -- Begin function timer_prescaler_config
	.globl	timer_prescaler_config
	.p2align	1
	.type	timer_prescaler_config,%function
	.code	16                              @ @timer_prescaler_config
	.thumb_func
timer_prescaler_config:
.Lfunc_begin12:
	.loc	4 272 0                         @ ../std/GD32C2x1_Firmware_Library/GD32C2x1_standard_peripheral/Source/gd32c2x1_timer.c:272:0
	.fnstart
	.cfi_startproc
@ %bb.0:
	.pad	#12
	sub	sp, #12
	.cfi_def_cfa_offset 12
                                        @ kill: def $r3 killed $r1
	str	r0, [sp, #8]
	add	r0, sp, #4
	strh	r1, [r0]
	str	r2, [sp]
.Ltmp36:
	.loc	4 273 41 prologue_end           @ ../std/GD32C2x1_Firmware_Library/GD32C2x1_standard_peripheral/Source/gd32c2x1_timer.c:273:41
	ldrh	r0, [r0]
	.loc	4 273 5 is_stmt 0               @ ../std/GD32C2x1_Firmware_Library/GD32C2x1_standard_peripheral/Source/gd32c2x1_timer.c:273:5
	ldr	r1, [sp, #8]
	.loc	4 273 29                        @ ../std/GD32C2x1_Firmware_Library/GD32C2x1_standard_peripheral/Source/gd32c2x1_timer.c:273:29
	str	r0, [r1, #40]
.Ltmp37:
	.loc	4 275 32 is_stmt 1              @ ../std/GD32C2x1_Firmware_Library/GD32C2x1_standard_peripheral/Source/gd32c2x1_timer.c:275:32
	ldr	r0, [sp]
.Ltmp38:
	.loc	4 275 8 is_stmt 0               @ ../std/GD32C2x1_Firmware_Library/GD32C2x1_standard_peripheral/Source/gd32c2x1_timer.c:275:8
	cbnz	r0, .LBB12_2
	b	.LBB12_1
.LBB12_1:
.Ltmp39:
	.loc	4 276 9 is_stmt 1               @ ../std/GD32C2x1_Firmware_Library/GD32C2x1_standard_peripheral/Source/gd32c2x1_timer.c:276:9
	ldr	r1, [sp, #8]
	.loc	4 276 35 is_stmt 0              @ ../std/GD32C2x1_Firmware_Library/GD32C2x1_standard_peripheral/Source/gd32c2x1_timer.c:276:35
	ldr	r0, [r1, #20]
	movs	r2, #1
	orrs	r0, r2
	str	r0, [r1, #20]
	.loc	4 277 5 is_stmt 1               @ ../std/GD32C2x1_Firmware_Library/GD32C2x1_standard_peripheral/Source/gd32c2x1_timer.c:277:5
	b	.LBB12_2
.Ltmp40:
.LBB12_2:
	.loc	4 278 1                         @ ../std/GD32C2x1_Firmware_Library/GD32C2x1_standard_peripheral/Source/gd32c2x1_timer.c:278:1
	add	sp, #12
	bx	lr
.Ltmp41:
.Lfunc_end12:
	.size	timer_prescaler_config, .Lfunc_end12-timer_prescaler_config
	.cfi_endproc
	.cantunwind
	.fnend
                                        @ -- End function
	.section	.text.timer_repetition_value_config,"ax",%progbits
	.hidden	timer_repetition_value_config   @ -- Begin function timer_repetition_value_config
	.globl	timer_repetition_value_config
	.p2align	1
	.type	timer_repetition_value_config,%function
	.code	16                              @ @timer_repetition_value_config
	.thumb_func
timer_repetition_value_config:
.Lfunc_begin13:
	.loc	4 288 0                         @ ../std/GD32C2x1_Firmware_Library/GD32C2x1_standard_peripheral/Source/gd32c2x1_timer.c:288:0
	.fnstart
	.cfi_startproc
@ %bb.0:
	.pad	#8
	sub	sp, #8
	.cfi_def_cfa_offset 8
                                        @ kill: def $r2 killed $r1
	str	r0, [sp, #4]
	mov	r0, sp
	strh	r1, [r0]
.Ltmp42:
	.loc	4 289 42 prologue_end           @ ../std/GD32C2x1_Firmware_Library/GD32C2x1_standard_peripheral/Source/gd32c2x1_timer.c:289:42
	ldrh	r0, [r0]
	.loc	4 289 5 is_stmt 0               @ ../std/GD32C2x1_Firmware_Library/GD32C2x1_standard_peripheral/Source/gd32c2x1_timer.c:289:5
	ldr	r1, [sp, #4]
	.loc	4 289 30                        @ ../std/GD32C2x1_Firmware_Library/GD32C2x1_standard_peripheral/Source/gd32c2x1_timer.c:289:30
	str	r0, [r1, #48]
	.loc	4 290 1 is_stmt 1               @ ../std/GD32C2x1_Firmware_Library/GD32C2x1_standard_peripheral/Source/gd32c2x1_timer.c:290:1
	add	sp, #8
	bx	lr
.Ltmp43:
.Lfunc_end13:
	.size	timer_repetition_value_config, .Lfunc_end13-timer_repetition_value_config
	.cfi_endproc
	.cantunwind
	.fnend
                                        @ -- End function
	.section	.text.timer_autoreload_value_config,"ax",%progbits
	.hidden	timer_autoreload_value_config   @ -- Begin function timer_autoreload_value_config
	.globl	timer_autoreload_value_config
	.p2align	1
	.type	timer_autoreload_value_config,%function
	.code	16                              @ @timer_autoreload_value_config
	.thumb_func
timer_autoreload_value_config:
.Lfunc_begin14:
	.loc	4 300 0                         @ ../std/GD32C2x1_Firmware_Library/GD32C2x1_standard_peripheral/Source/gd32c2x1_timer.c:300:0
	.fnstart
	.cfi_startproc
@ %bb.0:
	.pad	#8
	sub	sp, #8
	.cfi_def_cfa_offset 8
                                        @ kill: def $r2 killed $r1
	str	r0, [sp, #4]
	mov	r0, sp
	strh	r1, [r0]
.Ltmp44:
	.loc	4 301 41 prologue_end           @ ../std/GD32C2x1_Firmware_Library/GD32C2x1_standard_peripheral/Source/gd32c2x1_timer.c:301:41
	ldrh	r0, [r0]
	.loc	4 301 5 is_stmt 0               @ ../std/GD32C2x1_Firmware_Library/GD32C2x1_standard_peripheral/Source/gd32c2x1_timer.c:301:5
	ldr	r1, [sp, #4]
	.loc	4 301 29                        @ ../std/GD32C2x1_Firmware_Library/GD32C2x1_standard_peripheral/Source/gd32c2x1_timer.c:301:29
	str	r0, [r1, #44]
	.loc	4 302 1 is_stmt 1               @ ../std/GD32C2x1_Firmware_Library/GD32C2x1_standard_peripheral/Source/gd32c2x1_timer.c:302:1
	add	sp, #8
	bx	lr
.Ltmp45:
.Lfunc_end14:
	.size	timer_autoreload_value_config, .Lfunc_end14-timer_autoreload_value_config
	.cfi_endproc
	.cantunwind
	.fnend
                                        @ -- End function
	.section	.text.timer_counter_value_config,"ax",%progbits
	.hidden	timer_counter_value_config      @ -- Begin function timer_counter_value_config
	.globl	timer_counter_value_config
	.p2align	1
	.type	timer_counter_value_config,%function
	.code	16                              @ @timer_counter_value_config
	.thumb_func
timer_counter_value_config:
.Lfunc_begin15:
	.loc	4 312 0                         @ ../std/GD32C2x1_Firmware_Library/GD32C2x1_standard_peripheral/Source/gd32c2x1_timer.c:312:0
	.fnstart
	.cfi_startproc
@ %bb.0:
	.pad	#8
	sub	sp, #8
	.cfi_def_cfa_offset 8
                                        @ kill: def $r2 killed $r1
	str	r0, [sp, #4]
	mov	r0, sp
	strh	r1, [r0]
.Ltmp46:
	.loc	4 313 41 prologue_end           @ ../std/GD32C2x1_Firmware_Library/GD32C2x1_standard_peripheral/Source/gd32c2x1_timer.c:313:41
	ldrh	r0, [r0]
	.loc	4 313 5 is_stmt 0               @ ../std/GD32C2x1_Firmware_Library/GD32C2x1_standard_peripheral/Source/gd32c2x1_timer.c:313:5
	ldr	r1, [sp, #4]
	.loc	4 313 29                        @ ../std/GD32C2x1_Firmware_Library/GD32C2x1_standard_peripheral/Source/gd32c2x1_timer.c:313:29
	str	r0, [r1, #36]
	.loc	4 314 1 is_stmt 1               @ ../std/GD32C2x1_Firmware_Library/GD32C2x1_standard_peripheral/Source/gd32c2x1_timer.c:314:1
	add	sp, #8
	bx	lr
.Ltmp47:
.Lfunc_end15:
	.size	timer_counter_value_config, .Lfunc_end15-timer_counter_value_config
	.cfi_endproc
	.cantunwind
	.fnend
                                        @ -- End function
	.section	.text.timer_counter_read,"ax",%progbits
	.hidden	timer_counter_read              @ -- Begin function timer_counter_read
	.globl	timer_counter_read
	.p2align	1
	.type	timer_counter_read,%function
	.code	16                              @ @timer_counter_read
	.thumb_func
timer_counter_read:
.Lfunc_begin16:
	.loc	4 323 0                         @ ../std/GD32C2x1_Firmware_Library/GD32C2x1_standard_peripheral/Source/gd32c2x1_timer.c:323:0
	.fnstart
	.cfi_startproc
@ %bb.0:
	.pad	#8
	sub	sp, #8
	.cfi_def_cfa_offset 8
	str	r0, [sp, #4]
	mov	r0, sp
	movs	r1, #0
.Ltmp48:
	.loc	4 324 14 prologue_end           @ ../std/GD32C2x1_Firmware_Library/GD32C2x1_standard_peripheral/Source/gd32c2x1_timer.c:324:14
	strh	r1, [r0]
	.loc	4 325 30                        @ ../std/GD32C2x1_Firmware_Library/GD32C2x1_standard_peripheral/Source/gd32c2x1_timer.c:325:30
	ldr	r1, [sp, #4]
	ldr	r1, [r1, #36]
	.loc	4 325 17 is_stmt 0              @ ../std/GD32C2x1_Firmware_Library/GD32C2x1_standard_peripheral/Source/gd32c2x1_timer.c:325:17
	strh	r1, [r0]
	.loc	4 326 13 is_stmt 1              @ ../std/GD32C2x1_Firmware_Library/GD32C2x1_standard_peripheral/Source/gd32c2x1_timer.c:326:13
	ldrh	r0, [r0]
	.loc	4 326 5 is_stmt 0               @ ../std/GD32C2x1_Firmware_Library/GD32C2x1_standard_peripheral/Source/gd32c2x1_timer.c:326:5
	add	sp, #8
	bx	lr
.Ltmp49:
.Lfunc_end16:
	.size	timer_counter_read, .Lfunc_end16-timer_counter_read
	.cfi_endproc
	.cantunwind
	.fnend
                                        @ -- End function
	.section	.text.timer_prescaler_read,"ax",%progbits
	.hidden	timer_prescaler_read            @ -- Begin function timer_prescaler_read
	.globl	timer_prescaler_read
	.p2align	1
	.type	timer_prescaler_read,%function
	.code	16                              @ @timer_prescaler_read
	.thumb_func
timer_prescaler_read:
.Lfunc_begin17:
	.loc	4 336 0 is_stmt 1               @ ../std/GD32C2x1_Firmware_Library/GD32C2x1_standard_peripheral/Source/gd32c2x1_timer.c:336:0
	.fnstart
	.cfi_startproc
@ %bb.0:
	.pad	#8
	sub	sp, #8
	.cfi_def_cfa_offset 8
	str	r0, [sp, #4]
	mov	r0, sp
	movs	r1, #0
.Ltmp50:
	.loc	4 337 14 prologue_end           @ ../std/GD32C2x1_Firmware_Library/GD32C2x1_standard_peripheral/Source/gd32c2x1_timer.c:337:14
	strh	r1, [r0]
	.loc	4 338 34                        @ ../std/GD32C2x1_Firmware_Library/GD32C2x1_standard_peripheral/Source/gd32c2x1_timer.c:338:34
	ldr	r1, [sp, #4]
	ldr	r1, [r1, #40]
	.loc	4 338 21 is_stmt 0              @ ../std/GD32C2x1_Firmware_Library/GD32C2x1_standard_peripheral/Source/gd32c2x1_timer.c:338:21
	strh	r1, [r0]
	.loc	4 339 13 is_stmt 1              @ ../std/GD32C2x1_Firmware_Library/GD32C2x1_standard_peripheral/Source/gd32c2x1_timer.c:339:13
	ldrh	r0, [r0]
	.loc	4 339 5 is_stmt 0               @ ../std/GD32C2x1_Firmware_Library/GD32C2x1_standard_peripheral/Source/gd32c2x1_timer.c:339:5
	add	sp, #8
	bx	lr
.Ltmp51:
.Lfunc_end17:
	.size	timer_prescaler_read, .Lfunc_end17-timer_prescaler_read
	.cfi_endproc
	.cantunwind
	.fnend
                                        @ -- End function
	.section	.text.timer_single_pulse_mode_config,"ax",%progbits
	.hidden	timer_single_pulse_mode_config  @ -- Begin function timer_single_pulse_mode_config
	.globl	timer_single_pulse_mode_config
	.p2align	1
	.type	timer_single_pulse_mode_config,%function
	.code	16                              @ @timer_single_pulse_mode_config
	.thumb_func
timer_single_pulse_mode_config:
.Lfunc_begin18:
	.loc	4 353 0 is_stmt 1               @ ../std/GD32C2x1_Firmware_Library/GD32C2x1_standard_peripheral/Source/gd32c2x1_timer.c:353:0
	.fnstart
	.cfi_startproc
@ %bb.0:
	.pad	#8
	sub	sp, #8
	.cfi_def_cfa_offset 8
	str	r0, [sp, #4]
	str	r1, [sp]
.Ltmp52:
	.loc	4 354 32 prologue_end           @ ../std/GD32C2x1_Firmware_Library/GD32C2x1_standard_peripheral/Source/gd32c2x1_timer.c:354:32
	ldr	r0, [sp]
.Ltmp53:
	.loc	4 354 8 is_stmt 0               @ ../std/GD32C2x1_Firmware_Library/GD32C2x1_standard_peripheral/Source/gd32c2x1_timer.c:354:8
	cbnz	r0, .LBB18_2
	b	.LBB18_1
.LBB18_1:
.Ltmp54:
	.loc	4 355 9 is_stmt 1               @ ../std/GD32C2x1_Firmware_Library/GD32C2x1_standard_peripheral/Source/gd32c2x1_timer.c:355:9
	ldr	r1, [sp, #4]
	.loc	4 355 34 is_stmt 0              @ ../std/GD32C2x1_Firmware_Library/GD32C2x1_standard_peripheral/Source/gd32c2x1_timer.c:355:34
	ldr	r0, [r1]
	movs	r2, #8
	orrs	r0, r2
	str	r0, [r1]
	.loc	4 356 9 is_stmt 1               @ ../std/GD32C2x1_Firmware_Library/GD32C2x1_standard_peripheral/Source/gd32c2x1_timer.c:356:9
	b	.LBB18_6
.Ltmp55:
.LBB18_2:
	.loc	4 356 47 is_stmt 0              @ ../std/GD32C2x1_Firmware_Library/GD32C2x1_standard_peripheral/Source/gd32c2x1_timer.c:356:47
	ldr	r0, [sp]
.Ltmp56:
	.loc	4 356 19                        @ ../std/GD32C2x1_Firmware_Library/GD32C2x1_standard_peripheral/Source/gd32c2x1_timer.c:356:19
	cmp	r0, #1
	bne	.LBB18_4
	b	.LBB18_3
.LBB18_3:
.Ltmp57:
	.loc	4 357 13 is_stmt 1              @ ../std/GD32C2x1_Firmware_Library/GD32C2x1_standard_peripheral/Source/gd32c2x1_timer.c:357:13
	ldr	r1, [sp, #4]
	.loc	4 357 38 is_stmt 0              @ ../std/GD32C2x1_Firmware_Library/GD32C2x1_standard_peripheral/Source/gd32c2x1_timer.c:357:38
	ldr	r0, [r1]
	movs	r2, #8
	bics	r0, r2
	str	r0, [r1]
	.loc	4 358 9 is_stmt 1               @ ../std/GD32C2x1_Firmware_Library/GD32C2x1_standard_peripheral/Source/gd32c2x1_timer.c:358:9
	b	.LBB18_5
.Ltmp58:
.LBB18_4:
	.loc	4 0 9 is_stmt 0                 @ ../std/GD32C2x1_Firmware_Library/GD32C2x1_standard_peripheral/Source/gd32c2x1_timer.c:0:9
	b	.LBB18_5
.LBB18_5:
	b	.LBB18_6
.LBB18_6:
	.loc	4 361 1 is_stmt 1               @ ../std/GD32C2x1_Firmware_Library/GD32C2x1_standard_peripheral/Source/gd32c2x1_timer.c:361:1
	add	sp, #8
	bx	lr
.Ltmp59:
.Lfunc_end18:
	.size	timer_single_pulse_mode_config, .Lfunc_end18-timer_single_pulse_mode_config
	.cfi_endproc
	.cantunwind
	.fnend
                                        @ -- End function
	.section	.text.timer_update_source_config,"ax",%progbits
	.hidden	timer_update_source_config      @ -- Begin function timer_update_source_config
	.globl	timer_update_source_config
	.p2align	1
	.type	timer_update_source_config,%function
	.code	16                              @ @timer_update_source_config
	.thumb_func
timer_update_source_config:
.Lfunc_begin19:
	.loc	4 374 0                         @ ../std/GD32C2x1_Firmware_Library/GD32C2x1_standard_peripheral/Source/gd32c2x1_timer.c:374:0
	.fnstart
	.cfi_startproc
@ %bb.0:
	.pad	#8
	sub	sp, #8
	.cfi_def_cfa_offset 8
	str	r0, [sp, #4]
	str	r1, [sp]
.Ltmp60:
	.loc	4 375 36 prologue_end           @ ../std/GD32C2x1_Firmware_Library/GD32C2x1_standard_peripheral/Source/gd32c2x1_timer.c:375:36
	ldr	r0, [sp]
.Ltmp61:
	.loc	4 375 8 is_stmt 0               @ ../std/GD32C2x1_Firmware_Library/GD32C2x1_standard_peripheral/Source/gd32c2x1_timer.c:375:8
	cbnz	r0, .LBB19_2
	b	.LBB19_1
.LBB19_1:
.Ltmp62:
	.loc	4 376 9 is_stmt 1               @ ../std/GD32C2x1_Firmware_Library/GD32C2x1_standard_peripheral/Source/gd32c2x1_timer.c:376:9
	ldr	r1, [sp, #4]
	.loc	4 376 34 is_stmt 0              @ ../std/GD32C2x1_Firmware_Library/GD32C2x1_standard_peripheral/Source/gd32c2x1_timer.c:376:34
	ldr	r0, [r1]
	movs	r2, #4
	orrs	r0, r2
	str	r0, [r1]
	.loc	4 377 9 is_stmt 1               @ ../std/GD32C2x1_Firmware_Library/GD32C2x1_standard_peripheral/Source/gd32c2x1_timer.c:377:9
	b	.LBB19_6
.Ltmp63:
.LBB19_2:
	.loc	4 377 46 is_stmt 0              @ ../std/GD32C2x1_Firmware_Library/GD32C2x1_standard_peripheral/Source/gd32c2x1_timer.c:377:46
	ldr	r0, [sp]
.Ltmp64:
	.loc	4 377 19                        @ ../std/GD32C2x1_Firmware_Library/GD32C2x1_standard_peripheral/Source/gd32c2x1_timer.c:377:19
	cmp	r0, #1
	bne	.LBB19_4
	b	.LBB19_3
.LBB19_3:
.Ltmp65:
	.loc	4 378 13 is_stmt 1              @ ../std/GD32C2x1_Firmware_Library/GD32C2x1_standard_peripheral/Source/gd32c2x1_timer.c:378:13
	ldr	r1, [sp, #4]
	.loc	4 378 38 is_stmt 0              @ ../std/GD32C2x1_Firmware_Library/GD32C2x1_standard_peripheral/Source/gd32c2x1_timer.c:378:38
	ldr	r0, [r1]
	movs	r2, #4
	bics	r0, r2
	str	r0, [r1]
	.loc	4 379 9 is_stmt 1               @ ../std/GD32C2x1_Firmware_Library/GD32C2x1_standard_peripheral/Source/gd32c2x1_timer.c:379:9
	b	.LBB19_5
.Ltmp66:
.LBB19_4:
	.loc	4 0 9 is_stmt 0                 @ ../std/GD32C2x1_Firmware_Library/GD32C2x1_standard_peripheral/Source/gd32c2x1_timer.c:0:9
	b	.LBB19_5
.LBB19_5:
	b	.LBB19_6
.LBB19_6:
	.loc	4 382 1 is_stmt 1               @ ../std/GD32C2x1_Firmware_Library/GD32C2x1_standard_peripheral/Source/gd32c2x1_timer.c:382:1
	add	sp, #8
	bx	lr
.Ltmp67:
.Lfunc_end19:
	.size	timer_update_source_config, .Lfunc_end19-timer_update_source_config
	.cfi_endproc
	.cantunwind
	.fnend
                                        @ -- End function
	.section	.text.timer_dma_enable,"ax",%progbits
	.hidden	timer_dma_enable                @ -- Begin function timer_dma_enable
	.globl	timer_dma_enable
	.p2align	1
	.type	timer_dma_enable,%function
	.code	16                              @ @timer_dma_enable
	.thumb_func
timer_dma_enable:
.Lfunc_begin20:
	.loc	4 400 0                         @ ../std/GD32C2x1_Firmware_Library/GD32C2x1_standard_peripheral/Source/gd32c2x1_timer.c:400:0
	.fnstart
	.cfi_startproc
@ %bb.0:
	.pad	#8
	sub	sp, #8
	.cfi_def_cfa_offset 8
                                        @ kill: def $r2 killed $r1
	str	r0, [sp, #4]
	mov	r0, sp
	strh	r1, [r0]
.Ltmp68:
	.loc	4 401 38 prologue_end           @ ../std/GD32C2x1_Firmware_Library/GD32C2x1_standard_peripheral/Source/gd32c2x1_timer.c:401:38
	ldrh	r2, [r0]
	movw	r0, #24320
	.loc	4 401 53 is_stmt 0              @ ../std/GD32C2x1_Firmware_Library/GD32C2x1_standard_peripheral/Source/gd32c2x1_timer.c:401:53
	ands	r2, r0
	.loc	4 401 5                         @ ../std/GD32C2x1_Firmware_Library/GD32C2x1_standard_peripheral/Source/gd32c2x1_timer.c:401:5
	ldr	r1, [sp, #4]
	.loc	4 401 34                        @ ../std/GD32C2x1_Firmware_Library/GD32C2x1_standard_peripheral/Source/gd32c2x1_timer.c:401:34
	ldr	r0, [r1, #12]
	orrs	r0, r2
	str	r0, [r1, #12]
	.loc	4 402 1 is_stmt 1               @ ../std/GD32C2x1_Firmware_Library/GD32C2x1_standard_peripheral/Source/gd32c2x1_timer.c:402:1
	add	sp, #8
	bx	lr
.Ltmp69:
.Lfunc_end20:
	.size	timer_dma_enable, .Lfunc_end20-timer_dma_enable
	.cfi_endproc
	.cantunwind
	.fnend
                                        @ -- End function
	.section	.text.timer_dma_disable,"ax",%progbits
	.hidden	timer_dma_disable               @ -- Begin function timer_dma_disable
	.globl	timer_dma_disable
	.p2align	2
	.type	timer_dma_disable,%function
	.code	16                              @ @timer_dma_disable
	.thumb_func
timer_dma_disable:
.Lfunc_begin21:
	.loc	4 420 0                         @ ../std/GD32C2x1_Firmware_Library/GD32C2x1_standard_peripheral/Source/gd32c2x1_timer.c:420:0
	.fnstart
	.cfi_startproc
@ %bb.0:
	.pad	#8
	sub	sp, #8
	.cfi_def_cfa_offset 8
                                        @ kill: def $r2 killed $r1
	str	r0, [sp, #4]
	mov	r0, sp
	strh	r1, [r0]
.Ltmp70:
	.loc	4 421 40 prologue_end           @ ../std/GD32C2x1_Firmware_Library/GD32C2x1_standard_peripheral/Source/gd32c2x1_timer.c:421:40
	ldr	r0, [sp]
	mvns	r2, r0
	ldr	r0, __arm_cp.21_0
	.loc	4 421 38 is_stmt 0              @ ../std/GD32C2x1_Firmware_Library/GD32C2x1_standard_peripheral/Source/gd32c2x1_timer.c:421:38
	orrs	r2, r0
	.loc	4 421 5                         @ ../std/GD32C2x1_Firmware_Library/GD32C2x1_standard_peripheral/Source/gd32c2x1_timer.c:421:5
	ldr	r1, [sp, #4]
	.loc	4 421 34                        @ ../std/GD32C2x1_Firmware_Library/GD32C2x1_standard_peripheral/Source/gd32c2x1_timer.c:421:34
	ldr	r0, [r1, #12]
	ands	r0, r2
	str	r0, [r1, #12]
	.loc	4 422 1 is_stmt 1               @ ../std/GD32C2x1_Firmware_Library/GD32C2x1_standard_peripheral/Source/gd32c2x1_timer.c:422:1
	add	sp, #8
	bx	lr
.Ltmp71:
	.p2align	2
@ %bb.1:
	.loc	4 0 1 is_stmt 0                 @ ../std/GD32C2x1_Firmware_Library/GD32C2x1_standard_peripheral/Source/gd32c2x1_timer.c:0:1
__arm_cp.21_0:
	.long	4294942975                      @ 0xffffa0ff
.Lcpi_end14:
	.size	__arm_cp.21_0, .Lcpi_end14-__arm_cp.21_0
.Lfunc_end21:
	.size	timer_dma_disable, .Lfunc_end21-timer_dma_disable
	.cfi_endproc
	.cantunwind
	.fnend
                                        @ -- End function
	.section	.text.timer_channel_dma_request_source_select,"ax",%progbits
	.hidden	timer_channel_dma_request_source_select @ -- Begin function timer_channel_dma_request_source_select
	.globl	timer_channel_dma_request_source_select
	.p2align	1
	.type	timer_channel_dma_request_source_select,%function
	.code	16                              @ @timer_channel_dma_request_source_select
	.thumb_func
timer_channel_dma_request_source_select:
.Lfunc_begin22:
	.loc	4 435 0 is_stmt 1               @ ../std/GD32C2x1_Firmware_Library/GD32C2x1_standard_peripheral/Source/gd32c2x1_timer.c:435:0
	.fnstart
	.cfi_startproc
@ %bb.0:
	.pad	#8
	sub	sp, #8
	.cfi_def_cfa_offset 8
	str	r0, [sp, #4]
	str	r1, [sp]
.Ltmp72:
	.loc	4 436 40 prologue_end           @ ../std/GD32C2x1_Firmware_Library/GD32C2x1_standard_peripheral/Source/gd32c2x1_timer.c:436:40
	ldr	r0, [sp]
.Ltmp73:
	.loc	4 436 8 is_stmt 0               @ ../std/GD32C2x1_Firmware_Library/GD32C2x1_standard_peripheral/Source/gd32c2x1_timer.c:436:8
	cbnz	r0, .LBB22_2
	b	.LBB22_1
.LBB22_1:
.Ltmp74:
	.loc	4 437 9 is_stmt 1               @ ../std/GD32C2x1_Firmware_Library/GD32C2x1_standard_peripheral/Source/gd32c2x1_timer.c:437:9
	ldr	r1, [sp, #4]
	.loc	4 437 34 is_stmt 0              @ ../std/GD32C2x1_Firmware_Library/GD32C2x1_standard_peripheral/Source/gd32c2x1_timer.c:437:34
	ldr	r0, [r1, #4]
	movs	r2, #8
	orrs	r0, r2
	str	r0, [r1, #4]
	.loc	4 438 5 is_stmt 1               @ ../std/GD32C2x1_Firmware_Library/GD32C2x1_standard_peripheral/Source/gd32c2x1_timer.c:438:5
	b	.LBB22_6
.Ltmp75:
.LBB22_2:
	.loc	4 438 48 is_stmt 0              @ ../std/GD32C2x1_Firmware_Library/GD32C2x1_standard_peripheral/Source/gd32c2x1_timer.c:438:48
	ldr	r0, [sp]
.Ltmp76:
	.loc	4 438 15                        @ ../std/GD32C2x1_Firmware_Library/GD32C2x1_standard_peripheral/Source/gd32c2x1_timer.c:438:15
	cmp	r0, #1
	bne	.LBB22_4
	b	.LBB22_3
.LBB22_3:
.Ltmp77:
	.loc	4 439 9 is_stmt 1               @ ../std/GD32C2x1_Firmware_Library/GD32C2x1_standard_peripheral/Source/gd32c2x1_timer.c:439:9
	ldr	r1, [sp, #4]
	.loc	4 439 34 is_stmt 0              @ ../std/GD32C2x1_Firmware_Library/GD32C2x1_standard_peripheral/Source/gd32c2x1_timer.c:439:34
	ldr	r0, [r1, #4]
	movs	r2, #8
	bics	r0, r2
	str	r0, [r1, #4]
	.loc	4 440 5 is_stmt 1               @ ../std/GD32C2x1_Firmware_Library/GD32C2x1_standard_peripheral/Source/gd32c2x1_timer.c:440:5
	b	.LBB22_5
.Ltmp78:
.LBB22_4:
	.loc	4 0 5 is_stmt 0                 @ ../std/GD32C2x1_Firmware_Library/GD32C2x1_standard_peripheral/Source/gd32c2x1_timer.c:0:5
	b	.LBB22_5
.LBB22_5:
	b	.LBB22_6
.LBB22_6:
	.loc	4 443 1 is_stmt 1               @ ../std/GD32C2x1_Firmware_Library/GD32C2x1_standard_peripheral/Source/gd32c2x1_timer.c:443:1
	add	sp, #8
	bx	lr
.Ltmp79:
.Lfunc_end22:
	.size	timer_channel_dma_request_source_select, .Lfunc_end22-timer_channel_dma_request_source_select
	.cfi_endproc
	.cantunwind
	.fnend
                                        @ -- End function
	.section	.text.timer_dma_transfer_config,"ax",%progbits
	.hidden	timer_dma_transfer_config       @ -- Begin function timer_dma_transfer_config
	.globl	timer_dma_transfer_config
	.p2align	2
	.type	timer_dma_transfer_config,%function
	.code	16                              @ @timer_dma_transfer_config
	.thumb_func
timer_dma_transfer_config:
.Lfunc_begin23:
	.loc	4 477 0                         @ ../std/GD32C2x1_Firmware_Library/GD32C2x1_standard_peripheral/Source/gd32c2x1_timer.c:477:0
	.fnstart
	.cfi_startproc
@ %bb.0:
	.pad	#16
	sub	sp, #16
	.cfi_def_cfa_offset 16
	str	r0, [sp, #12]
	str	r1, [sp, #8]
	str	r2, [sp, #4]
.Ltmp80:
	.loc	4 479 11 prologue_end           @ ../std/GD32C2x1_Firmware_Library/GD32C2x1_standard_peripheral/Source/gd32c2x1_timer.c:479:11
	ldr	r0, [sp, #12]
	ldr	r0, [r0, #72]
	.loc	4 479 9 is_stmt 0               @ ../std/GD32C2x1_Firmware_Library/GD32C2x1_standard_peripheral/Source/gd32c2x1_timer.c:479:9
	str	r0, [sp]
	.loc	4 480 9 is_stmt 1               @ ../std/GD32C2x1_Firmware_Library/GD32C2x1_standard_peripheral/Source/gd32c2x1_timer.c:480:9
	ldr	r0, [sp]
	ldr	r1, __arm_cp.23_0
	ands	r0, r1
	str	r0, [sp]
	.loc	4 481 34                        @ ../std/GD32C2x1_Firmware_Library/GD32C2x1_standard_peripheral/Source/gd32c2x1_timer.c:481:34
	ldr	r0, [sp, #8]
	movs	r1, #31
	.loc	4 481 47 is_stmt 0              @ ../std/GD32C2x1_Firmware_Library/GD32C2x1_standard_peripheral/Source/gd32c2x1_timer.c:481:47
	ands	r0, r1
	.loc	4 481 72                        @ ../std/GD32C2x1_Firmware_Library/GD32C2x1_standard_peripheral/Source/gd32c2x1_timer.c:481:72
	ldr	r1, [sp, #4]
	movw	r2, #7936
	.loc	4 481 82                        @ ../std/GD32C2x1_Firmware_Library/GD32C2x1_standard_peripheral/Source/gd32c2x1_timer.c:481:82
	ands	r1, r2
	.loc	4 481 69                        @ ../std/GD32C2x1_Firmware_Library/GD32C2x1_standard_peripheral/Source/gd32c2x1_timer.c:481:69
	adds	r1, r0, r1
	.loc	4 481 9                         @ ../std/GD32C2x1_Firmware_Library/GD32C2x1_standard_peripheral/Source/gd32c2x1_timer.c:481:9
	ldr	r0, [sp]
	orrs	r0, r1
	str	r0, [sp]
	.loc	4 482 34 is_stmt 1              @ ../std/GD32C2x1_Firmware_Library/GD32C2x1_standard_peripheral/Source/gd32c2x1_timer.c:482:34
	ldr	r0, [sp]
	.loc	4 482 5 is_stmt 0               @ ../std/GD32C2x1_Firmware_Library/GD32C2x1_standard_peripheral/Source/gd32c2x1_timer.c:482:5
	ldr	r1, [sp, #12]
	.loc	4 482 32                        @ ../std/GD32C2x1_Firmware_Library/GD32C2x1_standard_peripheral/Source/gd32c2x1_timer.c:482:32
	str	r0, [r1, #72]
	.loc	4 483 1 is_stmt 1               @ ../std/GD32C2x1_Firmware_Library/GD32C2x1_standard_peripheral/Source/gd32c2x1_timer.c:483:1
	add	sp, #16
	bx	lr
.Ltmp81:
	.p2align	2
@ %bb.1:
	.loc	4 0 1 is_stmt 0                 @ ../std/GD32C2x1_Firmware_Library/GD32C2x1_standard_peripheral/Source/gd32c2x1_timer.c:0:1
__arm_cp.23_0:
	.long	4294959328                      @ 0xffffe0e0
.Lcpi_end15:
	.size	__arm_cp.23_0, .Lcpi_end15-__arm_cp.23_0
.Lfunc_end23:
	.size	timer_dma_transfer_config, .Lfunc_end23-timer_dma_transfer_config
	.cfi_endproc
	.cantunwind
	.fnend
                                        @ -- End function
	.section	.text.timer_event_software_generate,"ax",%progbits
	.hidden	timer_event_software_generate   @ -- Begin function timer_event_software_generate
	.globl	timer_event_software_generate
	.p2align	1
	.type	timer_event_software_generate,%function
	.code	16                              @ @timer_event_software_generate
	.thumb_func
timer_event_software_generate:
.Lfunc_begin24:
	.loc	4 503 0 is_stmt 1               @ ../std/GD32C2x1_Firmware_Library/GD32C2x1_standard_peripheral/Source/gd32c2x1_timer.c:503:0
	.fnstart
	.cfi_startproc
@ %bb.0:
	.pad	#8
	sub	sp, #8
	.cfi_def_cfa_offset 8
	str	r0, [sp, #4]
	str	r1, [sp]
.Ltmp82:
	.loc	4 504 44 prologue_end           @ ../std/GD32C2x1_Firmware_Library/GD32C2x1_standard_peripheral/Source/gd32c2x1_timer.c:504:44
	ldr	r2, [sp]
	.loc	4 504 5 is_stmt 0               @ ../std/GD32C2x1_Firmware_Library/GD32C2x1_standard_peripheral/Source/gd32c2x1_timer.c:504:5
	ldr	r1, [sp, #4]
	.loc	4 504 31                        @ ../std/GD32C2x1_Firmware_Library/GD32C2x1_standard_peripheral/Source/gd32c2x1_timer.c:504:31
	ldr	r0, [r1, #20]
	orrs	r0, r2
	str	r0, [r1, #20]
	.loc	4 505 1 is_stmt 1               @ ../std/GD32C2x1_Firmware_Library/GD32C2x1_standard_peripheral/Source/gd32c2x1_timer.c:505:1
	add	sp, #8
	bx	lr
.Ltmp83:
.Lfunc_end24:
	.size	timer_event_software_generate, .Lfunc_end24-timer_event_software_generate
	.cfi_endproc
	.cantunwind
	.fnend
                                        @ -- End function
	.section	.text.timer_break_struct_para_init,"ax",%progbits
	.hidden	timer_break_struct_para_init    @ -- Begin function timer_break_struct_para_init
	.globl	timer_break_struct_para_init
	.p2align	1
	.type	timer_break_struct_para_init,%function
	.code	16                              @ @timer_break_struct_para_init
	.thumb_func
timer_break_struct_para_init:
.Lfunc_begin25:
	.loc	4 514 0                         @ ../std/GD32C2x1_Firmware_Library/GD32C2x1_standard_peripheral/Source/gd32c2x1_timer.c:514:0
	.fnstart
	.cfi_startproc
@ %bb.0:
	.pad	#4
	sub	sp, #4
	.cfi_def_cfa_offset 4
	str	r0, [sp]
.Ltmp84:
	.loc	4 522 9 prologue_end            @ ../std/GD32C2x1_Firmware_Library/GD32C2x1_standard_peripheral/Source/gd32c2x1_timer.c:522:9
	ldr	r1, [sp]
	movs	r0, #0
	.loc	4 522 36 is_stmt 0              @ ../std/GD32C2x1_Firmware_Library/GD32C2x1_standard_peripheral/Source/gd32c2x1_timer.c:522:36
	strh	r0, [r1]
	.loc	4 523 9 is_stmt 1               @ ../std/GD32C2x1_Firmware_Library/GD32C2x1_standard_peripheral/Source/gd32c2x1_timer.c:523:9
	ldr	r1, [sp]
	.loc	4 523 36 is_stmt 0              @ ../std/GD32C2x1_Firmware_Library/GD32C2x1_standard_peripheral/Source/gd32c2x1_timer.c:523:36
	strh	r0, [r1, #2]
	.loc	4 524 9 is_stmt 1               @ ../std/GD32C2x1_Firmware_Library/GD32C2x1_standard_peripheral/Source/gd32c2x1_timer.c:524:9
	ldr	r1, [sp]
	.loc	4 524 36 is_stmt 0              @ ../std/GD32C2x1_Firmware_Library/GD32C2x1_standard_peripheral/Source/gd32c2x1_timer.c:524:36
	strh	r0, [r1, #4]
	.loc	4 525 9 is_stmt 1               @ ../std/GD32C2x1_Firmware_Library/GD32C2x1_standard_peripheral/Source/gd32c2x1_timer.c:525:9
	ldr	r1, [sp]
	.loc	4 525 36 is_stmt 0              @ ../std/GD32C2x1_Firmware_Library/GD32C2x1_standard_peripheral/Source/gd32c2x1_timer.c:525:36
	strh	r0, [r1, #8]
	.loc	4 526 9 is_stmt 1               @ ../std/GD32C2x1_Firmware_Library/GD32C2x1_standard_peripheral/Source/gd32c2x1_timer.c:526:9
	ldr	r1, [sp]
	.loc	4 526 36 is_stmt 0              @ ../std/GD32C2x1_Firmware_Library/GD32C2x1_standard_peripheral/Source/gd32c2x1_timer.c:526:36
	strh	r0, [r1, #10]
	.loc	4 527 9 is_stmt 1               @ ../std/GD32C2x1_Firmware_Library/GD32C2x1_standard_peripheral/Source/gd32c2x1_timer.c:527:9
	ldr	r1, [sp]
	.loc	4 527 36 is_stmt 0              @ ../std/GD32C2x1_Firmware_Library/GD32C2x1_standard_peripheral/Source/gd32c2x1_timer.c:527:36
	str	r0, [r1, #12]
	.loc	4 528 9 is_stmt 1               @ ../std/GD32C2x1_Firmware_Library/GD32C2x1_standard_peripheral/Source/gd32c2x1_timer.c:528:9
	ldr	r1, [sp]
	.loc	4 528 36 is_stmt 0              @ ../std/GD32C2x1_Firmware_Library/GD32C2x1_standard_peripheral/Source/gd32c2x1_timer.c:528:36
	str	r0, [r1, #16]
	.loc	4 529 9 is_stmt 1               @ ../std/GD32C2x1_Firmware_Library/GD32C2x1_standard_peripheral/Source/gd32c2x1_timer.c:529:9
	ldr	r1, [sp]
	.loc	4 529 36 is_stmt 0              @ ../std/GD32C2x1_Firmware_Library/GD32C2x1_standard_peripheral/Source/gd32c2x1_timer.c:529:36
	str	r0, [r1, #20]
	.loc	4 530 9 is_stmt 1               @ ../std/GD32C2x1_Firmware_Library/GD32C2x1_standard_peripheral/Source/gd32c2x1_timer.c:530:9
	ldr	r1, [sp]
	.loc	4 530 36 is_stmt 0              @ ../std/GD32C2x1_Firmware_Library/GD32C2x1_standard_peripheral/Source/gd32c2x1_timer.c:530:36
	str	r0, [r1, #24]
	.loc	4 531 9 is_stmt 1               @ ../std/GD32C2x1_Firmware_Library/GD32C2x1_standard_peripheral/Source/gd32c2x1_timer.c:531:9
	ldr	r1, [sp]
	.loc	4 531 36 is_stmt 0              @ ../std/GD32C2x1_Firmware_Library/GD32C2x1_standard_peripheral/Source/gd32c2x1_timer.c:531:36
	str	r0, [r1, #28]
	.loc	4 532 9 is_stmt 1               @ ../std/GD32C2x1_Firmware_Library/GD32C2x1_standard_peripheral/Source/gd32c2x1_timer.c:532:9
	ldr	r1, [sp]
	.loc	4 532 36 is_stmt 0              @ ../std/GD32C2x1_Firmware_Library/GD32C2x1_standard_peripheral/Source/gd32c2x1_timer.c:532:36
	str	r0, [r1, #32]
.Ltmp85:
	.loc	4 534 1 is_stmt 1               @ ../std/GD32C2x1_Firmware_Library/GD32C2x1_standard_peripheral/Source/gd32c2x1_timer.c:534:1
	add	sp, #4
	bx	lr
.Ltmp86:
.Lfunc_end25:
	.size	timer_break_struct_para_init, .Lfunc_end25-timer_break_struct_para_init
	.cfi_endproc
	.cantunwind
	.fnend
                                        @ -- End function
	.section	.text.timer_break_config,"ax",%progbits
	.hidden	timer_break_config              @ -- Begin function timer_break_config
	.globl	timer_break_config
	.p2align	2
	.type	timer_break_config,%function
	.code	16                              @ @timer_break_config
	.thumb_func
timer_break_config:
.Lfunc_begin26:
	.loc	4 555 0                         @ ../std/GD32C2x1_Firmware_Library/GD32C2x1_standard_peripheral/Source/gd32c2x1_timer.c:555:0
	.fnstart
	.cfi_startproc
@ %bb.0:
	.save	{r4, lr}
	push	{r4, lr}
	.cfi_def_cfa_offset 8
	.cfi_offset lr, -4
	.cfi_offset r4, -8
	.pad	#16
	sub	sp, #16
	.cfi_def_cfa_offset 24
	str	r0, [sp, #12]
	str	r1, [sp, #8]
.Ltmp87:
	.loc	4 562 23 prologue_end           @ ../std/GD32C2x1_Firmware_Library/GD32C2x1_standard_peripheral/Source/gd32c2x1_timer.c:562:23
	ldr	r0, [sp, #12]
	ldr	r1, __arm_cp.26_0
.Ltmp88:
	.loc	4 562 12 is_stmt 0              @ ../std/GD32C2x1_Firmware_Library/GD32C2x1_standard_peripheral/Source/gd32c2x1_timer.c:562:12
	cmp	r0, r1
	bne	.LBB26_2
	b	.LBB26_1
.LBB26_1:
.Ltmp89:
	.loc	4 563 50 is_stmt 1              @ ../std/GD32C2x1_Firmware_Library/GD32C2x1_standard_peripheral/Source/gd32c2x1_timer.c:563:50
	ldr	r1, [sp, #8]
	.loc	4 563 39 is_stmt 0              @ ../std/GD32C2x1_Firmware_Library/GD32C2x1_standard_peripheral/Source/gd32c2x1_timer.c:563:39
	str	r1, [sp, #4]                    @ 4-byte Spill
	ldrh	r0, [r1]
	movw	r2, #2048
	.loc	4 563 74                        @ ../std/GD32C2x1_Firmware_Library/GD32C2x1_standard_peripheral/Source/gd32c2x1_timer.c:563:74
	ands	r0, r2
	.loc	4 564 49 is_stmt 1              @ ../std/GD32C2x1_Firmware_Library/GD32C2x1_standard_peripheral/Source/gd32c2x1_timer.c:564:49
	ldrh	r2, [r1, #2]
	movw	r3, #1024
	.loc	4 564 85 is_stmt 0              @ ../std/GD32C2x1_Firmware_Library/GD32C2x1_standard_peripheral/Source/gd32c2x1_timer.c:564:85
	ands	r2, r3
	.loc	4 563 99 is_stmt 1              @ ../std/GD32C2x1_Firmware_Library/GD32C2x1_standard_peripheral/Source/gd32c2x1_timer.c:563:99
	adds	r0, r0, r2
	.loc	4 565 49                        @ ../std/GD32C2x1_Firmware_Library/GD32C2x1_standard_peripheral/Source/gd32c2x1_timer.c:565:49
	ldrb	r2, [r1, #4]
	.loc	4 564 110                       @ ../std/GD32C2x1_Firmware_Library/GD32C2x1_standard_peripheral/Source/gd32c2x1_timer.c:564:110
	adds	r0, r0, r2
	.loc	4 566 49                        @ ../std/GD32C2x1_Firmware_Library/GD32C2x1_standard_peripheral/Source/gd32c2x1_timer.c:566:49
	ldrh	r2, [r1, #8]
	movw	r3, #16384
	.loc	4 566 88 is_stmt 0              @ ../std/GD32C2x1_Firmware_Library/GD32C2x1_standard_peripheral/Source/gd32c2x1_timer.c:566:88
	ands	r2, r3
	.loc	4 565 96 is_stmt 1              @ ../std/GD32C2x1_Firmware_Library/GD32C2x1_standard_peripheral/Source/gd32c2x1_timer.c:565:96
	adds	r0, r0, r2
	.loc	4 567 71                        @ ../std/GD32C2x1_Firmware_Library/GD32C2x1_standard_peripheral/Source/gd32c2x1_timer.c:567:71
	ldr	r2, [r1, #12]
	movw	r3, #4096
	.loc	4 567 84 is_stmt 0              @ ../std/GD32C2x1_Firmware_Library/GD32C2x1_standard_peripheral/Source/gd32c2x1_timer.c:567:84
	ands	r2, r3
	.loc	4 566 111 is_stmt 1             @ ../std/GD32C2x1_Firmware_Library/GD32C2x1_standard_peripheral/Source/gd32c2x1_timer.c:566:111
	adds	r0, r0, r2
	.loc	4 568 71                        @ ../std/GD32C2x1_Firmware_Library/GD32C2x1_standard_peripheral/Source/gd32c2x1_timer.c:568:71
	ldr	r2, [r1, #16]
	.loc	4 568 91 is_stmt 0              @ ../std/GD32C2x1_Firmware_Library/GD32C2x1_standard_peripheral/Source/gd32c2x1_timer.c:568:91
	lsls	r2, r2, #28
	lsrs	r2, r2, #12
	.loc	4 567 107 is_stmt 1             @ ../std/GD32C2x1_Firmware_Library/GD32C2x1_standard_peripheral/Source/gd32c2x1_timer.c:567:107
	adds	r0, r0, r2
	.loc	4 569 71                        @ ../std/GD32C2x1_Firmware_Library/GD32C2x1_standard_peripheral/Source/gd32c2x1_timer.c:569:71
	ldr	r2, [r1, #20]
	movw	r3, #8192
	.loc	4 569 87 is_stmt 0              @ ../std/GD32C2x1_Firmware_Library/GD32C2x1_standard_peripheral/Source/gd32c2x1_timer.c:569:87
	ands	r2, r3
	.loc	4 568 112 is_stmt 1             @ ../std/GD32C2x1_Firmware_Library/GD32C2x1_standard_peripheral/Source/gd32c2x1_timer.c:568:112
	adds	r0, r0, r2
	.loc	4 570 71                        @ ../std/GD32C2x1_Firmware_Library/GD32C2x1_standard_peripheral/Source/gd32c2x1_timer.c:570:71
	ldr	r2, [r1, #24]
	movs	r3, #1
	lsls	r4, r3, #24
	.loc	4 570 84 is_stmt 0              @ ../std/GD32C2x1_Firmware_Library/GD32C2x1_standard_peripheral/Source/gd32c2x1_timer.c:570:84
	ands	r2, r4
	.loc	4 569 116 is_stmt 1             @ ../std/GD32C2x1_Firmware_Library/GD32C2x1_standard_peripheral/Source/gd32c2x1_timer.c:569:116
	orrs	r0, r2
	.loc	4 571 71                        @ ../std/GD32C2x1_Firmware_Library/GD32C2x1_standard_peripheral/Source/gd32c2x1_timer.c:571:71
	ldr	r2, [r1, #28]
	.loc	4 571 91 is_stmt 0              @ ../std/GD32C2x1_Firmware_Library/GD32C2x1_standard_peripheral/Source/gd32c2x1_timer.c:571:91
	lsls	r2, r2, #28
	lsrs	r2, r2, #8
	.loc	4 570 107 is_stmt 1             @ ../std/GD32C2x1_Firmware_Library/GD32C2x1_standard_peripheral/Source/gd32c2x1_timer.c:570:107
	orrs	r0, r2
	.loc	4 572 71                        @ ../std/GD32C2x1_Firmware_Library/GD32C2x1_standard_peripheral/Source/gd32c2x1_timer.c:572:71
	ldr	r2, [r1, #32]
	lsls	r3, r3, #25
	.loc	4 572 87 is_stmt 0              @ ../std/GD32C2x1_Firmware_Library/GD32C2x1_standard_peripheral/Source/gd32c2x1_timer.c:572:87
	ands	r2, r3
	.loc	4 571 112 is_stmt 1             @ ../std/GD32C2x1_Firmware_Library/GD32C2x1_standard_peripheral/Source/gd32c2x1_timer.c:571:112
	orrs	r0, r2
	.loc	4 573 49                        @ ../std/GD32C2x1_Firmware_Library/GD32C2x1_standard_peripheral/Source/gd32c2x1_timer.c:573:49
	ldrh	r1, [r1, #10]
	movw	r2, #768
	.loc	4 573 83 is_stmt 0              @ ../std/GD32C2x1_Firmware_Library/GD32C2x1_standard_peripheral/Source/gd32c2x1_timer.c:573:83
	ands	r1, r2
	.loc	4 572 117 is_stmt 1             @ ../std/GD32C2x1_Firmware_Library/GD32C2x1_standard_peripheral/Source/gd32c2x1_timer.c:572:117
	orrs	r0, r1
	.loc	4 563 9                         @ ../std/GD32C2x1_Firmware_Library/GD32C2x1_standard_peripheral/Source/gd32c2x1_timer.c:563:9
	ldr	r1, [sp, #12]
	.loc	4 563 34 is_stmt 0              @ ../std/GD32C2x1_Firmware_Library/GD32C2x1_standard_peripheral/Source/gd32c2x1_timer.c:563:34
	str	r0, [r1, #68]
	.loc	4 574 9 is_stmt 1               @ ../std/GD32C2x1_Firmware_Library/GD32C2x1_standard_peripheral/Source/gd32c2x1_timer.c:574:9
	b	.LBB26_7
.Ltmp90:
.LBB26_2:
	.loc	4 574 31 is_stmt 0              @ ../std/GD32C2x1_Firmware_Library/GD32C2x1_standard_peripheral/Source/gd32c2x1_timer.c:574:31
	ldr	r0, [sp, #12]
	ldr	r1, __arm_cp.26_1
	.loc	4 574 45                        @ ../std/GD32C2x1_Firmware_Library/GD32C2x1_standard_peripheral/Source/gd32c2x1_timer.c:574:45
	cmp	r0, r1
	beq	.LBB26_4
	b	.LBB26_3
.LBB26_3:
	.loc	4 574 60                        @ ../std/GD32C2x1_Firmware_Library/GD32C2x1_standard_peripheral/Source/gd32c2x1_timer.c:574:60
	ldr	r0, [sp, #12]
	ldr	r1, __arm_cp.26_2
.Ltmp91:
	.loc	4 574 19                        @ ../std/GD32C2x1_Firmware_Library/GD32C2x1_standard_peripheral/Source/gd32c2x1_timer.c:574:19
	cmp	r0, r1
	bne	.LBB26_5
	b	.LBB26_4
.LBB26_4:
.Ltmp92:
	.loc	4 575 54 is_stmt 1              @ ../std/GD32C2x1_Firmware_Library/GD32C2x1_standard_peripheral/Source/gd32c2x1_timer.c:575:54
	ldr	r1, [sp, #8]
	.loc	4 575 43 is_stmt 0              @ ../std/GD32C2x1_Firmware_Library/GD32C2x1_standard_peripheral/Source/gd32c2x1_timer.c:575:43
	str	r1, [sp]                        @ 4-byte Spill
	ldrh	r0, [r1]
	movw	r2, #2048
	.loc	4 575 78                        @ ../std/GD32C2x1_Firmware_Library/GD32C2x1_standard_peripheral/Source/gd32c2x1_timer.c:575:78
	ands	r0, r2
	.loc	4 576 49 is_stmt 1              @ ../std/GD32C2x1_Firmware_Library/GD32C2x1_standard_peripheral/Source/gd32c2x1_timer.c:576:49
	ldrh	r2, [r1, #2]
	movw	r3, #1024
	.loc	4 576 85 is_stmt 0              @ ../std/GD32C2x1_Firmware_Library/GD32C2x1_standard_peripheral/Source/gd32c2x1_timer.c:576:85
	ands	r2, r3
	.loc	4 575 103 is_stmt 1             @ ../std/GD32C2x1_Firmware_Library/GD32C2x1_standard_peripheral/Source/gd32c2x1_timer.c:575:103
	adds	r0, r0, r2
	.loc	4 577 49                        @ ../std/GD32C2x1_Firmware_Library/GD32C2x1_standard_peripheral/Source/gd32c2x1_timer.c:577:49
	ldrb	r2, [r1, #4]
	.loc	4 576 110                       @ ../std/GD32C2x1_Firmware_Library/GD32C2x1_standard_peripheral/Source/gd32c2x1_timer.c:576:110
	adds	r0, r0, r2
	.loc	4 578 49                        @ ../std/GD32C2x1_Firmware_Library/GD32C2x1_standard_peripheral/Source/gd32c2x1_timer.c:578:49
	ldrh	r2, [r1, #8]
	movw	r3, #16384
	.loc	4 578 88 is_stmt 0              @ ../std/GD32C2x1_Firmware_Library/GD32C2x1_standard_peripheral/Source/gd32c2x1_timer.c:578:88
	ands	r2, r3
	.loc	4 577 96 is_stmt 1              @ ../std/GD32C2x1_Firmware_Library/GD32C2x1_standard_peripheral/Source/gd32c2x1_timer.c:577:96
	adds	r0, r0, r2
	.loc	4 579 71                        @ ../std/GD32C2x1_Firmware_Library/GD32C2x1_standard_peripheral/Source/gd32c2x1_timer.c:579:71
	ldr	r2, [r1, #12]
	movw	r3, #4096
	.loc	4 579 84 is_stmt 0              @ ../std/GD32C2x1_Firmware_Library/GD32C2x1_standard_peripheral/Source/gd32c2x1_timer.c:579:84
	ands	r2, r3
	.loc	4 578 111 is_stmt 1             @ ../std/GD32C2x1_Firmware_Library/GD32C2x1_standard_peripheral/Source/gd32c2x1_timer.c:578:111
	adds	r0, r0, r2
	.loc	4 580 71                        @ ../std/GD32C2x1_Firmware_Library/GD32C2x1_standard_peripheral/Source/gd32c2x1_timer.c:580:71
	ldr	r2, [r1, #16]
	.loc	4 580 91 is_stmt 0              @ ../std/GD32C2x1_Firmware_Library/GD32C2x1_standard_peripheral/Source/gd32c2x1_timer.c:580:91
	lsls	r2, r2, #28
	lsrs	r2, r2, #12
	.loc	4 579 107 is_stmt 1             @ ../std/GD32C2x1_Firmware_Library/GD32C2x1_standard_peripheral/Source/gd32c2x1_timer.c:579:107
	adds	r0, r0, r2
	.loc	4 581 71                        @ ../std/GD32C2x1_Firmware_Library/GD32C2x1_standard_peripheral/Source/gd32c2x1_timer.c:581:71
	ldr	r2, [r1, #20]
	movw	r3, #8192
	.loc	4 581 87 is_stmt 0              @ ../std/GD32C2x1_Firmware_Library/GD32C2x1_standard_peripheral/Source/gd32c2x1_timer.c:581:87
	ands	r2, r3
	.loc	4 580 112 is_stmt 1             @ ../std/GD32C2x1_Firmware_Library/GD32C2x1_standard_peripheral/Source/gd32c2x1_timer.c:580:112
	adds	r0, r0, r2
	.loc	4 582 49                        @ ../std/GD32C2x1_Firmware_Library/GD32C2x1_standard_peripheral/Source/gd32c2x1_timer.c:582:49
	ldrh	r1, [r1, #10]
	movw	r2, #768
	.loc	4 582 83 is_stmt 0              @ ../std/GD32C2x1_Firmware_Library/GD32C2x1_standard_peripheral/Source/gd32c2x1_timer.c:582:83
	ands	r1, r2
	.loc	4 581 116 is_stmt 1             @ ../std/GD32C2x1_Firmware_Library/GD32C2x1_standard_peripheral/Source/gd32c2x1_timer.c:581:116
	orrs	r0, r1
	.loc	4 575 13                        @ ../std/GD32C2x1_Firmware_Library/GD32C2x1_standard_peripheral/Source/gd32c2x1_timer.c:575:13
	ldr	r1, [sp, #12]
	.loc	4 575 38 is_stmt 0              @ ../std/GD32C2x1_Firmware_Library/GD32C2x1_standard_peripheral/Source/gd32c2x1_timer.c:575:38
	str	r0, [r1, #68]
	.loc	4 583 9 is_stmt 1               @ ../std/GD32C2x1_Firmware_Library/GD32C2x1_standard_peripheral/Source/gd32c2x1_timer.c:583:9
	b	.LBB26_6
.Ltmp93:
.LBB26_5:
	.loc	4 0 9 is_stmt 0                 @ ../std/GD32C2x1_Firmware_Library/GD32C2x1_standard_peripheral/Source/gd32c2x1_timer.c:0:9
	b	.LBB26_6
.LBB26_6:
	b	.LBB26_7
.LBB26_7:
	.loc	4 587 1 is_stmt 1               @ ../std/GD32C2x1_Firmware_Library/GD32C2x1_standard_peripheral/Source/gd32c2x1_timer.c:587:1
	add	sp, #16
	pop	{r4, pc}
.Ltmp94:
	.p2align	2
@ %bb.8:
	.loc	4 0 1 is_stmt 0                 @ ../std/GD32C2x1_Firmware_Library/GD32C2x1_standard_peripheral/Source/gd32c2x1_timer.c:0:1
__arm_cp.26_0:
	.long	1073818624                      @ 0x40012c00
.Lcpi_end16:
	.size	__arm_cp.26_0, .Lcpi_end16-__arm_cp.26_0
__arm_cp.26_1:
	.long	1073824768                      @ 0x40014400
.Lcpi_end17:
	.size	__arm_cp.26_1, .Lcpi_end17-__arm_cp.26_1
__arm_cp.26_2:
	.long	1073825792                      @ 0x40014800
.Lcpi_end18:
	.size	__arm_cp.26_2, .Lcpi_end18-__arm_cp.26_2
.Lfunc_end26:
	.size	timer_break_config, .Lfunc_end26-timer_break_config
	.cfi_endproc
	.cantunwind
	.fnend
                                        @ -- End function
	.section	.text.timer_break_enable,"ax",%progbits
	.hidden	timer_break_enable              @ -- Begin function timer_break_enable
	.globl	timer_break_enable
	.p2align	2
	.type	timer_break_enable,%function
	.code	16                              @ @timer_break_enable
	.thumb_func
timer_break_enable:
.Lfunc_begin27:
	.loc	4 600 0 is_stmt 1               @ ../std/GD32C2x1_Firmware_Library/GD32C2x1_standard_peripheral/Source/gd32c2x1_timer.c:600:0
	.fnstart
	.cfi_startproc
@ %bb.0:
	.pad	#8
	sub	sp, #8
	.cfi_def_cfa_offset 8
                                        @ kill: def $r2 killed $r1
	str	r0, [sp, #4]
	mov	r0, sp
	strh	r1, [r0]
.Ltmp95:
	.loc	4 601 24 prologue_end           @ ../std/GD32C2x1_Firmware_Library/GD32C2x1_standard_peripheral/Source/gd32c2x1_timer.c:601:24
	ldrh	r0, [r0]
.Ltmp96:
	.loc	4 601 8 is_stmt 0               @ ../std/GD32C2x1_Firmware_Library/GD32C2x1_standard_peripheral/Source/gd32c2x1_timer.c:601:8
	cbnz	r0, .LBB27_2
	b	.LBB27_1
.LBB27_1:
.Ltmp97:
	.loc	4 602 7 is_stmt 1               @ ../std/GD32C2x1_Firmware_Library/GD32C2x1_standard_peripheral/Source/gd32c2x1_timer.c:602:7
	ldr	r1, [sp, #4]
	.loc	4 602 32 is_stmt 0              @ ../std/GD32C2x1_Firmware_Library/GD32C2x1_standard_peripheral/Source/gd32c2x1_timer.c:602:32
	ldr	r0, [r1, #68]
	movw	r2, #4096
	orrs	r0, r2
	str	r0, [r1, #68]
	.loc	4 603 5 is_stmt 1               @ ../std/GD32C2x1_Firmware_Library/GD32C2x1_standard_peripheral/Source/gd32c2x1_timer.c:603:5
	b	.LBB27_6
.Ltmp98:
.LBB27_2:
	.loc	4 603 25 is_stmt 0              @ ../std/GD32C2x1_Firmware_Library/GD32C2x1_standard_peripheral/Source/gd32c2x1_timer.c:603:25
	ldr	r0, [sp, #4]
	ldr	r1, __arm_cp.27_0
.Ltmp99:
	.loc	4 603 15                        @ ../std/GD32C2x1_Firmware_Library/GD32C2x1_standard_peripheral/Source/gd32c2x1_timer.c:603:15
	cmp	r0, r1
	bne	.LBB27_4
	b	.LBB27_3
.LBB27_3:
.Ltmp100:
	.loc	4 604 9 is_stmt 1               @ ../std/GD32C2x1_Firmware_Library/GD32C2x1_standard_peripheral/Source/gd32c2x1_timer.c:604:9
	ldr	r1, [sp, #4]
	.loc	4 604 34 is_stmt 0              @ ../std/GD32C2x1_Firmware_Library/GD32C2x1_standard_peripheral/Source/gd32c2x1_timer.c:604:34
	ldr	r0, [r1, #68]
	movs	r2, #1
	lsls	r2, r2, #24
	orrs	r0, r2
	str	r0, [r1, #68]
	.loc	4 605 5 is_stmt 1               @ ../std/GD32C2x1_Firmware_Library/GD32C2x1_standard_peripheral/Source/gd32c2x1_timer.c:605:5
	b	.LBB27_5
.Ltmp101:
.LBB27_4:
	.loc	4 0 5 is_stmt 0                 @ ../std/GD32C2x1_Firmware_Library/GD32C2x1_standard_peripheral/Source/gd32c2x1_timer.c:0:5
	b	.LBB27_5
.LBB27_5:
	b	.LBB27_6
.LBB27_6:
	.loc	4 608 1 is_stmt 1               @ ../std/GD32C2x1_Firmware_Library/GD32C2x1_standard_peripheral/Source/gd32c2x1_timer.c:608:1
	add	sp, #8
	bx	lr
.Ltmp102:
	.p2align	2
@ %bb.7:
	.loc	4 0 1 is_stmt 0                 @ ../std/GD32C2x1_Firmware_Library/GD32C2x1_standard_peripheral/Source/gd32c2x1_timer.c:0:1
__arm_cp.27_0:
	.long	1073818624                      @ 0x40012c00
.Lcpi_end19:
	.size	__arm_cp.27_0, .Lcpi_end19-__arm_cp.27_0
.Lfunc_end27:
	.size	timer_break_enable, .Lfunc_end27-timer_break_enable
	.cfi_endproc
	.cantunwind
	.fnend
                                        @ -- End function
	.section	.text.timer_break_disable,"ax",%progbits
	.hidden	timer_break_disable             @ -- Begin function timer_break_disable
	.globl	timer_break_disable
	.p2align	2
	.type	timer_break_disable,%function
	.code	16                              @ @timer_break_disable
	.thumb_func
timer_break_disable:
.Lfunc_begin28:
	.loc	4 621 0 is_stmt 1               @ ../std/GD32C2x1_Firmware_Library/GD32C2x1_standard_peripheral/Source/gd32c2x1_timer.c:621:0
	.fnstart
	.cfi_startproc
@ %bb.0:
	.pad	#8
	sub	sp, #8
	.cfi_def_cfa_offset 8
                                        @ kill: def $r2 killed $r1
	str	r0, [sp, #4]
	mov	r0, sp
	strh	r1, [r0]
.Ltmp103:
	.loc	4 622 24 prologue_end           @ ../std/GD32C2x1_Firmware_Library/GD32C2x1_standard_peripheral/Source/gd32c2x1_timer.c:622:24
	ldrh	r0, [r0]
.Ltmp104:
	.loc	4 622 8 is_stmt 0               @ ../std/GD32C2x1_Firmware_Library/GD32C2x1_standard_peripheral/Source/gd32c2x1_timer.c:622:8
	cbnz	r0, .LBB28_2
	b	.LBB28_1
.LBB28_1:
.Ltmp105:
	.loc	4 623 7 is_stmt 1               @ ../std/GD32C2x1_Firmware_Library/GD32C2x1_standard_peripheral/Source/gd32c2x1_timer.c:623:7
	ldr	r1, [sp, #4]
	.loc	4 623 32 is_stmt 0              @ ../std/GD32C2x1_Firmware_Library/GD32C2x1_standard_peripheral/Source/gd32c2x1_timer.c:623:32
	ldr	r0, [r1, #68]
	movw	r2, #4096
	bics	r0, r2
	str	r0, [r1, #68]
	.loc	4 624 5 is_stmt 1               @ ../std/GD32C2x1_Firmware_Library/GD32C2x1_standard_peripheral/Source/gd32c2x1_timer.c:624:5
	b	.LBB28_6
.Ltmp106:
.LBB28_2:
	.loc	4 624 25 is_stmt 0              @ ../std/GD32C2x1_Firmware_Library/GD32C2x1_standard_peripheral/Source/gd32c2x1_timer.c:624:25
	ldr	r0, [sp, #4]
	ldr	r1, __arm_cp.28_0
.Ltmp107:
	.loc	4 624 15                        @ ../std/GD32C2x1_Firmware_Library/GD32C2x1_standard_peripheral/Source/gd32c2x1_timer.c:624:15
	cmp	r0, r1
	bne	.LBB28_4
	b	.LBB28_3
.LBB28_3:
.Ltmp108:
	.loc	4 625 9 is_stmt 1               @ ../std/GD32C2x1_Firmware_Library/GD32C2x1_standard_peripheral/Source/gd32c2x1_timer.c:625:9
	ldr	r1, [sp, #4]
	.loc	4 625 34 is_stmt 0              @ ../std/GD32C2x1_Firmware_Library/GD32C2x1_standard_peripheral/Source/gd32c2x1_timer.c:625:34
	ldr	r0, [r1, #68]
	movs	r2, #1
	lsls	r2, r2, #24
	bics	r0, r2
	str	r0, [r1, #68]
	.loc	4 626 5 is_stmt 1               @ ../std/GD32C2x1_Firmware_Library/GD32C2x1_standard_peripheral/Source/gd32c2x1_timer.c:626:5
	b	.LBB28_5
.Ltmp109:
.LBB28_4:
	.loc	4 0 5 is_stmt 0                 @ ../std/GD32C2x1_Firmware_Library/GD32C2x1_standard_peripheral/Source/gd32c2x1_timer.c:0:5
	b	.LBB28_5
.LBB28_5:
	b	.LBB28_6
.LBB28_6:
	.loc	4 629 1 is_stmt 1               @ ../std/GD32C2x1_Firmware_Library/GD32C2x1_standard_peripheral/Source/gd32c2x1_timer.c:629:1
	add	sp, #8
	bx	lr
.Ltmp110:
	.p2align	2
@ %bb.7:
	.loc	4 0 1 is_stmt 0                 @ ../std/GD32C2x1_Firmware_Library/GD32C2x1_standard_peripheral/Source/gd32c2x1_timer.c:0:1
__arm_cp.28_0:
	.long	1073818624                      @ 0x40012c00
.Lcpi_end20:
	.size	__arm_cp.28_0, .Lcpi_end20-__arm_cp.28_0
.Lfunc_end28:
	.size	timer_break_disable, .Lfunc_end28-timer_break_disable
	.cfi_endproc
	.cantunwind
	.fnend
                                        @ -- End function
	.section	.text.timer_automatic_output_enable,"ax",%progbits
	.hidden	timer_automatic_output_enable   @ -- Begin function timer_automatic_output_enable
	.globl	timer_automatic_output_enable
	.p2align	1
	.type	timer_automatic_output_enable,%function
	.code	16                              @ @timer_automatic_output_enable
	.thumb_func
timer_automatic_output_enable:
.Lfunc_begin29:
	.loc	4 638 0 is_stmt 1               @ ../std/GD32C2x1_Firmware_Library/GD32C2x1_standard_peripheral/Source/gd32c2x1_timer.c:638:0
	.fnstart
	.cfi_startproc
@ %bb.0:
	.pad	#4
	sub	sp, #4
	.cfi_def_cfa_offset 4
	str	r0, [sp]
.Ltmp111:
	.loc	4 639 5 prologue_end            @ ../std/GD32C2x1_Firmware_Library/GD32C2x1_standard_peripheral/Source/gd32c2x1_timer.c:639:5
	ldr	r1, [sp]
	.loc	4 639 30 is_stmt 0              @ ../std/GD32C2x1_Firmware_Library/GD32C2x1_standard_peripheral/Source/gd32c2x1_timer.c:639:30
	ldr	r0, [r1, #68]
	movw	r2, #16384
	orrs	r0, r2
	str	r0, [r1, #68]
	.loc	4 640 1 is_stmt 1               @ ../std/GD32C2x1_Firmware_Library/GD32C2x1_standard_peripheral/Source/gd32c2x1_timer.c:640:1
	add	sp, #4
	bx	lr
.Ltmp112:
.Lfunc_end29:
	.size	timer_automatic_output_enable, .Lfunc_end29-timer_automatic_output_enable
	.cfi_endproc
	.cantunwind
	.fnend
                                        @ -- End function
	.section	.text.timer_automatic_output_disable,"ax",%progbits
	.hidden	timer_automatic_output_disable  @ -- Begin function timer_automatic_output_disable
	.globl	timer_automatic_output_disable
	.p2align	1
	.type	timer_automatic_output_disable,%function
	.code	16                              @ @timer_automatic_output_disable
	.thumb_func
timer_automatic_output_disable:
.Lfunc_begin30:
	.loc	4 649 0                         @ ../std/GD32C2x1_Firmware_Library/GD32C2x1_standard_peripheral/Source/gd32c2x1_timer.c:649:0
	.fnstart
	.cfi_startproc
@ %bb.0:
	.pad	#4
	sub	sp, #4
	.cfi_def_cfa_offset 4
	str	r0, [sp]
.Ltmp113:
	.loc	4 650 5 prologue_end            @ ../std/GD32C2x1_Firmware_Library/GD32C2x1_standard_peripheral/Source/gd32c2x1_timer.c:650:5
	ldr	r1, [sp]
	.loc	4 650 30 is_stmt 0              @ ../std/GD32C2x1_Firmware_Library/GD32C2x1_standard_peripheral/Source/gd32c2x1_timer.c:650:30
	ldr	r0, [r1, #68]
	movw	r2, #16384
	bics	r0, r2
	str	r0, [r1, #68]
	.loc	4 651 1 is_stmt 1               @ ../std/GD32C2x1_Firmware_Library/GD32C2x1_standard_peripheral/Source/gd32c2x1_timer.c:651:1
	add	sp, #4
	bx	lr
.Ltmp114:
.Lfunc_end30:
	.size	timer_automatic_output_disable, .Lfunc_end30-timer_automatic_output_disable
	.cfi_endproc
	.cantunwind
	.fnend
                                        @ -- End function
	.section	.text.timer_primary_output_config,"ax",%progbits
	.hidden	timer_primary_output_config     @ -- Begin function timer_primary_output_config
	.globl	timer_primary_output_config
	.p2align	1
	.type	timer_primary_output_config,%function
	.code	16                              @ @timer_primary_output_config
	.thumb_func
timer_primary_output_config:
.Lfunc_begin31:
	.loc	4 661 0                         @ ../std/GD32C2x1_Firmware_Library/GD32C2x1_standard_peripheral/Source/gd32c2x1_timer.c:661:0
	.fnstart
	.cfi_startproc
@ %bb.0:
	.pad	#8
	sub	sp, #8
	.cfi_def_cfa_offset 8
                                        @ kill: def $r2 killed $r1
	str	r0, [sp, #4]
	mov	r0, sp
	strb	r1, [r0]
.Ltmp115:
	.loc	4 662 18 prologue_end           @ ../std/GD32C2x1_Firmware_Library/GD32C2x1_standard_peripheral/Source/gd32c2x1_timer.c:662:18
	ldrb	r0, [r0]
.Ltmp116:
	.loc	4 662 8 is_stmt 0               @ ../std/GD32C2x1_Firmware_Library/GD32C2x1_standard_peripheral/Source/gd32c2x1_timer.c:662:8
	cmp	r0, #1
	bne	.LBB31_2
	b	.LBB31_1
.LBB31_1:
.Ltmp117:
	.loc	4 663 9 is_stmt 1               @ ../std/GD32C2x1_Firmware_Library/GD32C2x1_standard_peripheral/Source/gd32c2x1_timer.c:663:9
	ldr	r1, [sp, #4]
	.loc	4 663 34 is_stmt 0              @ ../std/GD32C2x1_Firmware_Library/GD32C2x1_standard_peripheral/Source/gd32c2x1_timer.c:663:34
	ldr	r0, [r1, #68]
	movw	r2, #32768
	orrs	r0, r2
	str	r0, [r1, #68]
	.loc	4 664 5 is_stmt 1               @ ../std/GD32C2x1_Firmware_Library/GD32C2x1_standard_peripheral/Source/gd32c2x1_timer.c:664:5
	b	.LBB31_3
.Ltmp118:
.LBB31_2:
	.loc	4 665 9                         @ ../std/GD32C2x1_Firmware_Library/GD32C2x1_standard_peripheral/Source/gd32c2x1_timer.c:665:9
	ldr	r1, [sp, #4]
	.loc	4 665 34 is_stmt 0              @ ../std/GD32C2x1_Firmware_Library/GD32C2x1_standard_peripheral/Source/gd32c2x1_timer.c:665:34
	ldr	r0, [r1, #68]
	movw	r2, #32768
	bics	r0, r2
	str	r0, [r1, #68]
	b	.LBB31_3
.Ltmp119:
.LBB31_3:
	.loc	4 667 1 is_stmt 1               @ ../std/GD32C2x1_Firmware_Library/GD32C2x1_standard_peripheral/Source/gd32c2x1_timer.c:667:1
	add	sp, #8
	bx	lr
.Ltmp120:
.Lfunc_end31:
	.size	timer_primary_output_config, .Lfunc_end31-timer_primary_output_config
	.cfi_endproc
	.cantunwind
	.fnend
                                        @ -- End function
	.section	.text.timer_channel_control_shadow_config,"ax",%progbits
	.hidden	timer_channel_control_shadow_config @ -- Begin function timer_channel_control_shadow_config
	.globl	timer_channel_control_shadow_config
	.p2align	1
	.type	timer_channel_control_shadow_config,%function
	.code	16                              @ @timer_channel_control_shadow_config
	.thumb_func
timer_channel_control_shadow_config:
.Lfunc_begin32:
	.loc	4 677 0                         @ ../std/GD32C2x1_Firmware_Library/GD32C2x1_standard_peripheral/Source/gd32c2x1_timer.c:677:0
	.fnstart
	.cfi_startproc
@ %bb.0:
	.pad	#8
	sub	sp, #8
	.cfi_def_cfa_offset 8
                                        @ kill: def $r2 killed $r1
	str	r0, [sp, #4]
	mov	r0, sp
	strb	r1, [r0]
.Ltmp121:
	.loc	4 678 18 prologue_end           @ ../std/GD32C2x1_Firmware_Library/GD32C2x1_standard_peripheral/Source/gd32c2x1_timer.c:678:18
	ldrb	r0, [r0]
.Ltmp122:
	.loc	4 678 8 is_stmt 0               @ ../std/GD32C2x1_Firmware_Library/GD32C2x1_standard_peripheral/Source/gd32c2x1_timer.c:678:8
	cmp	r0, #1
	bne	.LBB32_2
	b	.LBB32_1
.LBB32_1:
.Ltmp123:
	.loc	4 679 9 is_stmt 1               @ ../std/GD32C2x1_Firmware_Library/GD32C2x1_standard_peripheral/Source/gd32c2x1_timer.c:679:9
	ldr	r1, [sp, #4]
	.loc	4 679 34 is_stmt 0              @ ../std/GD32C2x1_Firmware_Library/GD32C2x1_standard_peripheral/Source/gd32c2x1_timer.c:679:34
	ldr	r0, [r1, #4]
	movs	r2, #1
	orrs	r0, r2
	str	r0, [r1, #4]
	.loc	4 680 5 is_stmt 1               @ ../std/GD32C2x1_Firmware_Library/GD32C2x1_standard_peripheral/Source/gd32c2x1_timer.c:680:5
	b	.LBB32_3
.Ltmp124:
.LBB32_2:
	.loc	4 681 9                         @ ../std/GD32C2x1_Firmware_Library/GD32C2x1_standard_peripheral/Source/gd32c2x1_timer.c:681:9
	ldr	r1, [sp, #4]
	.loc	4 681 34 is_stmt 0              @ ../std/GD32C2x1_Firmware_Library/GD32C2x1_standard_peripheral/Source/gd32c2x1_timer.c:681:34
	ldr	r0, [r1, #4]
	movs	r2, #1
	bics	r0, r2
	str	r0, [r1, #4]
	b	.LBB32_3
.Ltmp125:
.LBB32_3:
	.loc	4 683 1 is_stmt 1               @ ../std/GD32C2x1_Firmware_Library/GD32C2x1_standard_peripheral/Source/gd32c2x1_timer.c:683:1
	add	sp, #8
	bx	lr
.Ltmp126:
.Lfunc_end32:
	.size	timer_channel_control_shadow_config, .Lfunc_end32-timer_channel_control_shadow_config
	.cfi_endproc
	.cantunwind
	.fnend
                                        @ -- End function
	.section	.text.timer_channel_control_shadow_update_config,"ax",%progbits
	.hidden	timer_channel_control_shadow_update_config @ -- Begin function timer_channel_control_shadow_update_config
	.globl	timer_channel_control_shadow_update_config
	.p2align	1
	.type	timer_channel_control_shadow_update_config,%function
	.code	16                              @ @timer_channel_control_shadow_update_config
	.thumb_func
timer_channel_control_shadow_update_config:
.Lfunc_begin33:
	.loc	4 696 0                         @ ../std/GD32C2x1_Firmware_Library/GD32C2x1_standard_peripheral/Source/gd32c2x1_timer.c:696:0
	.fnstart
	.cfi_startproc
@ %bb.0:
	.pad	#8
	sub	sp, #8
	.cfi_def_cfa_offset 8
	str	r0, [sp, #4]
	str	r1, [sp]
.Ltmp127:
	.loc	4 697 35 prologue_end           @ ../std/GD32C2x1_Firmware_Library/GD32C2x1_standard_peripheral/Source/gd32c2x1_timer.c:697:35
	ldr	r0, [sp]
.Ltmp128:
	.loc	4 697 12 is_stmt 0              @ ../std/GD32C2x1_Firmware_Library/GD32C2x1_standard_peripheral/Source/gd32c2x1_timer.c:697:12
	cbnz	r0, .LBB33_2
	b	.LBB33_1
.LBB33_1:
.Ltmp129:
	.loc	4 698 13 is_stmt 1              @ ../std/GD32C2x1_Firmware_Library/GD32C2x1_standard_peripheral/Source/gd32c2x1_timer.c:698:13
	ldr	r1, [sp, #4]
	.loc	4 698 38 is_stmt 0              @ ../std/GD32C2x1_Firmware_Library/GD32C2x1_standard_peripheral/Source/gd32c2x1_timer.c:698:38
	ldr	r0, [r1, #4]
	movs	r2, #4
	bics	r0, r2
	str	r0, [r1, #4]
	.loc	4 699 9 is_stmt 1               @ ../std/GD32C2x1_Firmware_Library/GD32C2x1_standard_peripheral/Source/gd32c2x1_timer.c:699:9
	b	.LBB33_6
.Ltmp130:
.LBB33_2:
	.loc	4 699 44 is_stmt 0              @ ../std/GD32C2x1_Firmware_Library/GD32C2x1_standard_peripheral/Source/gd32c2x1_timer.c:699:44
	ldr	r0, [sp]
.Ltmp131:
	.loc	4 699 18                        @ ../std/GD32C2x1_Firmware_Library/GD32C2x1_standard_peripheral/Source/gd32c2x1_timer.c:699:18
	cmp	r0, #1
	bne	.LBB33_4
	b	.LBB33_3
.LBB33_3:
.Ltmp132:
	.loc	4 700 13 is_stmt 1              @ ../std/GD32C2x1_Firmware_Library/GD32C2x1_standard_peripheral/Source/gd32c2x1_timer.c:700:13
	ldr	r1, [sp, #4]
	.loc	4 700 38 is_stmt 0              @ ../std/GD32C2x1_Firmware_Library/GD32C2x1_standard_peripheral/Source/gd32c2x1_timer.c:700:38
	ldr	r0, [r1, #4]
	movs	r2, #4
	orrs	r0, r2
	str	r0, [r1, #4]
	.loc	4 701 9 is_stmt 1               @ ../std/GD32C2x1_Firmware_Library/GD32C2x1_standard_peripheral/Source/gd32c2x1_timer.c:701:9
	b	.LBB33_5
.Ltmp133:
.LBB33_4:
	.loc	4 0 9 is_stmt 0                 @ ../std/GD32C2x1_Firmware_Library/GD32C2x1_standard_peripheral/Source/gd32c2x1_timer.c:0:9
	b	.LBB33_5
.LBB33_5:
	b	.LBB33_6
.LBB33_6:
	.loc	4 704 1 is_stmt 1               @ ../std/GD32C2x1_Firmware_Library/GD32C2x1_standard_peripheral/Source/gd32c2x1_timer.c:704:1
	add	sp, #8
	bx	lr
.Ltmp134:
.Lfunc_end33:
	.size	timer_channel_control_shadow_update_config, .Lfunc_end33-timer_channel_control_shadow_update_config
	.cfi_endproc
	.cantunwind
	.fnend
                                        @ -- End function
	.section	.text.timer_channel_output_struct_para_init,"ax",%progbits
	.hidden	timer_channel_output_struct_para_init @ -- Begin function timer_channel_output_struct_para_init
	.globl	timer_channel_output_struct_para_init
	.p2align	1
	.type	timer_channel_output_struct_para_init,%function
	.code	16                              @ @timer_channel_output_struct_para_init
	.thumb_func
timer_channel_output_struct_para_init:
.Lfunc_begin34:
	.loc	4 713 0                         @ ../std/GD32C2x1_Firmware_Library/GD32C2x1_standard_peripheral/Source/gd32c2x1_timer.c:713:0
	.fnstart
	.cfi_startproc
@ %bb.0:
	.pad	#4
	sub	sp, #4
	.cfi_def_cfa_offset 4
	str	r0, [sp]
.Ltmp135:
	.loc	4 721 9 prologue_end            @ ../std/GD32C2x1_Firmware_Library/GD32C2x1_standard_peripheral/Source/gd32c2x1_timer.c:721:9
	ldr	r1, [sp]
	movs	r0, #0
	.loc	4 721 30 is_stmt 0              @ ../std/GD32C2x1_Firmware_Library/GD32C2x1_standard_peripheral/Source/gd32c2x1_timer.c:721:30
	strh	r0, [r1]
	.loc	4 722 9 is_stmt 1               @ ../std/GD32C2x1_Firmware_Library/GD32C2x1_standard_peripheral/Source/gd32c2x1_timer.c:722:9
	ldr	r1, [sp]
	.loc	4 722 30 is_stmt 0              @ ../std/GD32C2x1_Firmware_Library/GD32C2x1_standard_peripheral/Source/gd32c2x1_timer.c:722:30
	strh	r0, [r1, #2]
	.loc	4 723 9 is_stmt 1               @ ../std/GD32C2x1_Firmware_Library/GD32C2x1_standard_peripheral/Source/gd32c2x1_timer.c:723:9
	ldr	r1, [sp]
	.loc	4 723 30 is_stmt 0              @ ../std/GD32C2x1_Firmware_Library/GD32C2x1_standard_peripheral/Source/gd32c2x1_timer.c:723:30
	strh	r0, [r1, #4]
	.loc	4 724 9 is_stmt 1               @ ../std/GD32C2x1_Firmware_Library/GD32C2x1_standard_peripheral/Source/gd32c2x1_timer.c:724:9
	ldr	r1, [sp]
	.loc	4 724 30 is_stmt 0              @ ../std/GD32C2x1_Firmware_Library/GD32C2x1_standard_peripheral/Source/gd32c2x1_timer.c:724:30
	strh	r0, [r1, #6]
	.loc	4 725 9 is_stmt 1               @ ../std/GD32C2x1_Firmware_Library/GD32C2x1_standard_peripheral/Source/gd32c2x1_timer.c:725:9
	ldr	r1, [sp]
	.loc	4 725 30 is_stmt 0              @ ../std/GD32C2x1_Firmware_Library/GD32C2x1_standard_peripheral/Source/gd32c2x1_timer.c:725:30
	strh	r0, [r1, #8]
	.loc	4 726 9 is_stmt 1               @ ../std/GD32C2x1_Firmware_Library/GD32C2x1_standard_peripheral/Source/gd32c2x1_timer.c:726:9
	ldr	r1, [sp]
	.loc	4 726 30 is_stmt 0              @ ../std/GD32C2x1_Firmware_Library/GD32C2x1_standard_peripheral/Source/gd32c2x1_timer.c:726:30
	strh	r0, [r1, #10]
.Ltmp136:
	.loc	4 728 1 is_stmt 1               @ ../std/GD32C2x1_Firmware_Library/GD32C2x1_standard_peripheral/Source/gd32c2x1_timer.c:728:1
	add	sp, #4
	bx	lr
.Ltmp137:
.Lfunc_end34:
	.size	timer_channel_output_struct_para_init, .Lfunc_end34-timer_channel_output_struct_para_init
	.cfi_endproc
	.cantunwind
	.fnend
                                        @ -- End function
	.section	.text.timer_channel_output_config,"ax",%progbits
	.hidden	timer_channel_output_config     @ -- Begin function timer_channel_output_config
	.globl	timer_channel_output_config
	.p2align	2
	.type	timer_channel_output_config,%function
	.code	16                              @ @timer_channel_output_config
	.thumb_func
timer_channel_output_config:
.Lfunc_begin35:
	.loc	4 751 0                         @ ../std/GD32C2x1_Firmware_Library/GD32C2x1_standard_peripheral/Source/gd32c2x1_timer.c:751:0
	.fnstart
	.cfi_startproc
@ %bb.0:
	.pad	#20
	sub	sp, #20
	.cfi_def_cfa_offset 20
                                        @ kill: def $r3 killed $r1
	str	r0, [sp, #16]
	add	r0, sp, #12
	strh	r1, [r0]
	str	r2, [sp, #8]
.Ltmp138:
	.loc	4 759 16 prologue_end           @ ../std/GD32C2x1_Firmware_Library/GD32C2x1_standard_peripheral/Source/gd32c2x1_timer.c:759:16
	ldrh	r0, [r0]
	.loc	4 759 9 is_stmt 0               @ ../std/GD32C2x1_Firmware_Library/GD32C2x1_standard_peripheral/Source/gd32c2x1_timer.c:759:9
	str	r0, [sp]                        @ 4-byte Spill
	cmp	r0, #4
	bls	.LBB35_1
	b	.LBB35_20
.LBB35_1:
	.loc	4 0 9                           @ ../std/GD32C2x1_Firmware_Library/GD32C2x1_standard_peripheral/Source/gd32c2x1_timer.c:0:9
	ldr	r1, [sp]                        @ 4-byte Reload
	lsls	r2, r1, #2
	adr	r0, .LJTI35_0
	adds	r0, r0, r2
	mov	pc, r0
@ %bb.2:
	.p2align	2
.LJTI35_0:
	b.w	.LBB35_3
	b.w	.LBB35_8
	b.w	.LBB35_11
	b.w	.LBB35_14
	b.w	.LBB35_17
.LBB35_3:
.Ltmp139:
	.loc	4 763 13 is_stmt 1              @ ../std/GD32C2x1_Firmware_Library/GD32C2x1_standard_peripheral/Source/gd32c2x1_timer.c:763:13
	ldr	r2, [sp, #16]
	.loc	4 763 40 is_stmt 0              @ ../std/GD32C2x1_Firmware_Library/GD32C2x1_standard_peripheral/Source/gd32c2x1_timer.c:763:40
	ldr	r1, [r2, #32]
	movs	r0, #1
	bics	r1, r0
	str	r1, [r2, #32]
	.loc	4 764 13 is_stmt 1              @ ../std/GD32C2x1_Firmware_Library/GD32C2x1_standard_peripheral/Source/gd32c2x1_timer.c:764:13
	ldr	r2, [sp, #16]
	.loc	4 764 40 is_stmt 0              @ ../std/GD32C2x1_Firmware_Library/GD32C2x1_standard_peripheral/Source/gd32c2x1_timer.c:764:40
	ldr	r1, [r2, #24]
	movs	r3, #3
	bics	r1, r3
	str	r1, [r2, #24]
	.loc	4 766 54 is_stmt 1              @ ../std/GD32C2x1_Firmware_Library/GD32C2x1_standard_peripheral/Source/gd32c2x1_timer.c:766:54
	ldr	r1, [sp, #8]
	.loc	4 766 44 is_stmt 0              @ ../std/GD32C2x1_Firmware_Library/GD32C2x1_standard_peripheral/Source/gd32c2x1_timer.c:766:44
	ldrh	r2, [r1]
	.loc	4 766 74                        @ ../std/GD32C2x1_Firmware_Library/GD32C2x1_standard_peripheral/Source/gd32c2x1_timer.c:766:74
	ands	r2, r0
	.loc	4 766 13                        @ ../std/GD32C2x1_Firmware_Library/GD32C2x1_standard_peripheral/Source/gd32c2x1_timer.c:766:13
	ldr	r1, [sp, #16]
	.loc	4 766 40                        @ ../std/GD32C2x1_Firmware_Library/GD32C2x1_standard_peripheral/Source/gd32c2x1_timer.c:766:40
	ldr	r0, [r1, #32]
	orrs	r0, r2
	str	r0, [r1, #32]
	.loc	4 768 19 is_stmt 1              @ ../std/GD32C2x1_Firmware_Library/GD32C2x1_standard_peripheral/Source/gd32c2x1_timer.c:768:19
	ldr	r0, [sp, #16]
	ldr	r0, [r0, #32]
	.loc	4 768 17 is_stmt 0              @ ../std/GD32C2x1_Firmware_Library/GD32C2x1_standard_peripheral/Source/gd32c2x1_timer.c:768:17
	str	r0, [sp, #4]
	.loc	4 769 17 is_stmt 1              @ ../std/GD32C2x1_Firmware_Library/GD32C2x1_standard_peripheral/Source/gd32c2x1_timer.c:769:17
	ldr	r1, [sp, #4]
	movs	r0, #2
	bics	r1, r0
	str	r1, [sp, #4]
	.loc	4 770 31                        @ ../std/GD32C2x1_Firmware_Library/GD32C2x1_standard_peripheral/Source/gd32c2x1_timer.c:770:31
	ldr	r1, [sp, #8]
	.loc	4 770 21 is_stmt 0              @ ../std/GD32C2x1_Firmware_Library/GD32C2x1_standard_peripheral/Source/gd32c2x1_timer.c:770:21
	ldrh	r1, [r1, #4]
	.loc	4 770 50                        @ ../std/GD32C2x1_Firmware_Library/GD32C2x1_standard_peripheral/Source/gd32c2x1_timer.c:770:50
	ands	r1, r0
	.loc	4 770 17                        @ ../std/GD32C2x1_Firmware_Library/GD32C2x1_standard_peripheral/Source/gd32c2x1_timer.c:770:17
	ldr	r0, [sp, #4]
	orrs	r0, r1
	str	r0, [sp, #4]
	.loc	4 771 42 is_stmt 1              @ ../std/GD32C2x1_Firmware_Library/GD32C2x1_standard_peripheral/Source/gd32c2x1_timer.c:771:42
	ldr	r0, [sp, #4]
	.loc	4 771 13 is_stmt 0              @ ../std/GD32C2x1_Firmware_Library/GD32C2x1_standard_peripheral/Source/gd32c2x1_timer.c:771:13
	ldr	r1, [sp, #16]
	.loc	4 771 40                        @ ../std/GD32C2x1_Firmware_Library/GD32C2x1_standard_peripheral/Source/gd32c2x1_timer.c:771:40
	str	r0, [r1, #32]
.Ltmp140:
	.loc	4 772 27 is_stmt 1              @ ../std/GD32C2x1_Firmware_Library/GD32C2x1_standard_peripheral/Source/gd32c2x1_timer.c:772:27
	ldr	r0, [sp, #16]
	ldr	r1, __arm_cp.35_0
	.loc	4 772 41 is_stmt 0              @ ../std/GD32C2x1_Firmware_Library/GD32C2x1_standard_peripheral/Source/gd32c2x1_timer.c:772:41
	cmp	r0, r1
	beq	.LBB35_6
	b	.LBB35_4
.LBB35_4:
	.loc	4 772 56                        @ ../std/GD32C2x1_Firmware_Library/GD32C2x1_standard_peripheral/Source/gd32c2x1_timer.c:772:56
	ldr	r0, [sp, #16]
	ldr	r1, __arm_cp.35_2
	.loc	4 772 70                        @ ../std/GD32C2x1_Firmware_Library/GD32C2x1_standard_peripheral/Source/gd32c2x1_timer.c:772:70
	cmp	r0, r1
	beq	.LBB35_6
	b	.LBB35_5
.LBB35_5:
	.loc	4 772 85                        @ ../std/GD32C2x1_Firmware_Library/GD32C2x1_standard_peripheral/Source/gd32c2x1_timer.c:772:85
	ldr	r0, [sp, #16]
	ldr	r1, __arm_cp.35_3
.Ltmp141:
	.loc	4 772 16                        @ ../std/GD32C2x1_Firmware_Library/GD32C2x1_standard_peripheral/Source/gd32c2x1_timer.c:772:16
	cmp	r0, r1
	bne	.LBB35_7
	b	.LBB35_6
.LBB35_6:
.Ltmp142:
	.loc	4 774 17 is_stmt 1              @ ../std/GD32C2x1_Firmware_Library/GD32C2x1_standard_peripheral/Source/gd32c2x1_timer.c:774:17
	ldr	r2, [sp, #16]
	.loc	4 774 44 is_stmt 0              @ ../std/GD32C2x1_Firmware_Library/GD32C2x1_standard_peripheral/Source/gd32c2x1_timer.c:774:44
	ldr	r1, [r2, #32]
	movs	r0, #4
	bics	r1, r0
	str	r1, [r2, #32]
	.loc	4 776 58 is_stmt 1              @ ../std/GD32C2x1_Firmware_Library/GD32C2x1_standard_peripheral/Source/gd32c2x1_timer.c:776:58
	ldr	r1, [sp, #8]
	ldrh	r2, [r1, #2]
	.loc	4 776 79 is_stmt 0              @ ../std/GD32C2x1_Firmware_Library/GD32C2x1_standard_peripheral/Source/gd32c2x1_timer.c:776:79
	ands	r2, r0
	.loc	4 776 17                        @ ../std/GD32C2x1_Firmware_Library/GD32C2x1_standard_peripheral/Source/gd32c2x1_timer.c:776:17
	ldr	r1, [sp, #16]
	.loc	4 776 44                        @ ../std/GD32C2x1_Firmware_Library/GD32C2x1_standard_peripheral/Source/gd32c2x1_timer.c:776:44
	ldr	r0, [r1, #32]
	orrs	r0, r2
	str	r0, [r1, #32]
	.loc	4 778 17 is_stmt 1              @ ../std/GD32C2x1_Firmware_Library/GD32C2x1_standard_peripheral/Source/gd32c2x1_timer.c:778:17
	ldr	r2, [sp, #16]
	.loc	4 778 44 is_stmt 0              @ ../std/GD32C2x1_Firmware_Library/GD32C2x1_standard_peripheral/Source/gd32c2x1_timer.c:778:44
	ldr	r1, [r2, #32]
	movs	r0, #8
	bics	r1, r0
	str	r1, [r2, #32]
	.loc	4 780 58 is_stmt 1              @ ../std/GD32C2x1_Firmware_Library/GD32C2x1_standard_peripheral/Source/gd32c2x1_timer.c:780:58
	ldr	r1, [sp, #8]
	ldrh	r2, [r1, #6]
	.loc	4 780 78 is_stmt 0              @ ../std/GD32C2x1_Firmware_Library/GD32C2x1_standard_peripheral/Source/gd32c2x1_timer.c:780:78
	ands	r2, r0
	.loc	4 780 17                        @ ../std/GD32C2x1_Firmware_Library/GD32C2x1_standard_peripheral/Source/gd32c2x1_timer.c:780:17
	ldr	r1, [sp, #16]
	.loc	4 780 44                        @ ../std/GD32C2x1_Firmware_Library/GD32C2x1_standard_peripheral/Source/gd32c2x1_timer.c:780:44
	ldr	r0, [r1, #32]
	orrs	r0, r2
	str	r0, [r1, #32]
	.loc	4 782 17 is_stmt 1              @ ../std/GD32C2x1_Firmware_Library/GD32C2x1_standard_peripheral/Source/gd32c2x1_timer.c:782:17
	ldr	r2, [sp, #16]
	.loc	4 782 42 is_stmt 0              @ ../std/GD32C2x1_Firmware_Library/GD32C2x1_standard_peripheral/Source/gd32c2x1_timer.c:782:42
	ldr	r1, [r2, #4]
	movw	r0, #256
	bics	r1, r0
	str	r1, [r2, #4]
	.loc	4 784 56 is_stmt 1              @ ../std/GD32C2x1_Firmware_Library/GD32C2x1_standard_peripheral/Source/gd32c2x1_timer.c:784:56
	ldr	r1, [sp, #8]
	ldrh	r2, [r1, #8]
	.loc	4 784 76 is_stmt 0              @ ../std/GD32C2x1_Firmware_Library/GD32C2x1_standard_peripheral/Source/gd32c2x1_timer.c:784:76
	ands	r2, r0
	.loc	4 784 17                        @ ../std/GD32C2x1_Firmware_Library/GD32C2x1_standard_peripheral/Source/gd32c2x1_timer.c:784:17
	ldr	r1, [sp, #16]
	.loc	4 784 42                        @ ../std/GD32C2x1_Firmware_Library/GD32C2x1_standard_peripheral/Source/gd32c2x1_timer.c:784:42
	ldr	r0, [r1, #4]
	orrs	r0, r2
	str	r0, [r1, #4]
	.loc	4 786 17 is_stmt 1              @ ../std/GD32C2x1_Firmware_Library/GD32C2x1_standard_peripheral/Source/gd32c2x1_timer.c:786:17
	ldr	r2, [sp, #16]
	.loc	4 786 42 is_stmt 0              @ ../std/GD32C2x1_Firmware_Library/GD32C2x1_standard_peripheral/Source/gd32c2x1_timer.c:786:42
	ldr	r1, [r2, #4]
	movw	r0, #512
	bics	r1, r0
	str	r1, [r2, #4]
	.loc	4 788 56 is_stmt 1              @ ../std/GD32C2x1_Firmware_Library/GD32C2x1_standard_peripheral/Source/gd32c2x1_timer.c:788:56
	ldr	r1, [sp, #8]
	ldrh	r2, [r1, #10]
	.loc	4 788 77 is_stmt 0              @ ../std/GD32C2x1_Firmware_Library/GD32C2x1_standard_peripheral/Source/gd32c2x1_timer.c:788:77
	ands	r2, r0
	.loc	4 788 17                        @ ../std/GD32C2x1_Firmware_Library/GD32C2x1_standard_peripheral/Source/gd32c2x1_timer.c:788:17
	ldr	r1, [sp, #16]
	.loc	4 788 42                        @ ../std/GD32C2x1_Firmware_Library/GD32C2x1_standard_peripheral/Source/gd32c2x1_timer.c:788:42
	ldr	r0, [r1, #4]
	orrs	r0, r2
	str	r0, [r1, #4]
	.loc	4 789 13 is_stmt 1              @ ../std/GD32C2x1_Firmware_Library/GD32C2x1_standard_peripheral/Source/gd32c2x1_timer.c:789:13
	b	.LBB35_7
.Ltmp143:
.LBB35_7:
	.loc	4 790 13                        @ ../std/GD32C2x1_Firmware_Library/GD32C2x1_standard_peripheral/Source/gd32c2x1_timer.c:790:13
	b	.LBB35_21
.LBB35_8:
	.loc	4 794 13                        @ ../std/GD32C2x1_Firmware_Library/GD32C2x1_standard_peripheral/Source/gd32c2x1_timer.c:794:13
	ldr	r1, [sp, #16]
	.loc	4 794 40 is_stmt 0              @ ../std/GD32C2x1_Firmware_Library/GD32C2x1_standard_peripheral/Source/gd32c2x1_timer.c:794:40
	ldr	r0, [r1, #32]
	movs	r2, #16
	bics	r0, r2
	str	r0, [r1, #32]
	.loc	4 795 13 is_stmt 1              @ ../std/GD32C2x1_Firmware_Library/GD32C2x1_standard_peripheral/Source/gd32c2x1_timer.c:795:13
	ldr	r1, [sp, #16]
	.loc	4 795 40 is_stmt 0              @ ../std/GD32C2x1_Firmware_Library/GD32C2x1_standard_peripheral/Source/gd32c2x1_timer.c:795:40
	ldr	r0, [r1, #24]
	movw	r2, #768
	bics	r0, r2
	str	r0, [r1, #24]
	.loc	4 797 55 is_stmt 1              @ ../std/GD32C2x1_Firmware_Library/GD32C2x1_standard_peripheral/Source/gd32c2x1_timer.c:797:55
	ldr	r0, [sp, #8]
	.loc	4 797 45 is_stmt 0              @ ../std/GD32C2x1_Firmware_Library/GD32C2x1_standard_peripheral/Source/gd32c2x1_timer.c:797:45
	ldrh	r0, [r0]
	.loc	4 797 95                        @ ../std/GD32C2x1_Firmware_Library/GD32C2x1_standard_peripheral/Source/gd32c2x1_timer.c:797:95
	lsls	r0, r0, #31
	lsrs	r2, r0, #27
	.loc	4 797 13                        @ ../std/GD32C2x1_Firmware_Library/GD32C2x1_standard_peripheral/Source/gd32c2x1_timer.c:797:13
	ldr	r1, [sp, #16]
	.loc	4 797 40                        @ ../std/GD32C2x1_Firmware_Library/GD32C2x1_standard_peripheral/Source/gd32c2x1_timer.c:797:40
	ldr	r0, [r1, #32]
	orrs	r0, r2
	str	r0, [r1, #32]
	.loc	4 799 19 is_stmt 1              @ ../std/GD32C2x1_Firmware_Library/GD32C2x1_standard_peripheral/Source/gd32c2x1_timer.c:799:19
	ldr	r0, [sp, #16]
	ldr	r0, [r0, #32]
	.loc	4 799 17 is_stmt 0              @ ../std/GD32C2x1_Firmware_Library/GD32C2x1_standard_peripheral/Source/gd32c2x1_timer.c:799:17
	str	r0, [sp, #4]
	.loc	4 800 17 is_stmt 1              @ ../std/GD32C2x1_Firmware_Library/GD32C2x1_standard_peripheral/Source/gd32c2x1_timer.c:800:17
	ldr	r0, [sp, #4]
	movs	r1, #32
	bics	r0, r1
	str	r0, [sp, #4]
	.loc	4 801 42                        @ ../std/GD32C2x1_Firmware_Library/GD32C2x1_standard_peripheral/Source/gd32c2x1_timer.c:801:42
	ldr	r0, [sp, #8]
	.loc	4 801 32 is_stmt 0              @ ../std/GD32C2x1_Firmware_Library/GD32C2x1_standard_peripheral/Source/gd32c2x1_timer.c:801:32
	ldrh	r0, [r0, #4]
	movs	r1, #2
	.loc	4 801 61                        @ ../std/GD32C2x1_Firmware_Library/GD32C2x1_standard_peripheral/Source/gd32c2x1_timer.c:801:61
	ands	r0, r1
	.loc	4 801 82                        @ ../std/GD32C2x1_Firmware_Library/GD32C2x1_standard_peripheral/Source/gd32c2x1_timer.c:801:82
	lsls	r1, r0, #4
	.loc	4 801 17                        @ ../std/GD32C2x1_Firmware_Library/GD32C2x1_standard_peripheral/Source/gd32c2x1_timer.c:801:17
	ldr	r0, [sp, #4]
	orrs	r0, r1
	str	r0, [sp, #4]
	.loc	4 802 42 is_stmt 1              @ ../std/GD32C2x1_Firmware_Library/GD32C2x1_standard_peripheral/Source/gd32c2x1_timer.c:802:42
	ldr	r0, [sp, #4]
	.loc	4 802 13 is_stmt 0              @ ../std/GD32C2x1_Firmware_Library/GD32C2x1_standard_peripheral/Source/gd32c2x1_timer.c:802:13
	ldr	r1, [sp, #16]
	.loc	4 802 40                        @ ../std/GD32C2x1_Firmware_Library/GD32C2x1_standard_peripheral/Source/gd32c2x1_timer.c:802:40
	str	r0, [r1, #32]
.Ltmp144:
	.loc	4 803 26 is_stmt 1              @ ../std/GD32C2x1_Firmware_Library/GD32C2x1_standard_peripheral/Source/gd32c2x1_timer.c:803:26
	ldr	r0, [sp, #16]
	ldr	r1, __arm_cp.35_0
.Ltmp145:
	.loc	4 803 16 is_stmt 0              @ ../std/GD32C2x1_Firmware_Library/GD32C2x1_standard_peripheral/Source/gd32c2x1_timer.c:803:16
	cmp	r0, r1
	bne	.LBB35_10
	b	.LBB35_9
.LBB35_9:
.Ltmp146:
	.loc	4 805 17 is_stmt 1              @ ../std/GD32C2x1_Firmware_Library/GD32C2x1_standard_peripheral/Source/gd32c2x1_timer.c:805:17
	ldr	r1, [sp, #16]
	.loc	4 805 44 is_stmt 0              @ ../std/GD32C2x1_Firmware_Library/GD32C2x1_standard_peripheral/Source/gd32c2x1_timer.c:805:44
	ldr	r0, [r1, #32]
	movs	r2, #64
	bics	r0, r2
	str	r0, [r1, #32]
	.loc	4 807 69 is_stmt 1              @ ../std/GD32C2x1_Firmware_Library/GD32C2x1_standard_peripheral/Source/gd32c2x1_timer.c:807:69
	ldr	r0, [sp, #8]
	ldrh	r0, [r0, #2]
	movs	r1, #4
	.loc	4 807 90 is_stmt 0              @ ../std/GD32C2x1_Firmware_Library/GD32C2x1_standard_peripheral/Source/gd32c2x1_timer.c:807:90
	ands	r0, r1
	.loc	4 807 113                       @ ../std/GD32C2x1_Firmware_Library/GD32C2x1_standard_peripheral/Source/gd32c2x1_timer.c:807:113
	lsls	r2, r0, #4
	.loc	4 807 17                        @ ../std/GD32C2x1_Firmware_Library/GD32C2x1_standard_peripheral/Source/gd32c2x1_timer.c:807:17
	ldr	r1, [sp, #16]
	.loc	4 807 44                        @ ../std/GD32C2x1_Firmware_Library/GD32C2x1_standard_peripheral/Source/gd32c2x1_timer.c:807:44
	ldr	r0, [r1, #32]
	orrs	r0, r2
	str	r0, [r1, #32]
	.loc	4 809 17 is_stmt 1              @ ../std/GD32C2x1_Firmware_Library/GD32C2x1_standard_peripheral/Source/gd32c2x1_timer.c:809:17
	ldr	r1, [sp, #16]
	.loc	4 809 44 is_stmt 0              @ ../std/GD32C2x1_Firmware_Library/GD32C2x1_standard_peripheral/Source/gd32c2x1_timer.c:809:44
	ldr	r0, [r1, #32]
	movs	r2, #128
	bics	r0, r2
	str	r0, [r1, #32]
	.loc	4 811 69 is_stmt 1              @ ../std/GD32C2x1_Firmware_Library/GD32C2x1_standard_peripheral/Source/gd32c2x1_timer.c:811:69
	ldr	r0, [sp, #8]
	ldrh	r0, [r0, #6]
	movs	r1, #8
	.loc	4 811 89 is_stmt 0              @ ../std/GD32C2x1_Firmware_Library/GD32C2x1_standard_peripheral/Source/gd32c2x1_timer.c:811:89
	ands	r0, r1
	.loc	4 811 111                       @ ../std/GD32C2x1_Firmware_Library/GD32C2x1_standard_peripheral/Source/gd32c2x1_timer.c:811:111
	lsls	r2, r0, #4
	.loc	4 811 17                        @ ../std/GD32C2x1_Firmware_Library/GD32C2x1_standard_peripheral/Source/gd32c2x1_timer.c:811:17
	ldr	r1, [sp, #16]
	.loc	4 811 44                        @ ../std/GD32C2x1_Firmware_Library/GD32C2x1_standard_peripheral/Source/gd32c2x1_timer.c:811:44
	ldr	r0, [r1, #32]
	orrs	r0, r2
	str	r0, [r1, #32]
	.loc	4 813 17 is_stmt 1              @ ../std/GD32C2x1_Firmware_Library/GD32C2x1_standard_peripheral/Source/gd32c2x1_timer.c:813:17
	ldr	r1, [sp, #16]
	.loc	4 813 42 is_stmt 0              @ ../std/GD32C2x1_Firmware_Library/GD32C2x1_standard_peripheral/Source/gd32c2x1_timer.c:813:42
	ldr	r0, [r1, #4]
	movw	r2, #1024
	bics	r0, r2
	str	r0, [r1, #4]
	.loc	4 815 67 is_stmt 1              @ ../std/GD32C2x1_Firmware_Library/GD32C2x1_standard_peripheral/Source/gd32c2x1_timer.c:815:67
	ldr	r0, [sp, #8]
	ldrh	r0, [r0, #8]
	movw	r1, #256
	.loc	4 815 87 is_stmt 0              @ ../std/GD32C2x1_Firmware_Library/GD32C2x1_standard_peripheral/Source/gd32c2x1_timer.c:815:87
	ands	r0, r1
	.loc	4 815 106                       @ ../std/GD32C2x1_Firmware_Library/GD32C2x1_standard_peripheral/Source/gd32c2x1_timer.c:815:106
	lsls	r2, r0, #2
	.loc	4 815 17                        @ ../std/GD32C2x1_Firmware_Library/GD32C2x1_standard_peripheral/Source/gd32c2x1_timer.c:815:17
	ldr	r1, [sp, #16]
	.loc	4 815 42                        @ ../std/GD32C2x1_Firmware_Library/GD32C2x1_standard_peripheral/Source/gd32c2x1_timer.c:815:42
	ldr	r0, [r1, #4]
	orrs	r0, r2
	str	r0, [r1, #4]
	.loc	4 817 17 is_stmt 1              @ ../std/GD32C2x1_Firmware_Library/GD32C2x1_standard_peripheral/Source/gd32c2x1_timer.c:817:17
	ldr	r1, [sp, #16]
	.loc	4 817 42 is_stmt 0              @ ../std/GD32C2x1_Firmware_Library/GD32C2x1_standard_peripheral/Source/gd32c2x1_timer.c:817:42
	ldr	r0, [r1, #4]
	movw	r2, #2048
	bics	r0, r2
	str	r0, [r1, #4]
	.loc	4 819 67 is_stmt 1              @ ../std/GD32C2x1_Firmware_Library/GD32C2x1_standard_peripheral/Source/gd32c2x1_timer.c:819:67
	ldr	r0, [sp, #8]
	ldrh	r0, [r0, #10]
	movw	r1, #512
	.loc	4 819 88 is_stmt 0              @ ../std/GD32C2x1_Firmware_Library/GD32C2x1_standard_peripheral/Source/gd32c2x1_timer.c:819:88
	ands	r0, r1
	.loc	4 819 108                       @ ../std/GD32C2x1_Firmware_Library/GD32C2x1_standard_peripheral/Source/gd32c2x1_timer.c:819:108
	lsls	r2, r0, #2
	.loc	4 819 17                        @ ../std/GD32C2x1_Firmware_Library/GD32C2x1_standard_peripheral/Source/gd32c2x1_timer.c:819:17
	ldr	r1, [sp, #16]
	.loc	4 819 42                        @ ../std/GD32C2x1_Firmware_Library/GD32C2x1_standard_peripheral/Source/gd32c2x1_timer.c:819:42
	ldr	r0, [r1, #4]
	orrs	r0, r2
	str	r0, [r1, #4]
	.loc	4 820 13 is_stmt 1              @ ../std/GD32C2x1_Firmware_Library/GD32C2x1_standard_peripheral/Source/gd32c2x1_timer.c:820:13
	b	.LBB35_10
.Ltmp147:
.LBB35_10:
	.loc	4 821 13                        @ ../std/GD32C2x1_Firmware_Library/GD32C2x1_standard_peripheral/Source/gd32c2x1_timer.c:821:13
	b	.LBB35_21
.LBB35_11:
	.loc	4 825 13                        @ ../std/GD32C2x1_Firmware_Library/GD32C2x1_standard_peripheral/Source/gd32c2x1_timer.c:825:13
	ldr	r1, [sp, #16]
	.loc	4 825 40 is_stmt 0              @ ../std/GD32C2x1_Firmware_Library/GD32C2x1_standard_peripheral/Source/gd32c2x1_timer.c:825:40
	ldr	r0, [r1, #32]
	movw	r2, #256
	bics	r0, r2
	str	r0, [r1, #32]
	.loc	4 826 13 is_stmt 1              @ ../std/GD32C2x1_Firmware_Library/GD32C2x1_standard_peripheral/Source/gd32c2x1_timer.c:826:13
	ldr	r1, [sp, #16]
	.loc	4 826 40 is_stmt 0              @ ../std/GD32C2x1_Firmware_Library/GD32C2x1_standard_peripheral/Source/gd32c2x1_timer.c:826:40
	ldr	r0, [r1, #28]
	movs	r2, #3
	bics	r0, r2
	str	r0, [r1, #28]
	.loc	4 828 55 is_stmt 1              @ ../std/GD32C2x1_Firmware_Library/GD32C2x1_standard_peripheral/Source/gd32c2x1_timer.c:828:55
	ldr	r0, [sp, #8]
	.loc	4 828 45 is_stmt 0              @ ../std/GD32C2x1_Firmware_Library/GD32C2x1_standard_peripheral/Source/gd32c2x1_timer.c:828:45
	ldrh	r0, [r0]
	.loc	4 828 95                        @ ../std/GD32C2x1_Firmware_Library/GD32C2x1_standard_peripheral/Source/gd32c2x1_timer.c:828:95
	lsls	r0, r0, #31
	lsrs	r2, r0, #23
	.loc	4 828 13                        @ ../std/GD32C2x1_Firmware_Library/GD32C2x1_standard_peripheral/Source/gd32c2x1_timer.c:828:13
	ldr	r1, [sp, #16]
	.loc	4 828 40                        @ ../std/GD32C2x1_Firmware_Library/GD32C2x1_standard_peripheral/Source/gd32c2x1_timer.c:828:40
	ldr	r0, [r1, #32]
	orrs	r0, r2
	str	r0, [r1, #32]
	.loc	4 830 19 is_stmt 1              @ ../std/GD32C2x1_Firmware_Library/GD32C2x1_standard_peripheral/Source/gd32c2x1_timer.c:830:19
	ldr	r0, [sp, #16]
	ldr	r0, [r0, #32]
	.loc	4 830 17 is_stmt 0              @ ../std/GD32C2x1_Firmware_Library/GD32C2x1_standard_peripheral/Source/gd32c2x1_timer.c:830:17
	str	r0, [sp, #4]
	.loc	4 831 17 is_stmt 1              @ ../std/GD32C2x1_Firmware_Library/GD32C2x1_standard_peripheral/Source/gd32c2x1_timer.c:831:17
	ldr	r0, [sp, #4]
	movw	r1, #512
	bics	r0, r1
	str	r0, [sp, #4]
	.loc	4 832 32                        @ ../std/GD32C2x1_Firmware_Library/GD32C2x1_standard_peripheral/Source/gd32c2x1_timer.c:832:32
	ldr	r0, [sp, #8]
	.loc	4 832 22 is_stmt 0              @ ../std/GD32C2x1_Firmware_Library/GD32C2x1_standard_peripheral/Source/gd32c2x1_timer.c:832:22
	ldrh	r0, [r0, #4]
	movs	r1, #2
	.loc	4 832 51                        @ ../std/GD32C2x1_Firmware_Library/GD32C2x1_standard_peripheral/Source/gd32c2x1_timer.c:832:51
	ands	r0, r1
	.loc	4 832 72                        @ ../std/GD32C2x1_Firmware_Library/GD32C2x1_standard_peripheral/Source/gd32c2x1_timer.c:832:72
	lsls	r1, r0, #8
	.loc	4 832 17                        @ ../std/GD32C2x1_Firmware_Library/GD32C2x1_standard_peripheral/Source/gd32c2x1_timer.c:832:17
	ldr	r0, [sp, #4]
	orrs	r0, r1
	str	r0, [sp, #4]
	.loc	4 833 42 is_stmt 1              @ ../std/GD32C2x1_Firmware_Library/GD32C2x1_standard_peripheral/Source/gd32c2x1_timer.c:833:42
	ldr	r0, [sp, #4]
	.loc	4 833 13 is_stmt 0              @ ../std/GD32C2x1_Firmware_Library/GD32C2x1_standard_peripheral/Source/gd32c2x1_timer.c:833:13
	ldr	r1, [sp, #16]
	.loc	4 833 40                        @ ../std/GD32C2x1_Firmware_Library/GD32C2x1_standard_peripheral/Source/gd32c2x1_timer.c:833:40
	str	r0, [r1, #32]
.Ltmp148:
	.loc	4 834 26 is_stmt 1              @ ../std/GD32C2x1_Firmware_Library/GD32C2x1_standard_peripheral/Source/gd32c2x1_timer.c:834:26
	ldr	r0, [sp, #16]
	ldr	r1, __arm_cp.35_0
.Ltmp149:
	.loc	4 834 16 is_stmt 0              @ ../std/GD32C2x1_Firmware_Library/GD32C2x1_standard_peripheral/Source/gd32c2x1_timer.c:834:16
	cmp	r0, r1
	bne	.LBB35_13
	b	.LBB35_12
.LBB35_12:
.Ltmp150:
	.loc	4 836 17 is_stmt 1              @ ../std/GD32C2x1_Firmware_Library/GD32C2x1_standard_peripheral/Source/gd32c2x1_timer.c:836:17
	ldr	r1, [sp, #16]
	.loc	4 836 44 is_stmt 0              @ ../std/GD32C2x1_Firmware_Library/GD32C2x1_standard_peripheral/Source/gd32c2x1_timer.c:836:44
	ldr	r0, [r1, #32]
	movw	r2, #1024
	bics	r0, r2
	str	r0, [r1, #32]
	.loc	4 838 69 is_stmt 1              @ ../std/GD32C2x1_Firmware_Library/GD32C2x1_standard_peripheral/Source/gd32c2x1_timer.c:838:69
	ldr	r0, [sp, #8]
	ldrh	r0, [r0, #2]
	movs	r1, #4
	.loc	4 838 90 is_stmt 0              @ ../std/GD32C2x1_Firmware_Library/GD32C2x1_standard_peripheral/Source/gd32c2x1_timer.c:838:90
	ands	r0, r1
	.loc	4 838 113                       @ ../std/GD32C2x1_Firmware_Library/GD32C2x1_standard_peripheral/Source/gd32c2x1_timer.c:838:113
	lsls	r2, r0, #8
	.loc	4 838 17                        @ ../std/GD32C2x1_Firmware_Library/GD32C2x1_standard_peripheral/Source/gd32c2x1_timer.c:838:17
	ldr	r1, [sp, #16]
	.loc	4 838 44                        @ ../std/GD32C2x1_Firmware_Library/GD32C2x1_standard_peripheral/Source/gd32c2x1_timer.c:838:44
	ldr	r0, [r1, #32]
	orrs	r0, r2
	str	r0, [r1, #32]
	.loc	4 840 17 is_stmt 1              @ ../std/GD32C2x1_Firmware_Library/GD32C2x1_standard_peripheral/Source/gd32c2x1_timer.c:840:17
	ldr	r1, [sp, #16]
	.loc	4 840 44 is_stmt 0              @ ../std/GD32C2x1_Firmware_Library/GD32C2x1_standard_peripheral/Source/gd32c2x1_timer.c:840:44
	ldr	r0, [r1, #32]
	movw	r2, #2048
	bics	r0, r2
	str	r0, [r1, #32]
	.loc	4 842 69 is_stmt 1              @ ../std/GD32C2x1_Firmware_Library/GD32C2x1_standard_peripheral/Source/gd32c2x1_timer.c:842:69
	ldr	r0, [sp, #8]
	ldrh	r0, [r0, #6]
	movs	r1, #8
	.loc	4 842 89 is_stmt 0              @ ../std/GD32C2x1_Firmware_Library/GD32C2x1_standard_peripheral/Source/gd32c2x1_timer.c:842:89
	ands	r0, r1
	.loc	4 842 111                       @ ../std/GD32C2x1_Firmware_Library/GD32C2x1_standard_peripheral/Source/gd32c2x1_timer.c:842:111
	lsls	r2, r0, #8
	.loc	4 842 17                        @ ../std/GD32C2x1_Firmware_Library/GD32C2x1_standard_peripheral/Source/gd32c2x1_timer.c:842:17
	ldr	r1, [sp, #16]
	.loc	4 842 44                        @ ../std/GD32C2x1_Firmware_Library/GD32C2x1_standard_peripheral/Source/gd32c2x1_timer.c:842:44
	ldr	r0, [r1, #32]
	orrs	r0, r2
	str	r0, [r1, #32]
	.loc	4 844 17 is_stmt 1              @ ../std/GD32C2x1_Firmware_Library/GD32C2x1_standard_peripheral/Source/gd32c2x1_timer.c:844:17
	ldr	r1, [sp, #16]
	.loc	4 844 42 is_stmt 0              @ ../std/GD32C2x1_Firmware_Library/GD32C2x1_standard_peripheral/Source/gd32c2x1_timer.c:844:42
	ldr	r0, [r1, #4]
	movw	r2, #4096
	bics	r0, r2
	str	r0, [r1, #4]
	.loc	4 846 67 is_stmt 1              @ ../std/GD32C2x1_Firmware_Library/GD32C2x1_standard_peripheral/Source/gd32c2x1_timer.c:846:67
	ldr	r0, [sp, #8]
	ldrh	r0, [r0, #8]
	movw	r1, #256
	.loc	4 846 87 is_stmt 0              @ ../std/GD32C2x1_Firmware_Library/GD32C2x1_standard_peripheral/Source/gd32c2x1_timer.c:846:87
	ands	r0, r1
	.loc	4 846 106                       @ ../std/GD32C2x1_Firmware_Library/GD32C2x1_standard_peripheral/Source/gd32c2x1_timer.c:846:106
	lsls	r2, r0, #4
	.loc	4 846 17                        @ ../std/GD32C2x1_Firmware_Library/GD32C2x1_standard_peripheral/Source/gd32c2x1_timer.c:846:17
	ldr	r1, [sp, #16]
	.loc	4 846 42                        @ ../std/GD32C2x1_Firmware_Library/GD32C2x1_standard_peripheral/Source/gd32c2x1_timer.c:846:42
	ldr	r0, [r1, #4]
	orrs	r0, r2
	str	r0, [r1, #4]
	.loc	4 848 17 is_stmt 1              @ ../std/GD32C2x1_Firmware_Library/GD32C2x1_standard_peripheral/Source/gd32c2x1_timer.c:848:17
	ldr	r1, [sp, #16]
	.loc	4 848 42 is_stmt 0              @ ../std/GD32C2x1_Firmware_Library/GD32C2x1_standard_peripheral/Source/gd32c2x1_timer.c:848:42
	ldr	r0, [r1, #4]
	movw	r2, #8192
	bics	r0, r2
	str	r0, [r1, #4]
	.loc	4 850 67 is_stmt 1              @ ../std/GD32C2x1_Firmware_Library/GD32C2x1_standard_peripheral/Source/gd32c2x1_timer.c:850:67
	ldr	r0, [sp, #8]
	ldrh	r0, [r0, #10]
	movw	r1, #512
	.loc	4 850 88 is_stmt 0              @ ../std/GD32C2x1_Firmware_Library/GD32C2x1_standard_peripheral/Source/gd32c2x1_timer.c:850:88
	ands	r0, r1
	.loc	4 850 108                       @ ../std/GD32C2x1_Firmware_Library/GD32C2x1_standard_peripheral/Source/gd32c2x1_timer.c:850:108
	lsls	r2, r0, #4
	.loc	4 850 17                        @ ../std/GD32C2x1_Firmware_Library/GD32C2x1_standard_peripheral/Source/gd32c2x1_timer.c:850:17
	ldr	r1, [sp, #16]
	.loc	4 850 42                        @ ../std/GD32C2x1_Firmware_Library/GD32C2x1_standard_peripheral/Source/gd32c2x1_timer.c:850:42
	ldr	r0, [r1, #4]
	orrs	r0, r2
	str	r0, [r1, #4]
	.loc	4 851 13 is_stmt 1              @ ../std/GD32C2x1_Firmware_Library/GD32C2x1_standard_peripheral/Source/gd32c2x1_timer.c:851:13
	b	.LBB35_13
.Ltmp151:
.LBB35_13:
	.loc	4 852 13                        @ ../std/GD32C2x1_Firmware_Library/GD32C2x1_standard_peripheral/Source/gd32c2x1_timer.c:852:13
	b	.LBB35_21
.LBB35_14:
	.loc	4 856 13                        @ ../std/GD32C2x1_Firmware_Library/GD32C2x1_standard_peripheral/Source/gd32c2x1_timer.c:856:13
	ldr	r1, [sp, #16]
	.loc	4 856 40 is_stmt 0              @ ../std/GD32C2x1_Firmware_Library/GD32C2x1_standard_peripheral/Source/gd32c2x1_timer.c:856:40
	ldr	r0, [r1, #32]
	movw	r2, #4096
	bics	r0, r2
	str	r0, [r1, #32]
	.loc	4 857 13 is_stmt 1              @ ../std/GD32C2x1_Firmware_Library/GD32C2x1_standard_peripheral/Source/gd32c2x1_timer.c:857:13
	ldr	r1, [sp, #16]
	.loc	4 857 40 is_stmt 0              @ ../std/GD32C2x1_Firmware_Library/GD32C2x1_standard_peripheral/Source/gd32c2x1_timer.c:857:40
	ldr	r0, [r1, #28]
	movw	r2, #768
	bics	r0, r2
	str	r0, [r1, #28]
	.loc	4 859 55 is_stmt 1              @ ../std/GD32C2x1_Firmware_Library/GD32C2x1_standard_peripheral/Source/gd32c2x1_timer.c:859:55
	ldr	r0, [sp, #8]
	.loc	4 859 45 is_stmt 0              @ ../std/GD32C2x1_Firmware_Library/GD32C2x1_standard_peripheral/Source/gd32c2x1_timer.c:859:45
	ldrh	r0, [r0]
	.loc	4 859 95                        @ ../std/GD32C2x1_Firmware_Library/GD32C2x1_standard_peripheral/Source/gd32c2x1_timer.c:859:95
	lsls	r0, r0, #31
	lsrs	r2, r0, #19
	.loc	4 859 13                        @ ../std/GD32C2x1_Firmware_Library/GD32C2x1_standard_peripheral/Source/gd32c2x1_timer.c:859:13
	ldr	r1, [sp, #16]
	.loc	4 859 40                        @ ../std/GD32C2x1_Firmware_Library/GD32C2x1_standard_peripheral/Source/gd32c2x1_timer.c:859:40
	ldr	r0, [r1, #32]
	orrs	r0, r2
	str	r0, [r1, #32]
	.loc	4 861 19 is_stmt 1              @ ../std/GD32C2x1_Firmware_Library/GD32C2x1_standard_peripheral/Source/gd32c2x1_timer.c:861:19
	ldr	r0, [sp, #16]
	ldr	r0, [r0, #32]
	.loc	4 861 17 is_stmt 0              @ ../std/GD32C2x1_Firmware_Library/GD32C2x1_standard_peripheral/Source/gd32c2x1_timer.c:861:17
	str	r0, [sp, #4]
	.loc	4 862 17 is_stmt 1              @ ../std/GD32C2x1_Firmware_Library/GD32C2x1_standard_peripheral/Source/gd32c2x1_timer.c:862:17
	ldr	r0, [sp, #4]
	movw	r1, #8192
	bics	r0, r1
	str	r0, [sp, #4]
	.loc	4 863 32                        @ ../std/GD32C2x1_Firmware_Library/GD32C2x1_standard_peripheral/Source/gd32c2x1_timer.c:863:32
	ldr	r0, [sp, #8]
	.loc	4 863 22 is_stmt 0              @ ../std/GD32C2x1_Firmware_Library/GD32C2x1_standard_peripheral/Source/gd32c2x1_timer.c:863:22
	ldrh	r0, [r0, #4]
	movs	r1, #2
	.loc	4 863 51                        @ ../std/GD32C2x1_Firmware_Library/GD32C2x1_standard_peripheral/Source/gd32c2x1_timer.c:863:51
	ands	r0, r1
	.loc	4 863 72                        @ ../std/GD32C2x1_Firmware_Library/GD32C2x1_standard_peripheral/Source/gd32c2x1_timer.c:863:72
	lsls	r1, r0, #12
	.loc	4 863 17                        @ ../std/GD32C2x1_Firmware_Library/GD32C2x1_standard_peripheral/Source/gd32c2x1_timer.c:863:17
	ldr	r0, [sp, #4]
	orrs	r0, r1
	str	r0, [sp, #4]
	.loc	4 864 42 is_stmt 1              @ ../std/GD32C2x1_Firmware_Library/GD32C2x1_standard_peripheral/Source/gd32c2x1_timer.c:864:42
	ldr	r0, [sp, #4]
	.loc	4 864 13 is_stmt 0              @ ../std/GD32C2x1_Firmware_Library/GD32C2x1_standard_peripheral/Source/gd32c2x1_timer.c:864:13
	ldr	r1, [sp, #16]
	.loc	4 864 40                        @ ../std/GD32C2x1_Firmware_Library/GD32C2x1_standard_peripheral/Source/gd32c2x1_timer.c:864:40
	str	r0, [r1, #32]
.Ltmp152:
	.loc	4 865 26 is_stmt 1              @ ../std/GD32C2x1_Firmware_Library/GD32C2x1_standard_peripheral/Source/gd32c2x1_timer.c:865:26
	ldr	r0, [sp, #16]
	ldr	r1, __arm_cp.35_0
.Ltmp153:
	.loc	4 865 16 is_stmt 0              @ ../std/GD32C2x1_Firmware_Library/GD32C2x1_standard_peripheral/Source/gd32c2x1_timer.c:865:16
	cmp	r0, r1
	bne	.LBB35_16
	b	.LBB35_15
.LBB35_15:
.Ltmp154:
	.loc	4 867 17 is_stmt 1              @ ../std/GD32C2x1_Firmware_Library/GD32C2x1_standard_peripheral/Source/gd32c2x1_timer.c:867:17
	ldr	r1, [sp, #16]
	.loc	4 867 42 is_stmt 0              @ ../std/GD32C2x1_Firmware_Library/GD32C2x1_standard_peripheral/Source/gd32c2x1_timer.c:867:42
	ldr	r0, [r1, #4]
	movw	r2, #16384
	bics	r0, r2
	str	r0, [r1, #4]
	.loc	4 869 67 is_stmt 1              @ ../std/GD32C2x1_Firmware_Library/GD32C2x1_standard_peripheral/Source/gd32c2x1_timer.c:869:67
	ldr	r0, [sp, #8]
	ldrh	r0, [r0, #8]
	movw	r1, #256
	.loc	4 869 87 is_stmt 0              @ ../std/GD32C2x1_Firmware_Library/GD32C2x1_standard_peripheral/Source/gd32c2x1_timer.c:869:87
	ands	r0, r1
	.loc	4 869 106                       @ ../std/GD32C2x1_Firmware_Library/GD32C2x1_standard_peripheral/Source/gd32c2x1_timer.c:869:106
	lsls	r2, r0, #6
	.loc	4 869 17                        @ ../std/GD32C2x1_Firmware_Library/GD32C2x1_standard_peripheral/Source/gd32c2x1_timer.c:869:17
	ldr	r1, [sp, #16]
	.loc	4 869 42                        @ ../std/GD32C2x1_Firmware_Library/GD32C2x1_standard_peripheral/Source/gd32c2x1_timer.c:869:42
	ldr	r0, [r1, #4]
	orrs	r0, r2
	str	r0, [r1, #4]
	.loc	4 870 13 is_stmt 1              @ ../std/GD32C2x1_Firmware_Library/GD32C2x1_standard_peripheral/Source/gd32c2x1_timer.c:870:13
	b	.LBB35_16
.Ltmp155:
.LBB35_16:
	.loc	4 871 13                        @ ../std/GD32C2x1_Firmware_Library/GD32C2x1_standard_peripheral/Source/gd32c2x1_timer.c:871:13
	b	.LBB35_21
.LBB35_17:
.Ltmp156:
	.loc	4 874 26                        @ ../std/GD32C2x1_Firmware_Library/GD32C2x1_standard_peripheral/Source/gd32c2x1_timer.c:874:26
	ldr	r0, [sp, #16]
	ldr	r1, __arm_cp.35_0
.Ltmp157:
	.loc	4 874 16 is_stmt 0              @ ../std/GD32C2x1_Firmware_Library/GD32C2x1_standard_peripheral/Source/gd32c2x1_timer.c:874:16
	cmp	r0, r1
	bne	.LBB35_19
	b	.LBB35_18
.LBB35_18:
.Ltmp158:
	.loc	4 876 17 is_stmt 1              @ ../std/GD32C2x1_Firmware_Library/GD32C2x1_standard_peripheral/Source/gd32c2x1_timer.c:876:17
	ldr	r1, [sp, #16]
	.loc	4 876 44 is_stmt 0              @ ../std/GD32C2x1_Firmware_Library/GD32C2x1_standard_peripheral/Source/gd32c2x1_timer.c:876:44
	ldr	r0, [r1, #32]
	ldr	r2, __arm_cp.35_1
	ands	r0, r2
	str	r0, [r1, #32]
	.loc	4 878 59 is_stmt 1              @ ../std/GD32C2x1_Firmware_Library/GD32C2x1_standard_peripheral/Source/gd32c2x1_timer.c:878:59
	ldr	r0, [sp, #8]
	.loc	4 878 49 is_stmt 0              @ ../std/GD32C2x1_Firmware_Library/GD32C2x1_standard_peripheral/Source/gd32c2x1_timer.c:878:49
	ldrh	r0, [r0]
	.loc	4 878 99                        @ ../std/GD32C2x1_Firmware_Library/GD32C2x1_standard_peripheral/Source/gd32c2x1_timer.c:878:99
	lsls	r0, r0, #31
	lsrs	r3, r0, #15
	.loc	4 878 17                        @ ../std/GD32C2x1_Firmware_Library/GD32C2x1_standard_peripheral/Source/gd32c2x1_timer.c:878:17
	ldr	r1, [sp, #16]
	.loc	4 878 44                        @ ../std/GD32C2x1_Firmware_Library/GD32C2x1_standard_peripheral/Source/gd32c2x1_timer.c:878:44
	ldr	r0, [r1, #32]
	orrs	r0, r3
	str	r0, [r1, #32]
	.loc	4 880 23 is_stmt 1              @ ../std/GD32C2x1_Firmware_Library/GD32C2x1_standard_peripheral/Source/gd32c2x1_timer.c:880:23
	ldr	r0, [sp, #16]
	ldr	r0, [r0, #32]
	.loc	4 880 21 is_stmt 0              @ ../std/GD32C2x1_Firmware_Library/GD32C2x1_standard_peripheral/Source/gd32c2x1_timer.c:880:21
	str	r0, [sp, #4]
	.loc	4 881 21 is_stmt 1              @ ../std/GD32C2x1_Firmware_Library/GD32C2x1_standard_peripheral/Source/gd32c2x1_timer.c:881:21
	ldr	r0, [sp, #4]
	movs	r1, #1
	lsls	r1, r1, #17
	bics	r0, r1
	str	r0, [sp, #4]
	.loc	4 882 36                        @ ../std/GD32C2x1_Firmware_Library/GD32C2x1_standard_peripheral/Source/gd32c2x1_timer.c:882:36
	ldr	r0, [sp, #8]
	.loc	4 882 26 is_stmt 0              @ ../std/GD32C2x1_Firmware_Library/GD32C2x1_standard_peripheral/Source/gd32c2x1_timer.c:882:26
	ldrh	r0, [r0, #4]
	movs	r1, #2
	.loc	4 882 55                        @ ../std/GD32C2x1_Firmware_Library/GD32C2x1_standard_peripheral/Source/gd32c2x1_timer.c:882:55
	ands	r0, r1
	.loc	4 882 76                        @ ../std/GD32C2x1_Firmware_Library/GD32C2x1_standard_peripheral/Source/gd32c2x1_timer.c:882:76
	lsls	r1, r0, #16
	.loc	4 882 21                        @ ../std/GD32C2x1_Firmware_Library/GD32C2x1_standard_peripheral/Source/gd32c2x1_timer.c:882:21
	ldr	r0, [sp, #4]
	orrs	r0, r1
	str	r0, [sp, #4]
	.loc	4 883 46 is_stmt 1              @ ../std/GD32C2x1_Firmware_Library/GD32C2x1_standard_peripheral/Source/gd32c2x1_timer.c:883:46
	ldr	r0, [sp, #4]
	.loc	4 883 17 is_stmt 0              @ ../std/GD32C2x1_Firmware_Library/GD32C2x1_standard_peripheral/Source/gd32c2x1_timer.c:883:17
	ldr	r1, [sp, #16]
	.loc	4 883 44                        @ ../std/GD32C2x1_Firmware_Library/GD32C2x1_standard_peripheral/Source/gd32c2x1_timer.c:883:44
	str	r0, [r1, #32]
	.loc	4 885 17 is_stmt 1              @ ../std/GD32C2x1_Firmware_Library/GD32C2x1_standard_peripheral/Source/gd32c2x1_timer.c:885:17
	ldr	r1, [sp, #16]
	.loc	4 885 42 is_stmt 0              @ ../std/GD32C2x1_Firmware_Library/GD32C2x1_standard_peripheral/Source/gd32c2x1_timer.c:885:42
	ldr	r0, [r1, #4]
	ands	r0, r2
	str	r0, [r1, #4]
	.loc	4 887 67 is_stmt 1              @ ../std/GD32C2x1_Firmware_Library/GD32C2x1_standard_peripheral/Source/gd32c2x1_timer.c:887:67
	ldr	r0, [sp, #8]
	ldrh	r0, [r0, #8]
	movw	r1, #256
	.loc	4 887 87 is_stmt 0              @ ../std/GD32C2x1_Firmware_Library/GD32C2x1_standard_peripheral/Source/gd32c2x1_timer.c:887:87
	ands	r0, r1
	.loc	4 887 106                       @ ../std/GD32C2x1_Firmware_Library/GD32C2x1_standard_peripheral/Source/gd32c2x1_timer.c:887:106
	lsls	r2, r0, #8
	.loc	4 887 17                        @ ../std/GD32C2x1_Firmware_Library/GD32C2x1_standard_peripheral/Source/gd32c2x1_timer.c:887:17
	ldr	r1, [sp, #16]
	.loc	4 887 42                        @ ../std/GD32C2x1_Firmware_Library/GD32C2x1_standard_peripheral/Source/gd32c2x1_timer.c:887:42
	ldr	r0, [r1, #4]
	orrs	r0, r2
	str	r0, [r1, #4]
	.loc	4 888 13 is_stmt 1              @ ../std/GD32C2x1_Firmware_Library/GD32C2x1_standard_peripheral/Source/gd32c2x1_timer.c:888:13
	b	.LBB35_19
.Ltmp159:
.LBB35_19:
	.loc	4 889 13                        @ ../std/GD32C2x1_Firmware_Library/GD32C2x1_standard_peripheral/Source/gd32c2x1_timer.c:889:13
	b	.LBB35_21
.LBB35_20:
	.loc	4 891 13                        @ ../std/GD32C2x1_Firmware_Library/GD32C2x1_standard_peripheral/Source/gd32c2x1_timer.c:891:13
	b	.LBB35_21
.Ltmp160:
.LBB35_21:
	.loc	4 894 1                         @ ../std/GD32C2x1_Firmware_Library/GD32C2x1_standard_peripheral/Source/gd32c2x1_timer.c:894:1
	add	sp, #20
	bx	lr
.Ltmp161:
	.p2align	2
@ %bb.22:
	.loc	4 0 1 is_stmt 0                 @ ../std/GD32C2x1_Firmware_Library/GD32C2x1_standard_peripheral/Source/gd32c2x1_timer.c:0:1
__arm_cp.35_0:
	.long	1073818624                      @ 0x40012c00
.Lcpi_end21:
	.size	__arm_cp.35_0, .Lcpi_end21-__arm_cp.35_0
__arm_cp.35_1:
	.long	4294901759                      @ 0xfffeffff
.Lcpi_end22:
	.size	__arm_cp.35_1, .Lcpi_end22-__arm_cp.35_1
__arm_cp.35_2:
	.long	1073824768                      @ 0x40014400
.Lcpi_end23:
	.size	__arm_cp.35_2, .Lcpi_end23-__arm_cp.35_2
__arm_cp.35_3:
	.long	1073825792                      @ 0x40014800
.Lcpi_end24:
	.size	__arm_cp.35_3, .Lcpi_end24-__arm_cp.35_3
.Lfunc_end35:
	.size	timer_channel_output_config, .Lfunc_end35-timer_channel_output_config
	.cfi_endproc
	.cantunwind
	.fnend
                                        @ -- End function
	.section	.text.timer_channel_output_mode_config,"ax",%progbits
	.hidden	timer_channel_output_mode_config @ -- Begin function timer_channel_output_mode_config
	.globl	timer_channel_output_mode_config
	.p2align	2
	.type	timer_channel_output_mode_config,%function
	.code	16                              @ @timer_channel_output_mode_config
	.thumb_func
timer_channel_output_mode_config:
.Lfunc_begin36:
	.loc	4 926 0 is_stmt 1               @ ../std/GD32C2x1_Firmware_Library/GD32C2x1_standard_peripheral/Source/gd32c2x1_timer.c:926:0
	.fnstart
	.cfi_startproc
@ %bb.0:
	.pad	#20
	sub	sp, #20
	.cfi_def_cfa_offset 20
                                        @ kill: def $r3 killed $r1
	str	r0, [sp, #16]
	add	r0, sp, #12
	strh	r1, [r0]
	str	r2, [sp, #8]
.Ltmp162:
	.loc	4 928 12 prologue_end           @ ../std/GD32C2x1_Firmware_Library/GD32C2x1_standard_peripheral/Source/gd32c2x1_timer.c:928:12
	ldrh	r0, [r0]
	.loc	4 928 5 is_stmt 0               @ ../std/GD32C2x1_Firmware_Library/GD32C2x1_standard_peripheral/Source/gd32c2x1_timer.c:928:5
	str	r0, [sp]                        @ 4-byte Spill
	cmp	r0, #4
	bhi	.LBB36_8
@ %bb.1:
	.loc	4 0 5                           @ ../std/GD32C2x1_Firmware_Library/GD32C2x1_standard_peripheral/Source/gd32c2x1_timer.c:0:5
	ldr	r1, [sp]                        @ 4-byte Reload
	lsls	r2, r1, #2
	adr	r0, .LJTI36_0
	adds	r0, r0, r2
	mov	pc, r0
@ %bb.2:
	.p2align	2
.LJTI36_0:
	b.w	.LBB36_3
	b.w	.LBB36_4
	b.w	.LBB36_5
	b.w	.LBB36_6
	b.w	.LBB36_7
.LBB36_3:
.Ltmp163:
	.loc	4 931 15 is_stmt 1              @ ../std/GD32C2x1_Firmware_Library/GD32C2x1_standard_peripheral/Source/gd32c2x1_timer.c:931:15
	ldr	r0, [sp, #16]
	ldr	r0, [r0, #24]
	.loc	4 931 13 is_stmt 0              @ ../std/GD32C2x1_Firmware_Library/GD32C2x1_standard_peripheral/Source/gd32c2x1_timer.c:931:13
	str	r0, [sp, #4]
	.loc	4 932 13 is_stmt 1              @ ../std/GD32C2x1_Firmware_Library/GD32C2x1_standard_peripheral/Source/gd32c2x1_timer.c:932:13
	ldr	r0, [sp, #4]
	ldr	r1, __arm_cp.36_0
	ands	r0, r1
	str	r0, [sp, #4]
	.loc	4 933 27                        @ ../std/GD32C2x1_Firmware_Library/GD32C2x1_standard_peripheral/Source/gd32c2x1_timer.c:933:27
	ldr	r1, [sp, #8]
	ldr	r0, __arm_cp.36_1
	.loc	4 933 33 is_stmt 0              @ ../std/GD32C2x1_Firmware_Library/GD32C2x1_standard_peripheral/Source/gd32c2x1_timer.c:933:33
	ands	r1, r0
	.loc	4 933 13                        @ ../std/GD32C2x1_Firmware_Library/GD32C2x1_standard_peripheral/Source/gd32c2x1_timer.c:933:13
	ldr	r0, [sp, #4]
	orrs	r0, r1
	str	r0, [sp, #4]
	.loc	4 934 38 is_stmt 1              @ ../std/GD32C2x1_Firmware_Library/GD32C2x1_standard_peripheral/Source/gd32c2x1_timer.c:934:38
	ldr	r0, [sp, #4]
	.loc	4 934 9 is_stmt 0               @ ../std/GD32C2x1_Firmware_Library/GD32C2x1_standard_peripheral/Source/gd32c2x1_timer.c:934:9
	ldr	r1, [sp, #16]
	.loc	4 934 36                        @ ../std/GD32C2x1_Firmware_Library/GD32C2x1_standard_peripheral/Source/gd32c2x1_timer.c:934:36
	str	r0, [r1, #24]
	.loc	4 935 9 is_stmt 1               @ ../std/GD32C2x1_Firmware_Library/GD32C2x1_standard_peripheral/Source/gd32c2x1_timer.c:935:9
	b	.LBB36_9
.LBB36_4:
	.loc	4 938 15                        @ ../std/GD32C2x1_Firmware_Library/GD32C2x1_standard_peripheral/Source/gd32c2x1_timer.c:938:15
	ldr	r0, [sp, #16]
	ldr	r0, [r0, #24]
	.loc	4 938 13 is_stmt 0              @ ../std/GD32C2x1_Firmware_Library/GD32C2x1_standard_peripheral/Source/gd32c2x1_timer.c:938:13
	str	r0, [sp, #4]
	.loc	4 939 13 is_stmt 1              @ ../std/GD32C2x1_Firmware_Library/GD32C2x1_standard_peripheral/Source/gd32c2x1_timer.c:939:13
	ldr	r0, [sp, #4]
	ldr	r1, __arm_cp.36_2
	ands	r0, r1
	str	r0, [sp, #4]
	.loc	4 940 38                        @ ../std/GD32C2x1_Firmware_Library/GD32C2x1_standard_peripheral/Source/gd32c2x1_timer.c:940:38
	ldr	r0, [sp, #8]
	ldr	r1, __arm_cp.36_1
	.loc	4 940 44 is_stmt 0              @ ../std/GD32C2x1_Firmware_Library/GD32C2x1_standard_peripheral/Source/gd32c2x1_timer.c:940:44
	ands	r0, r1
	.loc	4 940 69                        @ ../std/GD32C2x1_Firmware_Library/GD32C2x1_standard_peripheral/Source/gd32c2x1_timer.c:940:69
	lsls	r1, r0, #8
	.loc	4 940 13                        @ ../std/GD32C2x1_Firmware_Library/GD32C2x1_standard_peripheral/Source/gd32c2x1_timer.c:940:13
	ldr	r0, [sp, #4]
	orrs	r0, r1
	str	r0, [sp, #4]
	.loc	4 941 38 is_stmt 1              @ ../std/GD32C2x1_Firmware_Library/GD32C2x1_standard_peripheral/Source/gd32c2x1_timer.c:941:38
	ldr	r0, [sp, #4]
	.loc	4 941 9 is_stmt 0               @ ../std/GD32C2x1_Firmware_Library/GD32C2x1_standard_peripheral/Source/gd32c2x1_timer.c:941:9
	ldr	r1, [sp, #16]
	.loc	4 941 36                        @ ../std/GD32C2x1_Firmware_Library/GD32C2x1_standard_peripheral/Source/gd32c2x1_timer.c:941:36
	str	r0, [r1, #24]
	.loc	4 942 9 is_stmt 1               @ ../std/GD32C2x1_Firmware_Library/GD32C2x1_standard_peripheral/Source/gd32c2x1_timer.c:942:9
	b	.LBB36_9
.LBB36_5:
	.loc	4 945 15                        @ ../std/GD32C2x1_Firmware_Library/GD32C2x1_standard_peripheral/Source/gd32c2x1_timer.c:945:15
	ldr	r0, [sp, #16]
	ldr	r0, [r0, #28]
	.loc	4 945 13 is_stmt 0              @ ../std/GD32C2x1_Firmware_Library/GD32C2x1_standard_peripheral/Source/gd32c2x1_timer.c:945:13
	str	r0, [sp, #4]
	.loc	4 946 13 is_stmt 1              @ ../std/GD32C2x1_Firmware_Library/GD32C2x1_standard_peripheral/Source/gd32c2x1_timer.c:946:13
	ldr	r0, [sp, #4]
	ldr	r1, __arm_cp.36_0
	ands	r0, r1
	str	r0, [sp, #4]
	.loc	4 947 27                        @ ../std/GD32C2x1_Firmware_Library/GD32C2x1_standard_peripheral/Source/gd32c2x1_timer.c:947:27
	ldr	r1, [sp, #8]
	ldr	r0, __arm_cp.36_1
	.loc	4 947 33 is_stmt 0              @ ../std/GD32C2x1_Firmware_Library/GD32C2x1_standard_peripheral/Source/gd32c2x1_timer.c:947:33
	ands	r1, r0
	.loc	4 947 13                        @ ../std/GD32C2x1_Firmware_Library/GD32C2x1_standard_peripheral/Source/gd32c2x1_timer.c:947:13
	ldr	r0, [sp, #4]
	orrs	r0, r1
	str	r0, [sp, #4]
	.loc	4 948 38 is_stmt 1              @ ../std/GD32C2x1_Firmware_Library/GD32C2x1_standard_peripheral/Source/gd32c2x1_timer.c:948:38
	ldr	r0, [sp, #4]
	.loc	4 948 9 is_stmt 0               @ ../std/GD32C2x1_Firmware_Library/GD32C2x1_standard_peripheral/Source/gd32c2x1_timer.c:948:9
	ldr	r1, [sp, #16]
	.loc	4 948 36                        @ ../std/GD32C2x1_Firmware_Library/GD32C2x1_standard_peripheral/Source/gd32c2x1_timer.c:948:36
	str	r0, [r1, #28]
	.loc	4 949 9 is_stmt 1               @ ../std/GD32C2x1_Firmware_Library/GD32C2x1_standard_peripheral/Source/gd32c2x1_timer.c:949:9
	b	.LBB36_9
.LBB36_6:
	.loc	4 952 15                        @ ../std/GD32C2x1_Firmware_Library/GD32C2x1_standard_peripheral/Source/gd32c2x1_timer.c:952:15
	ldr	r0, [sp, #16]
	ldr	r0, [r0, #28]
	.loc	4 952 13 is_stmt 0              @ ../std/GD32C2x1_Firmware_Library/GD32C2x1_standard_peripheral/Source/gd32c2x1_timer.c:952:13
	str	r0, [sp, #4]
	.loc	4 953 13 is_stmt 1              @ ../std/GD32C2x1_Firmware_Library/GD32C2x1_standard_peripheral/Source/gd32c2x1_timer.c:953:13
	ldr	r0, [sp, #4]
	ldr	r1, __arm_cp.36_2
	ands	r0, r1
	str	r0, [sp, #4]
	.loc	4 954 38                        @ ../std/GD32C2x1_Firmware_Library/GD32C2x1_standard_peripheral/Source/gd32c2x1_timer.c:954:38
	ldr	r0, [sp, #8]
	ldr	r1, __arm_cp.36_1
	.loc	4 954 44 is_stmt 0              @ ../std/GD32C2x1_Firmware_Library/GD32C2x1_standard_peripheral/Source/gd32c2x1_timer.c:954:44
	ands	r0, r1
	.loc	4 954 69                        @ ../std/GD32C2x1_Firmware_Library/GD32C2x1_standard_peripheral/Source/gd32c2x1_timer.c:954:69
	lsls	r1, r0, #8
	.loc	4 954 13                        @ ../std/GD32C2x1_Firmware_Library/GD32C2x1_standard_peripheral/Source/gd32c2x1_timer.c:954:13
	ldr	r0, [sp, #4]
	orrs	r0, r1
	str	r0, [sp, #4]
	.loc	4 955 38 is_stmt 1              @ ../std/GD32C2x1_Firmware_Library/GD32C2x1_standard_peripheral/Source/gd32c2x1_timer.c:955:38
	ldr	r0, [sp, #4]
	.loc	4 955 9 is_stmt 0               @ ../std/GD32C2x1_Firmware_Library/GD32C2x1_standard_peripheral/Source/gd32c2x1_timer.c:955:9
	ldr	r1, [sp, #16]
	.loc	4 955 36                        @ ../std/GD32C2x1_Firmware_Library/GD32C2x1_standard_peripheral/Source/gd32c2x1_timer.c:955:36
	str	r0, [r1, #28]
	.loc	4 956 9 is_stmt 1               @ ../std/GD32C2x1_Firmware_Library/GD32C2x1_standard_peripheral/Source/gd32c2x1_timer.c:956:9
	b	.LBB36_9
.LBB36_7:
	.loc	4 959 15                        @ ../std/GD32C2x1_Firmware_Library/GD32C2x1_standard_peripheral/Source/gd32c2x1_timer.c:959:15
	ldr	r0, [sp, #16]
	ldr	r0, [r0, #84]
	.loc	4 959 13 is_stmt 0              @ ../std/GD32C2x1_Firmware_Library/GD32C2x1_standard_peripheral/Source/gd32c2x1_timer.c:959:13
	str	r0, [sp, #4]
	.loc	4 960 13 is_stmt 1              @ ../std/GD32C2x1_Firmware_Library/GD32C2x1_standard_peripheral/Source/gd32c2x1_timer.c:960:13
	ldr	r0, [sp, #4]
	ldr	r1, __arm_cp.36_0
	ands	r0, r1
	str	r0, [sp, #4]
	.loc	4 961 27                        @ ../std/GD32C2x1_Firmware_Library/GD32C2x1_standard_peripheral/Source/gd32c2x1_timer.c:961:27
	ldr	r1, [sp, #8]
	ldr	r0, __arm_cp.36_1
	.loc	4 961 33 is_stmt 0              @ ../std/GD32C2x1_Firmware_Library/GD32C2x1_standard_peripheral/Source/gd32c2x1_timer.c:961:33
	ands	r1, r0
	.loc	4 961 13                        @ ../std/GD32C2x1_Firmware_Library/GD32C2x1_standard_peripheral/Source/gd32c2x1_timer.c:961:13
	ldr	r0, [sp, #4]
	orrs	r0, r1
	str	r0, [sp, #4]
	.loc	4 962 38 is_stmt 1              @ ../std/GD32C2x1_Firmware_Library/GD32C2x1_standard_peripheral/Source/gd32c2x1_timer.c:962:38
	ldr	r0, [sp, #4]
	.loc	4 962 9 is_stmt 0               @ ../std/GD32C2x1_Firmware_Library/GD32C2x1_standard_peripheral/Source/gd32c2x1_timer.c:962:9
	ldr	r1, [sp, #16]
	.loc	4 962 36                        @ ../std/GD32C2x1_Firmware_Library/GD32C2x1_standard_peripheral/Source/gd32c2x1_timer.c:962:36
	str	r0, [r1, #84]
	.loc	4 963 9 is_stmt 1               @ ../std/GD32C2x1_Firmware_Library/GD32C2x1_standard_peripheral/Source/gd32c2x1_timer.c:963:9
	b	.LBB36_9
.LBB36_8:
	.loc	4 965 9                         @ ../std/GD32C2x1_Firmware_Library/GD32C2x1_standard_peripheral/Source/gd32c2x1_timer.c:965:9
	b	.LBB36_9
.Ltmp164:
.LBB36_9:
	.loc	4 967 1                         @ ../std/GD32C2x1_Firmware_Library/GD32C2x1_standard_peripheral/Source/gd32c2x1_timer.c:967:1
	add	sp, #20
	bx	lr
.Ltmp165:
	.p2align	2
@ %bb.10:
	.loc	4 0 1 is_stmt 0                 @ ../std/GD32C2x1_Firmware_Library/GD32C2x1_standard_peripheral/Source/gd32c2x1_timer.c:0:1
__arm_cp.36_0:
	.long	4294901647                      @ 0xfffeff8f
.Lcpi_end25:
	.size	__arm_cp.36_0, .Lcpi_end25-__arm_cp.36_0
__arm_cp.36_1:
	.long	65648                           @ 0x10070
.Lcpi_end26:
	.size	__arm_cp.36_1, .Lcpi_end26-__arm_cp.36_1
__arm_cp.36_2:
	.long	4278161407                      @ 0xfeff8fff
.Lcpi_end27:
	.size	__arm_cp.36_2, .Lcpi_end27-__arm_cp.36_2
.Lfunc_end36:
	.size	timer_channel_output_mode_config, .Lfunc_end36-timer_channel_output_mode_config
	.cfi_endproc
	.cantunwind
	.fnend
                                        @ -- End function
	.section	.text.timer_channel_combined_3_phase_pwm_config,"ax",%progbits
	.hidden	timer_channel_combined_3_phase_pwm_config @ -- Begin function timer_channel_combined_3_phase_pwm_config
	.globl	timer_channel_combined_3_phase_pwm_config
	.p2align	1
	.type	timer_channel_combined_3_phase_pwm_config,%function
	.code	16                              @ @timer_channel_combined_3_phase_pwm_config
	.thumb_func
timer_channel_combined_3_phase_pwm_config:
.Lfunc_begin37:
	.loc	4 985 0 is_stmt 1               @ ../std/GD32C2x1_Firmware_Library/GD32C2x1_standard_peripheral/Source/gd32c2x1_timer.c:985:0
	.fnstart
	.cfi_startproc
@ %bb.0:
	.pad	#20
	sub	sp, #20
	.cfi_def_cfa_offset 20
                                        @ kill: def $r3 killed $r1
	str	r0, [sp, #16]
	add	r0, sp, #12
	strh	r1, [r0]
	str	r2, [sp, #8]
.Ltmp166:
	.loc	4 987 12 prologue_end           @ ../std/GD32C2x1_Firmware_Library/GD32C2x1_standard_peripheral/Source/gd32c2x1_timer.c:987:12
	ldrh	r0, [r0]
	.loc	4 987 5 is_stmt 0               @ ../std/GD32C2x1_Firmware_Library/GD32C2x1_standard_peripheral/Source/gd32c2x1_timer.c:987:5
	str	r0, [sp]                        @ 4-byte Spill
	cbz	r0, .LBB37_3
	b	.LBB37_1
.LBB37_1:
	ldr	r0, [sp]                        @ 4-byte Reload
	cmp	r0, #1
	beq	.LBB37_4
	b	.LBB37_2
.LBB37_2:
	ldr	r0, [sp]                        @ 4-byte Reload
	cmp	r0, #2
	beq	.LBB37_5
	b	.LBB37_6
.LBB37_3:
.Ltmp167:
	.loc	4 990 15 is_stmt 1              @ ../std/GD32C2x1_Firmware_Library/GD32C2x1_standard_peripheral/Source/gd32c2x1_timer.c:990:15
	ldr	r0, [sp, #16]
	ldr	r0, [r0, #88]
	.loc	4 990 13 is_stmt 0              @ ../std/GD32C2x1_Firmware_Library/GD32C2x1_standard_peripheral/Source/gd32c2x1_timer.c:990:13
	str	r0, [sp, #4]
	.loc	4 991 13 is_stmt 1              @ ../std/GD32C2x1_Firmware_Library/GD32C2x1_standard_peripheral/Source/gd32c2x1_timer.c:991:13
	ldr	r0, [sp, #4]
	movs	r1, #1
	lsls	r1, r1, #29
	bics	r0, r1
	str	r0, [sp, #4]
	.loc	4 992 28                        @ ../std/GD32C2x1_Firmware_Library/GD32C2x1_standard_peripheral/Source/gd32c2x1_timer.c:992:28
	ldr	r0, [sp, #8]
	.loc	4 992 66 is_stmt 0              @ ../std/GD32C2x1_Firmware_Library/GD32C2x1_standard_peripheral/Source/gd32c2x1_timer.c:992:66
	lsls	r0, r0, #31
	lsrs	r1, r0, #2
	.loc	4 992 13                        @ ../std/GD32C2x1_Firmware_Library/GD32C2x1_standard_peripheral/Source/gd32c2x1_timer.c:992:13
	ldr	r0, [sp, #4]
	orrs	r0, r1
	str	r0, [sp, #4]
	.loc	4 993 37 is_stmt 1              @ ../std/GD32C2x1_Firmware_Library/GD32C2x1_standard_peripheral/Source/gd32c2x1_timer.c:993:37
	ldr	r0, [sp, #4]
	.loc	4 993 9 is_stmt 0               @ ../std/GD32C2x1_Firmware_Library/GD32C2x1_standard_peripheral/Source/gd32c2x1_timer.c:993:9
	ldr	r1, [sp, #16]
	.loc	4 993 35                        @ ../std/GD32C2x1_Firmware_Library/GD32C2x1_standard_peripheral/Source/gd32c2x1_timer.c:993:35
	str	r0, [r1, #88]
	.loc	4 994 9 is_stmt 1               @ ../std/GD32C2x1_Firmware_Library/GD32C2x1_standard_peripheral/Source/gd32c2x1_timer.c:994:9
	b	.LBB37_7
.LBB37_4:
	.loc	4 996 15                        @ ../std/GD32C2x1_Firmware_Library/GD32C2x1_standard_peripheral/Source/gd32c2x1_timer.c:996:15
	ldr	r0, [sp, #16]
	ldr	r0, [r0, #88]
	.loc	4 996 13 is_stmt 0              @ ../std/GD32C2x1_Firmware_Library/GD32C2x1_standard_peripheral/Source/gd32c2x1_timer.c:996:13
	str	r0, [sp, #4]
	.loc	4 997 13 is_stmt 1              @ ../std/GD32C2x1_Firmware_Library/GD32C2x1_standard_peripheral/Source/gd32c2x1_timer.c:997:13
	ldr	r0, [sp, #4]
	movs	r1, #1
	lsls	r1, r1, #30
	bics	r0, r1
	str	r0, [sp, #4]
	.loc	4 998 28                        @ ../std/GD32C2x1_Firmware_Library/GD32C2x1_standard_peripheral/Source/gd32c2x1_timer.c:998:28
	ldr	r0, [sp, #8]
	.loc	4 998 66 is_stmt 0              @ ../std/GD32C2x1_Firmware_Library/GD32C2x1_standard_peripheral/Source/gd32c2x1_timer.c:998:66
	lsls	r0, r0, #31
	lsrs	r1, r0, #1
	.loc	4 998 13                        @ ../std/GD32C2x1_Firmware_Library/GD32C2x1_standard_peripheral/Source/gd32c2x1_timer.c:998:13
	ldr	r0, [sp, #4]
	orrs	r0, r1
	str	r0, [sp, #4]
	.loc	4 999 37 is_stmt 1              @ ../std/GD32C2x1_Firmware_Library/GD32C2x1_standard_peripheral/Source/gd32c2x1_timer.c:999:37
	ldr	r0, [sp, #4]
	.loc	4 999 9 is_stmt 0               @ ../std/GD32C2x1_Firmware_Library/GD32C2x1_standard_peripheral/Source/gd32c2x1_timer.c:999:9
	ldr	r1, [sp, #16]
	.loc	4 999 35                        @ ../std/GD32C2x1_Firmware_Library/GD32C2x1_standard_peripheral/Source/gd32c2x1_timer.c:999:35
	str	r0, [r1, #88]
	.loc	4 1000 9 is_stmt 1              @ ../std/GD32C2x1_Firmware_Library/GD32C2x1_standard_peripheral/Source/gd32c2x1_timer.c:1000:9
	b	.LBB37_7
.LBB37_5:
	.loc	4 1002 15                       @ ../std/GD32C2x1_Firmware_Library/GD32C2x1_standard_peripheral/Source/gd32c2x1_timer.c:1002:15
	ldr	r0, [sp, #16]
	ldr	r0, [r0, #88]
	.loc	4 1002 13 is_stmt 0             @ ../std/GD32C2x1_Firmware_Library/GD32C2x1_standard_peripheral/Source/gd32c2x1_timer.c:1002:13
	str	r0, [sp, #4]
	.loc	4 1003 13 is_stmt 1             @ ../std/GD32C2x1_Firmware_Library/GD32C2x1_standard_peripheral/Source/gd32c2x1_timer.c:1003:13
	ldr	r0, [sp, #4]
	movs	r1, #1
	lsls	r1, r1, #31
	bics	r0, r1
	str	r0, [sp, #4]
	.loc	4 1004 28                       @ ../std/GD32C2x1_Firmware_Library/GD32C2x1_standard_peripheral/Source/gd32c2x1_timer.c:1004:28
	ldr	r0, [sp, #8]
	.loc	4 1004 66 is_stmt 0             @ ../std/GD32C2x1_Firmware_Library/GD32C2x1_standard_peripheral/Source/gd32c2x1_timer.c:1004:66
	lsls	r1, r0, #31
	.loc	4 1004 13                       @ ../std/GD32C2x1_Firmware_Library/GD32C2x1_standard_peripheral/Source/gd32c2x1_timer.c:1004:13
	ldr	r0, [sp, #4]
	orrs	r0, r1
	str	r0, [sp, #4]
	.loc	4 1005 37 is_stmt 1             @ ../std/GD32C2x1_Firmware_Library/GD32C2x1_standard_peripheral/Source/gd32c2x1_timer.c:1005:37
	ldr	r0, [sp, #4]
	.loc	4 1005 9 is_stmt 0              @ ../std/GD32C2x1_Firmware_Library/GD32C2x1_standard_peripheral/Source/gd32c2x1_timer.c:1005:9
	ldr	r1, [sp, #16]
	.loc	4 1005 35                       @ ../std/GD32C2x1_Firmware_Library/GD32C2x1_standard_peripheral/Source/gd32c2x1_timer.c:1005:35
	str	r0, [r1, #88]
	.loc	4 1006 9 is_stmt 1              @ ../std/GD32C2x1_Firmware_Library/GD32C2x1_standard_peripheral/Source/gd32c2x1_timer.c:1006:9
	b	.LBB37_7
.LBB37_6:
	.loc	4 1008 9                        @ ../std/GD32C2x1_Firmware_Library/GD32C2x1_standard_peripheral/Source/gd32c2x1_timer.c:1008:9
	b	.LBB37_7
.Ltmp168:
.LBB37_7:
	.loc	4 1010 1                        @ ../std/GD32C2x1_Firmware_Library/GD32C2x1_standard_peripheral/Source/gd32c2x1_timer.c:1010:1
	add	sp, #20
	bx	lr
.Ltmp169:
.Lfunc_end37:
	.size	timer_channel_combined_3_phase_pwm_config, .Lfunc_end37-timer_channel_combined_3_phase_pwm_config
	.cfi_endproc
	.cantunwind
	.fnend
                                        @ -- End function
	.section	.text.timer_channel_output_pulse_value_config,"ax",%progbits
	.hidden	timer_channel_output_pulse_value_config @ -- Begin function timer_channel_output_pulse_value_config
	.globl	timer_channel_output_pulse_value_config
	.p2align	2
	.type	timer_channel_output_pulse_value_config,%function
	.code	16                              @ @timer_channel_output_pulse_value_config
	.thumb_func
timer_channel_output_pulse_value_config:
.Lfunc_begin38:
	.loc	4 1027 0                        @ ../std/GD32C2x1_Firmware_Library/GD32C2x1_standard_peripheral/Source/gd32c2x1_timer.c:1027:0
	.fnstart
	.cfi_startproc
@ %bb.0:
	.pad	#16
	sub	sp, #16
	.cfi_def_cfa_offset 16
                                        @ kill: def $r3 killed $r1
	str	r0, [sp, #12]
	add	r0, sp, #8
	strh	r1, [r0]
	str	r2, [sp, #4]
.Ltmp170:
	.loc	4 1028 12 prologue_end          @ ../std/GD32C2x1_Firmware_Library/GD32C2x1_standard_peripheral/Source/gd32c2x1_timer.c:1028:12
	ldrh	r0, [r0]
	.loc	4 1028 5 is_stmt 0              @ ../std/GD32C2x1_Firmware_Library/GD32C2x1_standard_peripheral/Source/gd32c2x1_timer.c:1028:5
	str	r0, [sp]                        @ 4-byte Spill
	cmp	r0, #4
	bhi	.LBB38_8
@ %bb.1:
	.loc	4 0 5                           @ ../std/GD32C2x1_Firmware_Library/GD32C2x1_standard_peripheral/Source/gd32c2x1_timer.c:0:5
	ldr	r1, [sp]                        @ 4-byte Reload
	lsls	r2, r1, #2
	adr	r0, .LJTI38_0
	adds	r0, r0, r2
	mov	pc, r0
@ %bb.2:
	.p2align	2
.LJTI38_0:
	b.w	.LBB38_3
	b.w	.LBB38_4
	b.w	.LBB38_5
	b.w	.LBB38_6
	b.w	.LBB38_7
.LBB38_3:
.Ltmp171:
	.loc	4 1031 47 is_stmt 1             @ ../std/GD32C2x1_Firmware_Library/GD32C2x1_standard_peripheral/Source/gd32c2x1_timer.c:1031:47
	ldr	r0, [sp, #4]
	.loc	4 1031 9 is_stmt 0              @ ../std/GD32C2x1_Firmware_Library/GD32C2x1_standard_peripheral/Source/gd32c2x1_timer.c:1031:9
	ldr	r1, [sp, #12]
	.loc	4 1031 35                       @ ../std/GD32C2x1_Firmware_Library/GD32C2x1_standard_peripheral/Source/gd32c2x1_timer.c:1031:35
	str	r0, [r1, #52]
	.loc	4 1032 9 is_stmt 1              @ ../std/GD32C2x1_Firmware_Library/GD32C2x1_standard_peripheral/Source/gd32c2x1_timer.c:1032:9
	b	.LBB38_9
.LBB38_4:
	.loc	4 1035 47                       @ ../std/GD32C2x1_Firmware_Library/GD32C2x1_standard_peripheral/Source/gd32c2x1_timer.c:1035:47
	ldr	r0, [sp, #4]
	.loc	4 1035 9 is_stmt 0              @ ../std/GD32C2x1_Firmware_Library/GD32C2x1_standard_peripheral/Source/gd32c2x1_timer.c:1035:9
	ldr	r1, [sp, #12]
	.loc	4 1035 35                       @ ../std/GD32C2x1_Firmware_Library/GD32C2x1_standard_peripheral/Source/gd32c2x1_timer.c:1035:35
	str	r0, [r1, #56]
	.loc	4 1036 9 is_stmt 1              @ ../std/GD32C2x1_Firmware_Library/GD32C2x1_standard_peripheral/Source/gd32c2x1_timer.c:1036:9
	b	.LBB38_9
.LBB38_5:
	.loc	4 1039 47                       @ ../std/GD32C2x1_Firmware_Library/GD32C2x1_standard_peripheral/Source/gd32c2x1_timer.c:1039:47
	ldr	r0, [sp, #4]
	.loc	4 1039 9 is_stmt 0              @ ../std/GD32C2x1_Firmware_Library/GD32C2x1_standard_peripheral/Source/gd32c2x1_timer.c:1039:9
	ldr	r1, [sp, #12]
	.loc	4 1039 35                       @ ../std/GD32C2x1_Firmware_Library/GD32C2x1_standard_peripheral/Source/gd32c2x1_timer.c:1039:35
	str	r0, [r1, #60]
	.loc	4 1040 9 is_stmt 1              @ ../std/GD32C2x1_Firmware_Library/GD32C2x1_standard_peripheral/Source/gd32c2x1_timer.c:1040:9
	b	.LBB38_9
.LBB38_6:
	.loc	4 1043 47                       @ ../std/GD32C2x1_Firmware_Library/GD32C2x1_standard_peripheral/Source/gd32c2x1_timer.c:1043:47
	ldr	r0, [sp, #4]
	.loc	4 1043 9 is_stmt 0              @ ../std/GD32C2x1_Firmware_Library/GD32C2x1_standard_peripheral/Source/gd32c2x1_timer.c:1043:9
	ldr	r1, [sp, #12]
	.loc	4 1043 35                       @ ../std/GD32C2x1_Firmware_Library/GD32C2x1_standard_peripheral/Source/gd32c2x1_timer.c:1043:35
	str	r0, [r1, #64]
	.loc	4 1044 9 is_stmt 1              @ ../std/GD32C2x1_Firmware_Library/GD32C2x1_standard_peripheral/Source/gd32c2x1_timer.c:1044:9
	b	.LBB38_9
.LBB38_7:
	.loc	4 0 9 is_stmt 0                 @ ../std/GD32C2x1_Firmware_Library/GD32C2x1_standard_peripheral/Source/gd32c2x1_timer.c:0:9
	add	r0, sp, #4
	.loc	4 1047 48 is_stmt 1             @ ../std/GD32C2x1_Firmware_Library/GD32C2x1_standard_peripheral/Source/gd32c2x1_timer.c:1047:48
	ldrh	r0, [r0]
	.loc	4 1047 9 is_stmt 0              @ ../std/GD32C2x1_Firmware_Library/GD32C2x1_standard_peripheral/Source/gd32c2x1_timer.c:1047:9
	ldr	r1, [sp, #12]
	.loc	4 1047 35                       @ ../std/GD32C2x1_Firmware_Library/GD32C2x1_standard_peripheral/Source/gd32c2x1_timer.c:1047:35
	str	r0, [r1, #88]
	.loc	4 1048 9 is_stmt 1              @ ../std/GD32C2x1_Firmware_Library/GD32C2x1_standard_peripheral/Source/gd32c2x1_timer.c:1048:9
	b	.LBB38_9
.LBB38_8:
	.loc	4 1050 9                        @ ../std/GD32C2x1_Firmware_Library/GD32C2x1_standard_peripheral/Source/gd32c2x1_timer.c:1050:9
	b	.LBB38_9
.Ltmp172:
.LBB38_9:
	.loc	4 1052 1                        @ ../std/GD32C2x1_Firmware_Library/GD32C2x1_standard_peripheral/Source/gd32c2x1_timer.c:1052:1
	add	sp, #16
	bx	lr
.Ltmp173:
.Lfunc_end38:
	.size	timer_channel_output_pulse_value_config, .Lfunc_end38-timer_channel_output_pulse_value_config
	.cfi_endproc
	.cantunwind
	.fnend
                                        @ -- End function
	.section	.text.timer_channel_output_shadow_config,"ax",%progbits
	.hidden	timer_channel_output_shadow_config @ -- Begin function timer_channel_output_shadow_config
	.globl	timer_channel_output_shadow_config
	.p2align	2
	.type	timer_channel_output_shadow_config,%function
	.code	16                              @ @timer_channel_output_shadow_config
	.thumb_func
timer_channel_output_shadow_config:
.Lfunc_begin39:
	.loc	4 1072 0                        @ ../std/GD32C2x1_Firmware_Library/GD32C2x1_standard_peripheral/Source/gd32c2x1_timer.c:1072:0
	.fnstart
	.cfi_startproc
@ %bb.0:
	.pad	#20
	sub	sp, #20
	.cfi_def_cfa_offset 20
                                        @ kill: def $r3 killed $r2
                                        @ kill: def $r3 killed $r1
	str	r0, [sp, #16]
	add	r0, sp, #12
	strh	r1, [r0]
	add	r1, sp, #8
	strh	r2, [r1]
.Ltmp174:
	.loc	4 1074 12 prologue_end          @ ../std/GD32C2x1_Firmware_Library/GD32C2x1_standard_peripheral/Source/gd32c2x1_timer.c:1074:12
	ldrh	r0, [r0]
	.loc	4 1074 5 is_stmt 0              @ ../std/GD32C2x1_Firmware_Library/GD32C2x1_standard_peripheral/Source/gd32c2x1_timer.c:1074:5
	str	r0, [sp]                        @ 4-byte Spill
	cmp	r0, #4
	bhi	.LBB39_8
@ %bb.1:
	.loc	4 0 5                           @ ../std/GD32C2x1_Firmware_Library/GD32C2x1_standard_peripheral/Source/gd32c2x1_timer.c:0:5
	ldr	r1, [sp]                        @ 4-byte Reload
	lsls	r2, r1, #2
	adr	r0, .LJTI39_0
	adds	r0, r0, r2
	mov	pc, r0
@ %bb.2:
	.p2align	2
.LJTI39_0:
	b.w	.LBB39_3
	b.w	.LBB39_4
	b.w	.LBB39_5
	b.w	.LBB39_6
	b.w	.LBB39_7
.LBB39_3:
.Ltmp175:
	.loc	4 1077 15 is_stmt 1             @ ../std/GD32C2x1_Firmware_Library/GD32C2x1_standard_peripheral/Source/gd32c2x1_timer.c:1077:15
	ldr	r0, [sp, #16]
	ldr	r0, [r0, #24]
	.loc	4 1077 13 is_stmt 0             @ ../std/GD32C2x1_Firmware_Library/GD32C2x1_standard_peripheral/Source/gd32c2x1_timer.c:1077:13
	str	r0, [sp, #4]
	.loc	4 1078 13 is_stmt 1             @ ../std/GD32C2x1_Firmware_Library/GD32C2x1_standard_peripheral/Source/gd32c2x1_timer.c:1078:13
	ldr	r1, [sp, #4]
	movs	r0, #8
	bics	r1, r0
	str	r1, [sp, #4]
	add	r1, sp, #8
	.loc	4 1079 17                       @ ../std/GD32C2x1_Firmware_Library/GD32C2x1_standard_peripheral/Source/gd32c2x1_timer.c:1079:17
	ldrh	r1, [r1]
	.loc	4 1079 36 is_stmt 0             @ ../std/GD32C2x1_Firmware_Library/GD32C2x1_standard_peripheral/Source/gd32c2x1_timer.c:1079:36
	ands	r1, r0
	.loc	4 1079 13                       @ ../std/GD32C2x1_Firmware_Library/GD32C2x1_standard_peripheral/Source/gd32c2x1_timer.c:1079:13
	ldr	r0, [sp, #4]
	orrs	r0, r1
	str	r0, [sp, #4]
	.loc	4 1080 38 is_stmt 1             @ ../std/GD32C2x1_Firmware_Library/GD32C2x1_standard_peripheral/Source/gd32c2x1_timer.c:1080:38
	ldr	r0, [sp, #4]
	.loc	4 1080 9 is_stmt 0              @ ../std/GD32C2x1_Firmware_Library/GD32C2x1_standard_peripheral/Source/gd32c2x1_timer.c:1080:9
	ldr	r1, [sp, #16]
	.loc	4 1080 36                       @ ../std/GD32C2x1_Firmware_Library/GD32C2x1_standard_peripheral/Source/gd32c2x1_timer.c:1080:36
	str	r0, [r1, #24]
	.loc	4 1081 9 is_stmt 1              @ ../std/GD32C2x1_Firmware_Library/GD32C2x1_standard_peripheral/Source/gd32c2x1_timer.c:1081:9
	b	.LBB39_9
.LBB39_4:
	.loc	4 1084 15                       @ ../std/GD32C2x1_Firmware_Library/GD32C2x1_standard_peripheral/Source/gd32c2x1_timer.c:1084:15
	ldr	r0, [sp, #16]
	ldr	r0, [r0, #24]
	.loc	4 1084 13 is_stmt 0             @ ../std/GD32C2x1_Firmware_Library/GD32C2x1_standard_peripheral/Source/gd32c2x1_timer.c:1084:13
	str	r0, [sp, #4]
	.loc	4 1085 13 is_stmt 1             @ ../std/GD32C2x1_Firmware_Library/GD32C2x1_standard_peripheral/Source/gd32c2x1_timer.c:1085:13
	ldr	r0, [sp, #4]
	movw	r1, #2048
	bics	r0, r1
	str	r0, [sp, #4]
	add	r0, sp, #8
	.loc	4 1086 18                       @ ../std/GD32C2x1_Firmware_Library/GD32C2x1_standard_peripheral/Source/gd32c2x1_timer.c:1086:18
	ldrh	r0, [r0]
	movs	r1, #8
	.loc	4 1086 37 is_stmt 0             @ ../std/GD32C2x1_Firmware_Library/GD32C2x1_standard_peripheral/Source/gd32c2x1_timer.c:1086:37
	ands	r0, r1
	.loc	4 1086 63                       @ ../std/GD32C2x1_Firmware_Library/GD32C2x1_standard_peripheral/Source/gd32c2x1_timer.c:1086:63
	lsls	r1, r0, #8
	.loc	4 1086 13                       @ ../std/GD32C2x1_Firmware_Library/GD32C2x1_standard_peripheral/Source/gd32c2x1_timer.c:1086:13
	ldr	r0, [sp, #4]
	orrs	r0, r1
	str	r0, [sp, #4]
	.loc	4 1087 38 is_stmt 1             @ ../std/GD32C2x1_Firmware_Library/GD32C2x1_standard_peripheral/Source/gd32c2x1_timer.c:1087:38
	ldr	r0, [sp, #4]
	.loc	4 1087 9 is_stmt 0              @ ../std/GD32C2x1_Firmware_Library/GD32C2x1_standard_peripheral/Source/gd32c2x1_timer.c:1087:9
	ldr	r1, [sp, #16]
	.loc	4 1087 36                       @ ../std/GD32C2x1_Firmware_Library/GD32C2x1_standard_peripheral/Source/gd32c2x1_timer.c:1087:36
	str	r0, [r1, #24]
	.loc	4 1088 9 is_stmt 1              @ ../std/GD32C2x1_Firmware_Library/GD32C2x1_standard_peripheral/Source/gd32c2x1_timer.c:1088:9
	b	.LBB39_9
.LBB39_5:
	.loc	4 1091 15                       @ ../std/GD32C2x1_Firmware_Library/GD32C2x1_standard_peripheral/Source/gd32c2x1_timer.c:1091:15
	ldr	r0, [sp, #16]
	ldr	r0, [r0, #28]
	.loc	4 1091 13 is_stmt 0             @ ../std/GD32C2x1_Firmware_Library/GD32C2x1_standard_peripheral/Source/gd32c2x1_timer.c:1091:13
	str	r0, [sp, #4]
	.loc	4 1092 13 is_stmt 1             @ ../std/GD32C2x1_Firmware_Library/GD32C2x1_standard_peripheral/Source/gd32c2x1_timer.c:1092:13
	ldr	r1, [sp, #4]
	movs	r0, #8
	bics	r1, r0
	str	r1, [sp, #4]
	add	r1, sp, #8
	.loc	4 1093 17                       @ ../std/GD32C2x1_Firmware_Library/GD32C2x1_standard_peripheral/Source/gd32c2x1_timer.c:1093:17
	ldrh	r1, [r1]
	.loc	4 1093 36 is_stmt 0             @ ../std/GD32C2x1_Firmware_Library/GD32C2x1_standard_peripheral/Source/gd32c2x1_timer.c:1093:36
	ands	r1, r0
	.loc	4 1093 13                       @ ../std/GD32C2x1_Firmware_Library/GD32C2x1_standard_peripheral/Source/gd32c2x1_timer.c:1093:13
	ldr	r0, [sp, #4]
	orrs	r0, r1
	str	r0, [sp, #4]
	.loc	4 1094 38 is_stmt 1             @ ../std/GD32C2x1_Firmware_Library/GD32C2x1_standard_peripheral/Source/gd32c2x1_timer.c:1094:38
	ldr	r0, [sp, #4]
	.loc	4 1094 9 is_stmt 0              @ ../std/GD32C2x1_Firmware_Library/GD32C2x1_standard_peripheral/Source/gd32c2x1_timer.c:1094:9
	ldr	r1, [sp, #16]
	.loc	4 1094 36                       @ ../std/GD32C2x1_Firmware_Library/GD32C2x1_standard_peripheral/Source/gd32c2x1_timer.c:1094:36
	str	r0, [r1, #28]
	.loc	4 1095 9 is_stmt 1              @ ../std/GD32C2x1_Firmware_Library/GD32C2x1_standard_peripheral/Source/gd32c2x1_timer.c:1095:9
	b	.LBB39_9
.LBB39_6:
	.loc	4 1098 15                       @ ../std/GD32C2x1_Firmware_Library/GD32C2x1_standard_peripheral/Source/gd32c2x1_timer.c:1098:15
	ldr	r0, [sp, #16]
	ldr	r0, [r0, #28]
	.loc	4 1098 13 is_stmt 0             @ ../std/GD32C2x1_Firmware_Library/GD32C2x1_standard_peripheral/Source/gd32c2x1_timer.c:1098:13
	str	r0, [sp, #4]
	.loc	4 1099 13 is_stmt 1             @ ../std/GD32C2x1_Firmware_Library/GD32C2x1_standard_peripheral/Source/gd32c2x1_timer.c:1099:13
	ldr	r0, [sp, #4]
	movw	r1, #2048
	bics	r0, r1
	str	r0, [sp, #4]
	add	r0, sp, #8
	.loc	4 1100 18                       @ ../std/GD32C2x1_Firmware_Library/GD32C2x1_standard_peripheral/Source/gd32c2x1_timer.c:1100:18
	ldrh	r0, [r0]
	movs	r1, #8
	.loc	4 1100 37 is_stmt 0             @ ../std/GD32C2x1_Firmware_Library/GD32C2x1_standard_peripheral/Source/gd32c2x1_timer.c:1100:37
	ands	r0, r1
	.loc	4 1100 63                       @ ../std/GD32C2x1_Firmware_Library/GD32C2x1_standard_peripheral/Source/gd32c2x1_timer.c:1100:63
	lsls	r1, r0, #8
	.loc	4 1100 13                       @ ../std/GD32C2x1_Firmware_Library/GD32C2x1_standard_peripheral/Source/gd32c2x1_timer.c:1100:13
	ldr	r0, [sp, #4]
	orrs	r0, r1
	str	r0, [sp, #4]
	.loc	4 1101 38 is_stmt 1             @ ../std/GD32C2x1_Firmware_Library/GD32C2x1_standard_peripheral/Source/gd32c2x1_timer.c:1101:38
	ldr	r0, [sp, #4]
	.loc	4 1101 9 is_stmt 0              @ ../std/GD32C2x1_Firmware_Library/GD32C2x1_standard_peripheral/Source/gd32c2x1_timer.c:1101:9
	ldr	r1, [sp, #16]
	.loc	4 1101 36                       @ ../std/GD32C2x1_Firmware_Library/GD32C2x1_standard_peripheral/Source/gd32c2x1_timer.c:1101:36
	str	r0, [r1, #28]
	.loc	4 1102 9 is_stmt 1              @ ../std/GD32C2x1_Firmware_Library/GD32C2x1_standard_peripheral/Source/gd32c2x1_timer.c:1102:9
	b	.LBB39_9
.LBB39_7:
	.loc	4 1105 15                       @ ../std/GD32C2x1_Firmware_Library/GD32C2x1_standard_peripheral/Source/gd32c2x1_timer.c:1105:15
	ldr	r0, [sp, #16]
	ldr	r0, [r0, #84]
	.loc	4 1105 13 is_stmt 0             @ ../std/GD32C2x1_Firmware_Library/GD32C2x1_standard_peripheral/Source/gd32c2x1_timer.c:1105:13
	str	r0, [sp, #4]
	.loc	4 1106 13 is_stmt 1             @ ../std/GD32C2x1_Firmware_Library/GD32C2x1_standard_peripheral/Source/gd32c2x1_timer.c:1106:13
	ldr	r1, [sp, #4]
	movs	r0, #8
	bics	r1, r0
	str	r1, [sp, #4]
	add	r1, sp, #8
	.loc	4 1107 17                       @ ../std/GD32C2x1_Firmware_Library/GD32C2x1_standard_peripheral/Source/gd32c2x1_timer.c:1107:17
	ldrh	r1, [r1]
	.loc	4 1107 36 is_stmt 0             @ ../std/GD32C2x1_Firmware_Library/GD32C2x1_standard_peripheral/Source/gd32c2x1_timer.c:1107:36
	ands	r1, r0
	.loc	4 1107 13                       @ ../std/GD32C2x1_Firmware_Library/GD32C2x1_standard_peripheral/Source/gd32c2x1_timer.c:1107:13
	ldr	r0, [sp, #4]
	orrs	r0, r1
	str	r0, [sp, #4]
	.loc	4 1108 38 is_stmt 1             @ ../std/GD32C2x1_Firmware_Library/GD32C2x1_standard_peripheral/Source/gd32c2x1_timer.c:1108:38
	ldr	r0, [sp, #4]
	.loc	4 1108 9 is_stmt 0              @ ../std/GD32C2x1_Firmware_Library/GD32C2x1_standard_peripheral/Source/gd32c2x1_timer.c:1108:9
	ldr	r1, [sp, #16]
	.loc	4 1108 36                       @ ../std/GD32C2x1_Firmware_Library/GD32C2x1_standard_peripheral/Source/gd32c2x1_timer.c:1108:36
	str	r0, [r1, #84]
	.loc	4 1109 9 is_stmt 1              @ ../std/GD32C2x1_Firmware_Library/GD32C2x1_standard_peripheral/Source/gd32c2x1_timer.c:1109:9
	b	.LBB39_9
.LBB39_8:
	.loc	4 1111 9                        @ ../std/GD32C2x1_Firmware_Library/GD32C2x1_standard_peripheral/Source/gd32c2x1_timer.c:1111:9
	b	.LBB39_9
.Ltmp176:
.LBB39_9:
	.loc	4 1113 1                        @ ../std/GD32C2x1_Firmware_Library/GD32C2x1_standard_peripheral/Source/gd32c2x1_timer.c:1113:1
	add	sp, #20
	bx	lr
.Ltmp177:
.Lfunc_end39:
	.size	timer_channel_output_shadow_config, .Lfunc_end39-timer_channel_output_shadow_config
	.cfi_endproc
	.cantunwind
	.fnend
                                        @ -- End function
	.section	.text.timer_channel_output_fast_config,"ax",%progbits
	.hidden	timer_channel_output_fast_config @ -- Begin function timer_channel_output_fast_config
	.globl	timer_channel_output_fast_config
	.p2align	2
	.type	timer_channel_output_fast_config,%function
	.code	16                              @ @timer_channel_output_fast_config
	.thumb_func
timer_channel_output_fast_config:
.Lfunc_begin40:
	.loc	4 1133 0                        @ ../std/GD32C2x1_Firmware_Library/GD32C2x1_standard_peripheral/Source/gd32c2x1_timer.c:1133:0
	.fnstart
	.cfi_startproc
@ %bb.0:
	.pad	#20
	sub	sp, #20
	.cfi_def_cfa_offset 20
                                        @ kill: def $r3 killed $r2
                                        @ kill: def $r3 killed $r1
	str	r0, [sp, #16]
	add	r0, sp, #12
	strh	r1, [r0]
	add	r1, sp, #8
	strh	r2, [r1]
.Ltmp178:
	.loc	4 1135 12 prologue_end          @ ../std/GD32C2x1_Firmware_Library/GD32C2x1_standard_peripheral/Source/gd32c2x1_timer.c:1135:12
	ldrh	r0, [r0]
	.loc	4 1135 5 is_stmt 0              @ ../std/GD32C2x1_Firmware_Library/GD32C2x1_standard_peripheral/Source/gd32c2x1_timer.c:1135:5
	str	r0, [sp]                        @ 4-byte Spill
	cmp	r0, #4
	bhi	.LBB40_8
@ %bb.1:
	.loc	4 0 5                           @ ../std/GD32C2x1_Firmware_Library/GD32C2x1_standard_peripheral/Source/gd32c2x1_timer.c:0:5
	ldr	r1, [sp]                        @ 4-byte Reload
	lsls	r2, r1, #2
	adr	r0, .LJTI40_0
	adds	r0, r0, r2
	mov	pc, r0
@ %bb.2:
	.p2align	2
.LJTI40_0:
	b.w	.LBB40_3
	b.w	.LBB40_4
	b.w	.LBB40_5
	b.w	.LBB40_6
	b.w	.LBB40_7
.LBB40_3:
.Ltmp179:
	.loc	4 1138 15 is_stmt 1             @ ../std/GD32C2x1_Firmware_Library/GD32C2x1_standard_peripheral/Source/gd32c2x1_timer.c:1138:15
	ldr	r0, [sp, #16]
	ldr	r0, [r0, #24]
	.loc	4 1138 13 is_stmt 0             @ ../std/GD32C2x1_Firmware_Library/GD32C2x1_standard_peripheral/Source/gd32c2x1_timer.c:1138:13
	str	r0, [sp, #4]
	.loc	4 1139 13 is_stmt 1             @ ../std/GD32C2x1_Firmware_Library/GD32C2x1_standard_peripheral/Source/gd32c2x1_timer.c:1139:13
	ldr	r1, [sp, #4]
	movs	r0, #4
	bics	r1, r0
	str	r1, [sp, #4]
	add	r1, sp, #8
	.loc	4 1140 17                       @ ../std/GD32C2x1_Firmware_Library/GD32C2x1_standard_peripheral/Source/gd32c2x1_timer.c:1140:17
	ldrh	r1, [r1]
	.loc	4 1140 34 is_stmt 0             @ ../std/GD32C2x1_Firmware_Library/GD32C2x1_standard_peripheral/Source/gd32c2x1_timer.c:1140:34
	ands	r1, r0
	.loc	4 1140 13                       @ ../std/GD32C2x1_Firmware_Library/GD32C2x1_standard_peripheral/Source/gd32c2x1_timer.c:1140:13
	ldr	r0, [sp, #4]
	orrs	r0, r1
	str	r0, [sp, #4]
	.loc	4 1141 38 is_stmt 1             @ ../std/GD32C2x1_Firmware_Library/GD32C2x1_standard_peripheral/Source/gd32c2x1_timer.c:1141:38
	ldr	r0, [sp, #4]
	.loc	4 1141 9 is_stmt 0              @ ../std/GD32C2x1_Firmware_Library/GD32C2x1_standard_peripheral/Source/gd32c2x1_timer.c:1141:9
	ldr	r1, [sp, #16]
	.loc	4 1141 36                       @ ../std/GD32C2x1_Firmware_Library/GD32C2x1_standard_peripheral/Source/gd32c2x1_timer.c:1141:36
	str	r0, [r1, #24]
	.loc	4 1142 9 is_stmt 1              @ ../std/GD32C2x1_Firmware_Library/GD32C2x1_standard_peripheral/Source/gd32c2x1_timer.c:1142:9
	b	.LBB40_9
.LBB40_4:
	.loc	4 1145 15                       @ ../std/GD32C2x1_Firmware_Library/GD32C2x1_standard_peripheral/Source/gd32c2x1_timer.c:1145:15
	ldr	r0, [sp, #16]
	ldr	r0, [r0, #24]
	.loc	4 1145 13 is_stmt 0             @ ../std/GD32C2x1_Firmware_Library/GD32C2x1_standard_peripheral/Source/gd32c2x1_timer.c:1145:13
	str	r0, [sp, #4]
	.loc	4 1146 13 is_stmt 1             @ ../std/GD32C2x1_Firmware_Library/GD32C2x1_standard_peripheral/Source/gd32c2x1_timer.c:1146:13
	ldr	r0, [sp, #4]
	movw	r1, #1024
	bics	r0, r1
	str	r0, [sp, #4]
	add	r0, sp, #8
	.loc	4 1147 18                       @ ../std/GD32C2x1_Firmware_Library/GD32C2x1_standard_peripheral/Source/gd32c2x1_timer.c:1147:18
	ldrh	r0, [r0]
	movs	r1, #4
	.loc	4 1147 35 is_stmt 0             @ ../std/GD32C2x1_Firmware_Library/GD32C2x1_standard_peripheral/Source/gd32c2x1_timer.c:1147:35
	ands	r0, r1
	.loc	4 1147 59                       @ ../std/GD32C2x1_Firmware_Library/GD32C2x1_standard_peripheral/Source/gd32c2x1_timer.c:1147:59
	lsls	r1, r0, #8
	.loc	4 1147 13                       @ ../std/GD32C2x1_Firmware_Library/GD32C2x1_standard_peripheral/Source/gd32c2x1_timer.c:1147:13
	ldr	r0, [sp, #4]
	orrs	r0, r1
	str	r0, [sp, #4]
	.loc	4 1148 38 is_stmt 1             @ ../std/GD32C2x1_Firmware_Library/GD32C2x1_standard_peripheral/Source/gd32c2x1_timer.c:1148:38
	ldr	r0, [sp, #4]
	.loc	4 1148 9 is_stmt 0              @ ../std/GD32C2x1_Firmware_Library/GD32C2x1_standard_peripheral/Source/gd32c2x1_timer.c:1148:9
	ldr	r1, [sp, #16]
	.loc	4 1148 36                       @ ../std/GD32C2x1_Firmware_Library/GD32C2x1_standard_peripheral/Source/gd32c2x1_timer.c:1148:36
	str	r0, [r1, #24]
	.loc	4 1149 9 is_stmt 1              @ ../std/GD32C2x1_Firmware_Library/GD32C2x1_standard_peripheral/Source/gd32c2x1_timer.c:1149:9
	b	.LBB40_9
.LBB40_5:
	.loc	4 1152 15                       @ ../std/GD32C2x1_Firmware_Library/GD32C2x1_standard_peripheral/Source/gd32c2x1_timer.c:1152:15
	ldr	r0, [sp, #16]
	ldr	r0, [r0, #28]
	.loc	4 1152 13 is_stmt 0             @ ../std/GD32C2x1_Firmware_Library/GD32C2x1_standard_peripheral/Source/gd32c2x1_timer.c:1152:13
	str	r0, [sp, #4]
	.loc	4 1153 13 is_stmt 1             @ ../std/GD32C2x1_Firmware_Library/GD32C2x1_standard_peripheral/Source/gd32c2x1_timer.c:1153:13
	ldr	r1, [sp, #4]
	movs	r0, #4
	bics	r1, r0
	str	r1, [sp, #4]
	add	r1, sp, #8
	.loc	4 1154 17                       @ ../std/GD32C2x1_Firmware_Library/GD32C2x1_standard_peripheral/Source/gd32c2x1_timer.c:1154:17
	ldrh	r1, [r1]
	.loc	4 1154 34 is_stmt 0             @ ../std/GD32C2x1_Firmware_Library/GD32C2x1_standard_peripheral/Source/gd32c2x1_timer.c:1154:34
	ands	r1, r0
	.loc	4 1154 13                       @ ../std/GD32C2x1_Firmware_Library/GD32C2x1_standard_peripheral/Source/gd32c2x1_timer.c:1154:13
	ldr	r0, [sp, #4]
	orrs	r0, r1
	str	r0, [sp, #4]
	.loc	4 1155 38 is_stmt 1             @ ../std/GD32C2x1_Firmware_Library/GD32C2x1_standard_peripheral/Source/gd32c2x1_timer.c:1155:38
	ldr	r0, [sp, #4]
	.loc	4 1155 9 is_stmt 0              @ ../std/GD32C2x1_Firmware_Library/GD32C2x1_standard_peripheral/Source/gd32c2x1_timer.c:1155:9
	ldr	r1, [sp, #16]
	.loc	4 1155 36                       @ ../std/GD32C2x1_Firmware_Library/GD32C2x1_standard_peripheral/Source/gd32c2x1_timer.c:1155:36
	str	r0, [r1, #28]
	.loc	4 1156 9 is_stmt 1              @ ../std/GD32C2x1_Firmware_Library/GD32C2x1_standard_peripheral/Source/gd32c2x1_timer.c:1156:9
	b	.LBB40_9
.LBB40_6:
	.loc	4 1159 15                       @ ../std/GD32C2x1_Firmware_Library/GD32C2x1_standard_peripheral/Source/gd32c2x1_timer.c:1159:15
	ldr	r0, [sp, #16]
	ldr	r0, [r0, #28]
	.loc	4 1159 13 is_stmt 0             @ ../std/GD32C2x1_Firmware_Library/GD32C2x1_standard_peripheral/Source/gd32c2x1_timer.c:1159:13
	str	r0, [sp, #4]
	.loc	4 1160 13 is_stmt 1             @ ../std/GD32C2x1_Firmware_Library/GD32C2x1_standard_peripheral/Source/gd32c2x1_timer.c:1160:13
	ldr	r0, [sp, #4]
	movw	r1, #1024
	bics	r0, r1
	str	r0, [sp, #4]
	add	r0, sp, #8
	.loc	4 1161 18                       @ ../std/GD32C2x1_Firmware_Library/GD32C2x1_standard_peripheral/Source/gd32c2x1_timer.c:1161:18
	ldrh	r0, [r0]
	movs	r1, #4
	.loc	4 1161 35 is_stmt 0             @ ../std/GD32C2x1_Firmware_Library/GD32C2x1_standard_peripheral/Source/gd32c2x1_timer.c:1161:35
	ands	r0, r1
	.loc	4 1161 59                       @ ../std/GD32C2x1_Firmware_Library/GD32C2x1_standard_peripheral/Source/gd32c2x1_timer.c:1161:59
	lsls	r1, r0, #8
	.loc	4 1161 13                       @ ../std/GD32C2x1_Firmware_Library/GD32C2x1_standard_peripheral/Source/gd32c2x1_timer.c:1161:13
	ldr	r0, [sp, #4]
	orrs	r0, r1
	str	r0, [sp, #4]
	.loc	4 1162 38 is_stmt 1             @ ../std/GD32C2x1_Firmware_Library/GD32C2x1_standard_peripheral/Source/gd32c2x1_timer.c:1162:38
	ldr	r0, [sp, #4]
	.loc	4 1162 9 is_stmt 0              @ ../std/GD32C2x1_Firmware_Library/GD32C2x1_standard_peripheral/Source/gd32c2x1_timer.c:1162:9
	ldr	r1, [sp, #16]
	.loc	4 1162 36                       @ ../std/GD32C2x1_Firmware_Library/GD32C2x1_standard_peripheral/Source/gd32c2x1_timer.c:1162:36
	str	r0, [r1, #28]
	.loc	4 1163 9 is_stmt 1              @ ../std/GD32C2x1_Firmware_Library/GD32C2x1_standard_peripheral/Source/gd32c2x1_timer.c:1163:9
	b	.LBB40_9
.LBB40_7:
	.loc	4 1166 15                       @ ../std/GD32C2x1_Firmware_Library/GD32C2x1_standard_peripheral/Source/gd32c2x1_timer.c:1166:15
	ldr	r0, [sp, #16]
	ldr	r0, [r0, #84]
	.loc	4 1166 13 is_stmt 0             @ ../std/GD32C2x1_Firmware_Library/GD32C2x1_standard_peripheral/Source/gd32c2x1_timer.c:1166:13
	str	r0, [sp, #4]
	.loc	4 1167 13 is_stmt 1             @ ../std/GD32C2x1_Firmware_Library/GD32C2x1_standard_peripheral/Source/gd32c2x1_timer.c:1167:13
	ldr	r1, [sp, #4]
	movs	r0, #4
	bics	r1, r0
	str	r1, [sp, #4]
	add	r1, sp, #8
	.loc	4 1168 17                       @ ../std/GD32C2x1_Firmware_Library/GD32C2x1_standard_peripheral/Source/gd32c2x1_timer.c:1168:17
	ldrh	r1, [r1]
	.loc	4 1168 34 is_stmt 0             @ ../std/GD32C2x1_Firmware_Library/GD32C2x1_standard_peripheral/Source/gd32c2x1_timer.c:1168:34
	ands	r1, r0
	.loc	4 1168 13                       @ ../std/GD32C2x1_Firmware_Library/GD32C2x1_standard_peripheral/Source/gd32c2x1_timer.c:1168:13
	ldr	r0, [sp, #4]
	orrs	r0, r1
	str	r0, [sp, #4]
	.loc	4 1169 38 is_stmt 1             @ ../std/GD32C2x1_Firmware_Library/GD32C2x1_standard_peripheral/Source/gd32c2x1_timer.c:1169:38
	ldr	r0, [sp, #4]
	.loc	4 1169 9 is_stmt 0              @ ../std/GD32C2x1_Firmware_Library/GD32C2x1_standard_peripheral/Source/gd32c2x1_timer.c:1169:9
	ldr	r1, [sp, #16]
	.loc	4 1169 36                       @ ../std/GD32C2x1_Firmware_Library/GD32C2x1_standard_peripheral/Source/gd32c2x1_timer.c:1169:36
	str	r0, [r1, #84]
	.loc	4 1170 9 is_stmt 1              @ ../std/GD32C2x1_Firmware_Library/GD32C2x1_standard_peripheral/Source/gd32c2x1_timer.c:1170:9
	b	.LBB40_9
.LBB40_8:
	.loc	4 1172 9                        @ ../std/GD32C2x1_Firmware_Library/GD32C2x1_standard_peripheral/Source/gd32c2x1_timer.c:1172:9
	b	.LBB40_9
.Ltmp180:
.LBB40_9:
	.loc	4 1174 1                        @ ../std/GD32C2x1_Firmware_Library/GD32C2x1_standard_peripheral/Source/gd32c2x1_timer.c:1174:1
	add	sp, #20
	bx	lr
.Ltmp181:
.Lfunc_end40:
	.size	timer_channel_output_fast_config, .Lfunc_end40-timer_channel_output_fast_config
	.cfi_endproc
	.cantunwind
	.fnend
                                        @ -- End function
	.section	.text.timer_channel_output_clear_config,"ax",%progbits
	.hidden	timer_channel_output_clear_config @ -- Begin function timer_channel_output_clear_config
	.globl	timer_channel_output_clear_config
	.p2align	2
	.type	timer_channel_output_clear_config,%function
	.code	16                              @ @timer_channel_output_clear_config
	.thumb_func
timer_channel_output_clear_config:
.Lfunc_begin41:
	.loc	4 1194 0                        @ ../std/GD32C2x1_Firmware_Library/GD32C2x1_standard_peripheral/Source/gd32c2x1_timer.c:1194:0
	.fnstart
	.cfi_startproc
@ %bb.0:
	.pad	#20
	sub	sp, #20
	.cfi_def_cfa_offset 20
                                        @ kill: def $r3 killed $r2
                                        @ kill: def $r3 killed $r1
	str	r0, [sp, #16]
	add	r0, sp, #12
	strh	r1, [r0]
	add	r1, sp, #8
	strh	r2, [r1]
.Ltmp182:
	.loc	4 1196 12 prologue_end          @ ../std/GD32C2x1_Firmware_Library/GD32C2x1_standard_peripheral/Source/gd32c2x1_timer.c:1196:12
	ldrh	r0, [r0]
	.loc	4 1196 5 is_stmt 0              @ ../std/GD32C2x1_Firmware_Library/GD32C2x1_standard_peripheral/Source/gd32c2x1_timer.c:1196:5
	str	r0, [sp]                        @ 4-byte Spill
	cmp	r0, #4
	bhi	.LBB41_8
@ %bb.1:
	.loc	4 0 5                           @ ../std/GD32C2x1_Firmware_Library/GD32C2x1_standard_peripheral/Source/gd32c2x1_timer.c:0:5
	ldr	r1, [sp]                        @ 4-byte Reload
	lsls	r2, r1, #2
	adr	r0, .LJTI41_0
	adds	r0, r0, r2
	mov	pc, r0
@ %bb.2:
	.p2align	2
.LJTI41_0:
	b.w	.LBB41_3
	b.w	.LBB41_4
	b.w	.LBB41_5
	b.w	.LBB41_6
	b.w	.LBB41_7
.LBB41_3:
.Ltmp183:
	.loc	4 1199 15 is_stmt 1             @ ../std/GD32C2x1_Firmware_Library/GD32C2x1_standard_peripheral/Source/gd32c2x1_timer.c:1199:15
	ldr	r0, [sp, #16]
	ldr	r0, [r0, #24]
	.loc	4 1199 13 is_stmt 0             @ ../std/GD32C2x1_Firmware_Library/GD32C2x1_standard_peripheral/Source/gd32c2x1_timer.c:1199:13
	str	r0, [sp, #4]
	.loc	4 1200 13 is_stmt 1             @ ../std/GD32C2x1_Firmware_Library/GD32C2x1_standard_peripheral/Source/gd32c2x1_timer.c:1200:13
	ldr	r1, [sp, #4]
	movs	r0, #128
	bics	r1, r0
	str	r1, [sp, #4]
	add	r1, sp, #8
	.loc	4 1201 17                       @ ../std/GD32C2x1_Firmware_Library/GD32C2x1_standard_peripheral/Source/gd32c2x1_timer.c:1201:17
	ldrh	r1, [r1]
	.loc	4 1201 35 is_stmt 0             @ ../std/GD32C2x1_Firmware_Library/GD32C2x1_standard_peripheral/Source/gd32c2x1_timer.c:1201:35
	ands	r1, r0
	.loc	4 1201 13                       @ ../std/GD32C2x1_Firmware_Library/GD32C2x1_standard_peripheral/Source/gd32c2x1_timer.c:1201:13
	ldr	r0, [sp, #4]
	orrs	r0, r1
	str	r0, [sp, #4]
	.loc	4 1202 38 is_stmt 1             @ ../std/GD32C2x1_Firmware_Library/GD32C2x1_standard_peripheral/Source/gd32c2x1_timer.c:1202:38
	ldr	r0, [sp, #4]
	.loc	4 1202 9 is_stmt 0              @ ../std/GD32C2x1_Firmware_Library/GD32C2x1_standard_peripheral/Source/gd32c2x1_timer.c:1202:9
	ldr	r1, [sp, #16]
	.loc	4 1202 36                       @ ../std/GD32C2x1_Firmware_Library/GD32C2x1_standard_peripheral/Source/gd32c2x1_timer.c:1202:36
	str	r0, [r1, #24]
	.loc	4 1203 9 is_stmt 1              @ ../std/GD32C2x1_Firmware_Library/GD32C2x1_standard_peripheral/Source/gd32c2x1_timer.c:1203:9
	b	.LBB41_9
.LBB41_4:
	.loc	4 1206 15                       @ ../std/GD32C2x1_Firmware_Library/GD32C2x1_standard_peripheral/Source/gd32c2x1_timer.c:1206:15
	ldr	r0, [sp, #16]
	ldr	r0, [r0, #24]
	.loc	4 1206 13 is_stmt 0             @ ../std/GD32C2x1_Firmware_Library/GD32C2x1_standard_peripheral/Source/gd32c2x1_timer.c:1206:13
	str	r0, [sp, #4]
	.loc	4 1207 13 is_stmt 1             @ ../std/GD32C2x1_Firmware_Library/GD32C2x1_standard_peripheral/Source/gd32c2x1_timer.c:1207:13
	ldr	r0, [sp, #4]
	movw	r1, #32768
	bics	r0, r1
	str	r0, [sp, #4]
	add	r0, sp, #8
	.loc	4 1208 18                       @ ../std/GD32C2x1_Firmware_Library/GD32C2x1_standard_peripheral/Source/gd32c2x1_timer.c:1208:18
	ldrh	r0, [r0]
	movs	r1, #128
	.loc	4 1208 36 is_stmt 0             @ ../std/GD32C2x1_Firmware_Library/GD32C2x1_standard_peripheral/Source/gd32c2x1_timer.c:1208:36
	ands	r0, r1
	.loc	4 1208 61                       @ ../std/GD32C2x1_Firmware_Library/GD32C2x1_standard_peripheral/Source/gd32c2x1_timer.c:1208:61
	lsls	r1, r0, #8
	.loc	4 1208 13                       @ ../std/GD32C2x1_Firmware_Library/GD32C2x1_standard_peripheral/Source/gd32c2x1_timer.c:1208:13
	ldr	r0, [sp, #4]
	orrs	r0, r1
	str	r0, [sp, #4]
	.loc	4 1209 38 is_stmt 1             @ ../std/GD32C2x1_Firmware_Library/GD32C2x1_standard_peripheral/Source/gd32c2x1_timer.c:1209:38
	ldr	r0, [sp, #4]
	.loc	4 1209 9 is_stmt 0              @ ../std/GD32C2x1_Firmware_Library/GD32C2x1_standard_peripheral/Source/gd32c2x1_timer.c:1209:9
	ldr	r1, [sp, #16]
	.loc	4 1209 36                       @ ../std/GD32C2x1_Firmware_Library/GD32C2x1_standard_peripheral/Source/gd32c2x1_timer.c:1209:36
	str	r0, [r1, #24]
	.loc	4 1210 9 is_stmt 1              @ ../std/GD32C2x1_Firmware_Library/GD32C2x1_standard_peripheral/Source/gd32c2x1_timer.c:1210:9
	b	.LBB41_9
.LBB41_5:
	.loc	4 1213 15                       @ ../std/GD32C2x1_Firmware_Library/GD32C2x1_standard_peripheral/Source/gd32c2x1_timer.c:1213:15
	ldr	r0, [sp, #16]
	ldr	r0, [r0, #28]
	.loc	4 1213 13 is_stmt 0             @ ../std/GD32C2x1_Firmware_Library/GD32C2x1_standard_peripheral/Source/gd32c2x1_timer.c:1213:13
	str	r0, [sp, #4]
	.loc	4 1214 13 is_stmt 1             @ ../std/GD32C2x1_Firmware_Library/GD32C2x1_standard_peripheral/Source/gd32c2x1_timer.c:1214:13
	ldr	r1, [sp, #4]
	movs	r0, #128
	bics	r1, r0
	str	r1, [sp, #4]
	add	r1, sp, #8
	.loc	4 1215 17                       @ ../std/GD32C2x1_Firmware_Library/GD32C2x1_standard_peripheral/Source/gd32c2x1_timer.c:1215:17
	ldrh	r1, [r1]
	.loc	4 1215 35 is_stmt 0             @ ../std/GD32C2x1_Firmware_Library/GD32C2x1_standard_peripheral/Source/gd32c2x1_timer.c:1215:35
	ands	r1, r0
	.loc	4 1215 13                       @ ../std/GD32C2x1_Firmware_Library/GD32C2x1_standard_peripheral/Source/gd32c2x1_timer.c:1215:13
	ldr	r0, [sp, #4]
	orrs	r0, r1
	str	r0, [sp, #4]
	.loc	4 1216 38 is_stmt 1             @ ../std/GD32C2x1_Firmware_Library/GD32C2x1_standard_peripheral/Source/gd32c2x1_timer.c:1216:38
	ldr	r0, [sp, #4]
	.loc	4 1216 9 is_stmt 0              @ ../std/GD32C2x1_Firmware_Library/GD32C2x1_standard_peripheral/Source/gd32c2x1_timer.c:1216:9
	ldr	r1, [sp, #16]
	.loc	4 1216 36                       @ ../std/GD32C2x1_Firmware_Library/GD32C2x1_standard_peripheral/Source/gd32c2x1_timer.c:1216:36
	str	r0, [r1, #28]
	.loc	4 1217 9 is_stmt 1              @ ../std/GD32C2x1_Firmware_Library/GD32C2x1_standard_peripheral/Source/gd32c2x1_timer.c:1217:9
	b	.LBB41_9
.LBB41_6:
	.loc	4 1220 15                       @ ../std/GD32C2x1_Firmware_Library/GD32C2x1_standard_peripheral/Source/gd32c2x1_timer.c:1220:15
	ldr	r0, [sp, #16]
	ldr	r0, [r0, #28]
	.loc	4 1220 13 is_stmt 0             @ ../std/GD32C2x1_Firmware_Library/GD32C2x1_standard_peripheral/Source/gd32c2x1_timer.c:1220:13
	str	r0, [sp, #4]
	.loc	4 1221 13 is_stmt 1             @ ../std/GD32C2x1_Firmware_Library/GD32C2x1_standard_peripheral/Source/gd32c2x1_timer.c:1221:13
	ldr	r0, [sp, #4]
	movw	r1, #32768
	bics	r0, r1
	str	r0, [sp, #4]
	add	r0, sp, #8
	.loc	4 1222 18                       @ ../std/GD32C2x1_Firmware_Library/GD32C2x1_standard_peripheral/Source/gd32c2x1_timer.c:1222:18
	ldrh	r0, [r0]
	movs	r1, #128
	.loc	4 1222 36 is_stmt 0             @ ../std/GD32C2x1_Firmware_Library/GD32C2x1_standard_peripheral/Source/gd32c2x1_timer.c:1222:36
	ands	r0, r1
	.loc	4 1222 61                       @ ../std/GD32C2x1_Firmware_Library/GD32C2x1_standard_peripheral/Source/gd32c2x1_timer.c:1222:61
	lsls	r1, r0, #8
	.loc	4 1222 13                       @ ../std/GD32C2x1_Firmware_Library/GD32C2x1_standard_peripheral/Source/gd32c2x1_timer.c:1222:13
	ldr	r0, [sp, #4]
	orrs	r0, r1
	str	r0, [sp, #4]
	.loc	4 1223 38 is_stmt 1             @ ../std/GD32C2x1_Firmware_Library/GD32C2x1_standard_peripheral/Source/gd32c2x1_timer.c:1223:38
	ldr	r0, [sp, #4]
	.loc	4 1223 9 is_stmt 0              @ ../std/GD32C2x1_Firmware_Library/GD32C2x1_standard_peripheral/Source/gd32c2x1_timer.c:1223:9
	ldr	r1, [sp, #16]
	.loc	4 1223 36                       @ ../std/GD32C2x1_Firmware_Library/GD32C2x1_standard_peripheral/Source/gd32c2x1_timer.c:1223:36
	str	r0, [r1, #28]
	.loc	4 1224 9 is_stmt 1              @ ../std/GD32C2x1_Firmware_Library/GD32C2x1_standard_peripheral/Source/gd32c2x1_timer.c:1224:9
	b	.LBB41_9
.LBB41_7:
	.loc	4 1227 15                       @ ../std/GD32C2x1_Firmware_Library/GD32C2x1_standard_peripheral/Source/gd32c2x1_timer.c:1227:15
	ldr	r0, [sp, #16]
	ldr	r0, [r0, #84]
	.loc	4 1227 13 is_stmt 0             @ ../std/GD32C2x1_Firmware_Library/GD32C2x1_standard_peripheral/Source/gd32c2x1_timer.c:1227:13
	str	r0, [sp, #4]
	.loc	4 1228 13 is_stmt 1             @ ../std/GD32C2x1_Firmware_Library/GD32C2x1_standard_peripheral/Source/gd32c2x1_timer.c:1228:13
	ldr	r1, [sp, #4]
	movs	r0, #128
	bics	r1, r0
	str	r1, [sp, #4]
	add	r1, sp, #8
	.loc	4 1229 17                       @ ../std/GD32C2x1_Firmware_Library/GD32C2x1_standard_peripheral/Source/gd32c2x1_timer.c:1229:17
	ldrh	r1, [r1]
	.loc	4 1229 35 is_stmt 0             @ ../std/GD32C2x1_Firmware_Library/GD32C2x1_standard_peripheral/Source/gd32c2x1_timer.c:1229:35
	ands	r1, r0
	.loc	4 1229 13                       @ ../std/GD32C2x1_Firmware_Library/GD32C2x1_standard_peripheral/Source/gd32c2x1_timer.c:1229:13
	ldr	r0, [sp, #4]
	orrs	r0, r1
	str	r0, [sp, #4]
	.loc	4 1230 38 is_stmt 1             @ ../std/GD32C2x1_Firmware_Library/GD32C2x1_standard_peripheral/Source/gd32c2x1_timer.c:1230:38
	ldr	r0, [sp, #4]
	.loc	4 1230 9 is_stmt 0              @ ../std/GD32C2x1_Firmware_Library/GD32C2x1_standard_peripheral/Source/gd32c2x1_timer.c:1230:9
	ldr	r1, [sp, #16]
	.loc	4 1230 36                       @ ../std/GD32C2x1_Firmware_Library/GD32C2x1_standard_peripheral/Source/gd32c2x1_timer.c:1230:36
	str	r0, [r1, #84]
	.loc	4 1231 9 is_stmt 1              @ ../std/GD32C2x1_Firmware_Library/GD32C2x1_standard_peripheral/Source/gd32c2x1_timer.c:1231:9
	b	.LBB41_9
.LBB41_8:
	.loc	4 1233 9                        @ ../std/GD32C2x1_Firmware_Library/GD32C2x1_standard_peripheral/Source/gd32c2x1_timer.c:1233:9
	b	.LBB41_9
.Ltmp184:
.LBB41_9:
	.loc	4 1235 1                        @ ../std/GD32C2x1_Firmware_Library/GD32C2x1_standard_peripheral/Source/gd32c2x1_timer.c:1235:1
	add	sp, #20
	bx	lr
.Ltmp185:
.Lfunc_end41:
	.size	timer_channel_output_clear_config, .Lfunc_end41-timer_channel_output_clear_config
	.cfi_endproc
	.cantunwind
	.fnend
                                        @ -- End function
	.section	.text.timer_channel_output_polarity_config,"ax",%progbits
	.hidden	timer_channel_output_polarity_config @ -- Begin function timer_channel_output_polarity_config
	.globl	timer_channel_output_polarity_config
	.p2align	2
	.type	timer_channel_output_polarity_config,%function
	.code	16                              @ @timer_channel_output_polarity_config
	.thumb_func
timer_channel_output_polarity_config:
.Lfunc_begin42:
	.loc	4 1255 0                        @ ../std/GD32C2x1_Firmware_Library/GD32C2x1_standard_peripheral/Source/gd32c2x1_timer.c:1255:0
	.fnstart
	.cfi_startproc
@ %bb.0:
	.pad	#20
	sub	sp, #20
	.cfi_def_cfa_offset 20
                                        @ kill: def $r3 killed $r2
                                        @ kill: def $r3 killed $r1
	str	r0, [sp, #16]
	add	r0, sp, #12
	strh	r1, [r0]
	add	r1, sp, #8
	strh	r2, [r1]
.Ltmp186:
	.loc	4 1257 12 prologue_end          @ ../std/GD32C2x1_Firmware_Library/GD32C2x1_standard_peripheral/Source/gd32c2x1_timer.c:1257:12
	ldrh	r0, [r0]
	.loc	4 1257 5 is_stmt 0              @ ../std/GD32C2x1_Firmware_Library/GD32C2x1_standard_peripheral/Source/gd32c2x1_timer.c:1257:5
	str	r0, [sp]                        @ 4-byte Spill
	cmp	r0, #4
	bhi	.LBB42_8
@ %bb.1:
	.loc	4 0 5                           @ ../std/GD32C2x1_Firmware_Library/GD32C2x1_standard_peripheral/Source/gd32c2x1_timer.c:0:5
	ldr	r1, [sp]                        @ 4-byte Reload
	lsls	r2, r1, #2
	adr	r0, .LJTI42_0
	adds	r0, r0, r2
	mov	pc, r0
@ %bb.2:
	.p2align	2
.LJTI42_0:
	b.w	.LBB42_3
	b.w	.LBB42_4
	b.w	.LBB42_5
	b.w	.LBB42_6
	b.w	.LBB42_7
.LBB42_3:
.Ltmp187:
	.loc	4 1260 15 is_stmt 1             @ ../std/GD32C2x1_Firmware_Library/GD32C2x1_standard_peripheral/Source/gd32c2x1_timer.c:1260:15
	ldr	r0, [sp, #16]
	ldr	r0, [r0, #32]
	.loc	4 1260 13 is_stmt 0             @ ../std/GD32C2x1_Firmware_Library/GD32C2x1_standard_peripheral/Source/gd32c2x1_timer.c:1260:13
	str	r0, [sp, #4]
	.loc	4 1261 13 is_stmt 1             @ ../std/GD32C2x1_Firmware_Library/GD32C2x1_standard_peripheral/Source/gd32c2x1_timer.c:1261:13
	ldr	r1, [sp, #4]
	movs	r0, #2
	bics	r1, r0
	str	r1, [sp, #4]
	add	r1, sp, #8
	.loc	4 1262 17                       @ ../std/GD32C2x1_Firmware_Library/GD32C2x1_standard_peripheral/Source/gd32c2x1_timer.c:1262:17
	ldrh	r1, [r1]
	.loc	4 1262 38 is_stmt 0             @ ../std/GD32C2x1_Firmware_Library/GD32C2x1_standard_peripheral/Source/gd32c2x1_timer.c:1262:38
	ands	r1, r0
	.loc	4 1262 13                       @ ../std/GD32C2x1_Firmware_Library/GD32C2x1_standard_peripheral/Source/gd32c2x1_timer.c:1262:13
	ldr	r0, [sp, #4]
	orrs	r0, r1
	str	r0, [sp, #4]
	.loc	4 1263 38 is_stmt 1             @ ../std/GD32C2x1_Firmware_Library/GD32C2x1_standard_peripheral/Source/gd32c2x1_timer.c:1263:38
	ldr	r0, [sp, #4]
	.loc	4 1263 9 is_stmt 0              @ ../std/GD32C2x1_Firmware_Library/GD32C2x1_standard_peripheral/Source/gd32c2x1_timer.c:1263:9
	ldr	r1, [sp, #16]
	.loc	4 1263 36                       @ ../std/GD32C2x1_Firmware_Library/GD32C2x1_standard_peripheral/Source/gd32c2x1_timer.c:1263:36
	str	r0, [r1, #32]
	.loc	4 1264 9 is_stmt 1              @ ../std/GD32C2x1_Firmware_Library/GD32C2x1_standard_peripheral/Source/gd32c2x1_timer.c:1264:9
	b	.LBB42_9
.LBB42_4:
	.loc	4 1267 15                       @ ../std/GD32C2x1_Firmware_Library/GD32C2x1_standard_peripheral/Source/gd32c2x1_timer.c:1267:15
	ldr	r0, [sp, #16]
	ldr	r0, [r0, #32]
	.loc	4 1267 13 is_stmt 0             @ ../std/GD32C2x1_Firmware_Library/GD32C2x1_standard_peripheral/Source/gd32c2x1_timer.c:1267:13
	str	r0, [sp, #4]
	.loc	4 1268 13 is_stmt 1             @ ../std/GD32C2x1_Firmware_Library/GD32C2x1_standard_peripheral/Source/gd32c2x1_timer.c:1268:13
	ldr	r0, [sp, #4]
	movs	r1, #32
	bics	r0, r1
	str	r0, [sp, #4]
	add	r0, sp, #8
	.loc	4 1269 18                       @ ../std/GD32C2x1_Firmware_Library/GD32C2x1_standard_peripheral/Source/gd32c2x1_timer.c:1269:18
	ldrh	r0, [r0]
	movs	r1, #2
	.loc	4 1269 39 is_stmt 0             @ ../std/GD32C2x1_Firmware_Library/GD32C2x1_standard_peripheral/Source/gd32c2x1_timer.c:1269:39
	ands	r0, r1
	.loc	4 1269 60                       @ ../std/GD32C2x1_Firmware_Library/GD32C2x1_standard_peripheral/Source/gd32c2x1_timer.c:1269:60
	lsls	r1, r0, #4
	.loc	4 1269 13                       @ ../std/GD32C2x1_Firmware_Library/GD32C2x1_standard_peripheral/Source/gd32c2x1_timer.c:1269:13
	ldr	r0, [sp, #4]
	orrs	r0, r1
	str	r0, [sp, #4]
	.loc	4 1270 38 is_stmt 1             @ ../std/GD32C2x1_Firmware_Library/GD32C2x1_standard_peripheral/Source/gd32c2x1_timer.c:1270:38
	ldr	r0, [sp, #4]
	.loc	4 1270 9 is_stmt 0              @ ../std/GD32C2x1_Firmware_Library/GD32C2x1_standard_peripheral/Source/gd32c2x1_timer.c:1270:9
	ldr	r1, [sp, #16]
	.loc	4 1270 36                       @ ../std/GD32C2x1_Firmware_Library/GD32C2x1_standard_peripheral/Source/gd32c2x1_timer.c:1270:36
	str	r0, [r1, #32]
	.loc	4 1271 9 is_stmt 1              @ ../std/GD32C2x1_Firmware_Library/GD32C2x1_standard_peripheral/Source/gd32c2x1_timer.c:1271:9
	b	.LBB42_9
.LBB42_5:
	.loc	4 1274 15                       @ ../std/GD32C2x1_Firmware_Library/GD32C2x1_standard_peripheral/Source/gd32c2x1_timer.c:1274:15
	ldr	r0, [sp, #16]
	ldr	r0, [r0, #32]
	.loc	4 1274 13 is_stmt 0             @ ../std/GD32C2x1_Firmware_Library/GD32C2x1_standard_peripheral/Source/gd32c2x1_timer.c:1274:13
	str	r0, [sp, #4]
	.loc	4 1275 13 is_stmt 1             @ ../std/GD32C2x1_Firmware_Library/GD32C2x1_standard_peripheral/Source/gd32c2x1_timer.c:1275:13
	ldr	r0, [sp, #4]
	movw	r1, #512
	bics	r0, r1
	str	r0, [sp, #4]
	add	r0, sp, #8
	.loc	4 1276 18                       @ ../std/GD32C2x1_Firmware_Library/GD32C2x1_standard_peripheral/Source/gd32c2x1_timer.c:1276:18
	ldrh	r0, [r0]
	movs	r1, #2
	.loc	4 1276 39 is_stmt 0             @ ../std/GD32C2x1_Firmware_Library/GD32C2x1_standard_peripheral/Source/gd32c2x1_timer.c:1276:39
	ands	r0, r1
	.loc	4 1276 60                       @ ../std/GD32C2x1_Firmware_Library/GD32C2x1_standard_peripheral/Source/gd32c2x1_timer.c:1276:60
	lsls	r1, r0, #8
	.loc	4 1276 13                       @ ../std/GD32C2x1_Firmware_Library/GD32C2x1_standard_peripheral/Source/gd32c2x1_timer.c:1276:13
	ldr	r0, [sp, #4]
	orrs	r0, r1
	str	r0, [sp, #4]
	.loc	4 1277 38 is_stmt 1             @ ../std/GD32C2x1_Firmware_Library/GD32C2x1_standard_peripheral/Source/gd32c2x1_timer.c:1277:38
	ldr	r0, [sp, #4]
	.loc	4 1277 9 is_stmt 0              @ ../std/GD32C2x1_Firmware_Library/GD32C2x1_standard_peripheral/Source/gd32c2x1_timer.c:1277:9
	ldr	r1, [sp, #16]
	.loc	4 1277 36                       @ ../std/GD32C2x1_Firmware_Library/GD32C2x1_standard_peripheral/Source/gd32c2x1_timer.c:1277:36
	str	r0, [r1, #32]
	.loc	4 1278 9 is_stmt 1              @ ../std/GD32C2x1_Firmware_Library/GD32C2x1_standard_peripheral/Source/gd32c2x1_timer.c:1278:9
	b	.LBB42_9
.LBB42_6:
	.loc	4 1281 15                       @ ../std/GD32C2x1_Firmware_Library/GD32C2x1_standard_peripheral/Source/gd32c2x1_timer.c:1281:15
	ldr	r0, [sp, #16]
	ldr	r0, [r0, #32]
	.loc	4 1281 13 is_stmt 0             @ ../std/GD32C2x1_Firmware_Library/GD32C2x1_standard_peripheral/Source/gd32c2x1_timer.c:1281:13
	str	r0, [sp, #4]
	.loc	4 1282 13 is_stmt 1             @ ../std/GD32C2x1_Firmware_Library/GD32C2x1_standard_peripheral/Source/gd32c2x1_timer.c:1282:13
	ldr	r0, [sp, #4]
	movw	r1, #8192
	bics	r0, r1
	str	r0, [sp, #4]
	add	r0, sp, #8
	.loc	4 1283 18                       @ ../std/GD32C2x1_Firmware_Library/GD32C2x1_standard_peripheral/Source/gd32c2x1_timer.c:1283:18
	ldrh	r0, [r0]
	movs	r1, #2
	.loc	4 1283 39 is_stmt 0             @ ../std/GD32C2x1_Firmware_Library/GD32C2x1_standard_peripheral/Source/gd32c2x1_timer.c:1283:39
	ands	r0, r1
	.loc	4 1283 60                       @ ../std/GD32C2x1_Firmware_Library/GD32C2x1_standard_peripheral/Source/gd32c2x1_timer.c:1283:60
	lsls	r1, r0, #12
	.loc	4 1283 13                       @ ../std/GD32C2x1_Firmware_Library/GD32C2x1_standard_peripheral/Source/gd32c2x1_timer.c:1283:13
	ldr	r0, [sp, #4]
	orrs	r0, r1
	str	r0, [sp, #4]
	.loc	4 1284 38 is_stmt 1             @ ../std/GD32C2x1_Firmware_Library/GD32C2x1_standard_peripheral/Source/gd32c2x1_timer.c:1284:38
	ldr	r0, [sp, #4]
	.loc	4 1284 9 is_stmt 0              @ ../std/GD32C2x1_Firmware_Library/GD32C2x1_standard_peripheral/Source/gd32c2x1_timer.c:1284:9
	ldr	r1, [sp, #16]
	.loc	4 1284 36                       @ ../std/GD32C2x1_Firmware_Library/GD32C2x1_standard_peripheral/Source/gd32c2x1_timer.c:1284:36
	str	r0, [r1, #32]
	.loc	4 1285 9 is_stmt 1              @ ../std/GD32C2x1_Firmware_Library/GD32C2x1_standard_peripheral/Source/gd32c2x1_timer.c:1285:9
	b	.LBB42_9
.LBB42_7:
	.loc	4 1288 15                       @ ../std/GD32C2x1_Firmware_Library/GD32C2x1_standard_peripheral/Source/gd32c2x1_timer.c:1288:15
	ldr	r0, [sp, #16]
	ldr	r0, [r0, #32]
	.loc	4 1288 13 is_stmt 0             @ ../std/GD32C2x1_Firmware_Library/GD32C2x1_standard_peripheral/Source/gd32c2x1_timer.c:1288:13
	str	r0, [sp, #4]
	.loc	4 1289 13 is_stmt 1             @ ../std/GD32C2x1_Firmware_Library/GD32C2x1_standard_peripheral/Source/gd32c2x1_timer.c:1289:13
	ldr	r0, [sp, #4]
	movs	r1, #1
	lsls	r1, r1, #17
	bics	r0, r1
	str	r0, [sp, #4]
	add	r0, sp, #8
	.loc	4 1290 18                       @ ../std/GD32C2x1_Firmware_Library/GD32C2x1_standard_peripheral/Source/gd32c2x1_timer.c:1290:18
	ldrh	r0, [r0]
	movs	r1, #2
	.loc	4 1290 39 is_stmt 0             @ ../std/GD32C2x1_Firmware_Library/GD32C2x1_standard_peripheral/Source/gd32c2x1_timer.c:1290:39
	ands	r0, r1
	.loc	4 1290 60                       @ ../std/GD32C2x1_Firmware_Library/GD32C2x1_standard_peripheral/Source/gd32c2x1_timer.c:1290:60
	lsls	r1, r0, #16
	.loc	4 1290 13                       @ ../std/GD32C2x1_Firmware_Library/GD32C2x1_standard_peripheral/Source/gd32c2x1_timer.c:1290:13
	ldr	r0, [sp, #4]
	orrs	r0, r1
	str	r0, [sp, #4]
	.loc	4 1291 38 is_stmt 1             @ ../std/GD32C2x1_Firmware_Library/GD32C2x1_standard_peripheral/Source/gd32c2x1_timer.c:1291:38
	ldr	r0, [sp, #4]
	.loc	4 1291 9 is_stmt 0              @ ../std/GD32C2x1_Firmware_Library/GD32C2x1_standard_peripheral/Source/gd32c2x1_timer.c:1291:9
	ldr	r1, [sp, #16]
	.loc	4 1291 36                       @ ../std/GD32C2x1_Firmware_Library/GD32C2x1_standard_peripheral/Source/gd32c2x1_timer.c:1291:36
	str	r0, [r1, #32]
	.loc	4 1292 9 is_stmt 1              @ ../std/GD32C2x1_Firmware_Library/GD32C2x1_standard_peripheral/Source/gd32c2x1_timer.c:1292:9
	b	.LBB42_9
.LBB42_8:
	.loc	4 1294 9                        @ ../std/GD32C2x1_Firmware_Library/GD32C2x1_standard_peripheral/Source/gd32c2x1_timer.c:1294:9
	b	.LBB42_9
.Ltmp188:
.LBB42_9:
	.loc	4 1296 1                        @ ../std/GD32C2x1_Firmware_Library/GD32C2x1_standard_peripheral/Source/gd32c2x1_timer.c:1296:1
	add	sp, #20
	bx	lr
.Ltmp189:
.Lfunc_end42:
	.size	timer_channel_output_polarity_config, .Lfunc_end42-timer_channel_output_polarity_config
	.cfi_endproc
	.cantunwind
	.fnend
                                        @ -- End function
	.section	.text.timer_channel_complementary_output_polarity_config,"ax",%progbits
	.hidden	timer_channel_complementary_output_polarity_config @ -- Begin function timer_channel_complementary_output_polarity_config
	.globl	timer_channel_complementary_output_polarity_config
	.p2align	1
	.type	timer_channel_complementary_output_polarity_config,%function
	.code	16                              @ @timer_channel_complementary_output_polarity_config
	.thumb_func
timer_channel_complementary_output_polarity_config:
.Lfunc_begin43:
	.loc	4 1314 0                        @ ../std/GD32C2x1_Firmware_Library/GD32C2x1_standard_peripheral/Source/gd32c2x1_timer.c:1314:0
	.fnstart
	.cfi_startproc
@ %bb.0:
	.pad	#16
	sub	sp, #16
	.cfi_def_cfa_offset 16
                                        @ kill: def $r3 killed $r2
                                        @ kill: def $r3 killed $r1
	str	r0, [sp, #12]
	add	r0, sp, #8
	strh	r1, [r0]
	add	r1, sp, #4
	strh	r2, [r1]
.Ltmp190:
	.loc	4 1315 12 prologue_end          @ ../std/GD32C2x1_Firmware_Library/GD32C2x1_standard_peripheral/Source/gd32c2x1_timer.c:1315:12
	ldrh	r0, [r0]
	.loc	4 1315 5 is_stmt 0              @ ../std/GD32C2x1_Firmware_Library/GD32C2x1_standard_peripheral/Source/gd32c2x1_timer.c:1315:5
	str	r0, [sp]                        @ 4-byte Spill
	cbz	r0, .LBB43_3
	b	.LBB43_1
.LBB43_1:
	ldr	r0, [sp]                        @ 4-byte Reload
	cmp	r0, #1
	beq	.LBB43_4
	b	.LBB43_2
.LBB43_2:
	ldr	r0, [sp]                        @ 4-byte Reload
	cmp	r0, #2
	beq	.LBB43_5
	b	.LBB43_6
.LBB43_3:
.Ltmp191:
	.loc	4 1318 9 is_stmt 1              @ ../std/GD32C2x1_Firmware_Library/GD32C2x1_standard_peripheral/Source/gd32c2x1_timer.c:1318:9
	ldr	r2, [sp, #12]
	.loc	4 1318 36 is_stmt 0             @ ../std/GD32C2x1_Firmware_Library/GD32C2x1_standard_peripheral/Source/gd32c2x1_timer.c:1318:36
	ldr	r1, [r2, #32]
	movs	r0, #8
	bics	r1, r0
	str	r1, [r2, #32]
	add	r1, sp, #4
	.loc	4 1319 50 is_stmt 1             @ ../std/GD32C2x1_Firmware_Library/GD32C2x1_standard_peripheral/Source/gd32c2x1_timer.c:1319:50
	ldrh	r2, [r1]
	.loc	4 1319 62 is_stmt 0             @ ../std/GD32C2x1_Firmware_Library/GD32C2x1_standard_peripheral/Source/gd32c2x1_timer.c:1319:62
	ands	r2, r0
	.loc	4 1319 9                        @ ../std/GD32C2x1_Firmware_Library/GD32C2x1_standard_peripheral/Source/gd32c2x1_timer.c:1319:9
	ldr	r1, [sp, #12]
	.loc	4 1319 36                       @ ../std/GD32C2x1_Firmware_Library/GD32C2x1_standard_peripheral/Source/gd32c2x1_timer.c:1319:36
	ldr	r0, [r1, #32]
	orrs	r0, r2
	str	r0, [r1, #32]
	.loc	4 1320 9 is_stmt 1              @ ../std/GD32C2x1_Firmware_Library/GD32C2x1_standard_peripheral/Source/gd32c2x1_timer.c:1320:9
	b	.LBB43_7
.LBB43_4:
	.loc	4 1323 9                        @ ../std/GD32C2x1_Firmware_Library/GD32C2x1_standard_peripheral/Source/gd32c2x1_timer.c:1323:9
	ldr	r1, [sp, #12]
	.loc	4 1323 36 is_stmt 0             @ ../std/GD32C2x1_Firmware_Library/GD32C2x1_standard_peripheral/Source/gd32c2x1_timer.c:1323:36
	ldr	r0, [r1, #32]
	movs	r2, #128
	bics	r0, r2
	str	r0, [r1, #32]
	add	r0, sp, #4
	.loc	4 1324 61 is_stmt 1             @ ../std/GD32C2x1_Firmware_Library/GD32C2x1_standard_peripheral/Source/gd32c2x1_timer.c:1324:61
	ldrh	r0, [r0]
	movs	r1, #8
	.loc	4 1324 73 is_stmt 0             @ ../std/GD32C2x1_Firmware_Library/GD32C2x1_standard_peripheral/Source/gd32c2x1_timer.c:1324:73
	ands	r0, r1
	.loc	4 1324 95                       @ ../std/GD32C2x1_Firmware_Library/GD32C2x1_standard_peripheral/Source/gd32c2x1_timer.c:1324:95
	lsls	r2, r0, #4
	.loc	4 1324 9                        @ ../std/GD32C2x1_Firmware_Library/GD32C2x1_standard_peripheral/Source/gd32c2x1_timer.c:1324:9
	ldr	r1, [sp, #12]
	.loc	4 1324 36                       @ ../std/GD32C2x1_Firmware_Library/GD32C2x1_standard_peripheral/Source/gd32c2x1_timer.c:1324:36
	ldr	r0, [r1, #32]
	orrs	r0, r2
	str	r0, [r1, #32]
	.loc	4 1325 9 is_stmt 1              @ ../std/GD32C2x1_Firmware_Library/GD32C2x1_standard_peripheral/Source/gd32c2x1_timer.c:1325:9
	b	.LBB43_7
.LBB43_5:
	.loc	4 1328 9                        @ ../std/GD32C2x1_Firmware_Library/GD32C2x1_standard_peripheral/Source/gd32c2x1_timer.c:1328:9
	ldr	r1, [sp, #12]
	.loc	4 1328 36 is_stmt 0             @ ../std/GD32C2x1_Firmware_Library/GD32C2x1_standard_peripheral/Source/gd32c2x1_timer.c:1328:36
	ldr	r0, [r1, #32]
	movw	r2, #2048
	bics	r0, r2
	str	r0, [r1, #32]
	add	r0, sp, #4
	.loc	4 1329 61 is_stmt 1             @ ../std/GD32C2x1_Firmware_Library/GD32C2x1_standard_peripheral/Source/gd32c2x1_timer.c:1329:61
	ldrh	r0, [r0]
	movs	r1, #8
	.loc	4 1329 73 is_stmt 0             @ ../std/GD32C2x1_Firmware_Library/GD32C2x1_standard_peripheral/Source/gd32c2x1_timer.c:1329:73
	ands	r0, r1
	.loc	4 1329 95                       @ ../std/GD32C2x1_Firmware_Library/GD32C2x1_standard_peripheral/Source/gd32c2x1_timer.c:1329:95
	lsls	r2, r0, #8
	.loc	4 1329 9                        @ ../std/GD32C2x1_Firmware_Library/GD32C2x1_standard_peripheral/Source/gd32c2x1_timer.c:1329:9
	ldr	r1, [sp, #12]
	.loc	4 1329 36                       @ ../std/GD32C2x1_Firmware_Library/GD32C2x1_standard_peripheral/Source/gd32c2x1_timer.c:1329:36
	ldr	r0, [r1, #32]
	orrs	r0, r2
	str	r0, [r1, #32]
	.loc	4 1330 9 is_stmt 1              @ ../std/GD32C2x1_Firmware_Library/GD32C2x1_standard_peripheral/Source/gd32c2x1_timer.c:1330:9
	b	.LBB43_7
.LBB43_6:
	.loc	4 1332 9                        @ ../std/GD32C2x1_Firmware_Library/GD32C2x1_standard_peripheral/Source/gd32c2x1_timer.c:1332:9
	b	.LBB43_7
.Ltmp192:
.LBB43_7:
	.loc	4 1334 1                        @ ../std/GD32C2x1_Firmware_Library/GD32C2x1_standard_peripheral/Source/gd32c2x1_timer.c:1334:1
	add	sp, #16
	bx	lr
.Ltmp193:
.Lfunc_end43:
	.size	timer_channel_complementary_output_polarity_config, .Lfunc_end43-timer_channel_complementary_output_polarity_config
	.cfi_endproc
	.cantunwind
	.fnend
                                        @ -- End function
	.section	.text.timer_channel_output_state_config,"ax",%progbits
	.hidden	timer_channel_output_state_config @ -- Begin function timer_channel_output_state_config
	.globl	timer_channel_output_state_config
	.p2align	2
	.type	timer_channel_output_state_config,%function
	.code	16                              @ @timer_channel_output_state_config
	.thumb_func
timer_channel_output_state_config:
.Lfunc_begin44:
	.loc	4 1354 0                        @ ../std/GD32C2x1_Firmware_Library/GD32C2x1_standard_peripheral/Source/gd32c2x1_timer.c:1354:0
	.fnstart
	.cfi_startproc
@ %bb.0:
	.pad	#20
	sub	sp, #20
	.cfi_def_cfa_offset 20
                                        @ kill: def $r3 killed $r1
	str	r0, [sp, #16]
	add	r0, sp, #12
	strh	r1, [r0]
	str	r2, [sp, #8]
.Ltmp194:
	.loc	4 1356 12 prologue_end          @ ../std/GD32C2x1_Firmware_Library/GD32C2x1_standard_peripheral/Source/gd32c2x1_timer.c:1356:12
	ldrh	r0, [r0]
	.loc	4 1356 5 is_stmt 0              @ ../std/GD32C2x1_Firmware_Library/GD32C2x1_standard_peripheral/Source/gd32c2x1_timer.c:1356:5
	str	r0, [sp]                        @ 4-byte Spill
	cmp	r0, #4
	bhi	.LBB44_8
@ %bb.1:
	.loc	4 0 5                           @ ../std/GD32C2x1_Firmware_Library/GD32C2x1_standard_peripheral/Source/gd32c2x1_timer.c:0:5
	ldr	r1, [sp]                        @ 4-byte Reload
	lsls	r2, r1, #2
	adr	r0, .LJTI44_0
	adds	r0, r0, r2
	mov	pc, r0
@ %bb.2:
	.p2align	2
.LJTI44_0:
	b.w	.LBB44_3
	b.w	.LBB44_4
	b.w	.LBB44_5
	b.w	.LBB44_6
	b.w	.LBB44_7
.LBB44_3:
.Ltmp195:
	.loc	4 1359 15 is_stmt 1             @ ../std/GD32C2x1_Firmware_Library/GD32C2x1_standard_peripheral/Source/gd32c2x1_timer.c:1359:15
	ldr	r0, [sp, #16]
	ldr	r0, [r0, #32]
	.loc	4 1359 13 is_stmt 0             @ ../std/GD32C2x1_Firmware_Library/GD32C2x1_standard_peripheral/Source/gd32c2x1_timer.c:1359:13
	str	r0, [sp, #4]
	.loc	4 1360 13 is_stmt 1             @ ../std/GD32C2x1_Firmware_Library/GD32C2x1_standard_peripheral/Source/gd32c2x1_timer.c:1360:13
	ldr	r1, [sp, #4]
	movs	r0, #1
	bics	r1, r0
	str	r1, [sp, #4]
	.loc	4 1361 27                       @ ../std/GD32C2x1_Firmware_Library/GD32C2x1_standard_peripheral/Source/gd32c2x1_timer.c:1361:27
	ldr	r1, [sp, #8]
	.loc	4 1361 33 is_stmt 0             @ ../std/GD32C2x1_Firmware_Library/GD32C2x1_standard_peripheral/Source/gd32c2x1_timer.c:1361:33
	ands	r1, r0
	.loc	4 1361 13                       @ ../std/GD32C2x1_Firmware_Library/GD32C2x1_standard_peripheral/Source/gd32c2x1_timer.c:1361:13
	ldr	r0, [sp, #4]
	orrs	r0, r1
	str	r0, [sp, #4]
	.loc	4 1362 38 is_stmt 1             @ ../std/GD32C2x1_Firmware_Library/GD32C2x1_standard_peripheral/Source/gd32c2x1_timer.c:1362:38
	ldr	r0, [sp, #4]
	.loc	4 1362 9 is_stmt 0              @ ../std/GD32C2x1_Firmware_Library/GD32C2x1_standard_peripheral/Source/gd32c2x1_timer.c:1362:9
	ldr	r1, [sp, #16]
	.loc	4 1362 36                       @ ../std/GD32C2x1_Firmware_Library/GD32C2x1_standard_peripheral/Source/gd32c2x1_timer.c:1362:36
	str	r0, [r1, #32]
	.loc	4 1363 9 is_stmt 1              @ ../std/GD32C2x1_Firmware_Library/GD32C2x1_standard_peripheral/Source/gd32c2x1_timer.c:1363:9
	b	.LBB44_9
.LBB44_4:
	.loc	4 1366 15                       @ ../std/GD32C2x1_Firmware_Library/GD32C2x1_standard_peripheral/Source/gd32c2x1_timer.c:1366:15
	ldr	r0, [sp, #16]
	ldr	r0, [r0, #32]
	.loc	4 1366 13 is_stmt 0             @ ../std/GD32C2x1_Firmware_Library/GD32C2x1_standard_peripheral/Source/gd32c2x1_timer.c:1366:13
	str	r0, [sp, #4]
	.loc	4 1367 13 is_stmt 1             @ ../std/GD32C2x1_Firmware_Library/GD32C2x1_standard_peripheral/Source/gd32c2x1_timer.c:1367:13
	ldr	r0, [sp, #4]
	movs	r1, #16
	bics	r0, r1
	str	r0, [sp, #4]
	.loc	4 1368 38                       @ ../std/GD32C2x1_Firmware_Library/GD32C2x1_standard_peripheral/Source/gd32c2x1_timer.c:1368:38
	ldr	r0, [sp, #8]
	.loc	4 1368 66 is_stmt 0             @ ../std/GD32C2x1_Firmware_Library/GD32C2x1_standard_peripheral/Source/gd32c2x1_timer.c:1368:66
	lsls	r0, r0, #31
	lsrs	r1, r0, #27
	.loc	4 1368 13                       @ ../std/GD32C2x1_Firmware_Library/GD32C2x1_standard_peripheral/Source/gd32c2x1_timer.c:1368:13
	ldr	r0, [sp, #4]
	orrs	r0, r1
	str	r0, [sp, #4]
	.loc	4 1369 38 is_stmt 1             @ ../std/GD32C2x1_Firmware_Library/GD32C2x1_standard_peripheral/Source/gd32c2x1_timer.c:1369:38
	ldr	r0, [sp, #4]
	.loc	4 1369 9 is_stmt 0              @ ../std/GD32C2x1_Firmware_Library/GD32C2x1_standard_peripheral/Source/gd32c2x1_timer.c:1369:9
	ldr	r1, [sp, #16]
	.loc	4 1369 36                       @ ../std/GD32C2x1_Firmware_Library/GD32C2x1_standard_peripheral/Source/gd32c2x1_timer.c:1369:36
	str	r0, [r1, #32]
	.loc	4 1370 9 is_stmt 1              @ ../std/GD32C2x1_Firmware_Library/GD32C2x1_standard_peripheral/Source/gd32c2x1_timer.c:1370:9
	b	.LBB44_9
.LBB44_5:
	.loc	4 1373 15                       @ ../std/GD32C2x1_Firmware_Library/GD32C2x1_standard_peripheral/Source/gd32c2x1_timer.c:1373:15
	ldr	r0, [sp, #16]
	ldr	r0, [r0, #32]
	.loc	4 1373 13 is_stmt 0             @ ../std/GD32C2x1_Firmware_Library/GD32C2x1_standard_peripheral/Source/gd32c2x1_timer.c:1373:13
	str	r0, [sp, #4]
	.loc	4 1374 13 is_stmt 1             @ ../std/GD32C2x1_Firmware_Library/GD32C2x1_standard_peripheral/Source/gd32c2x1_timer.c:1374:13
	ldr	r0, [sp, #4]
	movw	r1, #256
	bics	r0, r1
	str	r0, [sp, #4]
	.loc	4 1375 38                       @ ../std/GD32C2x1_Firmware_Library/GD32C2x1_standard_peripheral/Source/gd32c2x1_timer.c:1375:38
	ldr	r0, [sp, #8]
	.loc	4 1375 66 is_stmt 0             @ ../std/GD32C2x1_Firmware_Library/GD32C2x1_standard_peripheral/Source/gd32c2x1_timer.c:1375:66
	lsls	r0, r0, #31
	lsrs	r1, r0, #23
	.loc	4 1375 13                       @ ../std/GD32C2x1_Firmware_Library/GD32C2x1_standard_peripheral/Source/gd32c2x1_timer.c:1375:13
	ldr	r0, [sp, #4]
	orrs	r0, r1
	str	r0, [sp, #4]
	.loc	4 1376 38 is_stmt 1             @ ../std/GD32C2x1_Firmware_Library/GD32C2x1_standard_peripheral/Source/gd32c2x1_timer.c:1376:38
	ldr	r0, [sp, #4]
	.loc	4 1376 9 is_stmt 0              @ ../std/GD32C2x1_Firmware_Library/GD32C2x1_standard_peripheral/Source/gd32c2x1_timer.c:1376:9
	ldr	r1, [sp, #16]
	.loc	4 1376 36                       @ ../std/GD32C2x1_Firmware_Library/GD32C2x1_standard_peripheral/Source/gd32c2x1_timer.c:1376:36
	str	r0, [r1, #32]
	.loc	4 1377 9 is_stmt 1              @ ../std/GD32C2x1_Firmware_Library/GD32C2x1_standard_peripheral/Source/gd32c2x1_timer.c:1377:9
	b	.LBB44_9
.LBB44_6:
	.loc	4 1380 15                       @ ../std/GD32C2x1_Firmware_Library/GD32C2x1_standard_peripheral/Source/gd32c2x1_timer.c:1380:15
	ldr	r0, [sp, #16]
	ldr	r0, [r0, #32]
	.loc	4 1380 13 is_stmt 0             @ ../std/GD32C2x1_Firmware_Library/GD32C2x1_standard_peripheral/Source/gd32c2x1_timer.c:1380:13
	str	r0, [sp, #4]
	.loc	4 1381 13 is_stmt 1             @ ../std/GD32C2x1_Firmware_Library/GD32C2x1_standard_peripheral/Source/gd32c2x1_timer.c:1381:13
	ldr	r0, [sp, #4]
	movw	r1, #4096
	bics	r0, r1
	str	r0, [sp, #4]
	.loc	4 1382 38                       @ ../std/GD32C2x1_Firmware_Library/GD32C2x1_standard_peripheral/Source/gd32c2x1_timer.c:1382:38
	ldr	r0, [sp, #8]
	.loc	4 1382 66 is_stmt 0             @ ../std/GD32C2x1_Firmware_Library/GD32C2x1_standard_peripheral/Source/gd32c2x1_timer.c:1382:66
	lsls	r0, r0, #31
	lsrs	r1, r0, #19
	.loc	4 1382 13                       @ ../std/GD32C2x1_Firmware_Library/GD32C2x1_standard_peripheral/Source/gd32c2x1_timer.c:1382:13
	ldr	r0, [sp, #4]
	orrs	r0, r1
	str	r0, [sp, #4]
	.loc	4 1383 38 is_stmt 1             @ ../std/GD32C2x1_Firmware_Library/GD32C2x1_standard_peripheral/Source/gd32c2x1_timer.c:1383:38
	ldr	r0, [sp, #4]
	.loc	4 1383 9 is_stmt 0              @ ../std/GD32C2x1_Firmware_Library/GD32C2x1_standard_peripheral/Source/gd32c2x1_timer.c:1383:9
	ldr	r1, [sp, #16]
	.loc	4 1383 36                       @ ../std/GD32C2x1_Firmware_Library/GD32C2x1_standard_peripheral/Source/gd32c2x1_timer.c:1383:36
	str	r0, [r1, #32]
	.loc	4 1384 9 is_stmt 1              @ ../std/GD32C2x1_Firmware_Library/GD32C2x1_standard_peripheral/Source/gd32c2x1_timer.c:1384:9
	b	.LBB44_9
.LBB44_7:
	.loc	4 1387 15                       @ ../std/GD32C2x1_Firmware_Library/GD32C2x1_standard_peripheral/Source/gd32c2x1_timer.c:1387:15
	ldr	r0, [sp, #16]
	ldr	r0, [r0, #32]
	.loc	4 1387 13 is_stmt 0             @ ../std/GD32C2x1_Firmware_Library/GD32C2x1_standard_peripheral/Source/gd32c2x1_timer.c:1387:13
	str	r0, [sp, #4]
	.loc	4 1388 13 is_stmt 1             @ ../std/GD32C2x1_Firmware_Library/GD32C2x1_standard_peripheral/Source/gd32c2x1_timer.c:1388:13
	ldr	r0, [sp, #4]
	movs	r1, #1
	lsls	r1, r1, #16
	bics	r0, r1
	str	r0, [sp, #4]
	.loc	4 1389 38                       @ ../std/GD32C2x1_Firmware_Library/GD32C2x1_standard_peripheral/Source/gd32c2x1_timer.c:1389:38
	ldr	r0, [sp, #8]
	.loc	4 1389 66 is_stmt 0             @ ../std/GD32C2x1_Firmware_Library/GD32C2x1_standard_peripheral/Source/gd32c2x1_timer.c:1389:66
	lsls	r0, r0, #31
	lsrs	r1, r0, #15
	.loc	4 1389 13                       @ ../std/GD32C2x1_Firmware_Library/GD32C2x1_standard_peripheral/Source/gd32c2x1_timer.c:1389:13
	ldr	r0, [sp, #4]
	orrs	r0, r1
	str	r0, [sp, #4]
	.loc	4 1390 38 is_stmt 1             @ ../std/GD32C2x1_Firmware_Library/GD32C2x1_standard_peripheral/Source/gd32c2x1_timer.c:1390:38
	ldr	r0, [sp, #4]
	.loc	4 1390 9 is_stmt 0              @ ../std/GD32C2x1_Firmware_Library/GD32C2x1_standard_peripheral/Source/gd32c2x1_timer.c:1390:9
	ldr	r1, [sp, #16]
	.loc	4 1390 36                       @ ../std/GD32C2x1_Firmware_Library/GD32C2x1_standard_peripheral/Source/gd32c2x1_timer.c:1390:36
	str	r0, [r1, #32]
	.loc	4 1391 9 is_stmt 1              @ ../std/GD32C2x1_Firmware_Library/GD32C2x1_standard_peripheral/Source/gd32c2x1_timer.c:1391:9
	b	.LBB44_9
.LBB44_8:
	.loc	4 1393 9                        @ ../std/GD32C2x1_Firmware_Library/GD32C2x1_standard_peripheral/Source/gd32c2x1_timer.c:1393:9
	b	.LBB44_9
.Ltmp196:
.LBB44_9:
	.loc	4 1395 1                        @ ../std/GD32C2x1_Firmware_Library/GD32C2x1_standard_peripheral/Source/gd32c2x1_timer.c:1395:1
	add	sp, #20
	bx	lr
.Ltmp197:
.Lfunc_end44:
	.size	timer_channel_output_state_config, .Lfunc_end44-timer_channel_output_state_config
	.cfi_endproc
	.cantunwind
	.fnend
                                        @ -- End function
	.section	.text.timer_channel_complementary_output_state_config,"ax",%progbits
	.hidden	timer_channel_complementary_output_state_config @ -- Begin function timer_channel_complementary_output_state_config
	.globl	timer_channel_complementary_output_state_config
	.p2align	1
	.type	timer_channel_complementary_output_state_config,%function
	.code	16                              @ @timer_channel_complementary_output_state_config
	.thumb_func
timer_channel_complementary_output_state_config:
.Lfunc_begin45:
	.loc	4 1414 0                        @ ../std/GD32C2x1_Firmware_Library/GD32C2x1_standard_peripheral/Source/gd32c2x1_timer.c:1414:0
	.fnstart
	.cfi_startproc
@ %bb.0:
	.pad	#16
	sub	sp, #16
	.cfi_def_cfa_offset 16
                                        @ kill: def $r3 killed $r2
                                        @ kill: def $r3 killed $r1
	str	r0, [sp, #12]
	add	r0, sp, #8
	strh	r1, [r0]
	add	r1, sp, #4
	strh	r2, [r1]
.Ltmp198:
	.loc	4 1415 12 prologue_end          @ ../std/GD32C2x1_Firmware_Library/GD32C2x1_standard_peripheral/Source/gd32c2x1_timer.c:1415:12
	ldrh	r0, [r0]
	.loc	4 1415 5 is_stmt 0              @ ../std/GD32C2x1_Firmware_Library/GD32C2x1_standard_peripheral/Source/gd32c2x1_timer.c:1415:5
	str	r0, [sp]                        @ 4-byte Spill
	cbz	r0, .LBB45_3
	b	.LBB45_1
.LBB45_1:
	ldr	r0, [sp]                        @ 4-byte Reload
	cmp	r0, #1
	beq	.LBB45_4
	b	.LBB45_2
.LBB45_2:
	ldr	r0, [sp]                        @ 4-byte Reload
	cmp	r0, #2
	beq	.LBB45_5
	b	.LBB45_6
.LBB45_3:
.Ltmp199:
	.loc	4 1418 9 is_stmt 1              @ ../std/GD32C2x1_Firmware_Library/GD32C2x1_standard_peripheral/Source/gd32c2x1_timer.c:1418:9
	ldr	r2, [sp, #12]
	.loc	4 1418 36 is_stmt 0             @ ../std/GD32C2x1_Firmware_Library/GD32C2x1_standard_peripheral/Source/gd32c2x1_timer.c:1418:36
	ldr	r1, [r2, #32]
	movs	r0, #4
	bics	r1, r0
	str	r1, [r2, #32]
	add	r1, sp, #4
	.loc	4 1419 40 is_stmt 1             @ ../std/GD32C2x1_Firmware_Library/GD32C2x1_standard_peripheral/Source/gd32c2x1_timer.c:1419:40
	ldrh	r2, [r1]
	.loc	4 1419 59 is_stmt 0             @ ../std/GD32C2x1_Firmware_Library/GD32C2x1_standard_peripheral/Source/gd32c2x1_timer.c:1419:59
	ands	r2, r0
	.loc	4 1419 9                        @ ../std/GD32C2x1_Firmware_Library/GD32C2x1_standard_peripheral/Source/gd32c2x1_timer.c:1419:9
	ldr	r1, [sp, #12]
	.loc	4 1419 36                       @ ../std/GD32C2x1_Firmware_Library/GD32C2x1_standard_peripheral/Source/gd32c2x1_timer.c:1419:36
	ldr	r0, [r1, #32]
	orrs	r0, r2
	str	r0, [r1, #32]
	.loc	4 1420 9 is_stmt 1              @ ../std/GD32C2x1_Firmware_Library/GD32C2x1_standard_peripheral/Source/gd32c2x1_timer.c:1420:9
	b	.LBB45_7
.LBB45_4:
	.loc	4 1423 9                        @ ../std/GD32C2x1_Firmware_Library/GD32C2x1_standard_peripheral/Source/gd32c2x1_timer.c:1423:9
	ldr	r1, [sp, #12]
	.loc	4 1423 36 is_stmt 0             @ ../std/GD32C2x1_Firmware_Library/GD32C2x1_standard_peripheral/Source/gd32c2x1_timer.c:1423:36
	ldr	r0, [r1, #32]
	movs	r2, #64
	bics	r0, r2
	str	r0, [r1, #32]
	add	r0, sp, #4
	.loc	4 1424 41 is_stmt 1             @ ../std/GD32C2x1_Firmware_Library/GD32C2x1_standard_peripheral/Source/gd32c2x1_timer.c:1424:41
	ldrh	r0, [r0]
	movs	r1, #4
	.loc	4 1424 60 is_stmt 0             @ ../std/GD32C2x1_Firmware_Library/GD32C2x1_standard_peripheral/Source/gd32c2x1_timer.c:1424:60
	ands	r0, r1
	.loc	4 1424 81                       @ ../std/GD32C2x1_Firmware_Library/GD32C2x1_standard_peripheral/Source/gd32c2x1_timer.c:1424:81
	lsls	r2, r0, #4
	.loc	4 1424 9                        @ ../std/GD32C2x1_Firmware_Library/GD32C2x1_standard_peripheral/Source/gd32c2x1_timer.c:1424:9
	ldr	r1, [sp, #12]
	.loc	4 1424 36                       @ ../std/GD32C2x1_Firmware_Library/GD32C2x1_standard_peripheral/Source/gd32c2x1_timer.c:1424:36
	ldr	r0, [r1, #32]
	orrs	r0, r2
	str	r0, [r1, #32]
	.loc	4 1425 9 is_stmt 1              @ ../std/GD32C2x1_Firmware_Library/GD32C2x1_standard_peripheral/Source/gd32c2x1_timer.c:1425:9
	b	.LBB45_7
.LBB45_5:
	.loc	4 1428 9                        @ ../std/GD32C2x1_Firmware_Library/GD32C2x1_standard_peripheral/Source/gd32c2x1_timer.c:1428:9
	ldr	r1, [sp, #12]
	.loc	4 1428 36 is_stmt 0             @ ../std/GD32C2x1_Firmware_Library/GD32C2x1_standard_peripheral/Source/gd32c2x1_timer.c:1428:36
	ldr	r0, [r1, #32]
	movw	r2, #1024
	bics	r0, r2
	str	r0, [r1, #32]
	add	r0, sp, #4
	.loc	4 1429 51 is_stmt 1             @ ../std/GD32C2x1_Firmware_Library/GD32C2x1_standard_peripheral/Source/gd32c2x1_timer.c:1429:51
	ldrh	r0, [r0]
	movs	r1, #4
	.loc	4 1429 70 is_stmt 0             @ ../std/GD32C2x1_Firmware_Library/GD32C2x1_standard_peripheral/Source/gd32c2x1_timer.c:1429:70
	ands	r0, r1
	.loc	4 1429 91                       @ ../std/GD32C2x1_Firmware_Library/GD32C2x1_standard_peripheral/Source/gd32c2x1_timer.c:1429:91
	lsls	r2, r0, #8
	.loc	4 1429 9                        @ ../std/GD32C2x1_Firmware_Library/GD32C2x1_standard_peripheral/Source/gd32c2x1_timer.c:1429:9
	ldr	r1, [sp, #12]
	.loc	4 1429 36                       @ ../std/GD32C2x1_Firmware_Library/GD32C2x1_standard_peripheral/Source/gd32c2x1_timer.c:1429:36
	ldr	r0, [r1, #32]
	orrs	r0, r2
	str	r0, [r1, #32]
	.loc	4 1430 9 is_stmt 1              @ ../std/GD32C2x1_Firmware_Library/GD32C2x1_standard_peripheral/Source/gd32c2x1_timer.c:1430:9
	b	.LBB45_7
.LBB45_6:
	.loc	4 1432 9                        @ ../std/GD32C2x1_Firmware_Library/GD32C2x1_standard_peripheral/Source/gd32c2x1_timer.c:1432:9
	b	.LBB45_7
.Ltmp200:
.LBB45_7:
	.loc	4 1434 1                        @ ../std/GD32C2x1_Firmware_Library/GD32C2x1_standard_peripheral/Source/gd32c2x1_timer.c:1434:1
	add	sp, #16
	bx	lr
.Ltmp201:
.Lfunc_end45:
	.size	timer_channel_complementary_output_state_config, .Lfunc_end45-timer_channel_complementary_output_state_config
	.cfi_endproc
	.cantunwind
	.fnend
                                        @ -- End function
	.section	.text.timer_channel_input_struct_para_init,"ax",%progbits
	.hidden	timer_channel_input_struct_para_init @ -- Begin function timer_channel_input_struct_para_init
	.globl	timer_channel_input_struct_para_init
	.p2align	1
	.type	timer_channel_input_struct_para_init,%function
	.code	16                              @ @timer_channel_input_struct_para_init
	.thumb_func
timer_channel_input_struct_para_init:
.Lfunc_begin46:
	.loc	4 1443 0                        @ ../std/GD32C2x1_Firmware_Library/GD32C2x1_standard_peripheral/Source/gd32c2x1_timer.c:1443:0
	.fnstart
	.cfi_startproc
@ %bb.0:
	.pad	#4
	sub	sp, #4
	.cfi_def_cfa_offset 4
	str	r0, [sp]
.Ltmp202:
	.loc	4 1451 9 prologue_end           @ ../std/GD32C2x1_Firmware_Library/GD32C2x1_standard_peripheral/Source/gd32c2x1_timer.c:1451:9
	ldr	r1, [sp]
	movs	r0, #0
	.loc	4 1451 29 is_stmt 0             @ ../std/GD32C2x1_Firmware_Library/GD32C2x1_standard_peripheral/Source/gd32c2x1_timer.c:1451:29
	strh	r0, [r1]
	.loc	4 1452 9 is_stmt 1              @ ../std/GD32C2x1_Firmware_Library/GD32C2x1_standard_peripheral/Source/gd32c2x1_timer.c:1452:9
	ldr	r2, [sp]
	movs	r1, #1
	.loc	4 1452 29 is_stmt 0             @ ../std/GD32C2x1_Firmware_Library/GD32C2x1_standard_peripheral/Source/gd32c2x1_timer.c:1452:29
	strh	r1, [r2, #2]
	.loc	4 1453 9 is_stmt 1              @ ../std/GD32C2x1_Firmware_Library/GD32C2x1_standard_peripheral/Source/gd32c2x1_timer.c:1453:9
	ldr	r1, [sp]
	.loc	4 1453 29 is_stmt 0             @ ../std/GD32C2x1_Firmware_Library/GD32C2x1_standard_peripheral/Source/gd32c2x1_timer.c:1453:29
	strh	r0, [r1, #4]
	.loc	4 1454 9 is_stmt 1              @ ../std/GD32C2x1_Firmware_Library/GD32C2x1_standard_peripheral/Source/gd32c2x1_timer.c:1454:9
	ldr	r1, [sp]
	.loc	4 1454 29 is_stmt 0             @ ../std/GD32C2x1_Firmware_Library/GD32C2x1_standard_peripheral/Source/gd32c2x1_timer.c:1454:29
	strh	r0, [r1, #6]
.Ltmp203:
	.loc	4 1456 1 is_stmt 1              @ ../std/GD32C2x1_Firmware_Library/GD32C2x1_standard_peripheral/Source/gd32c2x1_timer.c:1456:1
	add	sp, #4
	bx	lr
.Ltmp204:
.Lfunc_end46:
	.size	timer_channel_input_struct_para_init, .Lfunc_end46-timer_channel_input_struct_para_init
	.cfi_endproc
	.cantunwind
	.fnend
                                        @ -- End function
	.section	.text.timer_input_capture_config,"ax",%progbits
	.hidden	timer_input_capture_config      @ -- Begin function timer_input_capture_config
	.globl	timer_input_capture_config
	.p2align	2
	.type	timer_input_capture_config,%function
	.code	16                              @ @timer_input_capture_config
	.thumb_func
timer_input_capture_config:
.Lfunc_begin47:
	.loc	4 1476 0                        @ ../std/GD32C2x1_Firmware_Library/GD32C2x1_standard_peripheral/Source/gd32c2x1_timer.c:1476:0
	.fnstart
	.cfi_startproc
@ %bb.0:
	.save	{r7, lr}
	push	{r7, lr}
	.cfi_def_cfa_offset 8
	.cfi_offset lr, -4
	.cfi_offset r7, -8
	.pad	#24
	sub	sp, #24
	.cfi_def_cfa_offset 32
                                        @ kill: def $r3 killed $r1
	str	r0, [sp, #20]
	add	r0, sp, #16
	strh	r1, [r0]
	str	r2, [sp, #12]
.Ltmp205:
	.loc	4 1484 16 prologue_end          @ ../std/GD32C2x1_Firmware_Library/GD32C2x1_standard_peripheral/Source/gd32c2x1_timer.c:1484:16
	ldrh	r0, [r0]
	.loc	4 1484 9 is_stmt 0              @ ../std/GD32C2x1_Firmware_Library/GD32C2x1_standard_peripheral/Source/gd32c2x1_timer.c:1484:9
	str	r0, [sp, #4]                    @ 4-byte Spill
	cmp	r0, #3
	bls	.LBB47_1
	b	.LBB47_7
.LBB47_1:
	.loc	4 0 9                           @ ../std/GD32C2x1_Firmware_Library/GD32C2x1_standard_peripheral/Source/gd32c2x1_timer.c:0:9
	ldr	r1, [sp, #4]                    @ 4-byte Reload
	lsls	r2, r1, #2
	adr	r0, .LJTI47_0
	adds	r0, r0, r2
	mov	pc, r0
@ %bb.2:
	.p2align	2
.LJTI47_0:
	b.w	.LBB47_3
	b.w	.LBB47_4
	b.w	.LBB47_5
	b.w	.LBB47_6
.LBB47_3:
.Ltmp206:
	.loc	4 1488 13 is_stmt 1             @ ../std/GD32C2x1_Firmware_Library/GD32C2x1_standard_peripheral/Source/gd32c2x1_timer.c:1488:13
	ldr	r1, [sp, #20]
	.loc	4 1488 40 is_stmt 0             @ ../std/GD32C2x1_Firmware_Library/GD32C2x1_standard_peripheral/Source/gd32c2x1_timer.c:1488:40
	ldr	r0, [r1, #32]
	movs	r2, #1
	bics	r0, r2
	str	r0, [r1, #32]
	.loc	4 1491 19 is_stmt 1             @ ../std/GD32C2x1_Firmware_Library/GD32C2x1_standard_peripheral/Source/gd32c2x1_timer.c:1491:19
	ldr	r0, [sp, #20]
	ldr	r0, [r0, #32]
	.loc	4 1491 17 is_stmt 0             @ ../std/GD32C2x1_Firmware_Library/GD32C2x1_standard_peripheral/Source/gd32c2x1_timer.c:1491:17
	str	r0, [sp, #8]
	.loc	4 1492 17 is_stmt 1             @ ../std/GD32C2x1_Firmware_Library/GD32C2x1_standard_peripheral/Source/gd32c2x1_timer.c:1492:17
	ldr	r1, [sp, #8]
	movs	r0, #10
	bics	r1, r0
	str	r1, [sp, #8]
	.loc	4 1493 32                       @ ../std/GD32C2x1_Firmware_Library/GD32C2x1_standard_peripheral/Source/gd32c2x1_timer.c:1493:32
	ldr	r1, [sp, #12]
	.loc	4 1493 22 is_stmt 0             @ ../std/GD32C2x1_Firmware_Library/GD32C2x1_standard_peripheral/Source/gd32c2x1_timer.c:1493:22
	ldrh	r1, [r1]
	.loc	4 1493 52                       @ ../std/GD32C2x1_Firmware_Library/GD32C2x1_standard_peripheral/Source/gd32c2x1_timer.c:1493:52
	ands	r1, r0
	.loc	4 1493 17                       @ ../std/GD32C2x1_Firmware_Library/GD32C2x1_standard_peripheral/Source/gd32c2x1_timer.c:1493:17
	ldr	r0, [sp, #8]
	orrs	r0, r1
	str	r0, [sp, #8]
	.loc	4 1494 42 is_stmt 1             @ ../std/GD32C2x1_Firmware_Library/GD32C2x1_standard_peripheral/Source/gd32c2x1_timer.c:1494:42
	ldr	r0, [sp, #8]
	.loc	4 1494 13 is_stmt 0             @ ../std/GD32C2x1_Firmware_Library/GD32C2x1_standard_peripheral/Source/gd32c2x1_timer.c:1494:13
	ldr	r1, [sp, #20]
	.loc	4 1494 40                       @ ../std/GD32C2x1_Firmware_Library/GD32C2x1_standard_peripheral/Source/gd32c2x1_timer.c:1494:40
	str	r0, [r1, #32]
	.loc	4 1496 19 is_stmt 1             @ ../std/GD32C2x1_Firmware_Library/GD32C2x1_standard_peripheral/Source/gd32c2x1_timer.c:1496:19
	ldr	r0, [sp, #20]
	ldr	r0, [r0, #24]
	.loc	4 1496 17 is_stmt 0             @ ../std/GD32C2x1_Firmware_Library/GD32C2x1_standard_peripheral/Source/gd32c2x1_timer.c:1496:17
	str	r0, [sp, #8]
	.loc	4 1497 17 is_stmt 1             @ ../std/GD32C2x1_Firmware_Library/GD32C2x1_standard_peripheral/Source/gd32c2x1_timer.c:1497:17
	ldr	r1, [sp, #8]
	movs	r0, #3
	bics	r1, r0
	str	r1, [sp, #8]
	.loc	4 1498 32                       @ ../std/GD32C2x1_Firmware_Library/GD32C2x1_standard_peripheral/Source/gd32c2x1_timer.c:1498:32
	ldr	r1, [sp, #12]
	.loc	4 1498 31 is_stmt 0             @ ../std/GD32C2x1_Firmware_Library/GD32C2x1_standard_peripheral/Source/gd32c2x1_timer.c:1498:31
	ldrh	r1, [r1, #2]
	.loc	4 1498 53                       @ ../std/GD32C2x1_Firmware_Library/GD32C2x1_standard_peripheral/Source/gd32c2x1_timer.c:1498:53
	ands	r1, r0
	.loc	4 1498 17                       @ ../std/GD32C2x1_Firmware_Library/GD32C2x1_standard_peripheral/Source/gd32c2x1_timer.c:1498:17
	ldr	r0, [sp, #8]
	orrs	r0, r1
	str	r0, [sp, #8]
	.loc	4 1499 42 is_stmt 1             @ ../std/GD32C2x1_Firmware_Library/GD32C2x1_standard_peripheral/Source/gd32c2x1_timer.c:1499:42
	ldr	r0, [sp, #8]
	.loc	4 1499 13 is_stmt 0             @ ../std/GD32C2x1_Firmware_Library/GD32C2x1_standard_peripheral/Source/gd32c2x1_timer.c:1499:13
	ldr	r1, [sp, #20]
	.loc	4 1499 40                       @ ../std/GD32C2x1_Firmware_Library/GD32C2x1_standard_peripheral/Source/gd32c2x1_timer.c:1499:40
	str	r0, [r1, #24]
	.loc	4 1501 19 is_stmt 1             @ ../std/GD32C2x1_Firmware_Library/GD32C2x1_standard_peripheral/Source/gd32c2x1_timer.c:1501:19
	ldr	r0, [sp, #20]
	ldr	r0, [r0, #24]
	.loc	4 1501 17 is_stmt 0             @ ../std/GD32C2x1_Firmware_Library/GD32C2x1_standard_peripheral/Source/gd32c2x1_timer.c:1501:17
	str	r0, [sp, #8]
	.loc	4 1502 17 is_stmt 1             @ ../std/GD32C2x1_Firmware_Library/GD32C2x1_standard_peripheral/Source/gd32c2x1_timer.c:1502:17
	ldr	r0, [sp, #8]
	movs	r1, #240
	bics	r0, r1
	str	r0, [sp, #8]
	.loc	4 1503 33                       @ ../std/GD32C2x1_Firmware_Library/GD32C2x1_standard_peripheral/Source/gd32c2x1_timer.c:1503:33
	ldr	r0, [sp, #12]
	.loc	4 1503 23 is_stmt 0             @ ../std/GD32C2x1_Firmware_Library/GD32C2x1_standard_peripheral/Source/gd32c2x1_timer.c:1503:23
	ldrh	r0, [r0, #6]
	.loc	4 1503 59                       @ ../std/GD32C2x1_Firmware_Library/GD32C2x1_standard_peripheral/Source/gd32c2x1_timer.c:1503:59
	lsls	r0, r0, #28
	lsrs	r1, r0, #24
	.loc	4 1503 17                       @ ../std/GD32C2x1_Firmware_Library/GD32C2x1_standard_peripheral/Source/gd32c2x1_timer.c:1503:17
	ldr	r0, [sp, #8]
	orrs	r0, r1
	str	r0, [sp, #8]
	.loc	4 1504 42 is_stmt 1             @ ../std/GD32C2x1_Firmware_Library/GD32C2x1_standard_peripheral/Source/gd32c2x1_timer.c:1504:42
	ldr	r0, [sp, #8]
	.loc	4 1504 13 is_stmt 0             @ ../std/GD32C2x1_Firmware_Library/GD32C2x1_standard_peripheral/Source/gd32c2x1_timer.c:1504:13
	ldr	r1, [sp, #20]
	.loc	4 1504 40                       @ ../std/GD32C2x1_Firmware_Library/GD32C2x1_standard_peripheral/Source/gd32c2x1_timer.c:1504:40
	str	r0, [r1, #24]
	.loc	4 1506 13 is_stmt 1             @ ../std/GD32C2x1_Firmware_Library/GD32C2x1_standard_peripheral/Source/gd32c2x1_timer.c:1506:13
	ldr	r1, [sp, #20]
	.loc	4 1506 40 is_stmt 0             @ ../std/GD32C2x1_Firmware_Library/GD32C2x1_standard_peripheral/Source/gd32c2x1_timer.c:1506:40
	ldr	r0, [r1, #32]
	orrs	r0, r2
	str	r0, [r1, #32]
	.loc	4 1507 13 is_stmt 1             @ ../std/GD32C2x1_Firmware_Library/GD32C2x1_standard_peripheral/Source/gd32c2x1_timer.c:1507:13
	b	.LBB47_8
.LBB47_4:
	.loc	4 1512 13                       @ ../std/GD32C2x1_Firmware_Library/GD32C2x1_standard_peripheral/Source/gd32c2x1_timer.c:1512:13
	ldr	r1, [sp, #20]
	.loc	4 1512 40 is_stmt 0             @ ../std/GD32C2x1_Firmware_Library/GD32C2x1_standard_peripheral/Source/gd32c2x1_timer.c:1512:40
	ldr	r0, [r1, #32]
	movs	r2, #16
	bics	r0, r2
	str	r0, [r1, #32]
	.loc	4 1515 19 is_stmt 1             @ ../std/GD32C2x1_Firmware_Library/GD32C2x1_standard_peripheral/Source/gd32c2x1_timer.c:1515:19
	ldr	r0, [sp, #20]
	ldr	r0, [r0, #32]
	.loc	4 1515 17 is_stmt 0             @ ../std/GD32C2x1_Firmware_Library/GD32C2x1_standard_peripheral/Source/gd32c2x1_timer.c:1515:17
	str	r0, [sp, #8]
	.loc	4 1516 17 is_stmt 1             @ ../std/GD32C2x1_Firmware_Library/GD32C2x1_standard_peripheral/Source/gd32c2x1_timer.c:1516:17
	ldr	r0, [sp, #8]
	movs	r1, #160
	bics	r0, r1
	str	r0, [sp, #8]
	.loc	4 1517 33                       @ ../std/GD32C2x1_Firmware_Library/GD32C2x1_standard_peripheral/Source/gd32c2x1_timer.c:1517:33
	ldr	r0, [sp, #12]
	.loc	4 1517 22 is_stmt 0             @ ../std/GD32C2x1_Firmware_Library/GD32C2x1_standard_peripheral/Source/gd32c2x1_timer.c:1517:22
	ldrh	r0, [r0]
	movs	r1, #10
	.loc	4 1517 53                       @ ../std/GD32C2x1_Firmware_Library/GD32C2x1_standard_peripheral/Source/gd32c2x1_timer.c:1517:53
	ands	r0, r1
	.loc	4 1517 84                       @ ../std/GD32C2x1_Firmware_Library/GD32C2x1_standard_peripheral/Source/gd32c2x1_timer.c:1517:84
	lsls	r1, r0, #4
	.loc	4 1517 17                       @ ../std/GD32C2x1_Firmware_Library/GD32C2x1_standard_peripheral/Source/gd32c2x1_timer.c:1517:17
	ldr	r0, [sp, #8]
	orrs	r0, r1
	str	r0, [sp, #8]
	.loc	4 1518 42 is_stmt 1             @ ../std/GD32C2x1_Firmware_Library/GD32C2x1_standard_peripheral/Source/gd32c2x1_timer.c:1518:42
	ldr	r0, [sp, #8]
	.loc	4 1518 13 is_stmt 0             @ ../std/GD32C2x1_Firmware_Library/GD32C2x1_standard_peripheral/Source/gd32c2x1_timer.c:1518:13
	ldr	r1, [sp, #20]
	.loc	4 1518 40                       @ ../std/GD32C2x1_Firmware_Library/GD32C2x1_standard_peripheral/Source/gd32c2x1_timer.c:1518:40
	str	r0, [r1, #32]
	.loc	4 1520 19 is_stmt 1             @ ../std/GD32C2x1_Firmware_Library/GD32C2x1_standard_peripheral/Source/gd32c2x1_timer.c:1520:19
	ldr	r0, [sp, #20]
	ldr	r0, [r0, #24]
	.loc	4 1520 17 is_stmt 0             @ ../std/GD32C2x1_Firmware_Library/GD32C2x1_standard_peripheral/Source/gd32c2x1_timer.c:1520:17
	str	r0, [sp, #8]
	.loc	4 1521 17 is_stmt 1             @ ../std/GD32C2x1_Firmware_Library/GD32C2x1_standard_peripheral/Source/gd32c2x1_timer.c:1521:17
	ldr	r0, [sp, #8]
	movw	r1, #768
	bics	r0, r1
	str	r0, [sp, #8]
	.loc	4 1522 43                       @ ../std/GD32C2x1_Firmware_Library/GD32C2x1_standard_peripheral/Source/gd32c2x1_timer.c:1522:43
	ldr	r0, [sp, #12]
	.loc	4 1522 42 is_stmt 0             @ ../std/GD32C2x1_Firmware_Library/GD32C2x1_standard_peripheral/Source/gd32c2x1_timer.c:1522:42
	ldrh	r0, [r0, #2]
	.loc	4 1522 86                       @ ../std/GD32C2x1_Firmware_Library/GD32C2x1_standard_peripheral/Source/gd32c2x1_timer.c:1522:86
	lsls	r0, r0, #30
	lsrs	r1, r0, #22
	.loc	4 1522 17                       @ ../std/GD32C2x1_Firmware_Library/GD32C2x1_standard_peripheral/Source/gd32c2x1_timer.c:1522:17
	ldr	r0, [sp, #8]
	orrs	r0, r1
	str	r0, [sp, #8]
	.loc	4 1523 42 is_stmt 1             @ ../std/GD32C2x1_Firmware_Library/GD32C2x1_standard_peripheral/Source/gd32c2x1_timer.c:1523:42
	ldr	r0, [sp, #8]
	.loc	4 1523 13 is_stmt 0             @ ../std/GD32C2x1_Firmware_Library/GD32C2x1_standard_peripheral/Source/gd32c2x1_timer.c:1523:13
	ldr	r1, [sp, #20]
	.loc	4 1523 40                       @ ../std/GD32C2x1_Firmware_Library/GD32C2x1_standard_peripheral/Source/gd32c2x1_timer.c:1523:40
	str	r0, [r1, #24]
	.loc	4 1525 19 is_stmt 1             @ ../std/GD32C2x1_Firmware_Library/GD32C2x1_standard_peripheral/Source/gd32c2x1_timer.c:1525:19
	ldr	r0, [sp, #20]
	ldr	r0, [r0, #24]
	.loc	4 1525 17 is_stmt 0             @ ../std/GD32C2x1_Firmware_Library/GD32C2x1_standard_peripheral/Source/gd32c2x1_timer.c:1525:17
	str	r0, [sp, #8]
	.loc	4 1526 17 is_stmt 1             @ ../std/GD32C2x1_Firmware_Library/GD32C2x1_standard_peripheral/Source/gd32c2x1_timer.c:1526:17
	ldr	r0, [sp, #8]
	movw	r1, #61440
	bics	r0, r1
	str	r0, [sp, #8]
	.loc	4 1527 33                       @ ../std/GD32C2x1_Firmware_Library/GD32C2x1_standard_peripheral/Source/gd32c2x1_timer.c:1527:33
	ldr	r0, [sp, #12]
	.loc	4 1527 23 is_stmt 0             @ ../std/GD32C2x1_Firmware_Library/GD32C2x1_standard_peripheral/Source/gd32c2x1_timer.c:1527:23
	ldrh	r0, [r0, #6]
	.loc	4 1527 59                       @ ../std/GD32C2x1_Firmware_Library/GD32C2x1_standard_peripheral/Source/gd32c2x1_timer.c:1527:59
	lsls	r0, r0, #28
	lsrs	r1, r0, #16
	.loc	4 1527 17                       @ ../std/GD32C2x1_Firmware_Library/GD32C2x1_standard_peripheral/Source/gd32c2x1_timer.c:1527:17
	ldr	r0, [sp, #8]
	orrs	r0, r1
	str	r0, [sp, #8]
	.loc	4 1528 42 is_stmt 1             @ ../std/GD32C2x1_Firmware_Library/GD32C2x1_standard_peripheral/Source/gd32c2x1_timer.c:1528:42
	ldr	r0, [sp, #8]
	.loc	4 1528 13 is_stmt 0             @ ../std/GD32C2x1_Firmware_Library/GD32C2x1_standard_peripheral/Source/gd32c2x1_timer.c:1528:13
	ldr	r1, [sp, #20]
	.loc	4 1528 40                       @ ../std/GD32C2x1_Firmware_Library/GD32C2x1_standard_peripheral/Source/gd32c2x1_timer.c:1528:40
	str	r0, [r1, #24]
	.loc	4 1530 13 is_stmt 1             @ ../std/GD32C2x1_Firmware_Library/GD32C2x1_standard_peripheral/Source/gd32c2x1_timer.c:1530:13
	ldr	r1, [sp, #20]
	.loc	4 1530 40 is_stmt 0             @ ../std/GD32C2x1_Firmware_Library/GD32C2x1_standard_peripheral/Source/gd32c2x1_timer.c:1530:40
	ldr	r0, [r1, #32]
	orrs	r0, r2
	str	r0, [r1, #32]
	.loc	4 1531 13 is_stmt 1             @ ../std/GD32C2x1_Firmware_Library/GD32C2x1_standard_peripheral/Source/gd32c2x1_timer.c:1531:13
	b	.LBB47_8
.LBB47_5:
	.loc	4 1535 13                       @ ../std/GD32C2x1_Firmware_Library/GD32C2x1_standard_peripheral/Source/gd32c2x1_timer.c:1535:13
	ldr	r1, [sp, #20]
	.loc	4 1535 40 is_stmt 0             @ ../std/GD32C2x1_Firmware_Library/GD32C2x1_standard_peripheral/Source/gd32c2x1_timer.c:1535:40
	ldr	r0, [r1, #32]
	movw	r2, #256
	bics	r0, r2
	str	r0, [r1, #32]
	.loc	4 1538 19 is_stmt 1             @ ../std/GD32C2x1_Firmware_Library/GD32C2x1_standard_peripheral/Source/gd32c2x1_timer.c:1538:19
	ldr	r0, [sp, #20]
	ldr	r0, [r0, #32]
	.loc	4 1538 17 is_stmt 0             @ ../std/GD32C2x1_Firmware_Library/GD32C2x1_standard_peripheral/Source/gd32c2x1_timer.c:1538:17
	str	r0, [sp, #8]
	.loc	4 1539 17 is_stmt 1             @ ../std/GD32C2x1_Firmware_Library/GD32C2x1_standard_peripheral/Source/gd32c2x1_timer.c:1539:17
	ldr	r0, [sp, #8]
	movw	r1, #2560
	bics	r0, r1
	str	r0, [sp, #8]
	.loc	4 1540 33                       @ ../std/GD32C2x1_Firmware_Library/GD32C2x1_standard_peripheral/Source/gd32c2x1_timer.c:1540:33
	ldr	r0, [sp, #12]
	.loc	4 1540 23 is_stmt 0             @ ../std/GD32C2x1_Firmware_Library/GD32C2x1_standard_peripheral/Source/gd32c2x1_timer.c:1540:23
	ldrh	r0, [r0]
	movs	r1, #10
	.loc	4 1540 53                       @ ../std/GD32C2x1_Firmware_Library/GD32C2x1_standard_peripheral/Source/gd32c2x1_timer.c:1540:53
	ands	r0, r1
	.loc	4 1540 84                       @ ../std/GD32C2x1_Firmware_Library/GD32C2x1_standard_peripheral/Source/gd32c2x1_timer.c:1540:84
	lsls	r1, r0, #8
	.loc	4 1540 17                       @ ../std/GD32C2x1_Firmware_Library/GD32C2x1_standard_peripheral/Source/gd32c2x1_timer.c:1540:17
	ldr	r0, [sp, #8]
	orrs	r0, r1
	str	r0, [sp, #8]
	.loc	4 1541 42 is_stmt 1             @ ../std/GD32C2x1_Firmware_Library/GD32C2x1_standard_peripheral/Source/gd32c2x1_timer.c:1541:42
	ldr	r0, [sp, #8]
	.loc	4 1541 13 is_stmt 0             @ ../std/GD32C2x1_Firmware_Library/GD32C2x1_standard_peripheral/Source/gd32c2x1_timer.c:1541:13
	ldr	r1, [sp, #20]
	.loc	4 1541 40                       @ ../std/GD32C2x1_Firmware_Library/GD32C2x1_standard_peripheral/Source/gd32c2x1_timer.c:1541:40
	str	r0, [r1, #32]
	.loc	4 1543 19 is_stmt 1             @ ../std/GD32C2x1_Firmware_Library/GD32C2x1_standard_peripheral/Source/gd32c2x1_timer.c:1543:19
	ldr	r0, [sp, #20]
	ldr	r0, [r0, #28]
	.loc	4 1543 17 is_stmt 0             @ ../std/GD32C2x1_Firmware_Library/GD32C2x1_standard_peripheral/Source/gd32c2x1_timer.c:1543:17
	str	r0, [sp, #8]
	.loc	4 1544 17 is_stmt 1             @ ../std/GD32C2x1_Firmware_Library/GD32C2x1_standard_peripheral/Source/gd32c2x1_timer.c:1544:17
	ldr	r1, [sp, #8]
	movs	r0, #3
	bics	r1, r0
	str	r1, [sp, #8]
	.loc	4 1545 43                       @ ../std/GD32C2x1_Firmware_Library/GD32C2x1_standard_peripheral/Source/gd32c2x1_timer.c:1545:43
	ldr	r1, [sp, #12]
	.loc	4 1545 42 is_stmt 0             @ ../std/GD32C2x1_Firmware_Library/GD32C2x1_standard_peripheral/Source/gd32c2x1_timer.c:1545:42
	ldrh	r1, [r1, #2]
	.loc	4 1545 64                       @ ../std/GD32C2x1_Firmware_Library/GD32C2x1_standard_peripheral/Source/gd32c2x1_timer.c:1545:64
	ands	r1, r0
	.loc	4 1545 17                       @ ../std/GD32C2x1_Firmware_Library/GD32C2x1_standard_peripheral/Source/gd32c2x1_timer.c:1545:17
	ldr	r0, [sp, #8]
	orrs	r0, r1
	str	r0, [sp, #8]
	.loc	4 1546 42 is_stmt 1             @ ../std/GD32C2x1_Firmware_Library/GD32C2x1_standard_peripheral/Source/gd32c2x1_timer.c:1546:42
	ldr	r0, [sp, #8]
	.loc	4 1546 13 is_stmt 0             @ ../std/GD32C2x1_Firmware_Library/GD32C2x1_standard_peripheral/Source/gd32c2x1_timer.c:1546:13
	ldr	r1, [sp, #20]
	.loc	4 1546 40                       @ ../std/GD32C2x1_Firmware_Library/GD32C2x1_standard_peripheral/Source/gd32c2x1_timer.c:1546:40
	str	r0, [r1, #28]
	.loc	4 1548 19 is_stmt 1             @ ../std/GD32C2x1_Firmware_Library/GD32C2x1_standard_peripheral/Source/gd32c2x1_timer.c:1548:19
	ldr	r0, [sp, #20]
	ldr	r0, [r0, #28]
	.loc	4 1548 17 is_stmt 0             @ ../std/GD32C2x1_Firmware_Library/GD32C2x1_standard_peripheral/Source/gd32c2x1_timer.c:1548:17
	str	r0, [sp, #8]
	.loc	4 1549 17 is_stmt 1             @ ../std/GD32C2x1_Firmware_Library/GD32C2x1_standard_peripheral/Source/gd32c2x1_timer.c:1549:17
	ldr	r0, [sp, #8]
	movs	r1, #240
	bics	r0, r1
	str	r0, [sp, #8]
	.loc	4 1550 33                       @ ../std/GD32C2x1_Firmware_Library/GD32C2x1_standard_peripheral/Source/gd32c2x1_timer.c:1550:33
	ldr	r0, [sp, #12]
	.loc	4 1550 23 is_stmt 0             @ ../std/GD32C2x1_Firmware_Library/GD32C2x1_standard_peripheral/Source/gd32c2x1_timer.c:1550:23
	ldrh	r0, [r0, #6]
	.loc	4 1550 59                       @ ../std/GD32C2x1_Firmware_Library/GD32C2x1_standard_peripheral/Source/gd32c2x1_timer.c:1550:59
	lsls	r0, r0, #28
	lsrs	r1, r0, #24
	.loc	4 1550 17                       @ ../std/GD32C2x1_Firmware_Library/GD32C2x1_standard_peripheral/Source/gd32c2x1_timer.c:1550:17
	ldr	r0, [sp, #8]
	orrs	r0, r1
	str	r0, [sp, #8]
	.loc	4 1551 42 is_stmt 1             @ ../std/GD32C2x1_Firmware_Library/GD32C2x1_standard_peripheral/Source/gd32c2x1_timer.c:1551:42
	ldr	r0, [sp, #8]
	.loc	4 1551 13 is_stmt 0             @ ../std/GD32C2x1_Firmware_Library/GD32C2x1_standard_peripheral/Source/gd32c2x1_timer.c:1551:13
	ldr	r1, [sp, #20]
	.loc	4 1551 40                       @ ../std/GD32C2x1_Firmware_Library/GD32C2x1_standard_peripheral/Source/gd32c2x1_timer.c:1551:40
	str	r0, [r1, #28]
	.loc	4 1553 13 is_stmt 1             @ ../std/GD32C2x1_Firmware_Library/GD32C2x1_standard_peripheral/Source/gd32c2x1_timer.c:1553:13
	ldr	r1, [sp, #20]
	.loc	4 1553 40 is_stmt 0             @ ../std/GD32C2x1_Firmware_Library/GD32C2x1_standard_peripheral/Source/gd32c2x1_timer.c:1553:40
	ldr	r0, [r1, #32]
	orrs	r0, r2
	str	r0, [r1, #32]
	.loc	4 1554 13 is_stmt 1             @ ../std/GD32C2x1_Firmware_Library/GD32C2x1_standard_peripheral/Source/gd32c2x1_timer.c:1554:13
	b	.LBB47_8
.LBB47_6:
	.loc	4 1558 13                       @ ../std/GD32C2x1_Firmware_Library/GD32C2x1_standard_peripheral/Source/gd32c2x1_timer.c:1558:13
	ldr	r1, [sp, #20]
	.loc	4 1558 40 is_stmt 0             @ ../std/GD32C2x1_Firmware_Library/GD32C2x1_standard_peripheral/Source/gd32c2x1_timer.c:1558:40
	ldr	r0, [r1, #32]
	movw	r2, #4096
	bics	r0, r2
	str	r0, [r1, #32]
	.loc	4 1561 19 is_stmt 1             @ ../std/GD32C2x1_Firmware_Library/GD32C2x1_standard_peripheral/Source/gd32c2x1_timer.c:1561:19
	ldr	r0, [sp, #20]
	ldr	r0, [r0, #32]
	.loc	4 1561 17 is_stmt 0             @ ../std/GD32C2x1_Firmware_Library/GD32C2x1_standard_peripheral/Source/gd32c2x1_timer.c:1561:17
	str	r0, [sp, #8]
	.loc	4 1562 17 is_stmt 1             @ ../std/GD32C2x1_Firmware_Library/GD32C2x1_standard_peripheral/Source/gd32c2x1_timer.c:1562:17
	ldr	r0, [sp, #8]
	movw	r1, #40960
	bics	r0, r1
	str	r0, [sp, #8]
	.loc	4 1563 33                       @ ../std/GD32C2x1_Firmware_Library/GD32C2x1_standard_peripheral/Source/gd32c2x1_timer.c:1563:33
	ldr	r0, [sp, #12]
	.loc	4 1563 23 is_stmt 0             @ ../std/GD32C2x1_Firmware_Library/GD32C2x1_standard_peripheral/Source/gd32c2x1_timer.c:1563:23
	ldrh	r0, [r0]
	movs	r1, #10
	.loc	4 1563 53                       @ ../std/GD32C2x1_Firmware_Library/GD32C2x1_standard_peripheral/Source/gd32c2x1_timer.c:1563:53
	ands	r0, r1
	.loc	4 1563 84                       @ ../std/GD32C2x1_Firmware_Library/GD32C2x1_standard_peripheral/Source/gd32c2x1_timer.c:1563:84
	lsls	r1, r0, #12
	.loc	4 1563 17                       @ ../std/GD32C2x1_Firmware_Library/GD32C2x1_standard_peripheral/Source/gd32c2x1_timer.c:1563:17
	ldr	r0, [sp, #8]
	orrs	r0, r1
	str	r0, [sp, #8]
	.loc	4 1564 42 is_stmt 1             @ ../std/GD32C2x1_Firmware_Library/GD32C2x1_standard_peripheral/Source/gd32c2x1_timer.c:1564:42
	ldr	r0, [sp, #8]
	.loc	4 1564 13 is_stmt 0             @ ../std/GD32C2x1_Firmware_Library/GD32C2x1_standard_peripheral/Source/gd32c2x1_timer.c:1564:13
	ldr	r1, [sp, #20]
	.loc	4 1564 40                       @ ../std/GD32C2x1_Firmware_Library/GD32C2x1_standard_peripheral/Source/gd32c2x1_timer.c:1564:40
	str	r0, [r1, #32]
	.loc	4 1566 19 is_stmt 1             @ ../std/GD32C2x1_Firmware_Library/GD32C2x1_standard_peripheral/Source/gd32c2x1_timer.c:1566:19
	ldr	r0, [sp, #20]
	ldr	r0, [r0, #28]
	.loc	4 1566 17 is_stmt 0             @ ../std/GD32C2x1_Firmware_Library/GD32C2x1_standard_peripheral/Source/gd32c2x1_timer.c:1566:17
	str	r0, [sp, #8]
	.loc	4 1567 17 is_stmt 1             @ ../std/GD32C2x1_Firmware_Library/GD32C2x1_standard_peripheral/Source/gd32c2x1_timer.c:1567:17
	ldr	r0, [sp, #8]
	movw	r1, #768
	bics	r0, r1
	str	r0, [sp, #8]
	.loc	4 1568 43                       @ ../std/GD32C2x1_Firmware_Library/GD32C2x1_standard_peripheral/Source/gd32c2x1_timer.c:1568:43
	ldr	r0, [sp, #12]
	.loc	4 1568 42 is_stmt 0             @ ../std/GD32C2x1_Firmware_Library/GD32C2x1_standard_peripheral/Source/gd32c2x1_timer.c:1568:42
	ldrh	r0, [r0, #2]
	.loc	4 1568 86                       @ ../std/GD32C2x1_Firmware_Library/GD32C2x1_standard_peripheral/Source/gd32c2x1_timer.c:1568:86
	lsls	r0, r0, #30
	lsrs	r1, r0, #22
	.loc	4 1568 17                       @ ../std/GD32C2x1_Firmware_Library/GD32C2x1_standard_peripheral/Source/gd32c2x1_timer.c:1568:17
	ldr	r0, [sp, #8]
	orrs	r0, r1
	str	r0, [sp, #8]
	.loc	4 1569 42 is_stmt 1             @ ../std/GD32C2x1_Firmware_Library/GD32C2x1_standard_peripheral/Source/gd32c2x1_timer.c:1569:42
	ldr	r0, [sp, #8]
	.loc	4 1569 13 is_stmt 0             @ ../std/GD32C2x1_Firmware_Library/GD32C2x1_standard_peripheral/Source/gd32c2x1_timer.c:1569:13
	ldr	r1, [sp, #20]
	.loc	4 1569 40                       @ ../std/GD32C2x1_Firmware_Library/GD32C2x1_standard_peripheral/Source/gd32c2x1_timer.c:1569:40
	str	r0, [r1, #28]
	.loc	4 1571 19 is_stmt 1             @ ../std/GD32C2x1_Firmware_Library/GD32C2x1_standard_peripheral/Source/gd32c2x1_timer.c:1571:19
	ldr	r0, [sp, #20]
	ldr	r0, [r0, #28]
	.loc	4 1571 17 is_stmt 0             @ ../std/GD32C2x1_Firmware_Library/GD32C2x1_standard_peripheral/Source/gd32c2x1_timer.c:1571:17
	str	r0, [sp, #8]
	.loc	4 1572 17 is_stmt 1             @ ../std/GD32C2x1_Firmware_Library/GD32C2x1_standard_peripheral/Source/gd32c2x1_timer.c:1572:17
	ldr	r0, [sp, #8]
	movw	r1, #61440
	bics	r0, r1
	str	r0, [sp, #8]
	.loc	4 1573 33                       @ ../std/GD32C2x1_Firmware_Library/GD32C2x1_standard_peripheral/Source/gd32c2x1_timer.c:1573:33
	ldr	r0, [sp, #12]
	.loc	4 1573 23 is_stmt 0             @ ../std/GD32C2x1_Firmware_Library/GD32C2x1_standard_peripheral/Source/gd32c2x1_timer.c:1573:23
	ldrh	r0, [r0, #6]
	.loc	4 1573 59                       @ ../std/GD32C2x1_Firmware_Library/GD32C2x1_standard_peripheral/Source/gd32c2x1_timer.c:1573:59
	lsls	r0, r0, #28
	lsrs	r1, r0, #16
	.loc	4 1573 17                       @ ../std/GD32C2x1_Firmware_Library/GD32C2x1_standard_peripheral/Source/gd32c2x1_timer.c:1573:17
	ldr	r0, [sp, #8]
	orrs	r0, r1
	str	r0, [sp, #8]
	.loc	4 1574 42 is_stmt 1             @ ../std/GD32C2x1_Firmware_Library/GD32C2x1_standard_peripheral/Source/gd32c2x1_timer.c:1574:42
	ldr	r0, [sp, #8]
	.loc	4 1574 13 is_stmt 0             @ ../std/GD32C2x1_Firmware_Library/GD32C2x1_standard_peripheral/Source/gd32c2x1_timer.c:1574:13
	ldr	r1, [sp, #20]
	.loc	4 1574 40                       @ ../std/GD32C2x1_Firmware_Library/GD32C2x1_standard_peripheral/Source/gd32c2x1_timer.c:1574:40
	str	r0, [r1, #28]
	.loc	4 1576 13 is_stmt 1             @ ../std/GD32C2x1_Firmware_Library/GD32C2x1_standard_peripheral/Source/gd32c2x1_timer.c:1576:13
	ldr	r1, [sp, #20]
	.loc	4 1576 40 is_stmt 0             @ ../std/GD32C2x1_Firmware_Library/GD32C2x1_standard_peripheral/Source/gd32c2x1_timer.c:1576:40
	ldr	r0, [r1, #32]
	orrs	r0, r2
	str	r0, [r1, #32]
	.loc	4 1577 13 is_stmt 1             @ ../std/GD32C2x1_Firmware_Library/GD32C2x1_standard_peripheral/Source/gd32c2x1_timer.c:1577:13
	b	.LBB47_8
.LBB47_7:
	.loc	4 1579 13                       @ ../std/GD32C2x1_Firmware_Library/GD32C2x1_standard_peripheral/Source/gd32c2x1_timer.c:1579:13
	b	.LBB47_8
.Ltmp207:
.LBB47_8:
	.loc	4 1582 54                       @ ../std/GD32C2x1_Firmware_Library/GD32C2x1_standard_peripheral/Source/gd32c2x1_timer.c:1582:54
	ldr	r0, [sp, #20]
	add	r1, sp, #16
	.loc	4 1582 68 is_stmt 0             @ ../std/GD32C2x1_Firmware_Library/GD32C2x1_standard_peripheral/Source/gd32c2x1_timer.c:1582:68
	ldrh	r1, [r1]
	.loc	4 1582 88                       @ ../std/GD32C2x1_Firmware_Library/GD32C2x1_standard_peripheral/Source/gd32c2x1_timer.c:1582:88
	ldr	r2, [sp, #12]
	.loc	4 1582 96                       @ ../std/GD32C2x1_Firmware_Library/GD32C2x1_standard_peripheral/Source/gd32c2x1_timer.c:1582:96
	ldrh	r2, [r2, #4]
	.loc	4 1582 9                        @ ../std/GD32C2x1_Firmware_Library/GD32C2x1_standard_peripheral/Source/gd32c2x1_timer.c:1582:9
