	.text
	.syntax unified
	.eabi_attribute	67, "2.09"	@ Tag_conformance
	.cpu	cortex-m23
	.eabi_attribute	6, 16	@ Tag_CPU_arch
	.eabi_attribute	7, 77	@ Tag_CPU_arch_profile
	.eabi_attribute	8, 0	@ Tag_ARM_ISA_use
	.eabi_attribute	9, 3	@ Tag_THUMB_ISA_use
	.eabi_attribute	34, 0	@ Tag_CPU_unaligned_access
	.eabi_attribute	17, 1	@ Tag_ABI_PCS_GOT_use
	.eabi_attribute	20, 2	@ Tag_ABI_FP_denormal
	.eabi_attribute	21, 0	@ Tag_ABI_FP_exceptions
	.eabi_attribute	23, 1	@ Tag_ABI_FP_number_model
	.eabi_attribute	24, 1	@ Tag_ABI_align_needed
	.eabi_attribute	25, 1	@ Tag_ABI_align_preserved
	.eabi_attribute	38, 1	@ Tag_ABI_FP_16bit_format
	.eabi_attribute	18, 2	@ Tag_ABI_PCS_wchar_t
	.eabi_attribute	26, 1	@ Tag_ABI_enum_size
	.eabi_attribute	14, 0	@ Tag_ABI_PCS_R9_use
	.file	"gd32c2x1_syscfg.c"
	.file	1 "E:\\work\\CX_NFC_RX\\prj" "../std/GD32C2x1_Firmware_Library/GD32C2x1_standard_peripheral/Include\\gd32c2x1_rcu.h"
	.file	2 "E:\\work\\CX_NFC_RX\\prj" "../std/GD32C2x1_Firmware_Library/CMSIS/GD/GD32C2x1/Include/gd32c2x1.h"
	.file	3 "D:\\Keil_v5\\ARM\\ARMCLANG\\Bin\\..\\include" "stdint.h"
	.section	.text.syscfg_deinit,"ax",%progbits
	.hidden	syscfg_deinit                   @ -- Begin function syscfg_deinit
	.globl	syscfg_deinit
	.p2align	1
	.type	syscfg_deinit,%function
	.code	16                              @ @syscfg_deinit
	.thumb_func
syscfg_deinit:
.Lfunc_begin0:
	.file	4 "E:\\work\\CX_NFC_RX\\prj" "../std/GD32C2x1_Firmware_Library/GD32C2x1_standard_peripheral/Source/gd32c2x1_syscfg.c"
	.loc	4 50 0                          @ ../std/GD32C2x1_Firmware_Library/GD32C2x1_standard_peripheral/Source/gd32c2x1_syscfg.c:50:0
	.fnstart
	.cfi_sections .debug_frame
	.cfi_startproc
@ %bb.0:
	.save	{r7, lr}
	push	{r7, lr}
	.cfi_def_cfa_offset 8
	.cfi_offset lr, -4
	.cfi_offset r7, -8
	.pad	#8
	sub	sp, #8
	.cfi_def_cfa_offset 16
	movw	r0, #2304
.Ltmp0:
	.loc	4 51 5 prologue_end             @ ../std/GD32C2x1_Firmware_Library/GD32C2x1_standard_peripheral/Source/gd32c2x1_syscfg.c:51:5
	str	r0, [sp, #4]                    @ 4-byte Spill
	bl	rcu_periph_reset_enable
	ldr	r0, [sp, #4]                    @ 4-byte Reload
	.loc	4 52 5                          @ ../std/GD32C2x1_Firmware_Library/GD32C2x1_standard_peripheral/Source/gd32c2x1_syscfg.c:52:5
	bl	rcu_periph_reset_disable
	.loc	4 53 1                          @ ../std/GD32C2x1_Firmware_Library/GD32C2x1_standard_peripheral/Source/gd32c2x1_syscfg.c:53:1
	add	sp, #8
	pop	{r7, pc}
.Ltmp1:
.Lfunc_end0:
	.size	syscfg_deinit, .Lfunc_end0-syscfg_deinit
	.cfi_endproc
	.cantunwind
	.fnend
                                        @ -- End function
	.section	.text.syscfg_i2c_fast_mode_plus_enable,"ax",%progbits
	.hidden	syscfg_i2c_fast_mode_plus_enable @ -- Begin function syscfg_i2c_fast_mode_plus_enable
	.globl	syscfg_i2c_fast_mode_plus_enable
	.p2align	2
	.type	syscfg_i2c_fast_mode_plus_enable,%function
	.code	16                              @ @syscfg_i2c_fast_mode_plus_enable
	.thumb_func
syscfg_i2c_fast_mode_plus_enable:
.Lfunc_begin1:
	.loc	4 71 0                          @ ../std/GD32C2x1_Firmware_Library/GD32C2x1_standard_peripheral/Source/gd32c2x1_syscfg.c:71:0
	.fnstart
	.cfi_startproc
@ %bb.0:
	.pad	#4
	sub	sp, #4
	.cfi_def_cfa_offset 4
	str	r0, [sp]
.Ltmp2:
	.loc	4 72 21 prologue_end            @ ../std/GD32C2x1_Firmware_Library/GD32C2x1_standard_peripheral/Source/gd32c2x1_syscfg.c:72:21
	ldr	r2, [sp]
	ldr	r0, __arm_cp.1_0
	.loc	4 72 33 is_stmt 0               @ ../std/GD32C2x1_Firmware_Library/GD32C2x1_standard_peripheral/Source/gd32c2x1_syscfg.c:72:33
	ands	r2, r0
	ldr	r1, __arm_cp.1_1
	.loc	4 72 17                         @ ../std/GD32C2x1_Firmware_Library/GD32C2x1_standard_peripheral/Source/gd32c2x1_syscfg.c:72:17
	ldr	r0, [r1]
	orrs	r0, r2
	str	r0, [r1]
	.loc	4 73 1 is_stmt 1                @ ../std/GD32C2x1_Firmware_Library/GD32C2x1_standard_peripheral/Source/gd32c2x1_syscfg.c:73:1
	add	sp, #4
	bx	lr
.Ltmp3:
	.p2align	2
@ %bb.1:
	.loc	4 0 1 is_stmt 0                 @ ../std/GD32C2x1_Firmware_Library/GD32C2x1_standard_peripheral/Source/gd32c2x1_syscfg.c:0:1
__arm_cp.1_0:
	.long	31391744                        @ 0x1df0000
.Lcpi_end0:
	.size	__arm_cp.1_0, .Lcpi_end0-__arm_cp.1_0
__arm_cp.1_1:
	.long	1073807360                      @ 0x40010000
.Lcpi_end1:
	.size	__arm_cp.1_1, .Lcpi_end1-__arm_cp.1_1
.Lfunc_end1:
	.size	syscfg_i2c_fast_mode_plus_enable, .Lfunc_end1-syscfg_i2c_fast_mode_plus_enable
	.cfi_endproc
	.cantunwind
	.fnend
                                        @ -- End function
	.section	.text.syscfg_i2c_fast_mode_plus_disable,"ax",%progbits
	.hidden	syscfg_i2c_fast_mode_plus_disable @ -- Begin function syscfg_i2c_fast_mode_plus_disable
	.globl	syscfg_i2c_fast_mode_plus_disable
	.p2align	2
	.type	syscfg_i2c_fast_mode_plus_disable,%function
	.code	16                              @ @syscfg_i2c_fast_mode_plus_disable
	.thumb_func
syscfg_i2c_fast_mode_plus_disable:
.Lfunc_begin2:
	.loc	4 91 0 is_stmt 1                @ ../std/GD32C2x1_Firmware_Library/GD32C2x1_standard_peripheral/Source/gd32c2x1_syscfg.c:91:0
	.fnstart
	.cfi_startproc
@ %bb.0:
	.pad	#4
	sub	sp, #4
	.cfi_def_cfa_offset 4
	str	r0, [sp]
.Ltmp4:
	.loc	4 93 31 prologue_end            @ ../std/GD32C2x1_Firmware_Library/GD32C2x1_standard_peripheral/Source/gd32c2x1_syscfg.c:93:31
	ldr	r0, [sp]
	mvns	r2, r0
	ldr	r0, __arm_cp.2_0
	.loc	4 93 29 is_stmt 0               @ ../std/GD32C2x1_Firmware_Library/GD32C2x1_standard_peripheral/Source/gd32c2x1_syscfg.c:93:29
	orrs	r2, r0
	ldr	r1, __arm_cp.2_1
	.loc	4 93 15                         @ ../std/GD32C2x1_Firmware_Library/GD32C2x1_standard_peripheral/Source/gd32c2x1_syscfg.c:93:15
	ldr	r0, [r1]
	ands	r0, r2
	str	r0, [r1]
	.loc	4 95 1 is_stmt 1                @ ../std/GD32C2x1_Firmware_Library/GD32C2x1_standard_peripheral/Source/gd32c2x1_syscfg.c:95:1
	add	sp, #4
	bx	lr
.Ltmp5:
	.p2align	2
@ %bb.1:
	.loc	4 0 1 is_stmt 0                 @ ../std/GD32C2x1_Firmware_Library/GD32C2x1_standard_peripheral/Source/gd32c2x1_syscfg.c:0:1
__arm_cp.2_0:
	.long	4263575551                      @ 0xfe20ffff
.Lcpi_end2:
	.size	__arm_cp.2_0, .Lcpi_end2-__arm_cp.2_0
__arm_cp.2_1:
	.long	1073807360                      @ 0x40010000
.Lcpi_end3:
	.size	__arm_cp.2_1, .Lcpi_end3-__arm_cp.2_1
.Lfunc_end2:
	.size	syscfg_i2c_fast_mode_plus_disable, .Lfunc_end2-syscfg_i2c_fast_mode_plus_disable
	.cfi_endproc
	.cantunwind
	.fnend
                                        @ -- End function
	.section	.text.syscfg_pin_remap_enable,"ax",%progbits
	.hidden	syscfg_pin_remap_enable         @ -- Begin function syscfg_pin_remap_enable
	.globl	syscfg_pin_remap_enable
	.p2align	2
	.type	syscfg_pin_remap_enable,%function
	.code	16                              @ @syscfg_pin_remap_enable
	.thumb_func
syscfg_pin_remap_enable:
.Lfunc_begin3:
	.loc	4 107 0 is_stmt 1               @ ../std/GD32C2x1_Firmware_Library/GD32C2x1_standard_peripheral/Source/gd32c2x1_syscfg.c:107:0
	.fnstart
	.cfi_startproc
@ %bb.0:
	.pad	#4
	sub	sp, #4
	.cfi_def_cfa_offset 4
	str	r0, [sp]
.Ltmp6:
	.loc	4 108 21 prologue_end           @ ../std/GD32C2x1_Firmware_Library/GD32C2x1_standard_peripheral/Source/gd32c2x1_syscfg.c:108:21
	ldr	r2, [sp]
	movs	r0, #24
	.loc	4 108 31 is_stmt 0              @ ../std/GD32C2x1_Firmware_Library/GD32C2x1_standard_peripheral/Source/gd32c2x1_syscfg.c:108:31
	ands	r2, r0
	ldr	r1, __arm_cp.3_0
	.loc	4 108 17                        @ ../std/GD32C2x1_Firmware_Library/GD32C2x1_standard_peripheral/Source/gd32c2x1_syscfg.c:108:17
	ldr	r0, [r1]
	orrs	r0, r2
	str	r0, [r1]
	.loc	4 109 1 is_stmt 1               @ ../std/GD32C2x1_Firmware_Library/GD32C2x1_standard_peripheral/Source/gd32c2x1_syscfg.c:109:1
	add	sp, #4
	bx	lr
.Ltmp7:
	.p2align	2
@ %bb.1:
	.loc	4 0 1 is_stmt 0                 @ ../std/GD32C2x1_Firmware_Library/GD32C2x1_standard_peripheral/Source/gd32c2x1_syscfg.c:0:1
__arm_cp.3_0:
	.long	1073807360                      @ 0x40010000
.Lcpi_end4:
	.size	__arm_cp.3_0, .Lcpi_end4-__arm_cp.3_0
.Lfunc_end3:
	.size	syscfg_pin_remap_enable, .Lfunc_end3-syscfg_pin_remap_enable
	.cfi_endproc
	.cantunwind
	.fnend
                                        @ -- End function
	.section	.text.syscfg_pin_remap_disable,"ax",%progbits
	.hidden	syscfg_pin_remap_disable        @ -- Begin function syscfg_pin_remap_disable
	.globl	syscfg_pin_remap_disable
	.p2align	2
	.type	syscfg_pin_remap_disable,%function
	.code	16                              @ @syscfg_pin_remap_disable
	.thumb_func
syscfg_pin_remap_disable:
.Lfunc_begin4:
	.loc	4 121 0 is_stmt 1               @ ../std/GD32C2x1_Firmware_Library/GD32C2x1_standard_peripheral/Source/gd32c2x1_syscfg.c:121:0
	.fnstart
	.cfi_startproc
@ %bb.0:
	.pad	#4
	sub	sp, #4
	.cfi_def_cfa_offset 4
	str	r0, [sp]
.Ltmp8:
	.loc	4 122 22 prologue_end           @ ../std/GD32C2x1_Firmware_Library/GD32C2x1_standard_peripheral/Source/gd32c2x1_syscfg.c:122:22
	ldr	r0, [sp]
	mvns	r2, r0
	movs	r0, #24
	mvns	r0, r0
	.loc	4 122 20 is_stmt 0              @ ../std/GD32C2x1_Firmware_Library/GD32C2x1_standard_peripheral/Source/gd32c2x1_syscfg.c:122:20
	orrs	r2, r0
	ldr	r1, __arm_cp.4_0
	.loc	4 122 17                        @ ../std/GD32C2x1_Firmware_Library/GD32C2x1_standard_peripheral/Source/gd32c2x1_syscfg.c:122:17
	ldr	r0, [r1]
	ands	r0, r2
	str	r0, [r1]
	.loc	4 123 1 is_stmt 1               @ ../std/GD32C2x1_Firmware_Library/GD32C2x1_standard_peripheral/Source/gd32c2x1_syscfg.c:123:1
	add	sp, #4
	bx	lr
.Ltmp9:
	.p2align	2
@ %bb.1:
	.loc	4 0 1 is_stmt 0                 @ ../std/GD32C2x1_Firmware_Library/GD32C2x1_standard_peripheral/Source/gd32c2x1_syscfg.c:0:1
__arm_cp.4_0:
	.long	1073807360                      @ 0x40010000
.Lcpi_end5:
	.size	__arm_cp.4_0, .Lcpi_end5-__arm_cp.4_0
.Lfunc_end4:
	.size	syscfg_pin_remap_disable, .Lfunc_end4-syscfg_pin_remap_disable
	.cfi_endproc
	.cantunwind
	.fnend
                                        @ -- End function
	.section	.text.syscfg_bootmode_get,"ax",%progbits
	.hidden	syscfg_bootmode_get             @ -- Begin function syscfg_bootmode_get
	.globl	syscfg_bootmode_get
	.p2align	2
	.type	syscfg_bootmode_get,%function
	.code	16                              @ @syscfg_bootmode_get
	.thumb_func
syscfg_bootmode_get:
.Lfunc_begin5:
	.loc	4 135 0 is_stmt 1               @ ../std/GD32C2x1_Firmware_Library/GD32C2x1_standard_peripheral/Source/gd32c2x1_syscfg.c:135:0
	.fnstart
	.cfi_startproc
@ %bb.0:
	.pad	#4
	sub	sp, #4
	.cfi_def_cfa_offset 4
	ldr	r0, __arm_cp.5_0
.Ltmp10:
	.loc	4 137 30 prologue_end           @ ../std/GD32C2x1_Firmware_Library/GD32C2x1_standard_peripheral/Source/gd32c2x1_syscfg.c:137:30
	ldr	r1, [r0]
	movs	r0, #3
	.loc	4 137 42 is_stmt 0              @ ../std/GD32C2x1_Firmware_Library/GD32C2x1_standard_peripheral/Source/gd32c2x1_syscfg.c:137:42
	ands	r1, r0
	mov	r0, sp
	.loc	4 137 13                        @ ../std/GD32C2x1_Firmware_Library/GD32C2x1_standard_peripheral/Source/gd32c2x1_syscfg.c:137:13
	strb	r1, [r0]
	.loc	4 139 12 is_stmt 1              @ ../std/GD32C2x1_Firmware_Library/GD32C2x1_standard_peripheral/Source/gd32c2x1_syscfg.c:139:12
	ldrb	r0, [r0]
	.loc	4 139 5 is_stmt 0               @ ../std/GD32C2x1_Firmware_Library/GD32C2x1_standard_peripheral/Source/gd32c2x1_syscfg.c:139:5
	add	sp, #4
	bx	lr
.Ltmp11:
	.p2align	2
@ %bb.1:
	.loc	4 0 5                           @ ../std/GD32C2x1_Firmware_Library/GD32C2x1_standard_peripheral/Source/gd32c2x1_syscfg.c:0:5
__arm_cp.5_0:
	.long	1073807360                      @ 0x40010000
.Lcpi_end6:
	.size	__arm_cp.5_0, .Lcpi_end6-__arm_cp.5_0
.Lfunc_end5:
	.size	syscfg_bootmode_get, .Lfunc_end5-syscfg_bootmode_get
	.cfi_endproc
	.cantunwind
	.fnend
                                        @ -- End function
	.section	.text.syscfg_exti_line_config,"ax",%progbits
	.hidden	syscfg_exti_line_config         @ -- Begin function syscfg_exti_line_config
	.globl	syscfg_exti_line_config
	.p2align	2
	.type	syscfg_exti_line_config,%function
	.code	16                              @ @syscfg_exti_line_config
	.thumb_func
syscfg_exti_line_config:
.Lfunc_begin6:
	.loc	4 154 0 is_stmt 1               @ ../std/GD32C2x1_Firmware_Library/GD32C2x1_standard_peripheral/Source/gd32c2x1_syscfg.c:154:0
	.fnstart
	.cfi_startproc
@ %bb.0:
	.pad	#20
	sub	sp, #20
	.cfi_def_cfa_offset 20
	mov	r2, r1
                                        @ kill: def $r1 killed $r2
                                        @ kill: def $r1 killed $r0
	add	r1, sp, #16
	strb	r0, [r1]
	add	r0, sp, #12
	strb	r2, [r0]
.Ltmp12:
	.loc	4 155 61 prologue_end           @ ../std/GD32C2x1_Firmware_Library/GD32C2x1_standard_peripheral/Source/gd32c2x1_syscfg.c:155:61
	ldrb	r2, [r0]
	lsls	r2, r2, #30
	lsrs	r3, r2, #28
	movs	r2, #15
	.loc	4 155 57 is_stmt 0              @ ../std/GD32C2x1_Firmware_Library/GD32C2x1_standard_peripheral/Source/gd32c2x1_syscfg.c:155:57
	lsls	r2, r3
	.loc	4 155 32                        @ ../std/GD32C2x1_Firmware_Library/GD32C2x1_standard_peripheral/Source/gd32c2x1_syscfg.c:155:32
	mvns	r2, r2
	.loc	4 155 14                        @ ../std/GD32C2x1_Firmware_Library/GD32C2x1_standard_peripheral/Source/gd32c2x1_syscfg.c:155:14
	str	r2, [sp, #8]
	.loc	4 156 44 is_stmt 1              @ ../std/GD32C2x1_Firmware_Library/GD32C2x1_standard_peripheral/Source/gd32c2x1_syscfg.c:156:44
	ldrb	r1, [r1]
	.loc	4 156 59 is_stmt 0              @ ../std/GD32C2x1_Firmware_Library/GD32C2x1_standard_peripheral/Source/gd32c2x1_syscfg.c:156:59
	ldrb	r2, [r0]
	lsls	r2, r2, #30
	lsrs	r2, r2, #28
	.loc	4 156 55                        @ ../std/GD32C2x1_Firmware_Library/GD32C2x1_standard_peripheral/Source/gd32c2x1_syscfg.c:156:55
	lsls	r1, r2
	.loc	4 156 14                        @ ../std/GD32C2x1_Firmware_Library/GD32C2x1_standard_peripheral/Source/gd32c2x1_syscfg.c:156:14
	str	r1, [sp, #4]
	.loc	4 158 12 is_stmt 1              @ ../std/GD32C2x1_Firmware_Library/GD32C2x1_standard_peripheral/Source/gd32c2x1_syscfg.c:158:12
	ldrb	r0, [r0]
	.loc	4 158 21 is_stmt 0              @ ../std/GD32C2x1_Firmware_Library/GD32C2x1_standard_peripheral/Source/gd32c2x1_syscfg.c:158:21
	lsrs	r0, r0, #2
	.loc	4 158 5                         @ ../std/GD32C2x1_Firmware_Library/GD32C2x1_standard_peripheral/Source/gd32c2x1_syscfg.c:158:5
	str	r0, [sp]                        @ 4-byte Spill
	cmp	r0, #3
	bhi	.LBB6_7
@ %bb.1:
	.loc	4 0 5                           @ ../std/GD32C2x1_Firmware_Library/GD32C2x1_standard_peripheral/Source/gd32c2x1_syscfg.c:0:5
	ldr	r1, [sp]                        @ 4-byte Reload
	lsls	r2, r1, #2
	adr	r0, .LJTI6_0
	adds	r0, r0, r2
	mov	pc, r0
@ %bb.2:
	.p2align	2
.LJTI6_0:
	b.w	.LBB6_3
	b.w	.LBB6_4
	b.w	.LBB6_5
	b.w	.LBB6_6
.LBB6_3:
.Ltmp13:
	.loc	4 161 31 is_stmt 1              @ ../std/GD32C2x1_Firmware_Library/GD32C2x1_standard_peripheral/Source/gd32c2x1_syscfg.c:161:31
	ldr	r2, [sp, #8]
	ldr	r1, __arm_cp.6_3
	.loc	4 161 28 is_stmt 0              @ ../std/GD32C2x1_Firmware_Library/GD32C2x1_standard_peripheral/Source/gd32c2x1_syscfg.c:161:28
	ldr	r0, [r1]
	ands	r0, r2
	str	r0, [r1]
	.loc	4 163 31 is_stmt 1              @ ../std/GD32C2x1_Firmware_Library/GD32C2x1_standard_peripheral/Source/gd32c2x1_syscfg.c:163:31
	ldr	r2, [sp, #4]
	.loc	4 163 28 is_stmt 0              @ ../std/GD32C2x1_Firmware_Library/GD32C2x1_standard_peripheral/Source/gd32c2x1_syscfg.c:163:28
	ldr	r0, [r1]
	orrs	r0, r2
	str	r0, [r1]
	.loc	4 164 13 is_stmt 1              @ ../std/GD32C2x1_Firmware_Library/GD32C2x1_standard_peripheral/Source/gd32c2x1_syscfg.c:164:13
	b	.LBB6_8
.LBB6_4:
	.loc	4 167 31                        @ ../std/GD32C2x1_Firmware_Library/GD32C2x1_standard_peripheral/Source/gd32c2x1_syscfg.c:167:31
	ldr	r2, [sp, #8]
	ldr	r1, __arm_cp.6_2
	.loc	4 167 28 is_stmt 0              @ ../std/GD32C2x1_Firmware_Library/GD32C2x1_standard_peripheral/Source/gd32c2x1_syscfg.c:167:28
	ldr	r0, [r1]
	ands	r0, r2
	str	r0, [r1]
	.loc	4 169 31 is_stmt 1              @ ../std/GD32C2x1_Firmware_Library/GD32C2x1_standard_peripheral/Source/gd32c2x1_syscfg.c:169:31
	ldr	r2, [sp, #4]
	.loc	4 169 28 is_stmt 0              @ ../std/GD32C2x1_Firmware_Library/GD32C2x1_standard_peripheral/Source/gd32c2x1_syscfg.c:169:28
	ldr	r0, [r1]
	orrs	r0, r2
	str	r0, [r1]
	.loc	4 170 13 is_stmt 1              @ ../std/GD32C2x1_Firmware_Library/GD32C2x1_standard_peripheral/Source/gd32c2x1_syscfg.c:170:13
	b	.LBB6_8
.LBB6_5:
	.loc	4 173 31                        @ ../std/GD32C2x1_Firmware_Library/GD32C2x1_standard_peripheral/Source/gd32c2x1_syscfg.c:173:31
	ldr	r2, [sp, #8]
	ldr	r1, __arm_cp.6_1
	.loc	4 173 28 is_stmt 0              @ ../std/GD32C2x1_Firmware_Library/GD32C2x1_standard_peripheral/Source/gd32c2x1_syscfg.c:173:28
	ldr	r0, [r1]
	ands	r0, r2
	str	r0, [r1]
	.loc	4 175 31 is_stmt 1              @ ../std/GD32C2x1_Firmware_Library/GD32C2x1_standard_peripheral/Source/gd32c2x1_syscfg.c:175:31
	ldr	r2, [sp, #4]
	.loc	4 175 28 is_stmt 0              @ ../std/GD32C2x1_Firmware_Library/GD32C2x1_standard_peripheral/Source/gd32c2x1_syscfg.c:175:28
	ldr	r0, [r1]
	orrs	r0, r2
	str	r0, [r1]
	.loc	4 176 13 is_stmt 1              @ ../std/GD32C2x1_Firmware_Library/GD32C2x1_standard_peripheral/Source/gd32c2x1_syscfg.c:176:13
	b	.LBB6_8
.LBB6_6:
	.loc	4 179 31                        @ ../std/GD32C2x1_Firmware_Library/GD32C2x1_standard_peripheral/Source/gd32c2x1_syscfg.c:179:31
	ldr	r2, [sp, #8]
	ldr	r1, __arm_cp.6_0
	.loc	4 179 28 is_stmt 0              @ ../std/GD32C2x1_Firmware_Library/GD32C2x1_standard_peripheral/Source/gd32c2x1_syscfg.c:179:28
	ldr	r0, [r1]
	ands	r0, r2
	str	r0, [r1]
	.loc	4 181 31 is_stmt 1              @ ../std/GD32C2x1_Firmware_Library/GD32C2x1_standard_peripheral/Source/gd32c2x1_syscfg.c:181:31
	ldr	r2, [sp, #4]
	.loc	4 181 28 is_stmt 0              @ ../std/GD32C2x1_Firmware_Library/GD32C2x1_standard_peripheral/Source/gd32c2x1_syscfg.c:181:28
	ldr	r0, [r1]
	orrs	r0, r2
	str	r0, [r1]
	.loc	4 182 13 is_stmt 1              @ ../std/GD32C2x1_Firmware_Library/GD32C2x1_standard_peripheral/Source/gd32c2x1_syscfg.c:182:13
	b	.LBB6_8
.LBB6_7:
	.loc	4 184 13                        @ ../std/GD32C2x1_Firmware_Library/GD32C2x1_standard_peripheral/Source/gd32c2x1_syscfg.c:184:13
	b	.LBB6_8
.Ltmp14:
.LBB6_8:
	.loc	4 186 1                         @ ../std/GD32C2x1_Firmware_Library/GD32C2x1_standard_peripheral/Source/gd32c2x1_syscfg.c:186:1
	add	sp, #20
	bx	lr
.Ltmp15:
	.p2align	2
@ %bb.9:
	.loc	4 0 1 is_stmt 0                 @ ../std/GD32C2x1_Firmware_Library/GD32C2x1_standard_peripheral/Source/gd32c2x1_syscfg.c:0:1
__arm_cp.6_0:
	.long	1073807380                      @ 0x40010014
.Lcpi_end7:
	.size	__arm_cp.6_0, .Lcpi_end7-__arm_cp.6_0
__arm_cp.6_1:
	.long	1073807376                      @ 0x40010010
.Lcpi_end8:
	.size	__arm_cp.6_1, .Lcpi_end8-__arm_cp.6_1
__arm_cp.6_2:
	.long	1073807372                      @ 0x4001000c
.Lcpi_end9:
	.size	__arm_cp.6_2, .Lcpi_end9-__arm_cp.6_2
__arm_cp.6_3:
	.long	1073807368                      @ 0x40010008
.Lcpi_end10:
	.size	__arm_cp.6_3, .Lcpi_end10-__arm_cp.6_3
.Lfunc_end6:
	.size	syscfg_exti_line_config, .Lfunc_end6-syscfg_exti_line_config
	.cfi_endproc
	.cantunwind
	.fnend
                                        @ -- End function
	.section	.text.syscfg_lockup_enable,"ax",%progbits
	.hidden	syscfg_lockup_enable            @ -- Begin function syscfg_lockup_enable
	.globl	syscfg_lockup_enable
	.p2align	2
	.type	syscfg_lockup_enable,%function
	.code	16                              @ @syscfg_lockup_enable
	.thumb_func
syscfg_lockup_enable:
.Lfunc_begin7:
	.loc	4 198 0 is_stmt 1               @ ../std/GD32C2x1_Firmware_Library/GD32C2x1_standard_peripheral/Source/gd32c2x1_syscfg.c:198:0
	.fnstart
	.cfi_startproc
@ %bb.0:
	.pad	#4
	sub	sp, #4
	.cfi_def_cfa_offset 4
	str	r0, [sp]
.Ltmp16:
	.loc	4 199 21 prologue_end           @ ../std/GD32C2x1_Firmware_Library/GD32C2x1_standard_peripheral/Source/gd32c2x1_syscfg.c:199:21
	ldr	r2, [sp]
	movs	r0, #3
	.loc	4 199 28 is_stmt 0              @ ../std/GD32C2x1_Firmware_Library/GD32C2x1_standard_peripheral/Source/gd32c2x1_syscfg.c:199:28
	ands	r2, r0
	ldr	r1, __arm_cp.7_0
	.loc	4 199 17                        @ ../std/GD32C2x1_Firmware_Library/GD32C2x1_standard_peripheral/Source/gd32c2x1_syscfg.c:199:17
	ldr	r0, [r1]
	orrs	r0, r2
	str	r0, [r1]
	.loc	4 200 1 is_stmt 1               @ ../std/GD32C2x1_Firmware_Library/GD32C2x1_standard_peripheral/Source/gd32c2x1_syscfg.c:200:1
	add	sp, #4
	bx	lr
.Ltmp17:
	.p2align	2
@ %bb.1:
	.loc	4 0 1 is_stmt 0                 @ ../std/GD32C2x1_Firmware_Library/GD32C2x1_standard_peripheral/Source/gd32c2x1_syscfg.c:0:1
__arm_cp.7_0:
	.long	1073807384                      @ 0x40010018
.Lcpi_end11:
	.size	__arm_cp.7_0, .Lcpi_end11-__arm_cp.7_0
.Lfunc_end7:
	.size	syscfg_lockup_enable, .Lfunc_end7-syscfg_lockup_enable
	.cfi_endproc
	.cantunwind
	.fnend
                                        @ -- End function
	.section	.text.syscfg_sram_ecc_single_correctable_bit_get,"ax",%progbits
	.hidden	syscfg_sram_ecc_single_correctable_bit_get @ -- Begin function syscfg_sram_ecc_single_correctable_bit_get
	.globl	syscfg_sram_ecc_single_correctable_bit_get
	.p2align	2
	.type	syscfg_sram_ecc_single_correctable_bit_get,%function
	.code	16                              @ @syscfg_sram_ecc_single_correctable_bit_get
	.thumb_func
syscfg_sram_ecc_single_correctable_bit_get:
.Lfunc_begin8:
	.loc	4 209 0 is_stmt 1               @ ../std/GD32C2x1_Firmware_Library/GD32C2x1_standard_peripheral/Source/gd32c2x1_syscfg.c:209:0
	.fnstart
	.cfi_startproc
@ %bb.0:
	.pad	#4
	sub	sp, #4
	.cfi_def_cfa_offset 4
	ldr	r0, __arm_cp.8_0
.Ltmp18:
	.loc	4 211 30 prologue_end           @ ../std/GD32C2x1_Firmware_Library/GD32C2x1_standard_peripheral/Source/gd32c2x1_syscfg.c:211:30
	ldr	r0, [r0]
	.loc	4 211 42 is_stmt 0              @ ../std/GD32C2x1_Firmware_Library/GD32C2x1_standard_peripheral/Source/gd32c2x1_syscfg.c:211:42
	uxth	r0, r0
	.loc	4 211 64                        @ ../std/GD32C2x1_Firmware_Library/GD32C2x1_standard_peripheral/Source/gd32c2x1_syscfg.c:211:64
	lsrs	r0, r0, #10
	.loc	4 211 16                        @ ../std/GD32C2x1_Firmware_Library/GD32C2x1_standard_peripheral/Source/gd32c2x1_syscfg.c:211:16
	str	r0, [sp]
	.loc	4 212 12 is_stmt 1              @ ../std/GD32C2x1_Firmware_Library/GD32C2x1_standard_peripheral/Source/gd32c2x1_syscfg.c:212:12
	ldr	r0, [sp]
	.loc	4 212 5 is_stmt 0               @ ../std/GD32C2x1_Firmware_Library/GD32C2x1_standard_peripheral/Source/gd32c2x1_syscfg.c:212:5
	add	sp, #4
	bx	lr
.Ltmp19:
	.p2align	2
@ %bb.1:
	.loc	4 0 5                           @ ../std/GD32C2x1_Firmware_Library/GD32C2x1_standard_peripheral/Source/gd32c2x1_syscfg.c:0:5
__arm_cp.8_0:
	.long	1073807400                      @ 0x40010028
.Lcpi_end12:
	.size	__arm_cp.8_0, .Lcpi_end12-__arm_cp.8_0
.Lfunc_end8:
	.size	syscfg_sram_ecc_single_correctable_bit_get, .Lfunc_end8-syscfg_sram_ecc_single_correctable_bit_get
	.cfi_endproc
	.cantunwind
	.fnend
                                        @ -- End function
	.section	.text.syscfg_sram_ecc_error_address_get,"ax",%progbits
	.hidden	syscfg_sram_ecc_error_address_get @ -- Begin function syscfg_sram_ecc_error_address_get
	.globl	syscfg_sram_ecc_error_address_get
	.p2align	2
	.type	syscfg_sram_ecc_error_address_get,%function
	.code	16                              @ @syscfg_sram_ecc_error_address_get
	.thumb_func
syscfg_sram_ecc_error_address_get:
.Lfunc_begin9:
	.loc	4 222 0 is_stmt 1               @ ../std/GD32C2x1_Firmware_Library/GD32C2x1_standard_peripheral/Source/gd32c2x1_syscfg.c:222:0
	.fnstart
	.cfi_startproc
@ %bb.0:
	.pad	#4
	sub	sp, #4
	.cfi_def_cfa_offset 4
	ldr	r0, __arm_cp.9_0
.Ltmp20:
	.loc	4 224 24 prologue_end           @ ../std/GD32C2x1_Firmware_Library/GD32C2x1_standard_peripheral/Source/gd32c2x1_syscfg.c:224:24
	ldr	r0, [r0]
	.loc	4 224 54 is_stmt 0              @ ../std/GD32C2x1_Firmware_Library/GD32C2x1_standard_peripheral/Source/gd32c2x1_syscfg.c:224:54
	lsrs	r0, r0, #20
	.loc	4 224 10                        @ ../std/GD32C2x1_Firmware_Library/GD32C2x1_standard_peripheral/Source/gd32c2x1_syscfg.c:224:10
	str	r0, [sp]
	.loc	4 225 12 is_stmt 1              @ ../std/GD32C2x1_Firmware_Library/GD32C2x1_standard_peripheral/Source/gd32c2x1_syscfg.c:225:12
	ldr	r0, [sp]
	.loc	4 225 5 is_stmt 0               @ ../std/GD32C2x1_Firmware_Library/GD32C2x1_standard_peripheral/Source/gd32c2x1_syscfg.c:225:5
	add	sp, #4
	bx	lr
.Ltmp21:
	.p2align	2
@ %bb.1:
	.loc	4 0 5                           @ ../std/GD32C2x1_Firmware_Library/GD32C2x1_standard_peripheral/Source/gd32c2x1_syscfg.c:0:5
__arm_cp.9_0:
	.long	1073807400                      @ 0x40010028
.Lcpi_end13:
	.size	__arm_cp.9_0, .Lcpi_end13-__arm_cp.9_0
.Lfunc_end9:
	.size	syscfg_sram_ecc_error_address_get, .Lfunc_end9-syscfg_sram_ecc_error_address_get
	.cfi_endproc
	.cantunwind
	.fnend
                                        @ -- End function
	.section	.text.syscfg_irq_latency_set,"ax",%progbits
	.hidden	syscfg_irq_latency_set          @ -- Begin function syscfg_irq_latency_set
	.globl	syscfg_irq_latency_set
	.p2align	2
	.type	syscfg_irq_latency_set,%function
	.code	16                              @ @syscfg_irq_latency_set
	.thumb_func
syscfg_irq_latency_set:
.Lfunc_begin10:
	.loc	4 235 0 is_stmt 1               @ ../std/GD32C2x1_Firmware_Library/GD32C2x1_standard_peripheral/Source/gd32c2x1_syscfg.c:235:0
	.fnstart
	.cfi_startproc
@ %bb.0:
	.pad	#8
	sub	sp, #8
	.cfi_def_cfa_offset 8
	str	r0, [sp, #4]
	ldr	r1, __arm_cp.10_0
.Ltmp22:
	.loc	4 237 11 prologue_end           @ ../std/GD32C2x1_Firmware_Library/GD32C2x1_standard_peripheral/Source/gd32c2x1_syscfg.c:237:11
	ldr	r0, [r1]
	movs	r2, #255
	.loc	4 237 30 is_stmt 0              @ ../std/GD32C2x1_Firmware_Library/GD32C2x1_standard_peripheral/Source/gd32c2x1_syscfg.c:237:30
	bics	r0, r2
	.loc	4 237 9                         @ ../std/GD32C2x1_Firmware_Library/GD32C2x1_standard_peripheral/Source/gd32c2x1_syscfg.c:237:9
	str	r0, [sp]
	add	r0, sp, #4
	.loc	4 238 23 is_stmt 1              @ ../std/GD32C2x1_Firmware_Library/GD32C2x1_standard_peripheral/Source/gd32c2x1_syscfg.c:238:23
	ldrb	r2, [r0]
	.loc	4 238 9 is_stmt 0               @ ../std/GD32C2x1_Firmware_Library/GD32C2x1_standard_peripheral/Source/gd32c2x1_syscfg.c:238:9
	ldr	r0, [sp]
	orrs	r0, r2
	str	r0, [sp]
	.loc	4 239 36 is_stmt 1              @ ../std/GD32C2x1_Firmware_Library/GD32C2x1_standard_peripheral/Source/gd32c2x1_syscfg.c:239:36
	ldr	r0, [sp]
	.loc	4 239 24 is_stmt 0              @ ../std/GD32C2x1_Firmware_Library/GD32C2x1_standard_peripheral/Source/gd32c2x1_syscfg.c:239:24
	str	r0, [r1]
	.loc	4 240 1 is_stmt 1               @ ../std/GD32C2x1_Firmware_Library/GD32C2x1_standard_peripheral/Source/gd32c2x1_syscfg.c:240:1
	add	sp, #8
	bx	lr
.Ltmp23:
	.p2align	2
@ %bb.1:
	.loc	4 0 1 is_stmt 0                 @ ../std/GD32C2x1_Firmware_Library/GD32C2x1_standard_peripheral/Source/gd32c2x1_syscfg.c:0:1
__arm_cp.10_0:
	.long	1073807616                      @ 0x40010100
.Lcpi_end14:
	.size	__arm_cp.10_0, .Lcpi_end14-__arm_cp.10_0
.Lfunc_end10:
	.size	syscfg_irq_latency_set, .Lfunc_end10-syscfg_irq_latency_set
	.cfi_endproc
	.cantunwind
	.fnend
                                        @ -- End function
	.section	.text.syscfg_interrupt_enable,"ax",%progbits
	.hidden	syscfg_interrupt_enable         @ -- Begin function syscfg_interrupt_enable
	.globl	syscfg_interrupt_enable
	.p2align	2
	.type	syscfg_interrupt_enable,%function
	.code	16                              @ @syscfg_interrupt_enable
	.thumb_func
syscfg_interrupt_enable:
.Lfunc_begin11:
	.loc	4 254 0 is_stmt 1               @ ../std/GD32C2x1_Firmware_Library/GD32C2x1_standard_peripheral/Source/gd32c2x1_syscfg.c:254:0
	.fnstart
	.cfi_startproc
@ %bb.0:
	.pad	#4
	sub	sp, #4
	.cfi_def_cfa_offset 4
	str	r0, [sp]
.Ltmp24:
	.loc	4 255 21 prologue_end           @ ../std/GD32C2x1_Firmware_Library/GD32C2x1_standard_peripheral/Source/gd32c2x1_syscfg.c:255:21
	ldr	r2, [sp]
	movs	r0, #31
	.loc	4 255 31 is_stmt 0              @ ../std/GD32C2x1_Firmware_Library/GD32C2x1_standard_peripheral/Source/gd32c2x1_syscfg.c:255:31
	ands	r2, r0
	ldr	r1, __arm_cp.11_0
	.loc	4 255 17                        @ ../std/GD32C2x1_Firmware_Library/GD32C2x1_standard_peripheral/Source/gd32c2x1_syscfg.c:255:17
	ldr	r0, [r1]
	orrs	r0, r2
	str	r0, [r1]
	.loc	4 256 1 is_stmt 1               @ ../std/GD32C2x1_Firmware_Library/GD32C2x1_standard_peripheral/Source/gd32c2x1_syscfg.c:256:1
	add	sp, #4
	bx	lr
.Ltmp25:
	.p2align	2
@ %bb.1:
	.loc	4 0 1 is_stmt 0                 @ ../std/GD32C2x1_Firmware_Library/GD32C2x1_standard_peripheral/Source/gd32c2x1_syscfg.c:0:1
__arm_cp.11_0:
	.long	1073807400                      @ 0x40010028
.Lcpi_end15:
	.size	__arm_cp.11_0, .Lcpi_end15-__arm_cp.11_0
.Lfunc_end11:
	.size	syscfg_interrupt_enable, .Lfunc_end11-syscfg_interrupt_enable
	.cfi_endproc
	.cantunwind
	.fnend
                                        @ -- End function
	.section	.text.syscfg_interrupt_disable,"ax",%progbits
	.hidden	syscfg_interrupt_disable        @ -- Begin function syscfg_interrupt_disable
	.globl	syscfg_interrupt_disable
	.p2align	2
	.type	syscfg_interrupt_disable,%function
	.code	16                              @ @syscfg_interrupt_disable
	.thumb_func
syscfg_interrupt_disable:
.Lfunc_begin12:
	.loc	4 270 0 is_stmt 1               @ ../std/GD32C2x1_Firmware_Library/GD32C2x1_standard_peripheral/Source/gd32c2x1_syscfg.c:270:0
	.fnstart
	.cfi_startproc
@ %bb.0:
	.pad	#4
	sub	sp, #4
	.cfi_def_cfa_offset 4
	str	r0, [sp]
.Ltmp26:
	.loc	4 271 22 prologue_end           @ ../std/GD32C2x1_Firmware_Library/GD32C2x1_standard_peripheral/Source/gd32c2x1_syscfg.c:271:22
	ldr	r0, [sp]
	mvns	r2, r0
	movs	r0, #31
	mvns	r0, r0
	.loc	4 271 20 is_stmt 0              @ ../std/GD32C2x1_Firmware_Library/GD32C2x1_standard_peripheral/Source/gd32c2x1_syscfg.c:271:20
	orrs	r2, r0
	ldr	r1, __arm_cp.12_0
	.loc	4 271 17                        @ ../std/GD32C2x1_Firmware_Library/GD32C2x1_standard_peripheral/Source/gd32c2x1_syscfg.c:271:17
	ldr	r0, [r1]
	ands	r0, r2
	str	r0, [r1]
	.loc	4 272 1 is_stmt 1               @ ../std/GD32C2x1_Firmware_Library/GD32C2x1_standard_peripheral/Source/gd32c2x1_syscfg.c:272:1
	add	sp, #4
	bx	lr
.Ltmp27:
	.p2align	2
@ %bb.1:
	.loc	4 0 1 is_stmt 0                 @ ../std/GD32C2x1_Firmware_Library/GD32C2x1_standard_peripheral/Source/gd32c2x1_syscfg.c:0:1
__arm_cp.12_0:
	.long	1073807400                      @ 0x40010028
.Lcpi_end16:
	.size	__arm_cp.12_0, .Lcpi_end16-__arm_cp.12_0
.Lfunc_end12:
	.size	syscfg_interrupt_disable, .Lfunc_end12-syscfg_interrupt_disable
	.cfi_endproc
	.cantunwind
	.fnend
                                        @ -- End function
	.section	.text.syscfg_interrupt_flag_get,"ax",%progbits
	.hidden	syscfg_interrupt_flag_get       @ -- Begin function syscfg_interrupt_flag_get
	.globl	syscfg_interrupt_flag_get
	.p2align	2
	.type	syscfg_interrupt_flag_get,%function
	.code	16                              @ @syscfg_interrupt_flag_get
	.thumb_func
syscfg_interrupt_flag_get:
.Lfunc_begin13:
	.loc	4 284 0 is_stmt 1               @ ../std/GD32C2x1_Firmware_Library/GD32C2x1_standard_peripheral/Source/gd32c2x1_syscfg.c:284:0
	.fnstart
	.cfi_startproc
@ %bb.0:
	.pad	#8
	sub	sp, #8
	.cfi_def_cfa_offset 8
	str	r0, [sp, #4]
	ldr	r0, __arm_cp.13_0
.Ltmp28:
	.loc	4 288 16 prologue_end           @ ../std/GD32C2x1_Firmware_Library/GD32C2x1_standard_peripheral/Source/gd32c2x1_syscfg.c:288:16
	ldr	r1, [r0]
	.loc	4 288 31 is_stmt 0              @ ../std/GD32C2x1_Firmware_Library/GD32C2x1_standard_peripheral/Source/gd32c2x1_syscfg.c:288:31
	ldr	r0, [sp, #4]
	.loc	4 288 36                        @ ../std/GD32C2x1_Firmware_Library/GD32C2x1_standard_peripheral/Source/gd32c2x1_syscfg.c:288:36
	ands	r0, r1
.Ltmp29:
	.loc	4 288 9                         @ ../std/GD32C2x1_Firmware_Library/GD32C2x1_standard_peripheral/Source/gd32c2x1_syscfg.c:288:9
	lsls	r0, r0, #30
	cbz	r0, .LBB13_2
	b	.LBB13_1
.LBB13_1:
	.loc	4 0 9                           @ ../std/GD32C2x1_Firmware_Library/GD32C2x1_standard_peripheral/Source/gd32c2x1_syscfg.c:0:9
	mov	r1, sp
	movs	r0, #1
.Ltmp30:
	.loc	4 289 24 is_stmt 1              @ ../std/GD32C2x1_Firmware_Library/GD32C2x1_standard_peripheral/Source/gd32c2x1_syscfg.c:289:24
	strb	r0, [r1]
	.loc	4 290 5                         @ ../std/GD32C2x1_Firmware_Library/GD32C2x1_standard_peripheral/Source/gd32c2x1_syscfg.c:290:5
	b	.LBB13_3
.Ltmp31:
.LBB13_2:
	.loc	4 0 5 is_stmt 0                 @ ../std/GD32C2x1_Firmware_Library/GD32C2x1_standard_peripheral/Source/gd32c2x1_syscfg.c:0:5
	mov	r1, sp
	movs	r0, #0
.Ltmp32:
	.loc	4 291 24 is_stmt 1              @ ../std/GD32C2x1_Firmware_Library/GD32C2x1_standard_peripheral/Source/gd32c2x1_syscfg.c:291:24
	strb	r0, [r1]
	b	.LBB13_3
.Ltmp33:
.LBB13_3:
	.loc	4 0 24 is_stmt 0                @ ../std/GD32C2x1_Firmware_Library/GD32C2x1_standard_peripheral/Source/gd32c2x1_syscfg.c:0:24
	mov	r0, sp
	.loc	4 294 12 is_stmt 1              @ ../std/GD32C2x1_Firmware_Library/GD32C2x1_standard_peripheral/Source/gd32c2x1_syscfg.c:294:12
	ldrb	r0, [r0]
	.loc	4 294 5 is_stmt 0               @ ../std/GD32C2x1_Firmware_Library/GD32C2x1_standard_peripheral/Source/gd32c2x1_syscfg.c:294:5
	add	sp, #8
	bx	lr
.Ltmp34:
	.p2align	2
@ %bb.4:
	.loc	4 0 5                           @ ../std/GD32C2x1_Firmware_Library/GD32C2x1_standard_peripheral/Source/gd32c2x1_syscfg.c:0:5
__arm_cp.13_0:
	.long	1073807388                      @ 0x4001001c
.Lcpi_end17:
	.size	__arm_cp.13_0, .Lcpi_end17-__arm_cp.13_0
.Lfunc_end13:
	.size	syscfg_interrupt_flag_get, .Lfunc_end13-syscfg_interrupt_flag_get
	.cfi_endproc
	.cantunwind
	.fnend
                                        @ -- End function
	.section	.text.syscfg_interrupt_flag_clear,"ax",%progbits
	.hidden	syscfg_interrupt_flag_clear     @ -- Begin function syscfg_interrupt_flag_clear
	.globl	syscfg_interrupt_flag_clear
	.p2align	2
	.type	syscfg_interrupt_flag_clear,%function
	.code	16                              @ @syscfg_interrupt_flag_clear
	.thumb_func
syscfg_interrupt_flag_clear:
.Lfunc_begin14:
	.loc	4 307 0 is_stmt 1               @ ../std/GD32C2x1_Firmware_Library/GD32C2x1_standard_peripheral/Source/gd32c2x1_syscfg.c:307:0
	.fnstart
	.cfi_startproc
@ %bb.0:
	.pad	#4
	sub	sp, #4
	.cfi_def_cfa_offset 4
	str	r0, [sp]
.Ltmp35:
	.loc	4 308 20 prologue_end           @ ../std/GD32C2x1_Firmware_Library/GD32C2x1_standard_peripheral/Source/gd32c2x1_syscfg.c:308:20
	ldr	r0, [sp]
	movs	r1, #3
	.loc	4 308 25 is_stmt 0              @ ../std/GD32C2x1_Firmware_Library/GD32C2x1_standard_peripheral/Source/gd32c2x1_syscfg.c:308:25
	ands	r0, r1
	ldr	r1, __arm_cp.14_0
	.loc	4 308 17                        @ ../std/GD32C2x1_Firmware_Library/GD32C2x1_standard_peripheral/Source/gd32c2x1_syscfg.c:308:17
	str	r0, [r1]
	.loc	4 309 1 is_stmt 1               @ ../std/GD32C2x1_Firmware_Library/GD32C2x1_standard_peripheral/Source/gd32c2x1_syscfg.c:309:1
	add	sp, #4
	bx	lr
.Ltmp36:
	.p2align	2
@ %bb.1:
	.loc	4 0 1 is_stmt 0                 @ ../std/GD32C2x1_Firmware_Library/GD32C2x1_standard_peripheral/Source/gd32c2x1_syscfg.c:0:1
__arm_cp.14_0:
	.long	1073807388                      @ 0x4001001c
.Lcpi_end18:
	.size	__arm_cp.14_0, .Lcpi_end18-__arm_cp.14_0
.Lfunc_end14:
	.size	syscfg_interrupt_flag_clear, .Lfunc_end14-syscfg_interrupt_flag_clear
	.cfi_endproc
	.cantunwind
	.fnend
                                        @ -- End function
	.section	".note.GNU-stack","",%progbits
	.eabi_attribute	30, 6	@ Tag_ABI_optimization_goals
	.ARM_attribute	16, 1	@ Tag_AV_eba