	.text
	.syntax unified
	.eabi_attribute	67, "2.09"	@ Tag_conformance
	.cpu	cortex-m23
	.eabi_attribute	6, 16	@ Tag_CPU_arch
	.eabi_attribute	7, 77	@ Tag_CPU_arch_profile
	.eabi_attribute	8, 0	@ Tag_ARM_ISA_use
	.eabi_attribute	9, 3	@ Tag_THUMB_ISA_use
	.eabi_attribute	34, 0	@ Tag_CPU_unaligned_access
	.eabi_attribute	17, 1	@ Tag_ABI_PCS_GOT_use
	.eabi_attribute	20, 2	@ Tag_ABI_FP_denormal
	.eabi_attribute	21, 0	@ Tag_ABI_FP_exceptions
	.eabi_attribute	23, 1	@ Tag_ABI_FP_number_model
	.eabi_attribute	24, 1	@ Tag_ABI_align_needed
	.eabi_attribute	25, 1	@ Tag_ABI_align_preserved
	.eabi_attribute	38, 1	@ Tag_ABI_FP_16bit_format
	.eabi_attribute	18, 2	@ Tag_ABI_PCS_wchar_t
	.eabi_attribute	26, 1	@ Tag_ABI_enum_size
	.eabi_attribute	14, 0	@ Tag_ABI_PCS_R9_use
	.file	"gd32c2x1_dma.c"
	.file	1 "E:\\work\\CX_NFC_RX\\prj" "../std/GD32C2x1_Firmware_Library/GD32C2x1_standard_peripheral/Include\\gd32c2x1_dma.h"
	.file	2 "E:\\work\\CX_NFC_RX\\prj" "../std/GD32C2x1_Firmware_Library/CMSIS/GD/GD32C2x1/Include/gd32c2x1.h"
	.file	3 "D:\\Keil_v5\\ARM\\ARMCLANG\\Bin\\..\\include" "stdint.h"
	.section	.text.dma_deinit,"ax",%progbits
	.hidden	dma_deinit                      @ -- Begin function dma_deinit
	.globl	dma_deinit
	.p2align	2
	.type	dma_deinit,%function
	.code	16                              @ @dma_deinit
	.thumb_func
dma_deinit:
.Lfunc_begin0:
	.file	4 "E:\\work\\CX_NFC_RX\\prj" "../std/GD32C2x1_Firmware_Library/GD32C2x1_standard_peripheral/Source/gd32c2x1_dma.c"
	.loc	4 54 0                          @ ../std/GD32C2x1_Firmware_Library/GD32C2x1_standard_peripheral/Source/gd32c2x1_dma.c:54:0
	.fnstart
	.cfi_sections .debug_frame
	.cfi_startproc
@ %bb.0:
	.save	{r4, r5, r7, lr}
	push	{r4, r5, r7, lr}
	.cfi_def_cfa_offset 16
	.cfi_offset lr, -4
	.cfi_offset r7, -8
	.cfi_offset r5, -12
	.cfi_offset r4, -16
	.pad	#4
	sub	sp, #4
	.cfi_def_cfa_offset 20
	mov	r1, r0
                                        @ kill: def $r0 killed $r1
	mov	r0, sp
	strb	r1, [r0]
.Ltmp0:
	.loc	4 56 5 prologue_end             @ ../std/GD32C2x1_Firmware_Library/GD32C2x1_standard_peripheral/Source/gd32c2x1_dma.c:56:5
	ldrb	r1, [r0]
	movs	r2, #20
	mov	r3, r2
	muls	r3, r1, r3
	ldr	r4, __arm_cp.0_0
	.loc	4 56 25 is_stmt 0               @ ../std/GD32C2x1_Firmware_Library/GD32C2x1_standard_peripheral/Source/gd32c2x1_dma.c:56:25
	ldr	r1, [r3, r4]
	movs	r5, #1
	bics	r1, r5
	str	r1, [r3, r4]
	.loc	4 58 5 is_stmt 1                @ ../std/GD32C2x1_Firmware_Library/GD32C2x1_standard_peripheral/Source/gd32c2x1_dma.c:58:5
	ldrb	r1, [r0]
	mov	r3, r2
	muls	r3, r1, r3
	movs	r1, #0
	.loc	4 58 25 is_stmt 0               @ ../std/GD32C2x1_Firmware_Library/GD32C2x1_standard_peripheral/Source/gd32c2x1_dma.c:58:25
	str	r1, [r3, r4]
	.loc	4 59 5 is_stmt 1                @ ../std/GD32C2x1_Firmware_Library/GD32C2x1_standard_peripheral/Source/gd32c2x1_dma.c:59:5
	ldrb	r4, [r0]
	mov	r3, r2
	muls	r3, r4, r3
	ldr	r4, __arm_cp.0_1
	.loc	4 59 25 is_stmt 0               @ ../std/GD32C2x1_Firmware_Library/GD32C2x1_standard_peripheral/Source/gd32c2x1_dma.c:59:25
	str	r1, [r3, r4]
	.loc	4 60 5 is_stmt 1                @ ../std/GD32C2x1_Firmware_Library/GD32C2x1_standard_peripheral/Source/gd32c2x1_dma.c:60:5
	ldrb	r4, [r0]
	mov	r3, r2
	muls	r3, r4, r3
	ldr	r4, __arm_cp.0_2
	.loc	4 60 27 is_stmt 0               @ ../std/GD32C2x1_Firmware_Library/GD32C2x1_standard_peripheral/Source/gd32c2x1_dma.c:60:27
	str	r1, [r3, r4]
	.loc	4 61 5 is_stmt 1                @ ../std/GD32C2x1_Firmware_Library/GD32C2x1_standard_peripheral/Source/gd32c2x1_dma.c:61:5
	ldrb	r3, [r0]
	muls	r2, r3, r2
	ldr	r3, __arm_cp.0_3
	.loc	4 61 27 is_stmt 0               @ ../std/GD32C2x1_Firmware_Library/GD32C2x1_standard_peripheral/Source/gd32c2x1_dma.c:61:27
	str	r1, [r2, r3]
	.loc	4 62 17 is_stmt 1               @ ../std/GD32C2x1_Firmware_Library/GD32C2x1_standard_peripheral/Source/gd32c2x1_dma.c:62:17
	ldrb	r0, [r0]
	lsls	r0, r0, #2
	movs	r2, #15
	lsls	r2, r0
	ldr	r1, __arm_cp.0_4
	.loc	4 62 14 is_stmt 0               @ ../std/GD32C2x1_Firmware_Library/GD32C2x1_standard_peripheral/Source/gd32c2x1_dma.c:62:14
	ldr	r0, [r1]
	orrs	r0, r2
	str	r0, [r1]
	.loc	4 63 1 is_stmt 1                @ ../std/GD32C2x1_Firmware_Library/GD32C2x1_standard_peripheral/Source/gd32c2x1_dma.c:63:1
	add	sp, #4
	pop	{r4, r5, r7, pc}
.Ltmp1:
	.p2align	2
@ %bb.1:
	.loc	4 0 1 is_stmt 0                 @ ../std/GD32C2x1_Firmware_Library/GD32C2x1_standard_peripheral/Source/gd32c2x1_dma.c:0:1
__arm_cp.0_0:
	.long	1073872904                      @ 0x40020008
.Lcpi_end0:
	.size	__arm_cp.0_0, .Lcpi_end0-__arm_cp.0_0
__arm_cp.0_1:
	.long	1073872908                      @ 0x4002000c
.Lcpi_end1:
	.size	__arm_cp.0_1, .Lcpi_end1-__arm_cp.0_1
__arm_cp.0_2:
	.long	1073872912                      @ 0x40020010
.Lcpi_end2:
	.size	__arm_cp.0_2, .Lcpi_end2-__arm_cp.0_2
__arm_cp.0_3:
	.long	1073872916                      @ 0x40020014
.Lcpi_end3:
	.size	__arm_cp.0_3, .Lcpi_end3-__arm_cp.0_3
__arm_cp.0_4:
	.long	1073872900                      @ 0x40020004
.Lcpi_end4:
	.size	__arm_cp.0_4, .Lcpi_end4-__arm_cp.0_4
.Lfunc_end0:
	.size	dma_deinit, .Lfunc_end0-dma_deinit
	.cfi_endproc
	.cantunwind
	.fnend
                                        @ -- End function
	.section	.text.dma_struct_para_init,"ax",%progbits
	.hidden	dma_struct_para_init            @ -- Begin function dma_struct_para_init
	.globl	dma_struct_para_init
	.p2align	1
	.type	dma_struct_para_init,%function
	.code	16                              @ @dma_struct_para_init
	.thumb_func
dma_struct_para_init:
.Lfunc_begin1:
	.loc	4 72 0 is_stmt 1                @ ../std/GD32C2x1_Firmware_Library/GD32C2x1_standard_peripheral/Source/gd32c2x1_dma.c:72:0
	.fnstart
	.cfi_startproc
@ %bb.0:
	.pad	#4
	sub	sp, #4
	.cfi_def_cfa_offset 4
	str	r0, [sp]
.Ltmp2:
	.loc	4 80 9 prologue_end             @ ../std/GD32C2x1_Firmware_Library/GD32C2x1_standard_peripheral/Source/gd32c2x1_dma.c:80:9
	ldr	r1, [sp]
	movs	r0, #0
	.loc	4 80 35 is_stmt 0               @ ../std/GD32C2x1_Firmware_Library/GD32C2x1_standard_peripheral/Source/gd32c2x1_dma.c:80:35
	str	r0, [r1]
	.loc	4 81 9 is_stmt 1                @ ../std/GD32C2x1_Firmware_Library/GD32C2x1_standard_peripheral/Source/gd32c2x1_dma.c:81:9
	ldr	r1, [sp]
	.loc	4 81 35 is_stmt 0               @ ../std/GD32C2x1_Firmware_Library/GD32C2x1_standard_peripheral/Source/gd32c2x1_dma.c:81:35
	str	r0, [r1, #4]
	.loc	4 82 9 is_stmt 1                @ ../std/GD32C2x1_Firmware_Library/GD32C2x1_standard_peripheral/Source/gd32c2x1_dma.c:82:9
	ldr	r1, [sp]
	.loc	4 82 35 is_stmt 0               @ ../std/GD32C2x1_Firmware_Library/GD32C2x1_standard_peripheral/Source/gd32c2x1_dma.c:82:35
	strb	r0, [r1, #24]
	.loc	4 83 9 is_stmt 1                @ ../std/GD32C2x1_Firmware_Library/GD32C2x1_standard_peripheral/Source/gd32c2x1_dma.c:83:9
	ldr	r1, [sp]
	.loc	4 83 35 is_stmt 0               @ ../std/GD32C2x1_Firmware_Library/GD32C2x1_standard_peripheral/Source/gd32c2x1_dma.c:83:35
	str	r0, [r1, #8]
	.loc	4 84 9 is_stmt 1                @ ../std/GD32C2x1_Firmware_Library/GD32C2x1_standard_peripheral/Source/gd32c2x1_dma.c:84:9
	ldr	r1, [sp]
	.loc	4 84 35 is_stmt 0               @ ../std/GD32C2x1_Firmware_Library/GD32C2x1_standard_peripheral/Source/gd32c2x1_dma.c:84:35
	str	r0, [r1, #12]
	.loc	4 85 9 is_stmt 1                @ ../std/GD32C2x1_Firmware_Library/GD32C2x1_standard_peripheral/Source/gd32c2x1_dma.c:85:9
	ldr	r1, [sp]
	.loc	4 85 35 is_stmt 0               @ ../std/GD32C2x1_Firmware_Library/GD32C2x1_standard_peripheral/Source/gd32c2x1_dma.c:85:35
	strb	r0, [r1, #25]
	.loc	4 86 9 is_stmt 1                @ ../std/GD32C2x1_Firmware_Library/GD32C2x1_standard_peripheral/Source/gd32c2x1_dma.c:86:9
	ldr	r1, [sp]
	.loc	4 86 35 is_stmt 0               @ ../std/GD32C2x1_Firmware_Library/GD32C2x1_standard_peripheral/Source/gd32c2x1_dma.c:86:35
	str	r0, [r1, #16]
	.loc	4 87 9 is_stmt 1                @ ../std/GD32C2x1_Firmware_Library/GD32C2x1_standard_peripheral/Source/gd32c2x1_dma.c:87:9
	ldr	r1, [sp]
	.loc	4 87 35 is_stmt 0               @ ../std/GD32C2x1_Firmware_Library/GD32C2x1_standard_peripheral/Source/gd32c2x1_dma.c:87:35
	strb	r0, [r1, #26]
	.loc	4 88 9 is_stmt 1                @ ../std/GD32C2x1_Firmware_Library/GD32C2x1_standard_peripheral/Source/gd32c2x1_dma.c:88:9
	ldr	r1, [sp]
	.loc	4 88 35 is_stmt 0               @ ../std/GD32C2x1_Firmware_Library/GD32C2x1_standard_peripheral/Source/gd32c2x1_dma.c:88:35
	str	r0, [r1, #20]
	.loc	4 89 9 is_stmt 1                @ ../std/GD32C2x1_Firmware_Library/GD32C2x1_standard_peripheral/Source/gd32c2x1_dma.c:89:9
	ldr	r1, [sp]
	.loc	4 89 35 is_stmt 0               @ ../std/GD32C2x1_Firmware_Library/GD32C2x1_standard_peripheral/Source/gd32c2x1_dma.c:89:35
	str	r0, [r1, #28]
.Ltmp3:
	.loc	4 91 1 is_stmt 1                @ ../std/GD32C2x1_Firmware_Library/GD32C2x1_standard_peripheral/Source/gd32c2x1_dma.c:91:1
	add	sp, #4
	bx	lr
.Ltmp4:
.Lfunc_end1:
	.size	dma_struct_para_init, .Lfunc_end1-dma_struct_para_init
	.cfi_endproc
	.cantunwind
	.fnend
                                        @ -- End function
	.section	.text.dma_init,"ax",%progbits
	.hidden	dma_init                        @ -- Begin function dma_init
	.globl	dma_init
	.p2align	2
	.type	dma_init,%function
	.code	16                              @ @dma_init
	.thumb_func
dma_init:
.Lfunc_begin2:
	.loc	4 147 0                         @ ../std/GD32C2x1_Firmware_Library/GD32C2x1_standard_peripheral/Source/gd32c2x1_dma.c:147:0
	.fnstart
	.cfi_startproc
@ %bb.0:
	.save	{r4, r5, r6, lr}
	push	{r4, r5, r6, lr}
	.cfi_def_cfa_offset 16
	.cfi_offset lr, -4
	.cfi_offset r6, -8
	.cfi_offset r5, -12
	.cfi_offset r4, -16
	.pad	#16
	sub	sp, #16
	.cfi_def_cfa_offset 32
	mov	r2, r0
                                        @ kill: def $r0 killed $r2
	add	r0, sp, #12
	str	r0, [sp]                        @ 4-byte Spill
	strb	r2, [r0]
	str	r1, [sp, #8]
.Ltmp5:
	.loc	4 155 29 prologue_end           @ ../std/GD32C2x1_Firmware_Library/GD32C2x1_standard_peripheral/Source/gd32c2x1_dma.c:155:29
	ldrb	r0, [r0]
	.loc	4 155 9 is_stmt 0               @ ../std/GD32C2x1_Firmware_Library/GD32C2x1_standard_peripheral/Source/gd32c2x1_dma.c:155:9
	bl	dma_channel_disable
	ldr	r3, [sp]                        @ 4-byte Reload
	.loc	4 158 33 is_stmt 1              @ ../std/GD32C2x1_Firmware_Library/GD32C2x1_standard_peripheral/Source/gd32c2x1_dma.c:158:33
	ldr	r0, [sp, #8]
	.loc	4 158 46 is_stmt 0              @ ../std/GD32C2x1_Firmware_Library/GD32C2x1_standard_peripheral/Source/gd32c2x1_dma.c:158:46
	ldr	r0, [r0]
	.loc	4 158 9                         @ ../std/GD32C2x1_Firmware_Library/GD32C2x1_standard_peripheral/Source/gd32c2x1_dma.c:158:9
	ldrb	r4, [r3]
	movs	r1, #20
	mov	r2, r1
	muls	r2, r4, r2
	ldr	r4, __arm_cp.2_0
	.loc	4 158 31                        @ ../std/GD32C2x1_Firmware_Library/GD32C2x1_standard_peripheral/Source/gd32c2x1_dma.c:158:31
	str	r0, [r2, r4]
	.loc	4 161 33 is_stmt 1              @ ../std/GD32C2x1_Firmware_Library/GD32C2x1_standard_peripheral/Source/gd32c2x1_dma.c:161:33
	ldr	r0, [sp, #8]
	.loc	4 161 46 is_stmt 0              @ ../std/GD32C2x1_Firmware_Library/GD32C2x1_standard_peripheral/Source/gd32c2x1_dma.c:161:46
	ldr	r0, [r0, #8]
	.loc	4 161 9                         @ ../std/GD32C2x1_Firmware_Library/GD32C2x1_standard_peripheral/Source/gd32c2x1_dma.c:161:9
	ldrb	r4, [r3]
	mov	r2, r1
	muls	r2, r4, r2
	ldr	r4, __arm_cp.2_1
	.loc	4 161 31                        @ ../std/GD32C2x1_Firmware_Library/GD32C2x1_standard_peripheral/Source/gd32c2x1_dma.c:161:31
	str	r0, [r2, r4]
	.loc	4 164 32 is_stmt 1              @ ../std/GD32C2x1_Firmware_Library/GD32C2x1_standard_peripheral/Source/gd32c2x1_dma.c:164:32
	ldr	r0, [sp, #8]
	.loc	4 164 45 is_stmt 0              @ ../std/GD32C2x1_Firmware_Library/GD32C2x1_standard_peripheral/Source/gd32c2x1_dma.c:164:45
	ldrh	r0, [r0, #16]
	.loc	4 164 9                         @ ../std/GD32C2x1_Firmware_Library/GD32C2x1_standard_peripheral/Source/gd32c2x1_dma.c:164:9
	ldrb	r4, [r3]
	mov	r2, r1
	muls	r2, r4, r2
	ldr	r4, __arm_cp.2_2
	.loc	4 164 29                        @ ../std/GD32C2x1_Firmware_Library/GD32C2x1_standard_peripheral/Source/gd32c2x1_dma.c:164:29
	str	r0, [r2, r4]
	.loc	4 167 15 is_stmt 1              @ ../std/GD32C2x1_Firmware_Library/GD32C2x1_standard_peripheral/Source/gd32c2x1_dma.c:167:15
	ldrb	r2, [r3]
	mov	r0, r1
	muls	r0, r2, r0
	ldr	r2, __arm_cp.2_3
	ldr	r0, [r0, r2]
	.loc	4 167 13 is_stmt 0              @ ../std/GD32C2x1_Firmware_Library/GD32C2x1_standard_peripheral/Source/gd32c2x1_dma.c:167:13
	str	r0, [sp, #4]
	.loc	4 168 13 is_stmt 1              @ ../std/GD32C2x1_Firmware_Library/GD32C2x1_standard_peripheral/Source/gd32c2x1_dma.c:168:13
	ldr	r0, [sp, #4]
	movw	r4, #16128
	bics	r0, r4
	str	r0, [sp, #4]
	.loc	4 169 18                        @ ../std/GD32C2x1_Firmware_Library/GD32C2x1_standard_peripheral/Source/gd32c2x1_dma.c:169:18
	ldr	r4, [sp, #8]
	.loc	4 169 31 is_stmt 0              @ ../std/GD32C2x1_Firmware_Library/GD32C2x1_standard_peripheral/Source/gd32c2x1_dma.c:169:31
	ldr	r0, [r4, #12]
	movw	r5, #3072
	.loc	4 169 44                        @ ../std/GD32C2x1_Firmware_Library/GD32C2x1_standard_peripheral/Source/gd32c2x1_dma.c:169:44
	ands	r0, r5
	.loc	4 169 81                        @ ../std/GD32C2x1_Firmware_Library/GD32C2x1_standard_peripheral/Source/gd32c2x1_dma.c:169:81
	ldr	r5, [r4, #4]
	movw	r6, #768
	.loc	4 169 94                        @ ../std/GD32C2x1_Firmware_Library/GD32C2x1_standard_peripheral/Source/gd32c2x1_dma.c:169:94
	ands	r5, r6
	.loc	4 169 65                        @ ../std/GD32C2x1_Firmware_Library/GD32C2x1_standard_peripheral/Source/gd32c2x1_dma.c:169:65
	adds	r0, r0, r5
	.loc	4 169 132                       @ ../std/GD32C2x1_Firmware_Library/GD32C2x1_standard_peripheral/Source/gd32c2x1_dma.c:169:132
	ldr	r4, [r4, #20]
	movw	r5, #12288
	.loc	4 169 141                       @ ../std/GD32C2x1_Firmware_Library/GD32C2x1_standard_peripheral/Source/gd32c2x1_dma.c:169:141
	ands	r4, r5
	.loc	4 169 116                       @ ../std/GD32C2x1_Firmware_Library/GD32C2x1_standard_peripheral/Source/gd32c2x1_dma.c:169:116
	adds	r4, r0, r4
	.loc	4 169 13                        @ ../std/GD32C2x1_Firmware_Library/GD32C2x1_standard_peripheral/Source/gd32c2x1_dma.c:169:13
	ldr	r0, [sp, #4]
	orrs	r0, r4
	str	r0, [sp, #4]
	.loc	4 170 31 is_stmt 1              @ ../std/GD32C2x1_Firmware_Library/GD32C2x1_standard_peripheral/Source/gd32c2x1_dma.c:170:31
	ldr	r0, [sp, #4]
	.loc	4 170 9 is_stmt 0               @ ../std/GD32C2x1_Firmware_Library/GD32C2x1_standard_peripheral/Source/gd32c2x1_dma.c:170:9
	ldrb	r3, [r3]
	muls	r1, r3, r1
	.loc	4 170 29                        @ ../std/GD32C2x1_Firmware_Library/GD32C2x1_standard_peripheral/Source/gd32c2x1_dma.c:170:29
	str	r0, [r1, r2]
.Ltmp6:
	.loc	4 173 42 is_stmt 1              @ ../std/GD32C2x1_Firmware_Library/GD32C2x1_standard_peripheral/Source/gd32c2x1_dma.c:173:42
	ldr	r0, [sp, #8]
	.loc	4 173 55 is_stmt 0              @ ../std/GD32C2x1_Firmware_Library/GD32C2x1_standard_peripheral/Source/gd32c2x1_dma.c:173:55
	ldrb	r0, [r0, #24]
.Ltmp7:
	.loc	4 173 12                        @ ../std/GD32C2x1_Firmware_Library/GD32C2x1_standard_peripheral/Source/gd32c2x1_dma.c:173:12
	cmp	r0, #1
	bne	.LBB2_2
	b	.LBB2_1
.LBB2_1:
	.loc	4 0 12                          @ ../std/GD32C2x1_Firmware_Library/GD32C2x1_standard_peripheral/Source/gd32c2x1_dma.c:0:12
	add	r0, sp, #12
.Ltmp8:
	.loc	4 174 13 is_stmt 1              @ ../std/GD32C2x1_Firmware_Library/GD32C2x1_standard_peripheral/Source/gd32c2x1_dma.c:174:13
	ldrb	r0, [r0]
	movs	r1, #20
	muls	r1, r0, r1
	ldr	r2, __arm_cp.2_3
	.loc	4 174 33 is_stmt 0              @ ../std/GD32C2x1_Firmware_Library/GD32C2x1_standard_peripheral/Source/gd32c2x1_dma.c:174:33
	ldr	r0, [r1, r2]
	movs	r3, #64
	orrs	r0, r3
	str	r0, [r1, r2]
	.loc	4 175 9 is_stmt 1               @ ../std/GD32C2x1_Firmware_Library/GD32C2x1_standard_peripheral/Source/gd32c2x1_dma.c:175:9
	b	.LBB2_3
.Ltmp9:
.LBB2_2:
	.loc	4 0 9 is_stmt 0                 @ ../std/GD32C2x1_Firmware_Library/GD32C2x1_standard_peripheral/Source/gd32c2x1_dma.c:0:9
	add	r0, sp, #12
.Ltmp10:
	.loc	4 176 13 is_stmt 1              @ ../std/GD32C2x1_Firmware_Library/GD32C2x1_standard_peripheral/Source/gd32c2x1_dma.c:176:13
	ldrb	r0, [r0]
	movs	r1, #20
	muls	r1, r0, r1
	ldr	r2, __arm_cp.2_3
	.loc	4 176 33 is_stmt 0              @ ../std/GD32C2x1_Firmware_Library/GD32C2x1_standard_peripheral/Source/gd32c2x1_dma.c:176:33
	ldr	r0, [r1, r2]
	movs	r3, #64
	bics	r0, r3
	str	r0, [r1, r2]
	b	.LBB2_3
.Ltmp11:
.LBB2_3:
	.loc	4 180 42 is_stmt 1              @ ../std/GD32C2x1_Firmware_Library/GD32C2x1_standard_peripheral/Source/gd32c2x1_dma.c:180:42
	ldr	r0, [sp, #8]
	.loc	4 180 55 is_stmt 0              @ ../std/GD32C2x1_Firmware_Library/GD32C2x1_standard_peripheral/Source/gd32c2x1_dma.c:180:55
	ldrb	r0, [r0, #25]
.Ltmp12:
	.loc	4 180 12                        @ ../std/GD32C2x1_Firmware_Library/GD32C2x1_standard_peripheral/Source/gd32c2x1_dma.c:180:12
	cmp	r0, #1
	bne	.LBB2_5
	b	.LBB2_4
.LBB2_4:
	.loc	4 0 12                          @ ../std/GD32C2x1_Firmware_Library/GD32C2x1_standard_peripheral/Source/gd32c2x1_dma.c:0:12
	add	r0, sp, #12
.Ltmp13:
	.loc	4 181 13 is_stmt 1              @ ../std/GD32C2x1_Firmware_Library/GD32C2x1_standard_peripheral/Source/gd32c2x1_dma.c:181:13
	ldrb	r0, [r0]
	movs	r1, #20
	muls	r1, r0, r1
	ldr	r2, __arm_cp.2_3
	.loc	4 181 33 is_stmt 0              @ ../std/GD32C2x1_Firmware_Library/GD32C2x1_standard_peripheral/Source/gd32c2x1_dma.c:181:33
	ldr	r0, [r1, r2]
	movs	r3, #128
	orrs	r0, r3
	str	r0, [r1, r2]
	.loc	4 182 9 is_stmt 1               @ ../std/GD32C2x1_Firmware_Library/GD32C2x1_standard_peripheral/Source/gd32c2x1_dma.c:182:9
	b	.LBB2_6
.Ltmp14:
.LBB2_5:
	.loc	4 0 9 is_stmt 0                 @ ../std/GD32C2x1_Firmware_Library/GD32C2x1_standard_peripheral/Source/gd32c2x1_dma.c:0:9
	add	r0, sp, #12
.Ltmp15:
	.loc	4 183 13 is_stmt 1              @ ../std/GD32C2x1_Firmware_Library/GD32C2x1_standard_peripheral/Source/gd32c2x1_dma.c:183:13
	ldrb	r0, [r0]
	movs	r1, #20
	muls	r1, r0, r1
	ldr	r2, __arm_cp.2_3
	.loc	4 183 33 is_stmt 0              @ ../std/GD32C2x1_Firmware_Library/GD32C2x1_standard_peripheral/Source/gd32c2x1_dma.c:183:33
	ldr	r0, [r1, r2]
	movs	r3, #128
	bics	r0, r3
	str	r0, [r1, r2]
	b	.LBB2_6
.Ltmp16:
.LBB2_6:
	.loc	4 187 40 is_stmt 1              @ ../std/GD32C2x1_Firmware_Library/GD32C2x1_standard_peripheral/Source/gd32c2x1_dma.c:187:40
	ldr	r0, [sp, #8]
	.loc	4 187 53 is_stmt 0              @ ../std/GD32C2x1_Firmware_Library/GD32C2x1_standard_peripheral/Source/gd32c2x1_dma.c:187:53
	ldrb	r0, [r0, #26]
.Ltmp17:
	.loc	4 187 12                        @ ../std/GD32C2x1_Firmware_Library/GD32C2x1_standard_peripheral/Source/gd32c2x1_dma.c:187:12
	cbnz	r0, .LBB2_8
	b	.LBB2_7
.LBB2_7:
	.loc	4 0 12                          @ ../std/GD32C2x1_Firmware_Library/GD32C2x1_standard_peripheral/Source/gd32c2x1_dma.c:0:12
	add	r0, sp, #12
.Ltmp18:
	.loc	4 188 13 is_stmt 1              @ ../std/GD32C2x1_Firmware_Library/GD32C2x1_standard_peripheral/Source/gd32c2x1_dma.c:188:13
	ldrb	r0, [r0]
	movs	r1, #20
	muls	r1, r0, r1
	ldr	r2, __arm_cp.2_3
	.loc	4 188 33 is_stmt 0              @ ../std/GD32C2x1_Firmware_Library/GD32C2x1_standard_peripheral/Source/gd32c2x1_dma.c:188:33
	ldr	r0, [r1, r2]
	movs	r3, #16
	bics	r0, r3
	str	r0, [r1, r2]
	.loc	4 189 9 is_stmt 1               @ ../std/GD32C2x1_Firmware_Library/GD32C2x1_standard_peripheral/Source/gd32c2x1_dma.c:189:9
	b	.LBB2_9
.Ltmp19:
.LBB2_8:
	.loc	4 0 9 is_stmt 0                 @ ../std/GD32C2x1_Firmware_Library/GD32C2x1_standard_peripheral/Source/gd32c2x1_dma.c:0:9
	add	r0, sp, #12
.Ltmp20:
	.loc	4 190 13 is_stmt 1              @ ../std/GD32C2x1_Firmware_Library/GD32C2x1_standard_peripheral/Source/gd32c2x1_dma.c:190:13
	ldrb	r0, [r0]
	movs	r1, #20
	muls	r1, r0, r1
	ldr	r2, __arm_cp.2_3
	.loc	4 190 33 is_stmt 0              @ ../std/GD32C2x1_Firmware_Library/GD32C2x1_standard_peripheral/Source/gd32c2x1_dma.c:190:33
	ldr	r0, [r1, r2]
	movs	r3, #16
	orrs	r0, r3
	str	r0, [r1, r2]
	b	.LBB2_9
.Ltmp21:
.LBB2_9:
	.loc	4 0 33                          @ ../std/GD32C2x1_Firmware_Library/GD32C2x1_standard_peripheral/Source/gd32c2x1_dma.c:0:33
	add	r0, sp, #12
	.loc	4 193 9 is_stmt 1               @ ../std/GD32C2x1_Firmware_Library/GD32C2x1_standard_peripheral/Source/gd32c2x1_dma.c:193:9
	ldrb	r1, [r0]
	lsls	r4, r1, #2
	ldr	r2, __arm_cp.2_4
	.loc	4 193 36 is_stmt 0              @ ../std/GD32C2x1_Firmware_Library/GD32C2x1_standard_peripheral/Source/gd32c2x1_dma.c:193:36
	ldr	r3, [r4, r2]
	movs	r1, #63
	bics	r3, r1
	str	r3, [r4, r2]
	.loc	4 194 40 is_stmt 1              @ ../std/GD32C2x1_Firmware_Library/GD32C2x1_standard_peripheral/Source/gd32c2x1_dma.c:194:40
	ldr	r3, [sp, #8]
	.loc	4 194 53 is_stmt 0              @ ../std/GD32C2x1_Firmware_Library/GD32C2x1_standard_peripheral/Source/gd32c2x1_dma.c:194:53
	ldr	r3, [r3, #28]
	.loc	4 194 61                        @ ../std/GD32C2x1_Firmware_Library/GD32C2x1_standard_peripheral/Source/gd32c2x1_dma.c:194:61
	ands	r3, r1
	.loc	4 194 9                         @ ../std/GD32C2x1_Firmware_Library/GD32C2x1_standard_peripheral/Source/gd32c2x1_dma.c:194:9
	ldrb	r0, [r0]
	lsls	r1, r0, #2
	.loc	4 194 36                        @ ../std/GD32C2x1_Firmware_Library/GD32C2x1_standard_peripheral/Source/gd32c2x1_dma.c:194:36
	ldr	r0, [r1, r2]
	orrs	r0, r3
	str	r0, [r1, r2]
.Ltmp22:
	.loc	4 196 1 is_stmt 1               @ ../std/GD32C2x1_Firmware_Library/GD32C2x1_standard_peripheral/Source/gd32c2x1_dma.c:196:1
	add	sp, #16
	pop	{r4, r5, r6, pc}
.Ltmp23:
	.p2align	2
@ %bb.10:
	.loc	4 0 1 is_stmt 0                 @ ../std/GD32C2x1_Firmware_Library/GD32C2x1_standard_peripheral/Source/gd32c2x1_dma.c:0:1
__arm_cp.2_0:
	.long	1073872912                      @ 0x40020010
.Lcpi_end5:
	.size	__arm_cp.2_0, .Lcpi_end5-__arm_cp.2_0
__arm_cp.2_1:
	.long	1073872916                      @ 0x40020014
.Lcpi_end6:
	.size	__arm_cp.2_1, .Lcpi_end6-__arm_cp.2_1
__arm_cp.2_2:
	.long	1073872908                      @ 0x4002000c
.Lcpi_end7:
	.size	__arm_cp.2_2, .Lcpi_end7-__arm_cp.2_2
__arm_cp.2_3:
	.long	1073872904                      @ 0x40020008
.Lcpi_end8:
	.size	__arm_cp.2_3, .Lcpi_end8-__arm_cp.2_3
__arm_cp.2_4:
	.long	1073874944                      @ 0x40020800
.Lcpi_end9:
	.size	__arm_cp.2_4, .Lcpi_end9-__arm_cp.2_4
.Lfunc_end2:
	.size	dma_init, .Lfunc_end2-dma_init
	.cfi_endproc
	.cantunwind
	.fnend
                                        @ -- End function
	.section	.text.dma_channel_disable,"ax",%progbits
	.hidden	dma_channel_disable             @ -- Begin function dma_channel_disable
	.globl	dma_channel_disable
	.p2align	2
	.type	dma_channel_disable,%function
	.code	16                              @ @dma_channel_disable
	.thumb_func
dma_channel_disable:
.Lfunc_begin3:
	.loc	4 273 0 is_stmt 1               @ ../std/GD32C2x1_Firmware_Library/GD32C2x1_standard_peripheral/Source/gd32c2x1_dma.c:273:0
	.fnstart
	.cfi_startproc
@ %bb.0:
	.pad	#4
	sub	sp, #4
	.cfi_def_cfa_offset 4
	mov	r1, r0
                                        @ kill: def $r0 killed $r1
	mov	r0, sp
	strb	r1, [r0]
.Ltmp24:
	.loc	4 274 5 prologue_end            @ ../std/GD32C2x1_Firmware_Library/GD32C2x1_standard_peripheral/Source/gd32c2x1_dma.c:274:5
	ldrb	r0, [r0]
	movs	r1, #20
	muls	r1, r0, r1
	ldr	r2, __arm_cp.3_0
	.loc	4 274 25 is_stmt 0              @ ../std/GD32C2x1_Firmware_Library/GD32C2x1_standard_peripheral/Source/gd32c2x1_dma.c:274:25
	ldr	r0, [r1, r2]
	movs	r3, #1
	bics	r0, r3
	str	r0, [r1, r2]
	.loc	4 275 1 is_stmt 1               @ ../std/GD32C2x1_Firmware_Library/GD32C2x1_standard_peripheral/Source/gd32c2x1_dma.c:275:1
	add	sp, #4
	bx	lr
.Ltmp25:
	.p2align	2
@ %bb.1:
	.loc	4 0 1 is_stmt 0                 @ ../std/GD32C2x1_Firmware_Library/GD32C2x1_standard_peripheral/Source/gd32c2x1_dma.c:0:1
__arm_cp.3_0:
	.long	1073872904                      @ 0x40020008
.Lcpi_end10:
	.size	__arm_cp.3_0, .Lcpi_end10-__arm_cp.3_0
.Lfunc_end3:
	.size	dma_channel_disable, .Lfunc_end3-dma_channel_disable
	.cfi_endproc
	.cantunwind
	.fnend
                                        @ -- End function
	.section	.text.dma_circulation_enable,"ax",%progbits
	.hidden	dma_circulation_enable          @ -- Begin function dma_circulation_enable
	.globl	dma_circulation_enable
	.p2align	2
	.type	dma_circulation_enable,%function
	.code	16                              @ @dma_circulation_enable
	.thumb_func
dma_circulation_enable:
.Lfunc_begin4:
	.loc	4 207 0 is_stmt 1               @ ../std/GD32C2x1_Firmware_Library/GD32C2x1_standard_peripheral/Source/gd32c2x1_dma.c:207:0
	.fnstart
	.cfi_startproc
@ %bb.0:
	.pad	#4
	sub	sp, #4
	.cfi_def_cfa_offset 4
	mov	r1, r0
                                        @ kill: def $r0 killed $r1
	mov	r0, sp
	strb	r1, [r0]
.Ltmp26:
	.loc	4 208 5 prologue_end            @ ../std/GD32C2x1_Firmware_Library/GD32C2x1_standard_peripheral/Source/gd32c2x1_dma.c:208:5
	ldrb	r0, [r0]
	movs	r1, #20
	muls	r1, r0, r1
	ldr	r2, __arm_cp.4_0
	.loc	4 208 25 is_stmt 0              @ ../std/GD32C2x1_Firmware_Library/GD32C2x1_standard_peripheral/Source/gd32c2x1_dma.c:208:25
	ldr	r0, [r1, r2]
	movs	r3, #32
	orrs	r0, r3
	str	r0, [r1, r2]
	.loc	4 209 1 is_stmt 1               @ ../std/GD32C2x1_Firmware_Library/GD32C2x1_standard_peripheral/Source/gd32c2x1_dma.c:209:1
	add	sp, #4
	bx	lr
.Ltmp27:
	.p2align	2
@ %bb.1:
	.loc	4 0 1 is_stmt 0                 @ ../std/GD32C2x1_Firmware_Library/GD32C2x1_standard_peripheral/Source/gd32c2x1_dma.c:0:1
__arm_cp.4_0:
	.long	1073872904                      @ 0x40020008
.Lcpi_end11:
	.size	__arm_cp.4_0, .Lcpi_end11-__arm_cp.4_0
.Lfunc_end4:
	.size	dma_circulation_enable, .Lfunc_end4-dma_circulation_enable
	.cfi_endproc
	.cantunwind
	.fnend
                                        @ -- End function
	.section	.text.dma_circulation_disable,"ax",%progbits
	.hidden	dma_circulation_disable         @ -- Begin function dma_circulation_disable
	.globl	dma_circulation_disable
	.p2align	2
	.type	dma_circulation_disable,%function
	.code	16                              @ @dma_circulation_disable
	.thumb_func
dma_circulation_disable:
.Lfunc_begin5:
	.loc	4 220 0 is_stmt 1               @ ../std/GD32C2x1_Firmware_Library/GD32C2x1_standard_peripheral/Source/gd32c2x1_dma.c:220:0
	.fnstart
	.cfi_startproc
@ %bb.0:
	.pad	#4
	sub	sp, #4
	.cfi_def_cfa_offset 4
	mov	r1, r0
                                        @ kill: def $r0 killed $r1
	mov	r0, sp
	strb	r1, [r0]
.Ltmp28:
	.loc	4 222 5 prologue_end            @ ../std/GD32C2x1_Firmware_Library/GD32C2x1_standard_peripheral/Source/gd32c2x1_dma.c:222:5
	ldrb	r0, [r0]
	movs	r1, #20
	muls	r1, r0, r1
	ldr	r2, __arm_cp.5_0
	.loc	4 222 25 is_stmt 0              @ ../std/GD32C2x1_Firmware_Library/GD32C2x1_standard_peripheral/Source/gd32c2x1_dma.c:222:25
	ldr	r0, [r1, r2]
	movs	r3, #32
	bics	r0, r3
	str	r0, [r1, r2]
	.loc	4 223 1 is_stmt 1               @ ../std/GD32C2x1_Firmware_Library/GD32C2x1_standard_peripheral/Source/gd32c2x1_dma.c:223:1
	add	sp, #4
	bx	lr
.Ltmp29:
	.p2align	2
@ %bb.1:
	.loc	4 0 1 is_stmt 0                 @ ../std/GD32C2x1_Firmware_Library/GD32C2x1_standard_peripheral/Source/gd32c2x1_dma.c:0:1
__arm_cp.5_0:
	.long	1073872904                      @ 0x40020008
.Lcpi_end12:
	.size	__arm_cp.5_0, .Lcpi_end12-__arm_cp.5_0
.Lfunc_end5:
	.size	dma_circulation_disable, .Lfunc_end5-dma_circulation_disable
	.cfi_endproc
	.cantunwind
	.fnend
                                        @ -- End function
	.section	.text.dma_memory_to_memory_enable,"ax",%progbits
	.hidden	dma_memory_to_memory_enable     @ -- Begin function dma_memory_to_memory_enable
	.globl	dma_memory_to_memory_enable
	.p2align	2
	.type	dma_memory_to_memory_enable,%function
	.code	16                              @ @dma_memory_to_memory_enable
	.thumb_func
dma_memory_to_memory_enable:
.Lfunc_begin6:
	.loc	4 234 0 is_stmt 1               @ ../std/GD32C2x1_Firmware_Library/GD32C2x1_standard_peripheral/Source/gd32c2x1_dma.c:234:0
	.fnstart
	.cfi_startproc
@ %bb.0:
	.pad	#4
	sub	sp, #4
	.cfi_def_cfa_offset 4
	mov	r1, r0
                                        @ kill: def $r0 killed $r1
	mov	r0, sp
	strb	r1, [r0]
.Ltmp30:
	.loc	4 235 5 prologue_end            @ ../std/GD32C2x1_Firmware_Library/GD32C2x1_standard_peripheral/Source/gd32c2x1_dma.c:235:5
	ldrb	r0, [r0]
	movs	r1, #20
	muls	r1, r0, r1
	ldr	r2, __arm_cp.6_0
	.loc	4 235 25 is_stmt 0              @ ../std/GD32C2x1_Firmware_Library/GD32C2x1_standard_peripheral/Source/gd32c2x1_dma.c:235:25
	ldr	r0, [r1, r2]
	movw	r3, #16384
	orrs	r0, r3
	str	r0, [r1, r2]
	.loc	4 236 1 is_stmt 1               @ ../std/GD32C2x1_Firmware_Library/GD32C2x1_standard_peripheral/Source/gd32c2x1_dma.c:236:1
	add	sp, #4
	bx	lr
.Ltmp31:
	.p2align	2
@ %bb.1:
	.loc	4 0 1 is_stmt 0                 @ ../std/GD32C2x1_Firmware_Library/GD32C2x1_standard_peripheral/Source/gd32c2x1_dma.c:0:1
__arm_cp.6_0:
	.long	1073872904                      @ 0x40020008
.Lcpi_end13:
	.size	__arm_cp.6_0, .Lcpi_end13-__arm_cp.6_0
.Lfunc_end6:
	.size	dma_memory_to_memory_enable, .Lfunc_end6-dma_memory_to_memory_enable
	.cfi_endproc
	.cantunwind
	.fnend
                                        @ -- End function
	.section	.text.dma_memory_to_memory_disable,"ax",%progbits
	.hidden	dma_memory_to_memory_disable    @ -- Begin function dma_memory_to_memory_disable
	.globl	dma_memory_to_memory_disable
	.p2align	2
	.type	dma_memory_to_memory_disable,%function
	.code	16                              @ @dma_memory_to_memory_disable
	.thumb_func
dma_memory_to_memory_disable:
.Lfunc_begin7:
	.loc	4 247 0 is_stmt 1               @ ../std/GD32C2x1_Firmware_Library/GD32C2x1_standard_peripheral/Source/gd32c2x1_dma.c:247:0
	.fnstart
	.cfi_startproc
@ %bb.0:
	.pad	#4
	sub	sp, #4
	.cfi_def_cfa_offset 4
	mov	r1, r0
                                        @ kill: def $r0 killed $r1
	mov	r0, sp
	strb	r1, [r0]
.Ltmp32:
	.loc	4 248 5 prologue_end            @ ../std/GD32C2x1_Firmware_Library/GD32C2x1_standard_peripheral/Source/gd32c2x1_dma.c:248:5
	ldrb	r0, [r0]
	movs	r1, #20
	muls	r1, r0, r1
	ldr	r2, __arm_cp.7_0
	.loc	4 248 25 is_stmt 0              @ ../std/GD32C2x1_Firmware_Library/GD32C2x1_standard_peripheral/Source/gd32c2x1_dma.c:248:25
	ldr	r0, [r1, r2]
	movw	r3, #16384
	bics	r0, r3
	str	r0, [r1, r2]
	.loc	4 249 1 is_stmt 1               @ ../std/GD32C2x1_Firmware_Library/GD32C2x1_standard_peripheral/Source/gd32c2x1_dma.c:249:1
	add	sp, #4
	bx	lr
.Ltmp33:
	.p2align	2
@ %bb.1:
	.loc	4 0 1 is_stmt 0                 @ ../std/GD32C2x1_Firmware_Library/GD32C2x1_standard_peripheral/Source/gd32c2x1_dma.c:0:1
__arm_cp.7_0:
	.long	1073872904                      @ 0x40020008
.Lcpi_end14:
	.size	__arm_cp.7_0, .Lcpi_end14-__arm_cp.7_0
.Lfunc_end7:
	.size	dma_memory_to_memory_disable, .Lfunc_end7-dma_memory_to_memory_disable
	.cfi_endproc
	.cantunwind
	.fnend
                                        @ -- End function
	.section	.text.dma_channel_enable,"ax",%progbits
	.hidden	dma_channel_enable              @ -- Begin function dma_channel_enable
	.globl	dma_channel_enable
	.p2align	2
	.type	dma_channel_enable,%function
	.code	16                              @ @dma_channel_enable
	.thumb_func
dma_channel_enable:
.Lfunc_begin8:
	.loc	4 260 0 is_stmt 1               @ ../std/GD32C2x1_Firmware_Library/GD32C2x1_standard_peripheral/Source/gd32c2x1_dma.c:260:0
	.fnstart
	.cfi_startproc
@ %bb.0:
	.pad	#4
	sub	sp, #4
	.cfi_def_cfa_offset 4
	mov	r1, r0
                                        @ kill: def $r0 killed $r1
	mov	r0, sp
	strb	r1, [r0]
.Ltmp34:
	.loc	4 261 5 prologue_end            @ ../std/GD32C2x1_Firmware_Library/GD32C2x1_standard_peripheral/Source/gd32c2x1_dma.c:261:5
	ldrb	r0, [r0]
	movs	r1, #20
	muls	r1, r0, r1
	ldr	r2, __arm_cp.8_0
	.loc	4 261 25 is_stmt 0              @ ../std/GD32C2x1_Firmware_Library/GD32C2x1_standard_peripheral/Source/gd32c2x1_dma.c:261:25
	ldr	r0, [r1, r2]
	movs	r3, #1
	orrs	r0, r3
	str	r0, [r1, r2]
	.loc	4 262 1 is_stmt 1               @ ../std/GD32C2x1_Firmware_Library/GD32C2x1_standard_peripheral/Source/gd32c2x1_dma.c:262:1
	add	sp, #4
	bx	lr
.Ltmp35:
	.p2align	2
@ %bb.1:
	.loc	4 0 1 is_stmt 0                 @ ../std/GD32C2x1_Firmware_Library/GD32C2x1_standard_peripheral/Source/gd32c2x1_dma.c:0:1
__arm_cp.8_0:
	.long	1073872904                      @ 0x40020008
.Lcpi_end15:
	.size	__arm_cp.8_0, .Lcpi_end15-__arm_cp.8_0
.Lfunc_end8:
	.size	dma_channel_enable, .Lfunc_end8-dma_channel_enable
	.cfi_endproc
	.cantunwind
	.fnend
                                        @ -- End function
	.section	.text.dma_periph_address_config,"ax",%progbits
	.hidden	dma_periph_address_config       @ -- Begin function dma_periph_address_config
	.globl	dma_periph_address_config
	.p2align	2
	.type	dma_periph_address_config,%function
	.code	16                              @ @dma_periph_address_config
	.thumb_func
dma_periph_address_config:
.Lfunc_begin9:
	.loc	4 287 0 is_stmt 1               @ ../std/GD32C2x1_Firmware_Library/GD32C2x1_standard_peripheral/Source/gd32c2x1_dma.c:287:0
	.fnstart
	.cfi_startproc
@ %bb.0:
	.pad	#12
	sub	sp, #12
	.cfi_def_cfa_offset 12
	str	r1, [sp]                        @ 4-byte Spill
	mov	r2, r0
	ldr	r0, [sp]                        @ 4-byte Reload
                                        @ kill: def $r1 killed $r2
	add	r1, sp, #8
	strb	r2, [r1]
	str	r0, [sp, #4]
.Ltmp36:
	.loc	4 288 29 prologue_end           @ ../std/GD32C2x1_Firmware_Library/GD32C2x1_standard_peripheral/Source/gd32c2x1_dma.c:288:29
	ldr	r0, [sp, #4]
	.loc	4 288 5 is_stmt 0               @ ../std/GD32C2x1_Firmware_Library/GD32C2x1_standard_peripheral/Source/gd32c2x1_dma.c:288:5
	ldrb	r2, [r1]
	movs	r1, #20
	muls	r1, r2, r1
	ldr	r2, __arm_cp.9_0
	.loc	4 288 27                        @ ../std/GD32C2x1_Firmware_Library/GD32C2x1_standard_peripheral/Source/gd32c2x1_dma.c:288:27
	str	r0, [r1, r2]
	.loc	4 289 1 is_stmt 1               @ ../std/GD32C2x1_Firmware_Library/GD32C2x1_standard_peripheral/Source/gd32c2x1_dma.c:289:1
	add	sp, #12
	bx	lr
.Ltmp37:
	.p2align	2
@ %bb.1:
	.loc	4 0 1 is_stmt 0                 @ ../std/GD32C2x1_Firmware_Library/GD32C2x1_standard_peripheral/Source/gd32c2x1_dma.c:0:1
__arm_cp.9_0:
	.long	1073872912                      @ 0x40020010
.Lcpi_end16:
	.size	__arm_cp.9_0, .Lcpi_end16-__arm_cp.9_0
.Lfunc_end9:
	.size	dma_periph_address_config, .Lfunc_end9-dma_periph_address_config
	.cfi_endproc
	.cantunwind
	.fnend
                                        @ -- End function
	.section	.text.dma_memory_address_config,"ax",%progbits
	.hidden	dma_memory_address_config       @ -- Begin function dma_memory_address_config
	.globl	dma_memory_address_config
	.p2align	2
	.type	dma_memory_address_config,%function
	.code	16                              @ @dma_memory_address_config
	.thumb_func
dma_memory_address_config:
.Lfunc_begin10:
	.loc	4 301 0 is_stmt 1               @ ../std/GD32C2x1_Firmware_Library/GD32C2x1_standard_peripheral/Source/gd32c2x1_dma.c:301:0
	.fnstart
	.cfi_startproc
@ %bb.0:
	.pad	#12
	sub	sp, #12
	.cfi_def_cfa_offset 12
	str	r1, [sp]                        @ 4-byte Spill
	mov	r2, r0
	ldr	r0, [sp]                        @ 4-byte Reload
                                        @ kill: def $r1 killed $r2
	add	r1, sp, #8
	strb	r2, [r1]
	str	r0, [sp, #4]
.Ltmp38:
	.loc	4 302 29 prologue_end           @ ../std/GD32C2x1_Firmware_Library/GD32C2x1_standard_peripheral/Source/gd32c2x1_dma.c:302:29
	ldr	r0, [sp, #4]
	.loc	4 302 5 is_stmt 0               @ ../std/GD32C2x1_Firmware_Library/GD32C2x1_standard_peripheral/Source/gd32c2x1_dma.c:302:5
	ldrb	r2, [r1]
	movs	r1, #20
	muls	r1, r2, r1
	ldr	r2, __arm_cp.10_0
	.loc	4 302 27                        @ ../std/GD32C2x1_Firmware_Library/GD32C2x1_standard_peripheral/Source/gd32c2x1_dma.c:302:27
	str	r0, [r1, r2]
	.loc	4 303 1 is_stmt 1               @ ../std/GD32C2x1_Firmware_Library/GD32C2x1_standard_peripheral/Source/gd32c2x1_dma.c:303:1
	add	sp, #12
	bx	lr
.Ltmp39:
	.p2align	2
@ %bb.1:
	.loc	4 0 1 is_stmt 0                 @ ../std/GD32C2x1_Firmware_Library/GD32C2x1_standard_peripheral/Source/gd32c2x1_dma.c:0:1
__arm_cp.10_0:
	.long	1073872916                      @ 0x40020014
.Lcpi_end17:
	.size	__arm_cp.10_0, .Lcpi_end17-__arm_cp.10_0
.Lfunc_end10:
	.size	dma_memory_address_config, .Lfunc_end10-dma_memory_address_config
	.cfi_endproc
	.cantunwind
	.fnend
                                        @ -- End function
	.section	.text.dma_transfer_number_config,"ax",%progbits
	.hidden	dma_transfer_number_config      @ -- Begin function dma_transfer_number_config
	.globl	dma_transfer_number_config
	.p2align	2
	.type	dma_transfer_number_config,%function
	.code	16                              @ @dma_transfer_number_config
	.thumb_func
dma_transfer_number_config:
.Lfunc_begin11:
	.loc	4 316 0 is_stmt 1               @ ../std/GD32C2x1_Firmware_Library/GD32C2x1_standard_peripheral/Source/gd32c2x1_dma.c:316:0
	.fnstart
	.cfi_startproc
@ %bb.0:
	.pad	#12
	sub	sp, #12
	.cfi_def_cfa_offset 12
	str	r1, [sp]                        @ 4-byte Spill
	mov	r2, r0
	ldr	r0, [sp]                        @ 4-byte Reload
                                        @ kill: def $r1 killed $r2
	add	r1, sp, #8
	strb	r2, [r1]
	str	r0, [sp, #4]
	add	r0, sp, #4
.Ltmp40:
	.loc	4 317 29 prologue_end           @ ../std/GD32C2x1_Firmware_Library/GD32C2x1_standard_peripheral/Source/gd32c2x1_dma.c:317:29
	ldrh	r0, [r0]
	.loc	4 317 6 is_stmt 0               @ ../std/GD32C2x1_Firmware_Library/GD32C2x1_standard_peripheral/Source/gd32c2x1_dma.c:317:6
	ldrb	r2, [r1]
	movs	r1, #20
	muls	r1, r2, r1
	ldr	r2, __arm_cp.11_0
	.loc	4 317 26                        @ ../std/GD32C2x1_Firmware_Library/GD32C2x1_standard_peripheral/Source/gd32c2x1_dma.c:317:26
	str	r0, [r1, r2]
	.loc	4 318 1 is_stmt 1               @ ../std/GD32C2x1_Firmware_Library/GD32C2x1_standard_peripheral/Source/gd32c2x1_dma.c:318:1
	add	sp, #12
	bx	lr
.Ltmp41:
	.p2align	2
@ %bb.1:
	.loc	4 0 1 is_stmt 0                 @ ../std/GD32C2x1_Firmware_Library/GD32C2x1_standard_peripheral/Source/gd32c2x1_dma.c:0:1
__arm_cp.11_0:
	.long	1073872908                      @ 0x4002000c
.Lcpi_end18:
	.size	__arm_cp.11_0, .Lcpi_end18-__arm_cp.11_0
.Lfunc_end11:
	.size	dma_transfer_number_config, .Lfunc_end11-dma_transfer_number_config
	.cfi_endproc
	.cantunwind
	.fnend
                                        @ -- End function
	.section	.text.dma_transfer_number_get,"ax",%progbits
	.hidden	dma_transfer_number_get         @ -- Begin function dma_transfer_number_get
	.globl	dma_transfer_number_get
	.p2align	2
	.type	dma_transfer_number_get,%function
	.code	16                              @ @dma_transfer_number_get
	.thumb_func
dma_transfer_number_get:
.Lfunc_begin12:
	.loc	4 329 0 is_stmt 1               @ ../std/GD32C2x1_Firmware_Library/GD32C2x1_standard_peripheral/Source/gd32c2x1_dma.c:329:0
	.fnstart
	.cfi_startproc
@ %bb.0:
	.pad	#8
	sub	sp, #8
	.cfi_def_cfa_offset 8
	mov	r1, r0
                                        @ kill: def $r0 killed $r1
	add	r0, sp, #4
	strb	r1, [r0]
.Ltmp42:
	.loc	4 331 23 prologue_end           @ ../std/GD32C2x1_Firmware_Library/GD32C2x1_standard_peripheral/Source/gd32c2x1_dma.c:331:23
	ldrb	r1, [r0]
	movs	r0, #20
	muls	r0, r1, r0
	ldr	r1, __arm_cp.12_0
	ldr	r0, [r0, r1]
	.loc	4 331 11 is_stmt 0              @ ../std/GD32C2x1_Firmware_Library/GD32C2x1_standard_peripheral/Source/gd32c2x1_dma.c:331:11
	str	r0, [sp]
	.loc	4 332 12 is_stmt 1              @ ../std/GD32C2x1_Firmware_Library/GD32C2x1_standard_peripheral/Source/gd32c2x1_dma.c:332:12
	ldr	r0, [sp]
	.loc	4 332 5 is_stmt 0               @ ../std/GD32C2x1_Firmware_Library/GD32C2x1_standard_peripheral/Source/gd32c2x1_dma.c:332:5
	add	sp, #8
	bx	lr
.Ltmp43:
	.p2align	2
@ %bb.1:
	.loc	4 0 5                           @ ../std/GD32C2x1_Firmware_Library/GD32C2x1_standard_peripheral/Source/gd32c2x1_dma.c:0:5
__arm_cp.12_0:
	.long	1073872908                      @ 0x4002000c
.Lcpi_end19:
	.size	__arm_cp.12_0, .Lcpi_end19-__arm_cp.12_0
.Lfunc_end12:
	.size	dma_transfer_number_get, .Lfunc_end12-dma_transfer_number_get
	.cfi_endproc
	.cantunwind
	.fnend
                                        @ -- End function
	.section	.text.dma_priority_config,"ax",%progbits
	.hidden	dma_priority_config             @ -- Begin function dma_priority_config
	.globl	dma_priority_config
	.p2align	2
	.type	dma_priority_config,%function
	.code	16                              @ @dma_priority_config
	.thumb_func
dma_priority_config:
.Lfunc_begin13:
	.loc	4 350 0 is_stmt 1               @ ../std/GD32C2x1_Firmware_Library/GD32C2x1_standard_peripheral/Source/gd32c2x1_dma.c:350:0
	.fnstart
	.cfi_startproc
@ %bb.0:
	.save	{r4, lr}
	push	{r4, lr}
	.cfi_def_cfa_offset 8
	.cfi_offset lr, -4
	.cfi_offset r4, -8
	.pad	#12
	sub	sp, #12
	.cfi_def_cfa_offset 20
                                        @ kill: def $r2 killed $r0
	add	r3, sp, #8
	strb	r0, [r3]
	str	r1, [sp, #4]
.Ltmp44:
	.loc	4 354 11 prologue_end           @ ../std/GD32C2x1_Firmware_Library/GD32C2x1_standard_peripheral/Source/gd32c2x1_dma.c:354:11
	ldrb	r2, [r3]
	movs	r1, #20
	mov	r0, r1
	muls	r0, r2, r0
	ldr	r2, __arm_cp.13_0
	ldr	r0, [r0, r2]
	.loc	4 354 9 is_stmt 0               @ ../std/GD32C2x1_Firmware_Library/GD32C2x1_standard_peripheral/Source/gd32c2x1_dma.c:354:9
	str	r0, [sp]
	.loc	4 356 9 is_stmt 1               @ ../std/GD32C2x1_Firmware_Library/GD32C2x1_standard_peripheral/Source/gd32c2x1_dma.c:356:9
	ldr	r4, [sp]
	movw	r0, #12288
	bics	r4, r0
	str	r4, [sp]
	.loc	4 357 13                        @ ../std/GD32C2x1_Firmware_Library/GD32C2x1_standard_peripheral/Source/gd32c2x1_dma.c:357:13
	ldr	r4, [sp, #4]
	.loc	4 357 22 is_stmt 0              @ ../std/GD32C2x1_Firmware_Library/GD32C2x1_standard_peripheral/Source/gd32c2x1_dma.c:357:22
	ands	r4, r0
	.loc	4 357 9                         @ ../std/GD32C2x1_Firmware_Library/GD32C2x1_standard_peripheral/Source/gd32c2x1_dma.c:357:9
	ldr	r0, [sp]
	orrs	r0, r4
	str	r0, [sp]
	.loc	4 358 27 is_stmt 1              @ ../std/GD32C2x1_Firmware_Library/GD32C2x1_standard_peripheral/Source/gd32c2x1_dma.c:358:27
	ldr	r0, [sp]
	.loc	4 358 5 is_stmt 0               @ ../std/GD32C2x1_Firmware_Library/GD32C2x1_standard_peripheral/Source/gd32c2x1_dma.c:358:5
	ldrb	r3, [r3]
	muls	r1, r3, r1
	.loc	4 358 25                        @ ../std/GD32C2x1_Firmware_Library/GD32C2x1_standard_peripheral/Source/gd32c2x1_dma.c:358:25
	str	r0, [r1, r2]
	.loc	4 359 1 is_stmt 1               @ ../std/GD32C2x1_Firmware_Library/GD32C2x1_standard_peripheral/Source/gd32c2x1_dma.c:359:1
	add	sp, #12
	pop	{r4, pc}
.Ltmp45:
	.p2align	2
@ %bb.1:
	.loc	4 0 1 is_stmt 0                 @ ../std/GD32C2x1_Firmware_Library/GD32C2x1_standard_peripheral/Source/gd32c2x1_dma.c:0:1
__arm_cp.13_0:
	.long	1073872904                      @ 0x40020008
.Lcpi_end20:
	.size	__arm_cp.13_0, .Lcpi_end20-__arm_cp.13_0
.Lfunc_end13:
	.size	dma_priority_config, .Lfunc_end13-dma_priority_config
	.cfi_endproc
	.cantunwind
	.fnend
                                        @ -- End function
	.section	.text.dma_memory_width_config,"ax",%progbits
	.hidden	dma_memory_width_config         @ -- Begin function dma_memory_width_config
	.globl	dma_memory_width_config
	.p2align	2
	.type	dma_memory_width_config,%function
	.code	16                              @ @dma_memory_width_config
	.thumb_func
dma_memory_width_config:
.Lfunc_begin14:
	.loc	4 375 0 is_stmt 1               @ ../std/GD32C2x1_Firmware_Library/GD32C2x1_standard_peripheral/Source/gd32c2x1_dma.c:375:0
	.fnstart
	.cfi_startproc
@ %bb.0:
	.save	{r4, lr}
	push	{r4, lr}
	.cfi_def_cfa_offset 8
	.cfi_offset lr, -4
	.cfi_offset r4, -8
	.pad	#12
	sub	sp, #12
	.cfi_def_cfa_offset 20
                                        @ kill: def $r2 killed $r0
	add	r3, sp, #8
	strb	r0, [r3]
	str	r1, [sp, #4]
.Ltmp46:
	.loc	4 378 11 prologue_end           @ ../std/GD32C2x1_Firmware_Library/GD32C2x1_standard_peripheral/Source/gd32c2x1_dma.c:378:11
	ldrb	r2, [r3]
	movs	r1, #20
	mov	r0, r1
	muls	r0, r2, r0
	ldr	r2, __arm_cp.14_0
	ldr	r0, [r0, r2]
	.loc	4 378 9 is_stmt 0               @ ../std/GD32C2x1_Firmware_Library/GD32C2x1_standard_peripheral/Source/gd32c2x1_dma.c:378:9
	str	r0, [sp]
	.loc	4 380 9 is_stmt 1               @ ../std/GD32C2x1_Firmware_Library/GD32C2x1_standard_peripheral/Source/gd32c2x1_dma.c:380:9
	ldr	r4, [sp]
	movw	r0, #3072
	bics	r4, r0
	str	r4, [sp]
	.loc	4 381 13                        @ ../std/GD32C2x1_Firmware_Library/GD32C2x1_standard_peripheral/Source/gd32c2x1_dma.c:381:13
	ldr	r4, [sp, #4]
	.loc	4 381 20 is_stmt 0              @ ../std/GD32C2x1_Firmware_Library/GD32C2x1_standard_peripheral/Source/gd32c2x1_dma.c:381:20
	ands	r4, r0
	.loc	4 381 9                         @ ../std/GD32C2x1_Firmware_Library/GD32C2x1_standard_peripheral/Source/gd32c2x1_dma.c:381:9
	ldr	r0, [sp]
	orrs	r0, r4
	str	r0, [sp]
	.loc	4 382 27 is_stmt 1              @ ../std/GD32C2x1_Firmware_Library/GD32C2x1_standard_peripheral/Source/gd32c2x1_dma.c:382:27
	ldr	r0, [sp]
	.loc	4 382 5 is_stmt 0               @ ../std/GD32C2x1_Firmware_Library/GD32C2x1_standard_peripheral/Source/gd32c2x1_dma.c:382:5
	ldrb	r3, [r3]
	muls	r1, r3, r1
	.loc	4 382 25                        @ ../std/GD32C2x1_Firmware_Library/GD32C2x1_standard_peripheral/Source/gd32c2x1_dma.c:382:25
	str	r0, [r1, r2]
	.loc	4 383 1 is_stmt 1               @ ../std/GD32C2x1_Firmware_Library/GD32C2x1_standard_peripheral/Source/gd32c2x1_dma.c:383:1
	add	sp, #12
	pop	{r4, pc}
.Ltmp47:
	.p2align	2
@ %bb.1:
	.loc	4 0 1 is_stmt 0                 @ ../std/GD32C2x1_Firmware_Library/GD32C2x1_standard_peripheral/Source/gd32c2x1_dma.c:0:1
__arm_cp.14_0:
	.long	1073872904                      @ 0x40020008
.Lcpi_end21:
	.size	__arm_cp.14_0, .Lcpi_end21-__arm_cp.14_0
.Lfunc_end14:
	.size	dma_memory_width_config, .Lfunc_end14-dma_memory_width_config
	.cfi_endproc
	.cantunwind
	.fnend
                                        @ -- End function
	.section	.text.dma_periph_width_config,"ax",%progbits
	.hidden	dma_periph_width_config         @ -- Begin function dma_periph_width_config
	.globl	dma_periph_width_config
	.p2align	2
	.type	dma_periph_width_config,%function
	.code	16                              @ @dma_periph_width_config
	.thumb_func
dma_periph_width_config:
.Lfunc_begin15:
	.loc	4 399 0 is_stmt 1               @ ../std/GD32C2x1_Firmware_Library/GD32C2x1_standard_peripheral/Source/gd32c2x1_dma.c:399:0
	.fnstart
	.cfi_startproc
@ %bb.0:
	.save	{r4, lr}
	push	{r4, lr}
	.cfi_def_cfa_offset 8
	.cfi_offset lr, -4
	.cfi_offset r4, -8
	.pad	#12
	sub	sp, #12
	.cfi_def_cfa_offset 20
                                        @ kill: def $r2 killed $r0
	add	r3, sp, #8
	strb	r0, [r3]
	str	r1, [sp, #4]
.Ltmp48:
	.loc	4 402 11 prologue_end           @ ../std/GD32C2x1_Firmware_Library/GD32C2x1_standard_peripheral/Source/gd32c2x1_dma.c:402:11
	ldrb	r2, [r3]
	movs	r1, #20
	mov	r0, r1
	muls	r0, r2, r0
	ldr	r2, __arm_cp.15_0
	ldr	r0, [r0, r2]
	.loc	4 402 9 is_stmt 0               @ ../std/GD32C2x1_Firmware_Library/GD32C2x1_standard_peripheral/Source/gd32c2x1_dma.c:402:9
	str	r0, [sp]
	.loc	4 404 9 is_stmt 1               @ ../std/GD32C2x1_Firmware_Library/GD32C2x1_standard_peripheral/Source/gd32c2x1_dma.c:404:9
	ldr	r4, [sp]
	movw	r0, #768
	bics	r4, r0
	str	r4, [sp]
	.loc	4 405 13                        @ ../std/GD32C2x1_Firmware_Library/GD32C2x1_standard_peripheral/Source/gd32c2x1_dma.c:405:13
	ldr	r4, [sp, #4]
	.loc	4 405 20 is_stmt 0              @ ../std/GD32C2x1_Firmware_Library/GD32C2x1_standard_peripheral/Source/gd32c2x1_dma.c:405:20
	ands	r4, r0
	.loc	4 405 9                         @ ../std/GD32C2x1_Firmware_Library/GD32C2x1_standard_peripheral/Source/gd32c2x1_dma.c:405:9
	ldr	r0, [sp]
	orrs	r0, r4
	str	r0, [sp]
	.loc	4 406 27 is_stmt 1              @ ../std/GD32C2x1_Firmware_Library/GD32C2x1_standard_peripheral/Source/gd32c2x1_dma.c:406:27
	ldr	r0, [sp]
	.loc	4 406 5 is_stmt 0               @ ../std/GD32C2x1_Firmware_Library/GD32C2x1_standard_peripheral/Source/gd32c2x1_dma.c:406:5
	ldrb	r3, [r3]
	muls	r1, r3, r1
	.loc	4 406 25                        @ ../std/GD32C2x1_Firmware_Library/GD32C2x1_standard_peripheral/Source/gd32c2x1_dma.c:406:25
	str	r0, [r1, r2]
	.loc	4 407 1 is_stmt 1               @ ../std/GD32C2x1_Firmware_Library/GD32C2x1_standard_peripheral/Source/gd32c2x1_dma.c:407:1
	add	sp, #12
	pop	{r4, pc}
.Ltmp49:
	.p2align	2
@ %bb.1:
	.loc	4 0 1 is_stmt 0                 @ ../std/GD32C2x1_Firmware_Library/GD32C2x1_standard_peripheral/Source/gd32c2x1_dma.c:0:1
__arm_cp.15_0:
	.long	1073872904                      @ 0x40020008
.Lcpi_end22:
	.size	__arm_cp.15_0, .Lcpi_end22-__arm_cp.15_0
.Lfunc_end15:
	.size	dma_periph_width_config, .Lfunc_end15-dma_periph_width_config
	.cfi_endproc
	.cantunwind
	.fnend
                                        @ -- End function
	.section	.text.dma_memory_increase_enable,"ax",%progbits
	.hidden	dma_memory_increase_enable      @ -- Begin function dma_memory_increase_enable
	.globl	dma_memory_increase_enable
	.p2align	2
	.type	dma_memory_increase_enable,%function
	.code	16                              @ @dma_memory_increase_enable
	.thumb_func
dma_memory_increase_enable:
.Lfunc_begin16:
	.loc	4 418 0 is_stmt 1               @ ../std/GD32C2x1_Firmware_Library/GD32C2x1_standard_peripheral/Source/gd32c2x1_dma.c:418:0
	.fnstart
	.cfi_startproc
@ %bb.0:
	.pad	#4
	sub	sp, #4
	.cfi_def_cfa_offset 4
	mov	r1, r0
                                        @ kill: def $r0 killed $r1
	mov	r0, sp
	strb	r1, [r0]
.Ltmp50:
	.loc	4 419 5 prologue_end            @ ../std/GD32C2x1_Firmware_Library/GD32C2x1_standard_peripheral/Source/gd32c2x1_dma.c:419:5
	ldrb	r0, [r0]
	movs	r1, #20
	muls	r1, r0, r1
	ldr	r2, __arm_cp.16_0
	.loc	4 419 25 is_stmt 0              @ ../std/GD32C2x1_Firmware_Library/GD32C2x1_standard_peripheral/Source/gd32c2x1_dma.c:419:25
	ldr	r0, [r1, r2]
	movs	r3, #128
	orrs	r0, r3
	str	r0, [r1, r2]
	.loc	4 420 1 is_stmt 1               @ ../std/GD32C2x1_Firmware_Library/GD32C2x1_standard_peripheral/Source/gd32c2x1_dma.c:420:1
	add	sp, #4
	bx	lr
.Ltmp51:
	.p2align	2
@ %bb.1:
	.loc	4 0 1 is_stmt 0                 @ ../std/GD32C2x1_Firmware_Library/GD32C2x1_standard_peripheral/Source/gd32c2x1_dma.c:0:1
__arm_cp.16_0:
	.long	1073872904                      @ 0x40020008
.Lcpi_end23:
	.size	__arm_cp.16_0, .Lcpi_end23-__arm_cp.16_0
.Lfunc_end16:
	.size	dma_memory_increase_enable, .Lfunc_end16-dma_memory_increase_enable
	.cfi_endproc
	.cantunwind
	.fnend
                                        @ -- End function
	.section	.text.dma_memory_increase_disable,"ax",%progbits
	.hidden	dma_memory_increase_disable     @ -- Begin function dma_memory_increase_disable
	.globl	dma_memory_increase_disable
	.p2align	2
	.type	dma_memory_increase_disable,%function
	.code	16                              @ @dma_memory_increase_disable
	.thumb_func
dma_memory_increase_disable:
.Lfunc_begin17:
	.loc	4 431 0 is_stmt 1               @ ../std/GD32C2x1_Firmware_Library/GD32C2x1_standard_peripheral/Source/gd32c2x1_dma.c:431:0
	.fnstart
	.cfi_startproc
@ %bb.0:
	.pad	#4
	sub	sp, #4
	.cfi_def_cfa_offset 4
	mov	r1, r0
                                        @ kill: def $r0 killed $r1
	mov	r0, sp
	strb	r1, [r0]
.Ltmp52:
	.loc	4 433 5 prologue_end            @ ../std/GD32C2x1_Firmware_Library/GD32C2x1_standard_peripheral/Source/gd32c2x1_dma.c:433:5
	ldrb	r0, [r0]
	movs	r1, #20
	muls	r1, r0, r1
	ldr	r2, __arm_cp.17_0
	.loc	4 433 25 is_stmt 0              @ ../std/GD32C2x1_Firmware_Library/GD32C2x1_standard_peripheral/Source/gd32c2x1_dma.c:433:25
	ldr	r0, [r1, r2]
	movs	r3, #128
	bics	r0, r3
	str	r0, [r1, r2]
	.loc	4 434 1 is_stmt 1               @ ../std/GD32C2x1_Firmware_Library/GD32C2x1_standard_peripheral/Source/gd32c2x1_dma.c:434:1
	add	sp, #4
	bx	lr
.Ltmp53:
	.p2align	2
@ %bb.1:
	.loc	4 0 1 is_stmt 0                 @ ../std/GD32C2x1_Firmware_Library/GD32C2x1_standard_peripheral/Source/gd32c2x1_dma.c:0:1
__arm_cp.17_0:
	.long	1073872904                      @ 0x40020008
.Lcpi_end24:
	.size	__arm_cp.17_0, .Lcpi_end24-__arm_cp.17_0
.Lfunc_end17:
	.size	dma_memory_increase_disable, .Lfunc_end17-dma_memory_increase_disable
	.cfi_endproc
	.cantunwind
	.fnend
                                        @ -- End function
	.section	.text.dma_periph_increase_enable,"ax",%progbits
	.hidden	dma_periph_increase_enable      @ -- Begin function dma_periph_increase_enable
	.globl	dma_periph_increase_enable
	.p2align	2
	.type	dma_periph_increase_enable,%function
	.code	16                              @ @dma_periph_increase_enable
	.thumb_func
dma_periph_increase_enable:
.Lfunc_begin18:
	.loc	4 445 0 is_stmt 1               @ ../std/GD32C2x1_Firmware_Library/GD32C2x1_standard_peripheral/Source/gd32c2x1_dma.c:445:0
	.fnstart
	.cfi_startproc
@ %bb.0:
	.pad	#4
	sub	sp, #4
	.cfi_def_cfa_offset 4
	mov	r1, r0
                                        @ kill: def $r0 killed $r1
	mov	r0, sp
	strb	r1, [r0]
.Ltmp54:
	.loc	4 446 5 prologue_end            @ ../std/GD32C2x1_Firmware_Library/GD32C2x1_standard_peripheral/Source/gd32c2x1_dma.c:446:5
	ldrb	r0, [r0]
	movs	r1, #20
	muls	r1, r0, r1
	ldr	r2, __arm_cp.18_0
	.loc	4 446 25 is_stmt 0              @ ../std/GD32C2x1_Firmware_Library/GD32C2x1_standard_peripheral/Source/gd32c2x1_dma.c:446:25
	ldr	r0, [r1, r2]
	movs	r3, #64
	orrs	r0, r3
	str	r0, [r1, r2]
	.loc	4 447 1 is_stmt 1               @ ../std/GD32C2x1_Firmware_Library/GD32C2x1_standard_peripheral/Source/gd32c2x1_dma.c:447:1
	add	sp, #4
	bx	lr
.Ltmp55:
	.p2align	2
@ %bb.1:
	.loc	4 0 1 is_stmt 0                 @ ../std/GD32C2x1_Firmware_Library/GD32C2x1_standard_peripheral/Source/gd32c2x1_dma.c:0:1
__arm_cp.18_0:
	.long	1073872904                      @ 0x40020008
.Lcpi_end25:
	.size	__arm_cp.18_0, .Lcpi_end25-__arm_cp.18_0
.Lfunc_end18:
	.size	dma_periph_increase_enable, .Lfunc_end18-dma_periph_increase_enable
	.cfi_endproc
	.cantunwind
	.fnend
                                        @ -- End function
	.section	.text.dma_periph_increase_disable,"ax",%progbits
	.hidden	dma_periph_increase_disable     @ -- Begin function dma_periph_increase_disable
	.globl	dma_periph_increase_disable
	.p2align	2
	.type	dma_periph_increase_disable,%function
	.code	16                              @ @dma_periph_increase_disable
	.thumb_func
dma_periph_increase_disable:
.Lfunc_begin19:
	.loc	4 458 0 is_stmt 1               @ ../std/GD32C2x1_Firmware_Library/GD32C2x1_standard_peripheral/Source/gd32c2x1_dma.c:458:0
	.fnstart
	.cfi_startproc
@ %bb.0:
	.pad	#4
	sub	sp, #4
	.cfi_def_cfa_offset 4
	mov	r1, r0
                                        @ kill: def $r0 killed $r1
	mov	r0, sp
	strb	r1, [r0]
.Ltmp56:
	.loc	4 459 5 prologue_end            @ ../std/GD32C2x1_Firmware_Library/GD32C2x1_standard_peripheral/Source/gd32c2x1_dma.c:459:5
	ldrb	r0, [r0]
	movs	r1, #20
	muls	r1, r0, r1
	ldr	r2, __arm_cp.19_0
	.loc	4 459 25 is_stmt 0              @ ../std/GD32C2x1_Firmware_Library/GD32C2x1_standard_peripheral/Source/gd32c2x1_dma.c:459:25
	ldr	r0, [r1, r2]
	movs	r3, #64
	bics	r0, r3
	str	r0, [r1, r2]
	.loc	4 460 1 is_stmt 1               @ ../std/GD32C2x1_Firmware_Library/GD32C2x1_standard_peripheral/Source/gd32c2x1_dma.c:460:1
	add	sp, #4
	bx	lr
.Ltmp57:
	.p2align	2
@ %bb.1:
	.loc	4 0 1 is_stmt 0                 @ ../std/GD32C2x1_Firmware_Library/GD32C2x1_standard_peripheral/Source/gd32c2x1_dma.c:0:1
__arm_cp.19_0:
	.long	1073872904                      @ 0x40020008
.Lcpi_end26:
	.size	__arm_cp.19_0, .Lcpi_end26-__arm_cp.19_0
.Lfunc_end19:
	.size	dma_periph_increase_disable, .Lfunc_end19-dma_periph_increase_disable
	.cfi_endproc
	.cantunwind
	.fnend
                                        @ -- End function
	.section	.text.dma_transfer_direction_config,"ax",%progbits
	.hidden	dma_transfer_direction_config   @ -- Begin function dma_transfer_direction_config
	.globl	dma_transfer_direction_config
	.p2align	2
	.type	dma_transfer_direction_config,%function
	.code	16                              @ @dma_transfer_direction_config
	.thumb_func
dma_transfer_direction_config:
.Lfunc_begin20:
	.loc	4 475 0 is_stmt 1               @ ../std/GD32C2x1_Firmware_Library/GD32C2x1_standard_peripheral/Source/gd32c2x1_dma.c:475:0
	.fnstart
	.cfi_startproc
@ %bb.0:
	.pad	#8
	sub	sp, #8
	.cfi_def_cfa_offset 8
                                        @ kill: def $r2 killed $r0
	add	r2, sp, #4
	strb	r0, [r2]
	str	r1, [sp]
.Ltmp58:
	.loc	4 476 36 prologue_end           @ ../std/GD32C2x1_Firmware_Library/GD32C2x1_standard_peripheral/Source/gd32c2x1_dma.c:476:36
	ldr	r0, [sp]
.Ltmp59:
	.loc	4 476 8 is_stmt 0               @ ../std/GD32C2x1_Firmware_Library/GD32C2x1_standard_peripheral/Source/gd32c2x1_dma.c:476:8
	cbnz	r0, .LBB20_2
	b	.LBB20_1
.LBB20_1:
	.loc	4 0 8                           @ ../std/GD32C2x1_Firmware_Library/GD32C2x1_standard_peripheral/Source/gd32c2x1_dma.c:0:8
	add	r0, sp, #4
.Ltmp60:
	.loc	4 477 9 is_stmt 1               @ ../std/GD32C2x1_Firmware_Library/GD32C2x1_standard_peripheral/Source/gd32c2x1_dma.c:477:9
	ldrb	r0, [r0]
	movs	r1, #20
	muls	r1, r0, r1
	ldr	r2, __arm_cp.20_0
	.loc	4 477 29 is_stmt 0              @ ../std/GD32C2x1_Firmware_Library/GD32C2x1_standard_peripheral/Source/gd32c2x1_dma.c:477:29
	ldr	r0, [r1, r2]
	movs	r3, #16
	bics	r0, r3
	str	r0, [r1, r2]
	.loc	4 478 5 is_stmt 1               @ ../std/GD32C2x1_Firmware_Library/GD32C2x1_standard_peripheral/Source/gd32c2x1_dma.c:478:5
	b	.LBB20_3
.Ltmp61:
.LBB20_2:
	.loc	4 0 5 is_stmt 0                 @ ../std/GD32C2x1_Firmware_Library/GD32C2x1_standard_peripheral/Source/gd32c2x1_dma.c:0:5
	add	r0, sp, #4
.Ltmp62:
	.loc	4 479 9 is_stmt 1               @ ../std/GD32C2x1_Firmware_Library/GD32C2x1_standard_peripheral/Source/gd32c2x1_dma.c:479:9
	ldrb	r0, [r0]
	movs	r1, #20
	muls	r1, r0, r1
	ldr	r2, __arm_cp.20_0
	.loc	4 479 29 is_stmt 0              @ ../std/GD32C2x1_Firmware_Library/GD32C2x1_standard_peripheral/Source/gd32c2x1_dma.c:479:29
	ldr	r0, [r1, r2]
	movs	r3, #16
	orrs	r0, r3
	str	r0, [r1, r2]
	b	.LBB20_3
.Ltmp63:
.LBB20_3:
	.loc	4 482 1 is_stmt 1               @ ../std/GD32C2x1_Firmware_Library/GD32C2x1_standard_peripheral/Source/gd32c2x1_dma.c:482:1
	add	sp, #8
	bx	lr
.Ltmp64:
	.p2align	2
@ %bb.4:
	.loc	4 0 1 is_stmt 0                 @ ../std/GD32C2x1_Firmware_Library/GD32C2x1_standard_peripheral/Source/gd32c2x1_dma.c:0:1
__arm_cp.20_0:
	.long	1073872904                      @ 0x40020008
.Lcpi_end27:
	.size	__arm_cp.20_0, .Lcpi_end27-__arm_cp.20_0
.Lfunc_end20:
	.size	dma_transfer_direction_config, .Lfunc_end20-dma_transfer_direction_config
	.cfi_endproc
	.cantunwind
	.fnend
                                        @ -- End function
	.section	.text.dma_flag_get,"ax",%progbits
	.hidden	dma_flag_get                    @ -- Begin function dma_flag_get
	.globl	dma_flag_get
	.p2align	2
	.type	dma_flag_get,%function
	.code	16                              @ @dma_flag_get
	.thumb_func
dma_flag_get:
.Lfunc_begin21:
	.loc	4 499 0 is_stmt 1               @ ../std/GD32C2x1_Firmware_Library/GD32C2x1_standard_peripheral/Source/gd32c2x1_dma.c:499:0
	.fnstart
	.cfi_startproc
@ %bb.0:
	.pad	#12
	sub	sp, #12
	.cfi_def_cfa_offset 12
                                        @ kill: def $r2 killed $r0
	add	r2, sp, #8
	strb	r0, [r2]
	str	r1, [sp, #4]
	mov	r1, sp
	movs	r0, #0
.Ltmp65:
	.loc	4 500 16 prologue_end           @ ../std/GD32C2x1_Firmware_Library/GD32C2x1_standard_peripheral/Source/gd32c2x1_dma.c:500:16
	strb	r0, [r1]
	ldr	r0, __arm_cp.21_0
.Ltmp66:
	.loc	4 501 28                        @ ../std/GD32C2x1_Firmware_Library/GD32C2x1_standard_peripheral/Source/gd32c2x1_dma.c:501:28
	ldr	r0, [r0]
	.loc	4 501 39 is_stmt 0              @ ../std/GD32C2x1_Firmware_Library/GD32C2x1_standard_peripheral/Source/gd32c2x1_dma.c:501:39
	ldr	r1, [sp, #4]
	ldrb	r2, [r2]
	lsls	r2, r2, #2
	lsls	r1, r2
.Ltmp67:
	.loc	4 501 8                         @ ../std/GD32C2x1_Firmware_Library/GD32C2x1_standard_peripheral/Source/gd32c2x1_dma.c:501:8
	tst	r0, r1
	beq	.LBB21_2
	b	.LBB21_1
.LBB21_1:
	.loc	4 0 8                           @ ../std/GD32C2x1_Firmware_Library/GD32C2x1_standard_peripheral/Source/gd32c2x1_dma.c:0:8
	mov	r1, sp
	movs	r0, #1
.Ltmp68:
	.loc	4 502 15 is_stmt 1              @ ../std/GD32C2x1_Firmware_Library/GD32C2x1_standard_peripheral/Source/gd32c2x1_dma.c:502:15
	strb	r0, [r1]
	.loc	4 503 5                         @ ../std/GD32C2x1_Firmware_Library/GD32C2x1_standard_peripheral/Source/gd32c2x1_dma.c:503:5
	b	.LBB21_3
.Ltmp69:
.LBB21_2:
	.loc	4 0 5 is_stmt 0                 @ ../std/GD32C2x1_Firmware_Library/GD32C2x1_standard_peripheral/Source/gd32c2x1_dma.c:0:5
	mov	r1, sp
	movs	r0, #0
.Ltmp70:
	.loc	4 504 15 is_stmt 1              @ ../std/GD32C2x1_Firmware_Library/GD32C2x1_standard_peripheral/Source/gd32c2x1_dma.c:504:15
	strb	r0, [r1]
	b	.LBB21_3
.Ltmp71:
.LBB21_3:
	.loc	4 0 15 is_stmt 0                @ ../std/GD32C2x1_Firmware_Library/GD32C2x1_standard_peripheral/Source/gd32c2x1_dma.c:0:15
	mov	r0, sp
	.loc	4 506 12 is_stmt 1              @ ../std/GD32C2x1_Firmware_Library/GD32C2x1_standard_peripheral/Source/gd32c2x1_dma.c:506:12
	ldrb	r0, [r0]
	.loc	4 506 5 is_stmt 0               @ ../std/GD32C2x1_Firmware_Library/GD32C2x1_standard_peripheral/Source/gd32c2x1_dma.c:506:5
	add	sp, #12
	bx	lr
.Ltmp72:
	.p2align	2
@ %bb.4:
	.loc	4 0 5                           @ ../std/GD32C2x1_Firmware_Library/GD32C2x1_standard_peripheral/Source/gd32c2x1_dma.c:0:5
__arm_cp.21_0:
	.long	1073872896                      @ 0x40020000
.Lcpi_end28:
	.size	__arm_cp.21_0, .Lcpi_end28-__arm_cp.21_0
.Lfunc_end21:
	.size	dma_flag_get, .Lfunc_end21-dma_flag_get
	.cfi_endproc
	.cantunwind
	.fnend
                                        @ -- End function
	.section	.text.dma_flag_clear,"ax",%progbits
	.hidden	dma_flag_clear                  @ -- Begin function dma_flag_clear
	.globl	dma_flag_clear
	.p2align	2
	.type	dma_flag_clear,%function
	.code	16                              @ @dma_flag_clear
	.thumb_func
dma_flag_clear:
.Lfunc_begin22:
	.loc	4 524 0 is_stmt 1               @ ../std/GD32C2x1_Firmware_Library/GD32C2x1_standard_peripheral/Source/gd32c2x1_dma.c:524:0
	.fnstart
	.cfi_startproc
@ %bb.0:
	.pad	#8
	sub	sp, #8
	.cfi_def_cfa_offset 8
	mov	r2, r0
                                        @ kill: def $r0 killed $r2
	add	r0, sp, #4
	strb	r2, [r0]
	str	r1, [sp]
.Ltmp73:
	.loc	4 525 17 prologue_end           @ ../std/GD32C2x1_Firmware_Library/GD32C2x1_standard_peripheral/Source/gd32c2x1_dma.c:525:17
	ldr	r2, [sp]
	ldrb	r0, [r0]
	lsls	r0, r0, #2
	lsls	r2, r0
	ldr	r1, __arm_cp.22_0
	.loc	4 525 14 is_stmt 0              @ ../std/GD32C2x1_Firmware_Library/GD32C2x1_standard_peripheral/Source/gd32c2x1_dma.c:525:14
	ldr	r0, [r1]
	orrs	r0, r2
	str	r0, [r1]
	.loc	4 526 1 is_stmt 1               @ ../std/GD32C2x1_Firmware_Library/GD32C2x1_standard_peripheral/Source/gd32c2x1_dma.c:526:1
	add	sp, #8
	bx	lr
.Ltmp74:
	.p2align	2
@ %bb.1:
	.loc	4 0 1 is_stmt 0                 @ ../std/GD32C2x1_Firmware_Library/GD32C2x1_standard_peripheral/Source/gd32c2x1_dma.c:0:1
__arm_cp.22_0:
	.long	1073872900                      @ 0x40020004
.Lcpi_end29:
	.size	__arm_cp.22_0, .Lcpi_end29-__arm_cp.22_0
.Lfunc_end22:
	.size	dma_flag_clear, .Lfunc_end22-dma_flag_clear
	.cfi_endproc
	.cantunwind
	.fnend
                                        @ -- End function
	.section	.text.dma_interrupt_flag_get,"ax",%progbits
	.hidden	dma_interrupt_flag_get          @ -- Begin function dma_interrupt_flag_get
	.globl	dma_interrupt_flag_get
	.p2align	2
	.type	dma_interrupt_flag_get,%function
	.code	16                              @ @dma_interrupt_flag_get
	.thumb_func
dma_interrupt_flag_get:
.Lfunc_begin23:
	.loc	4 542 0 is_stmt 1               @ ../std/GD32C2x1_Firmware_Library/GD32C2x1_standard_peripheral/Source/gd32c2x1_dma.c:542:0
	.fnstart
	.cfi_startproc
@ %bb.0:
	.pad	#24
	sub	sp, #24
	.cfi_def_cfa_offset 24
                                        @ kill: def $r2 killed $r0
	add	r2, sp, #20
	strb	r0, [r2]
	str	r1, [sp, #16]
	add	r1, sp, #12
	movs	r0, #0
.Ltmp75:
	.loc	4 543 16 prologue_end           @ ../std/GD32C2x1_Firmware_Library/GD32C2x1_standard_peripheral/Source/gd32c2x1_dma.c:543:16
	strb	r0, [r1]
	.loc	4 544 14                        @ ../std/GD32C2x1_Firmware_Library/GD32C2x1_standard_peripheral/Source/gd32c2x1_dma.c:544:14
	str	r0, [sp, #8]
	.loc	4 544 37 is_stmt 0              @ ../std/GD32C2x1_Firmware_Library/GD32C2x1_standard_peripheral/Source/gd32c2x1_dma.c:544:37
	str	r0, [sp, #4]
	.loc	4 545 12 is_stmt 1              @ ../std/GD32C2x1_Firmware_Library/GD32C2x1_standard_peripheral/Source/gd32c2x1_dma.c:545:12
	ldr	r0, [sp, #16]
	.loc	4 545 5 is_stmt 0               @ ../std/GD32C2x1_Firmware_Library/GD32C2x1_standard_peripheral/Source/gd32c2x1_dma.c:545:5
	str	r0, [sp]                        @ 4-byte Spill
	cmp	r0, #2
	beq	.LBB23_3
	b	.LBB23_1
.LBB23_1:
	ldr	r0, [sp]                        @ 4-byte Reload
	cmp	r0, #4
	beq	.LBB23_4
	b	.LBB23_2
.LBB23_2:
	ldr	r0, [sp]                        @ 4-byte Reload
	cmp	r0, #8
	beq	.LBB23_5
	b	.LBB23_6
.LBB23_3:
	.loc	4 0 5                           @ ../std/GD32C2x1_Firmware_Library/GD32C2x1_standard_peripheral/Source/gd32c2x1_dma.c:0:5
	ldr	r0, __arm_cp.23_0
.Ltmp76:
	.loc	4 547 30 is_stmt 1              @ ../std/GD32C2x1_Firmware_Library/GD32C2x1_standard_peripheral/Source/gd32c2x1_dma.c:547:30
	ldr	r1, [r0]
	.loc	4 547 41 is_stmt 0              @ ../std/GD32C2x1_Firmware_Library/GD32C2x1_standard_peripheral/Source/gd32c2x1_dma.c:547:41
	ldr	r2, [sp, #16]
	add	r0, sp, #20
	ldrb	r3, [r0]
	lsls	r3, r3, #2
	lsls	r2, r3
	.loc	4 547 39                        @ ../std/GD32C2x1_Firmware_Library/GD32C2x1_standard_peripheral/Source/gd32c2x1_dma.c:547:39
	ands	r1, r2
	.loc	4 547 28                        @ ../std/GD32C2x1_Firmware_Library/GD32C2x1_standard_peripheral/Source/gd32c2x1_dma.c:547:28
	str	r1, [sp, #4]
	.loc	4 548 32 is_stmt 1              @ ../std/GD32C2x1_Firmware_Library/GD32C2x1_standard_peripheral/Source/gd32c2x1_dma.c:548:32
	ldrb	r1, [r0]
	movs	r0, #20
	muls	r0, r1, r0
	ldr	r1, __arm_cp.23_1
	ldr	r0, [r0, r1]
	movs	r1, #2
	.loc	4 548 52 is_stmt 0              @ ../std/GD32C2x1_Firmware_Library/GD32C2x1_standard_peripheral/Source/gd32c2x1_dma.c:548:52
	ands	r0, r1
	.loc	4 548 30                        @ ../std/GD32C2x1_Firmware_Library/GD32C2x1_standard_peripheral/Source/gd32c2x1_dma.c:548:30
	str	r0, [sp, #8]
	.loc	4 549 13 is_stmt 1              @ ../std/GD32C2x1_Firmware_Library/GD32C2x1_standard_peripheral/Source/gd32c2x1_dma.c:549:13
	b	.LBB23_7
.LBB23_4:
	.loc	4 0 13 is_stmt 0                @ ../std/GD32C2x1_Firmware_Library/GD32C2x1_standard_peripheral/Source/gd32c2x1_dma.c:0:13
	ldr	r0, __arm_cp.23_0
	.loc	4 551 30 is_stmt 1              @ ../std/GD32C2x1_Firmware_Library/GD32C2x1_standard_peripheral/Source/gd32c2x1_dma.c:551:30
	ldr	r1, [r0]
	.loc	4 551 41 is_stmt 0              @ ../std/GD32C2x1_Firmware_Library/GD32C2x1_standard_peripheral/Source/gd32c2x1_dma.c:551:41
	ldr	r2, [sp, #16]
	add	r0, sp, #20
	ldrb	r3, [r0]
	lsls	r3, r3, #2
	lsls	r2, r3
	.loc	4 551 39                        @ ../std/GD32C2x1_Firmware_Library/GD32C2x1_standard_peripheral/Source/gd32c2x1_dma.c:551:39
	ands	r1, r2
	.loc	4 551 28                        @ ../std/GD32C2x1_Firmware_Library/GD32C2x1_standard_peripheral/Source/gd32c2x1_dma.c:551:28
	str	r1, [sp, #4]
	.loc	4 552 32 is_stmt 1              @ ../std/GD32C2x1_Firmware_Library/GD32C2x1_standard_peripheral/Source/gd32c2x1_dma.c:552:32
	ldrb	r1, [r0]
	movs	r0, #20
	muls	r0, r1, r0
	ldr	r1, __arm_cp.23_1
	ldr	r0, [r0, r1]
	movs	r1, #4
	.loc	4 552 52 is_stmt 0              @ ../std/GD32C2x1_Firmware_Library/GD32C2x1_standard_peripheral/Source/gd32c2x1_dma.c:552:52
	ands	r0, r1
	.loc	4 552 30                        @ ../std/GD32C2x1_Firmware_Library/GD32C2x1_standard_peripheral/Source/gd32c2x1_dma.c:552:30
	str	r0, [sp, #8]
	.loc	4 553 13 is_stmt 1              @ ../std/GD32C2x1_Firmware_Library/GD32C2x1_standard_peripheral/Source/gd32c2x1_dma.c:553:13
	b	.LBB23_7
.LBB23_5:
	.loc	4 0 13 is_stmt 0                @ ../std/GD32C2x1_Firmware_Library/GD32C2x1_standard_peripheral/Source/gd32c2x1_dma.c:0:13
	ldr	r0, __arm_cp.23_0
	.loc	4 555 30 is_stmt 1              @ ../std/GD32C2x1_Firmware_Library/GD32C2x1_standard_peripheral/Source/gd32c2x1_dma.c:555:30
	ldr	r1, [r0]
	.loc	4 555 41 is_stmt 0              @ ../std/GD32C2x1_Firmware_Library/GD32C2x1_standard_peripheral/Source/gd32c2x1_dma.c:555:41
	ldr	r2, [sp, #16]
	add	r0, sp, #20
	ldrb	r3, [r0]
	lsls	r3, r3, #2
	lsls	r2, r3
	.loc	4 555 39                        @ ../std/GD32C2x1_Firmware_Library/GD32C2x1_standard_peripheral/Source/gd32c2x1_dma.c:555:39
	ands	r1, r2
	.loc	4 555 28                        @ ../std/GD32C2x1_Firmware_Library/GD32C2x1_standard_peripheral/Source/gd32c2x1_dma.c:555:28
	str	r1, [sp, #4]
	.loc	4 556 32 is_stmt 1              @ ../std/GD32C2x1_Firmware_Library/GD32C2x1_standard_peripheral/Source/gd32c2x1_dma.c:556:32
	ldrb	r1, [r0]
	movs	r0, #20
	muls	r0, r1, r0
	ldr	r1, __arm_cp.23_1
	ldr	r0, [r0, r1]
	movs	r1, #8
	.loc	4 556 52 is_stmt 0              @ ../std/GD32C2x1_Firmware_Library/GD32C2x1_standard_peripheral/Source/gd32c2x1_dma.c:556:52
	ands	r0, r1
	.loc	4 556 30                        @ ../std/GD32C2x1_Firmware_Library/GD32C2x1_standard_peripheral/Source/gd32c2x1_dma.c:556:30
	str	r0, [sp, #8]
	.loc	4 557 13 is_stmt 1              @ ../std/GD32C2x1_Firmware_Library/GD32C2x1_standard_peripheral/Source/gd32c2x1_dma.c:557:13
	b	.LBB23_7
.LBB23_6:
	.loc	4 559 13                        @ ../std/GD32C2x1_Firmware_Library/GD32C2x1_standard_peripheral/Source/gd32c2x1_dma.c:559:13
	b	.LBB23_7
.Ltmp77:
.LBB23_7:
	.loc	4 562 15                        @ ../std/GD32C2x1_Firmware_Library/GD32C2x1_standard_peripheral/Source/gd32c2x1_dma.c:562:15
	ldr	r0, [sp, #4]
	.loc	4 562 31 is_stmt 0              @ ../std/GD32C2x1_Firmware_Library/GD32C2x1_standard_peripheral/Source/gd32c2x1_dma.c:562:31
	cbz	r0, .LBB23_10
	b	.LBB23_8
.LBB23_8:
	.loc	4 562 41                        @ ../std/GD32C2x1_Firmware_Library/GD32C2x1_standard_peripheral/Source/gd32c2x1_dma.c:562:41
	ldr	r0, [sp, #8]
.Ltmp78:
	.loc	4 562 8                         @ ../std/GD32C2x1_Firmware_Library/GD32C2x1_standard_peripheral/Source/gd32c2x1_dma.c:562:8
	cbz	r0, .LBB23_10
	b	.LBB23_9
.LBB23_9:
	.loc	4 0 8                           @ ../std/GD32C2x1_Firmware_Library/GD32C2x1_standard_peripheral/Source/gd32c2x1_dma.c:0:8
	add	r1, sp, #12
	movs	r0, #1
.Ltmp79:
	.loc	4 563 15 is_stmt 1              @ ../std/GD32C2x1_Firmware_Library/GD32C2x1_standard_peripheral/Source/gd32c2x1_dma.c:563:15
	strb	r0, [r1]
	.loc	4 564 5                         @ ../std/GD32C2x1_Firmware_Library/GD32C2x1_standard_peripheral/Source/gd32c2x1_dma.c:564:5
	b	.LBB23_11
.Ltmp80:
.LBB23_10:
	.loc	4 0 5 is_stmt 0                 @ ../std/GD32C2x1_Firmware_Library/GD32C2x1_standard_peripheral/Source/gd32c2x1_dma.c:0:5
	add	r1, sp, #12
	movs	r0, #0
.Ltmp81:
	.loc	4 565 15 is_stmt 1              @ ../std/GD32C2x1_Firmware_Library/GD32C2x1_standard_peripheral/Source/gd32c2x1_dma.c:565:15
	strb	r0, [r1]
	b	.LBB23_11
.Ltmp82:
.LBB23_11:
	.loc	4 0 15 is_stmt 0                @ ../std/GD32C2x1_Firmware_Library/GD32C2x1_standard_peripheral/Source/gd32c2x1_dma.c:0:15
	add	r0, sp, #12
	.loc	4 567 12 is_stmt 1              @ ../std/GD32C2x1_Firmware_Library/GD32C2x1_standard_peripheral/Source/gd32c2x1_dma.c:567:12
	ldrb	r0, [r0]
	.loc	4 567 5 is_stmt 0               @ ../std/GD32C2x1_Firmware_Library/GD32C2x1_standard_peripheral/Source/gd32c2x1_dma.c:567:5
	add	sp, #24
	bx	lr
.Ltmp83:
	.p2align	2
@ %bb.12:
	.loc	4 0 5                           @ ../std/GD32C2x1_Firmware_Library/GD32C2x1_standard_peripheral/Source/gd32c2x1_dma.c:0:5
__arm_cp.23_0:
	.long	1073872896                      @ 0x40020000
.Lcpi_end30:
	.size	__arm_cp.23_0, .Lcpi_end30-__arm_cp.23_0
__arm_cp.23_1:
	.long	1073872904                      @ 0x40020008
.Lcpi_end31:
	.size	__arm_cp.23_1, .Lcpi_end31-__arm_cp.23_1
.Lfunc_end23:
	.size	dma_interrupt_flag_get, .Lfunc_end23-dma_interrupt_flag_get
	.cfi_endproc
	.cantunwind
	.fnend
                                        @ -- End function
	.section	.text.dma_interrupt_flag_clear,"ax",%progbits
	.hidden	dma_interrupt_flag_clear        @ -- Begin function dma_interrupt_flag_clear
	.globl	dma_interrupt_flag_clear
	.p2align	2
	.type	dma_interrupt_flag_clear,%function
	.code	16                              @ @dma_interrupt_flag_clear
	.thumb_func
dma_interrupt_flag_clear:
.Lfunc_begin24:
	.loc	4 585 0 is_stmt 1               @ ../std/GD32C2x1_Firmware_Library/GD32C2x1_standard_peripheral/Source/gd32c2x1_dma.c:585:0
	.fnstart
	.cfi_startproc
@ %bb.0:
	.pad	#8
	sub	sp, #8
	.cfi_def_cfa_offset 8
	mov	r2, r0
                                        @ kill: def $r0 killed $r2
	add	r0, sp, #4
	strb	r2, [r0]
	str	r1, [sp]
.Ltmp84:
	.loc	4 586 17 prologue_end           @ ../std/GD32C2x1_Firmware_Library/GD32C2x1_standard_peripheral/Source/gd32c2x1_dma.c:586:17
	ldr	r2, [sp]
	ldrb	r0, [r0]
	lsls	r0, r0, #2
	lsls	r2, r0
	ldr	r1, __arm_cp.24_0
	.loc	4 586 14 is_stmt 0              @ ../std/GD32C2x1_Firmware_Library/GD32C2x1_standard_peripheral/Source/gd32c2x1_dma.c:586:14
	ldr	r0, [r1]
	orrs	r0, r2
	str	r0, [r1]
	.loc	4 587 1 is_stmt 1               @ ../std/GD32C2x1_Firmware_Library/GD32C2x1_standard_peripheral/Source/gd32c2x1_dma.c:587:1
	add	sp, #8
	bx	lr
.Ltmp85:
	.p2align	2
@ %bb.1:
	.loc	4 0 1 is_stmt 0                 @ ../std/GD32C2x1_Firmware_Library/GD32C2x1_standard_peripheral/Source/gd32c2x1_dma.c:0:1
__arm_cp.24_0:
	.long	1073872900                      @ 0x40020004
.Lcpi_end32:
	.size	__arm_cp.24_0, .Lcpi_end32-__arm_cp.24_0
.Lfunc_end24:
	.size	dma_interrupt_flag_clear, .Lfunc_end24-dma_interrupt_flag_clear
	.cfi_endproc
	.cantunwind
	.fnend
                                        @ -- End function
	.section	.text.dma_interrupt_enable,"ax",%progbits
	.hidden	dma_interrupt_enable            @ -- Begin function dma_interrupt_enable
	.globl	dma_interrupt_enable
	.p2align	2
	.type	dma_interrupt_enable,%function
	.code	16                              @ @dma_interrupt_enable
	.thumb_func
dma_interrupt_enable:
.Lfunc_begin25:
	.loc	4 603 0 is_stmt 1               @ ../std/GD32C2x1_Firmware_Library/GD32C2x1_standard_peripheral/Source/gd32c2x1_dma.c:603:0
	.fnstart
	.cfi_startproc
@ %bb.0:
	.pad	#8
	sub	sp, #8
	.cfi_def_cfa_offset 8
	mov	r2, r0
                                        @ kill: def $r0 killed $r2
	add	r0, sp, #4
	strb	r2, [r0]
	str	r1, [sp]
.Ltmp86:
	.loc	4 604 28 prologue_end           @ ../std/GD32C2x1_Firmware_Library/GD32C2x1_standard_peripheral/Source/gd32c2x1_dma.c:604:28
	ldr	r3, [sp]
	movs	r1, #30
	.loc	4 604 35 is_stmt 0              @ ../std/GD32C2x1_Firmware_Library/GD32C2x1_standard_peripheral/Source/gd32c2x1_dma.c:604:35
	ands	r3, r1
	.loc	4 604 5                         @ ../std/GD32C2x1_Firmware_Library/GD32C2x1_standard_peripheral/Source/gd32c2x1_dma.c:604:5
	ldrb	r0, [r0]
	movs	r1, #20
	muls	r1, r0, r1
	ldr	r2, __arm_cp.25_0
	.loc	4 604 25                        @ ../std/GD32C2x1_Firmware_Library/GD32C2x1_standard_peripheral/Source/gd32c2x1_dma.c:604:25
	ldr	r0, [r1, r2]
	orrs	r0, r3
	str	r0, [r1, r2]
	.loc	4 605 1 is_stmt 1               @ ../std/GD32C2x1_Firmware_Library/GD32C2x1_standard_peripheral/Source/gd32c2x1_dma.c:605:1
	add	sp, #8
	bx	lr
.Ltmp87:
	.p2align	2
@ %bb.1:
	.loc	4 0 1 is_stmt 0                 @ ../std/GD32C2x1_Firmware_Library/GD32C2x1_standard_peripheral/Source/gd32c2x1_dma.c:0:1
__arm_cp.25_0:
	.long	1073872904                      @ 0x40020008
.Lcpi_end33:
	.size	__arm_cp.25_0, .Lcpi_end33-__arm_cp.25_0
.Lfunc_end25:
	.size	dma_interrupt_enable, .Lfunc_end25-dma_interrupt_enable
	.cfi_endproc
	.cantunwind
	.fnend
                                        @ -- End function
	.section	.text.dma_interrupt_disable,"ax",%progbits
	.hidden	dma_interrupt_disable           @ -- Begin function dma_interrupt_disable
	.globl	dma_interrupt_disable
	.p2align	2
	.type	dma_interrupt_disable,%function
	.code	16                              @ @dma_interrupt_disable
	.thumb_func
dma_interrupt_disable:
.Lfunc_begin26:
	.loc	4 621 0 is_stmt 1               @ ../std/GD32C2x1_Firmware_Library/GD32C2x1_standard_peripheral/Source/gd32c2x1_dma.c:621:0
	.fnstart
	.cfi_startproc
@ %bb.0:
	.pad	#8
	sub	sp, #8
	.cfi_def_cfa_offset 8
	mov	r2, r0
                                        @ kill: def $r0 killed $r2
	add	r0, sp, #4
	strb	r2, [r0]
	str	r1, [sp]
.Ltmp88:
	.loc	4 622 29 prologue_end           @ ../std/GD32C2x1_Firmware_Library/GD32C2x1_standard_peripheral/Source/gd32c2x1_dma.c:622:29
	ldr	r3, [sp]
	.loc	4 622 5 is_stmt 0               @ ../std/GD32C2x1_Firmware_Library/GD32C2x1_standard_peripheral/Source/gd32c2x1_dma.c:622:5
	ldrb	r0, [r0]
	movs	r1, #20
	muls	r1, r0, r1
	ldr	r2, __arm_cp.26_0
	.loc	4 622 25                        @ ../std/GD32C2x1_Firmware_Library/GD32C2x1_standard_peripheral/Source/gd32c2x1_dma.c:622:25
	ldr	r0, [r1, r2]
	.loc	4 622 36                        @ ../std/GD32C2x1_Firmware_Library/GD32C2x1_standard_peripheral/Source/gd32c2x1_dma.c:622:36
	bics	r0, r3
	movs	r3, #30
	.loc	4 622 25                        @ ../std/GD32C2x1_Firmware_Library/GD32C2x1_standard_peripheral/Source/gd32c2x1_dma.c:622:25
	ands	r0, r3
	str	r0, [r1, r2]
	.loc	4 623 1 is_stmt 1               @ ../std/GD32C2x1_Firmware_Library/GD32C2x1_standard_peripheral/Source/gd32c2x1_dma.c:623:1
	add	sp, #8
	bx	lr
.Ltmp89:
	.p2align	2
@ %bb.1:
	.loc	4 0 1 is_stmt 0                 @ ../std/GD32C2x1_Firmware_Library/GD32C2x1_standard_peripheral/Source/gd32c2x1_dma.c:0:1
__arm_cp.26_0:
	.long	1073872904                      @ 0x40020008
.Lcpi_end34:
	.size	__arm_cp.26_0, .Lcpi_end34-__arm_cp.26_0
.Lfunc_end26:
	.size	dma_interrupt_disable, .Lfunc_end26-dma_interrupt_disable
	.cfi_endproc
	.cantunwind
	.fnend
                                        @ -- End function
	.section	.text.dmamux_sync_struct_para_init,"ax",%progbits
	.hidden	dmamux_sync_struct_para_init    @ -- Begin function dmamux_sync_struct_para_init
	.globl	dmamux_sync_struct_para_init
	.p2align	1
	.type	dmamux_sync_struct_para_init,%function
	.code	16                              @ @dmamux_sync_struct_para_init
	.thumb_func
dmamux_sync_struct_para_init:
.Lfunc_begin27:
	.loc	4 632 0 is_stmt 1               @ ../std/GD32C2x1_Firmware_Library/GD32C2x1_standard_peripheral/Source/gd32c2x1_dma.c:632:0
	.fnstart
	.cfi_startproc
@ %bb.0:
	.pad	#4
	sub	sp, #4
	.cfi_def_cfa_offset 4
	str	r0, [sp]
.Ltmp90:
	.loc	4 640 9 prologue_end            @ ../std/GD32C2x1_Firmware_Library/GD32C2x1_standard_peripheral/Source/gd32c2x1_dma.c:640:9
	ldr	r2, [sp]
	movs	r0, #1
	lsls	r1, r0, #28
	.loc	4 640 37 is_stmt 0              @ ../std/GD32C2x1_Firmware_Library/GD32C2x1_standard_peripheral/Source/gd32c2x1_dma.c:640:37
	str	r1, [r2]
	.loc	4 641 9 is_stmt 1               @ ../std/GD32C2x1_Firmware_Library/GD32C2x1_standard_peripheral/Source/gd32c2x1_dma.c:641:9
	ldr	r2, [sp]
	lsls	r1, r0, #17
	.loc	4 641 37 is_stmt 0              @ ../std/GD32C2x1_Firmware_Library/GD32C2x1_standard_peripheral/Source/gd32c2x1_dma.c:641:37
	str	r1, [r2, #4]
	.loc	4 642 9 is_stmt 1               @ ../std/GD32C2x1_Firmware_Library/GD32C2x1_standard_peripheral/Source/gd32c2x1_dma.c:642:9
	ldr	r1, [sp]
	.loc	4 642 37 is_stmt 0              @ ../std/GD32C2x1_Firmware_Library/GD32C2x1_standard_peripheral/Source/gd32c2x1_dma.c:642:37
	str	r0, [r1, #8]
.Ltmp91:
	.loc	4 644 1 is_stmt 1               @ ../std/GD32C2x1_Firmware_Library/GD32C2x1_standard_peripheral/Source/gd32c2x1_dma.c:644:1
	add	sp, #4
	bx	lr
.Ltmp92:
.Lfunc_end27:
	.size	dmamux_sync_struct_para_init, .Lfunc_end27-dmamux_sync_struct_para_init
	.cfi_endproc
	.cantunwind
	.fnend
                                        @ -- End function
	.section	.text.dmamux_synchronization_init,"ax",%progbits
	.hidden	dmamux_synchronization_init     @ -- Begin function dmamux_synchronization_init
	.globl	dmamux_synchronization_init
	.p2align	2
	.type	dmamux_synchronization_init,%function
	.code	16                              @ @dmamux_synchronization_init
	.thumb_func
dmamux_synchronization_init:
.Lfunc_begin28:
	.loc	4 664 0                         @ ../std/GD32C2x1_Firmware_Library/GD32C2x1_standard_peripheral/Source/gd32c2x1_dma.c:664:0
	.fnstart
	.cfi_startproc
@ %bb.0:
	.save	{r4, r5, r6, lr}
	push	{r4, r5, r6, lr}
	.cfi_def_cfa_offset 16
	.cfi_offset lr, -4
	.cfi_offset r6, -8
	.cfi_offset r5, -12
	.cfi_offset r4, -16
	.pad	#16
	sub	sp, #16
	.cfi_def_cfa_offset 32
	str	r1, [sp]                        @ 4-byte Spill
	mov	r2, r0
	ldr	r0, [sp]                        @ 4-byte Reload
                                        @ kill: def $r1 killed $r2
	add	r1, sp, #12
	strb	r2, [r1]
	str	r0, [sp, #8]
.Ltmp93:
	.loc	4 673 9 prologue_end            @ ../std/GD32C2x1_Firmware_Library/GD32C2x1_standard_peripheral/Source/gd32c2x1_dma.c:673:9
	ldrb	r0, [r1]
	lsls	r3, r0, #2
	ldr	r2, __arm_cp.28_0
	.loc	4 673 36 is_stmt 0              @ ../std/GD32C2x1_Firmware_Library/GD32C2x1_standard_peripheral/Source/gd32c2x1_dma.c:673:36
	ldr	r0, [r3, r2]
	movs	r4, #129
	lsls	r4, r4, #9
	bics	r0, r4
	str	r0, [r3, r2]
	.loc	4 676 15 is_stmt 1              @ ../std/GD32C2x1_Firmware_Library/GD32C2x1_standard_peripheral/Source/gd32c2x1_dma.c:676:15
	ldrb	r0, [r1]
	lsls	r0, r0, #2
	ldr	r0, [r0, r2]
	.loc	4 676 13 is_stmt 0              @ ../std/GD32C2x1_Firmware_Library/GD32C2x1_standard_peripheral/Source/gd32c2x1_dma.c:676:13
	str	r0, [sp, #4]
	.loc	4 677 13 is_stmt 1              @ ../std/GD32C2x1_Firmware_Library/GD32C2x1_standard_peripheral/Source/gd32c2x1_dma.c:677:13
	ldr	r0, [sp, #4]
	ldr	r3, __arm_cp.28_1
	ands	r0, r3
	str	r0, [sp, #4]
	.loc	4 678 18                        @ ../std/GD32C2x1_Firmware_Library/GD32C2x1_standard_peripheral/Source/gd32c2x1_dma.c:678:18
	ldr	r3, [sp, #8]
	.loc	4 678 31 is_stmt 0              @ ../std/GD32C2x1_Firmware_Library/GD32C2x1_standard_peripheral/Source/gd32c2x1_dma.c:678:31
	ldr	r0, [r3, #4]
	movs	r4, #3
	lsls	r4, r4, #17
	.loc	4 678 45                        @ ../std/GD32C2x1_Firmware_Library/GD32C2x1_standard_peripheral/Source/gd32c2x1_dma.c:678:45
	ands	r0, r4
	.loc	4 678 87                        @ ../std/GD32C2x1_Firmware_Library/GD32C2x1_standard_peripheral/Source/gd32c2x1_dma.c:678:87
	ldr	r5, [r3]
	movs	r4, #31
	lsls	r6, r4, #24
	.loc	4 678 95                        @ ../std/GD32C2x1_Firmware_Library/GD32C2x1_standard_peripheral/Source/gd32c2x1_dma.c:678:95
	ands	r5, r6
	.loc	4 678 71                        @ ../std/GD32C2x1_Firmware_Library/GD32C2x1_standard_peripheral/Source/gd32c2x1_dma.c:678:71
	adds	r0, r0, r5
	.loc	4 678 124                       @ ../std/GD32C2x1_Firmware_Library/GD32C2x1_standard_peripheral/Source/gd32c2x1_dma.c:678:124
	ldr	r3, [r3, #8]
	lsls	r3, r3, #19
	ldr	r5, __arm_cp.28_2
	adds	r3, r3, r5
	lsls	r4, r4, #19
	ands	r3, r4
	.loc	4 678 122                       @ ../std/GD32C2x1_Firmware_Library/GD32C2x1_standard_peripheral/Source/gd32c2x1_dma.c:678:122
	adds	r3, r0, r3
	.loc	4 678 13                        @ ../std/GD32C2x1_Firmware_Library/GD32C2x1_standard_peripheral/Source/gd32c2x1_dma.c:678:13
	ldr	r0, [sp, #4]
	orrs	r0, r3
	str	r0, [sp, #4]
	.loc	4 679 38 is_stmt 1              @ ../std/GD32C2x1_Firmware_Library/GD32C2x1_standard_peripheral/Source/gd32c2x1_dma.c:679:38
	ldr	r0, [sp, #4]
	.loc	4 679 9 is_stmt 0               @ ../std/GD32C2x1_Firmware_Library/GD32C2x1_standard_peripheral/Source/gd32c2x1_dma.c:679:9
	ldrb	r1, [r1]
	lsls	r1, r1, #2
	.loc	4 679 36                        @ ../std/GD32C2x1_Firmware_Library/GD32C2x1_standard_peripheral/Source/gd32c2x1_dma.c:679:36
	str	r0, [r1, r2]
.Ltmp94:
	.loc	4 681 1 is_stmt 1               @ ../std/GD32C2x1_Firmware_Library/GD32C2x1_standard_peripheral/Source/gd32c2x1_dma.c:681:1
	add	sp, #16
	pop	{r4, r5, r6, pc}
.Ltmp95:
	.p2align	2
@ %bb.1:
	.loc	4 0 1 is_stmt 0                 @ ../std/GD32C2x1_Firmware_Library/GD32C2x1_standard_peripheral/Source/gd32c2x1_dma.c:0:1
__arm_cp.28_0:
	.long	1073874944                      @ 0x40020800
.Lcpi_end35:
	.size	__arm_cp.28_0, .Lcpi_end35-__arm_cp.28_0
__arm_cp.28_1:
	.long	3758227455                      @ 0xe001ffff
.Lcpi_end36:
	.size	__arm_cp.28_1, .Lcpi_end36-__arm_cp.28_1
__arm_cp.28_2:
	.long	4294443008                      @ 0xfff80000
.Lcpi_end37:
	.size	__arm_cp.28_2, .Lcpi_end37-__arm_cp.28_2
.Lfunc_end28:
	.size	dmamux_synchronization_init, .Lfunc_end28-dmamux_synchronization_init
	.cfi_endproc
	.cantunwind
	.fnend
                                        @ -- End function
	.section	.text.dmamux_synchronization_enable,"ax",%progbits
	.hidden	dmamux_synchronization_enable   @ -- Begin function dmamux_synchronization_enable
	.globl	dmamux_synchronization_enable
	.p2align	2
	.type	dmamux_synchronization_enable,%function
	.code	16                              @ @dmamux_synchronization_enable
	.thumb_func
dmamux_synchronization_enable:
.Lfunc_begin29:
	.loc	4 692 0 is_stmt 1               @ ../std/GD32C2x1_Firmware_Library/GD32C2x1_standard_peripheral/Source/gd32c2x1_dma.c:692:0
	.fnstart
	.cfi_startproc
@ %bb.0:
	.pad	#4
	sub	sp, #4
	.cfi_def_cfa_offset 4
	mov	r1, r0
                                        @ kill: def $r0 killed $r1
	mov	r0, sp
	strb	r1, [r0]
.Ltmp96:
	.loc	4 693 5 prologue_end            @ ../std/GD32C2x1_Firmware_Library/GD32C2x1_standard_peripheral/Source/gd32c2x1_dma.c:693:5
	ldrb	r0, [r0]
	lsls	r1, r0, #2
	ldr	r2, __arm_cp.29_0
	.loc	4 693 32 is_stmt 0              @ ../std/GD32C2x1_Firmware_Library/GD32C2x1_standard_peripheral/Source/gd32c2x1_dma.c:693:32
	ldr	r0, [r1, r2]
	movs	r3, #1
	lsls	r3, r3, #16
	orrs	r0, r3
	str	r0, [r1, r2]
	.loc	4 694 1 is_stmt 1               @ ../std/GD32C2x1_Firmware_Library/GD32C2x1_standard_peripheral/Source/gd32c2x1_dma.c:694:1
	add	sp, #4
	bx	lr
.Ltmp97:
	.p2align	2
@ %bb.1:
	.loc	4 0 1 is_stmt 0                 @ ../std/GD32C2x1_Firmware_Library/GD32C2x1_standard_peripheral/Source/gd32c2x1_dma.c:0:1
__arm_cp.29_0:
	.long	1073874944                      @ 0x40020800
.Lcpi_end38:
	.size	__arm_cp.29_0, .Lcpi_end38-__arm_cp.29_0
.Lfunc_end29:
	.size	dmamux_synchronization_enable, .Lfunc_end29-dmamux_synchronization_enable
	.cfi_endproc
	.cantunwind
	.fnend
                                        @ -- End function
	.section	.text.dmamux_synchronization_disable,"ax",%progbits
	.hidden	dmamux_synchronization_disable  @ -- Begin function dmamux_synchronization_disable
	.globl	dmamux_synchronization_disable
	.p2align	2
	.type	dmamux_synchronization_disable,%function
	.code	16                              @ @dmamux_synchronization_disable
	.thumb_func
dmamux_synchronization_disable:
.Lfunc_begin30:
	.loc	4 705 0 is_stmt 1               @ ../std/GD32C2x1_Firmware_Library/GD32C2x1_standard_peripheral/Source/gd32c2x1_dma.c:705:0
	.fnstart
	.cfi_startproc
@ %bb.0:
	.pad	#4
	sub	sp, #4
	.cfi_def_cfa_offset 4
	mov	r1, r0
                                        @ kill: def $r0 killed $r1
	mov	r0, sp
	strb	r1, [r0]
.Ltmp98:
	.loc	4 706 5 prologue_end            @ ../std/GD32C2x1_Firmware_Library/GD32C2x1_standard_peripheral/Source/gd32c2x1_dma.c:706:5
	ldrb	r0, [r0]
	lsls	r1, r0, #2
	ldr	r2, __arm_cp.30_0
	.loc	4 706 32 is_stmt 0              @ ../std/GD32C2x1_Firmware_Library/GD32C2x1_standard_peripheral/Source/gd32c2x1_dma.c:706:32
	ldr	r0, [r1, r2]
	movs	r3, #1
	lsls	r3, r3, #16
	bics	r0, r3
	str	r0, [r1, r2]
	.loc	4 707 1 is_stmt 1               @ ../std/GD32C2x1_Firmware_Library/GD32C2x1_standard_peripheral/Source/gd32c2x1_dma.c:707:1
	add	sp, #4
	bx	lr
.Ltmp99:
	.p2align	2
@ %bb.1:
	.loc	4 0 1 is_stmt 0                 @ ../std/GD32C2x1_Firmware_Library/GD32C2x1_standard_peripheral/Source/gd32c2x1_dma.c:0:1
__arm_cp.30_0:
	.long	1073874944                      @ 0x40020800
.Lcpi_end39:
	.size	__arm_cp.30_0, .Lcpi_end39-__arm_cp.30_0
.Lfunc_end30:
	.size	dmamux_synchronization_disable, .Lfunc_end30-dmamux_synchronization_disable
	.cfi_endproc
	.cantunwind
	.fnend
                                        @ -- End function
	.section	.text.dmamux_event_generation_enable,"ax",%progbits
	.hidden	dmamux_event_generation_enable  @ -- Begin function dmamux_event_generation_enable
	.globl	dmamux_event_generation_enable
	.p2align	2
	.type	dmamux_event_generation_enable,%function
	.code	16                              @ @dmamux_event_generation_enable
	.thumb_func
dmamux_event_generation_enable:
.Lfunc_begin31:
	.loc	4 717 0 is_stmt 1               @ ../std/GD32C2x1_Firmware_Library/GD32C2x1_standard_peripheral/Source/gd32c2x1_dma.c:717:0
	.fnstart
	.cfi_startproc
@ %bb.0:
	.pad	#4
	sub	sp, #4
	.cfi_def_cfa_offset 4
	mov	r1, r0
                                        @ kill: def $r0 killed $r1
	mov	r0, sp
	strb	r1, [r0]
.Ltmp100:
	.loc	4 718 5 prologue_end            @ ../std/GD32C2x1_Firmware_Library/GD32C2x1_standard_peripheral/Source/gd32c2x1_dma.c:718:5
	ldrb	r0, [r0]
	lsls	r1, r0, #2
	ldr	r2, __arm_cp.31_0
	.loc	4 718 32 is_stmt 0              @ ../std/GD32C2x1_Firmware_Library/GD32C2x1_standard_peripheral/Source/gd32c2x1_dma.c:718:32
	ldr	r0, [r1, r2]
	movw	r3, #512
	orrs	r0, r3
	str	r0, [r1, r2]
	.loc	4 719 1 is_stmt 1               @ ../std/GD32C2x1_Firmware_Library/GD32C2x1_standard_peripheral/Source/gd32c2x1_dma.c:719:1
	add	sp, #4
	bx	lr
.Ltmp101:
	.p2align	2
@ %bb.1:
	.loc	4 0 1 is_stmt 0                 @ ../std/GD32C2x1_Firmware_Library/GD32C2x1_standard_peripheral/Source/gd32c2x1_dma.c:0:1
__arm_cp.31_0:
	.long	1073874944                      @ 0x40020800
.Lcpi_end40:
	.size	__arm_cp.31_0, .Lcpi_end40-__arm_cp.31_0
.Lfunc_end31:
	.size	dmamux_event_generation_enable, .Lfunc_end31-dmamux_event_generation_enable
	.cfi_endproc
	.cantunwind
	.fnend
                                        @ -- End function
	.section	.text.dmamux_event_generation_disable,"ax",%progbits
	.hidden	dmamux_event_generation_disable @ -- Begin function dmamux_event_generation_disable
	.globl	dmamux_event_generation_disable
	.p2align	2
	.type	dmamux_event_generation_disable,%function
	.code	16                              @ @dmamux_event_generation_disable
	.thumb_func
dmamux_event_generation_disable:
.Lfunc_begin32:
	.loc	4 730 0 is_stmt 1               @ ../std/GD32C2x1_Firmware_Library/GD32C2x1_standard_peripheral/Source/gd32c2x1_dma.c:730:0
	.fnstart
	.cfi_startproc
@ %bb.0:
	.pad	#4
	sub	sp, #4
	.cfi_def_cfa_offset 4
	mov	r1, r0
                                        @ kill: def $r0 killed $r1
	mov	r0, sp
	strb	r1, [r0]
.Ltmp102:
	.loc	4 731 5 prologue_end            @ ../std/GD32C2x1_Firmware_Library/GD32C2x1_standard_peripheral/Source/gd32c2x1_dma.c:731:5
	ldrb	r0, [r0]
	lsls	r1, r0, #2
	ldr	r2, __arm_cp.32_0
	.loc	4 731 32 is_stmt 0              @ ../std/GD32C2x1_Firmware_Library/GD32C2x1_standard_peripheral/Source/gd32c2x1_dma.c:731:32
	ldr	r0, [r1, r2]
	movw	r3, #512
	bics	r0, r3
	str	r0, [r1, r2]
	.loc	4 732 1 is_stmt 1               @ ../std/GD32C2x1_Firmware_Library/GD32C2x1_standard_peripheral/Source/gd32c2x1_dma.c:732:1
	add	sp, #4
	bx	lr
.Ltmp103:
	.p2align	2
@ %bb.1:
	.loc	4 0 1 is_stmt 0                 @ ../std/GD32C2x1_Firmware_Library/GD32C2x1_standard_peripheral/Source/gd32c2x1_dma.c:0:1
__arm_cp.32_0:
	.long	1073874944                      @ 0x40020800
.Lcpi_end41:
	.size	__arm_cp.32_0, .Lcpi_end41-__arm_cp.32_0
.Lfunc_end32:
	.size	dmamux_event_generation_disable, .Lfunc_end32-dmamux_event_generation_disable
	.cfi_endproc
	.cantunwind
	.fnend
                                        @ -- End function
	.section	.text.dmamux_gen_struct_para_init,"ax",%progbits
	.hidden	dmamux_gen_struct_para_init     @ -- Begin function dmamux_gen_struct_para_init
	.globl	dmamux_gen_struct_para_init
	.p2align	1
	.type	dmamux_gen_struct_para_init,%function
	.code	16                              @ @dmamux_gen_struct_para_init
	.thumb_func
dmamux_gen_struct_para_init:
.Lfunc_begin33:
	.loc	4 741 0 is_stmt 1               @ ../std/GD32C2x1_Firmware_Library/GD32C2x1_standard_peripheral/Source/gd32c2x1_dma.c:741:0
	.fnstart
	.cfi_startproc
@ %bb.0:
	.pad	#4
	sub	sp, #4
	.cfi_def_cfa_offset 4
	str	r0, [sp]
.Ltmp104:
	.loc	4 749 9 prologue_end            @ ../std/GD32C2x1_Firmware_Library/GD32C2x1_standard_peripheral/Source/gd32c2x1_dma.c:749:9
	ldr	r1, [sp]
	movs	r0, #0
	.loc	4 749 40 is_stmt 0              @ ../std/GD32C2x1_Firmware_Library/GD32C2x1_standard_peripheral/Source/gd32c2x1_dma.c:749:40
	str	r0, [r1]
	.loc	4 750 9 is_stmt 1               @ ../std/GD32C2x1_Firmware_Library/GD32C2x1_standard_peripheral/Source/gd32c2x1_dma.c:750:9
	ldr	r2, [sp]
	movs	r0, #1
	lsls	r1, r0, #17
	.loc	4 750 40 is_stmt 0              @ ../std/GD32C2x1_Firmware_Library/GD32C2x1_standard_peripheral/Source/gd32c2x1_dma.c:750:40
	str	r1, [r2, #4]
	.loc	4 751 9 is_stmt 1               @ ../std/GD32C2x1_Firmware_Library/GD32C2x1_standard_peripheral/Source/gd32c2x1_dma.c:751:9
	ldr	r1, [sp]
	.loc	4 751 37 is_stmt 0              @ ../std/GD32C2x1_Firmware_Library/GD32C2x1_standard_peripheral/Source/gd32c2x1_dma.c:751:37
	str	r0, [r1, #8]
.Ltmp105:
	.loc	4 753 1 is_stmt 1               @ ../std/GD32C2x1_Firmware_Library/GD32C2x1_standard_peripheral/Source/gd32c2x1_dma.c:753:1
	add	sp, #4
	bx	lr
.Ltmp106:
.Lfunc_end33:
	.size	dmamux_gen_struct_para_init, .Lfunc_end33-dmamux_gen_struct_para_init
	.cfi_endproc
	.cantunwind
	.fnend
                                        @ -- End function
	.section	.text.dmamux_request_generator_init,"ax",%progbits
	.hidden	dmamux_request_generator_init   @ -- Begin function dmamux_request_generator_init
	.globl	dmamux_request_generator_init
	.p2align	2
	.type	dmamux_request_generator_init,%function
	.code	16                              @ @dmamux_request_generator_init
	.thumb_func
dmamux_request_generator_init:
.Lfunc_begin34:
	.loc	4 773 0                         @ ../std/GD32C2x1_Firmware_Library/GD32C2x1_standard_peripheral/Source/gd32c2x1_dma.c:773:0
	.fnstart
	.cfi_startproc
@ %bb.0:
	.save	{r4, r5, r7, lr}
	push	{r4, r5, r7, lr}
	.cfi_def_cfa_offset 16
	.cfi_offset lr, -4
	.cfi_offset r7, -8
	.cfi_offset r5, -12
	.cfi_offset r4, -16
	.pad	#16
	sub	sp, #16
	.cfi_def_cfa_offset 32
	str	r1, [sp]                        @ 4-byte Spill
	mov	r2, r0
	ldr	r0, [sp]                        @ 4-byte Reload
                                        @ kill: def $r1 killed $r2
	add	r1, sp, #12
	strb	r2, [r1]
	str	r0, [sp, #8]
.Ltmp107:
	.loc	4 782 9 prologue_end            @ ../std/GD32C2x1_Firmware_Library/GD32C2x1_standard_peripheral/Source/gd32c2x1_dma.c:782:9
	ldrb	r0, [r1]
	lsls	r3, r0, #2
	ldr	r2, __arm_cp.34_0
	.loc	4 782 36 is_stmt 0              @ ../std/GD32C2x1_Firmware_Library/GD32C2x1_standard_peripheral/Source/gd32c2x1_dma.c:782:36
	ldr	r0, [r3, r2]
	movs	r4, #1
	lsls	r4, r4, #16
	bics	r0, r4
	str	r0, [r3, r2]
	.loc	4 785 15 is_stmt 1              @ ../std/GD32C2x1_Firmware_Library/GD32C2x1_standard_peripheral/Source/gd32c2x1_dma.c:785:15
	ldrb	r0, [r1]
	lsls	r0, r0, #2
	ldr	r0, [r0, r2]
	.loc	4 785 13 is_stmt 0              @ ../std/GD32C2x1_Firmware_Library/GD32C2x1_standard_peripheral/Source/gd32c2x1_dma.c:785:13
	str	r0, [sp, #4]
	.loc	4 786 13 is_stmt 1              @ ../std/GD32C2x1_Firmware_Library/GD32C2x1_standard_peripheral/Source/gd32c2x1_dma.c:786:13
	ldr	r0, [sp, #4]
	ldr	r3, __arm_cp.34_1
	ands	r0, r3
	str	r0, [sp, #4]
	.loc	4 787 17                        @ ../std/GD32C2x1_Firmware_Library/GD32C2x1_standard_peripheral/Source/gd32c2x1_dma.c:787:17
	ldr	r3, [sp, #8]
	ldr	r0, [r3, #8]
	lsls	r0, r0, #19
	ldr	r4, __arm_cp.34_2
	adds	r0, r0, r4
	movs	r5, #31
	lsls	r4, r5, #19
	ands	r0, r4
	.loc	4 787 82 is_stmt 0              @ ../std/GD32C2x1_Firmware_Library/GD32C2x1_standard_peripheral/Source/gd32c2x1_dma.c:787:82
	ldr	r4, [r3]
	.loc	4 787 93                        @ ../std/GD32C2x1_Firmware_Library/GD32C2x1_standard_peripheral/Source/gd32c2x1_dma.c:787:93
	ands	r4, r5
	.loc	4 787 66                        @ ../std/GD32C2x1_Firmware_Library/GD32C2x1_standard_peripheral/Source/gd32c2x1_dma.c:787:66
	adds	r0, r0, r4
	.loc	4 788 23 is_stmt 1              @ ../std/GD32C2x1_Firmware_Library/GD32C2x1_standard_peripheral/Source/gd32c2x1_dma.c:788:23
	ldr	r3, [r3, #4]
	movs	r4, #3
	lsls	r4, r4, #17
	.loc	4 788 40 is_stmt 0              @ ../std/GD32C2x1_Firmware_Library/GD32C2x1_standard_peripheral/Source/gd32c2x1_dma.c:788:40
	ands	r3, r4
	.loc	4 787 117 is_stmt 1             @ ../std/GD32C2x1_Firmware_Library/GD32C2x1_standard_peripheral/Source/gd32c2x1_dma.c:787:117
	adds	r3, r0, r3
	.loc	4 787 13 is_stmt 0              @ ../std/GD32C2x1_Firmware_Library/GD32C2x1_standard_peripheral/Source/gd32c2x1_dma.c:787:13
	ldr	r0, [sp, #4]
	orrs	r0, r3
	str	r0, [sp, #4]
	.loc	4 789 38 is_stmt 1              @ ../std/GD32C2x1_Firmware_Library/GD32C2x1_standard_peripheral/Source/gd32c2x1_dma.c:789:38
	ldr	r0, [sp, #4]
	.loc	4 789 9 is_stmt 0               @ ../std/GD32C2x1_Firmware_Library/GD32C2x1_standard_peripheral/Source/gd32c2x1_dma.c:789:9
	ldrb	r1, [r1]
	lsls	r1, r1, #2
	.loc	4 789 36                        @ ../std/GD32C2x1_Firmware_Library/GD32C2x1_standard_peripheral/Source/gd32c2x1_dma.c:789:36
	str	r0, [r1, r2]
.Ltmp108:
	.loc	4 791 1 is_stmt 1               @ ../std/GD32C2x1_Firmware_Library/GD32C2x1_standard_peripheral/Source/gd32c2x1_dma.c:791:1
	add	sp, #16
	pop	{r4, r5, r7, pc}
.Ltmp109:
	.p2align	2
@ %bb.1:
	.loc	4 0 1 is_stmt 0                 @ ../std/GD32C2x1_Firmware_Library/GD32C2x1_standard_peripheral/Source/gd32c2x1_dma.c:0:1
__arm_cp.34_0:
	.long	1073875200                      @ 0x40020900
.Lcpi_end42:
	.size	__arm_cp.34_0, .Lcpi_end42-__arm_cp.34_0
__arm_cp.34_1:
	.long	4278321120                      @ 0xff01ffe0
.Lcpi_end43:
	.size	__arm_cp.34_1, .Lcpi_end43-__arm_cp.34_1
__arm_cp.34_2:
	.long	4294443008                      @ 0xfff80000
.Lcpi_end44:
	.size	__arm_cp.34_2, .Lcpi_end44-__arm_cp.34_2
.Lfunc_end34:
	.size	dmamux_request_generator_init, .Lfunc_end34-dmamux_request_generator_init
	.cfi_endproc
	.cantunwind
	.fnend
                                        @ -- End function
	.section	.text.dmamux_request_generator_channel_enable,"ax",%progbits
	.hidden	dmamux_request_generator_channel_enable @ -- Begin function dmamux_request_generator_channel_enable
	.globl	dmamux_request_generator_channel_enable
	.p2align	2
	.type	dmamux_request_generator_channel_enable,%function
	.code	16                              @ @dmamux_request_generator_channel_enable
	.thumb_func
dmamux_request_generator_channel_enable:
.Lfunc_begin35:
	.loc	4 802 0 is_stmt 1               @ ../std/GD32C2x1_Firmware_Library/GD32C2x1_standard_peripheral/Source/gd32c2x1_dma.c:802:0
	.fnstart
	.cfi_startproc
@ %bb.0:
	.pad	#4
	sub	sp, #4
	.cfi_def_cfa_offset 4
	mov	r1, r0
                                        @ kill: def $r0 killed $r1
	mov	r0, sp
	strb	r1, [r0]
.Ltmp110:
	.loc	4 803 5 prologue_end            @ ../std/GD32C2x1_Firmware_Library/GD32C2x1_standard_peripheral/Source/gd32c2x1_dma.c:803:5
	ldrb	r0, [r0]
	lsls	r1, r0, #2
	ldr	r2, __arm_cp.35_0
	.loc	4 803 32 is_stmt 0              @ ../std/GD32C2x1_Firmware_Library/GD32C2x1_standard_peripheral/Source/gd32c2x1_dma.c:803:32
	ldr	r0, [r1, r2]
	movs	r3, #1
	lsls	r3, r3, #16
	orrs	r0, r3
	str	r0, [r1, r2]
	.loc	4 804 1 is_stmt 1               @ ../std/GD32C2x1_Firmware_Library/GD32C2x1_standard_peripheral/Source/gd32c2x1_dma.c:804:1
	add	sp, #4
	bx	lr
.Ltmp111:
	.p2align	2
@ %bb.1:
	.loc	4 0 1 is_stmt 0                 @ ../std/GD32C2x1_Firmware_Library/GD32C2x1_standard_peripheral/Source/gd32c2x1_dma.c:0:1
__arm_cp.35_0:
	.long	1073875200                      @ 0x40020900
.Lcpi_end45:
	.size	__arm_cp.35_0, .Lcpi_end45-__arm_cp.35_0
.Lfunc_end35:
	.size	dmamux_request_generator_channel_enable, .Lfunc_end35-dmamux_request_generator_channel_enable
	.cfi_endproc
	.cantunwind
	.fnend
                                        @ -- End function
	.section	.text.dmamux_request_generator_channel_disable,"ax",%progbits
	.hidden	dmamux_request_generator_channel_disable @ -- Begin function dmamux_request_generator_channel_disable
	.globl	dmamux_request_generator_channel_disable
	.p2align	2
	.type	dmamux_request_generator_channel_disable,%function
	.code	16                              @ @dmamux_request_generator_channel_disable
	.thumb_func
dmamux_request_generator_channel_disable:
.Lfunc_begin36:
	.loc	4 815 0 is_stmt 1               @ ../std/GD32C2x1_Firmware_Library/GD32C2x1_standard_peripheral/Source/gd32c2x1_dma.c:815:0
	.fnstart
	.cfi_startproc
@ %bb.0:
	.pad	#4
	sub	sp, #4
	.cfi_def_cfa_offset 4
	mov	r1, r0
                                        @ kill: def $r0 killed $r1
	mov	r0, sp
	strb	r1, [r0]
.Ltmp112:
	.loc	4 816 5 prologue_end            @ ../std/GD32C2x1_Firmware_Library/GD32C2x1_standard_peripheral/Source/gd32c2x1_dma.c:816:5
	ldrb	r0, [r0]
	lsls	r1, r0, #2
	ldr	r2, __arm_cp.36_0
	.loc	4 816 32 is_stmt 0              @ ../std/GD32C2x1_Firmware_Library/GD32C2x1_standard_peripheral/Source/gd32c2x1_dma.c:816:32
	ldr	r0, [r1, r2]
	movs	r3, #1
	lsls	r3, r3, #16
	bics	r0, r3
	str	r0, [r1, r2]
	.loc	4 817 1 is_stmt 1               @ ../std/GD32C2x1_Firmware_Library/GD32C2x1_standard_peripheral/Source/gd32c2x1_dma.c:817:1
	add	sp, #4
	bx	lr
.Ltmp113:
	.p2align	2
@ %bb.1:
	.loc	4 0 1 is_stmt 0                 @ ../std/GD32C2x1_Firmware_Library/GD32C2x1_standard_peripheral/Source/gd32c2x1_dma.c:0:1
__arm_cp.36_0:
	.long	1073875200                      @ 0x40020900
.Lcpi_end46:
	.size	__arm_cp.36_0, .Lcpi_end46-__arm_cp.36_0
.Lfunc_end36:
	.size	dmamux_request_generator_channel_disable, .Lfunc_end36-dmamux_request_generator_channel_disable
	.cfi_endproc
	.cantunwind
	.fnend
                                        @ -- End function
	.section	.text.dmamux_synchronization_polarity_config,"ax",%progbits
	.hidden	dmamux_synchronization_polarity_config @ -- Begin function dmamux_synchronization_polarity_config
	.globl	dmamux_synchronization_polarity_config
	.p2align	2
	.type	dmamux_synchronization_polarity_config,%function
	.code	16                              @ @dmamux_synchronization_polarity_config
	.thumb_func
dmamux_synchronization_polarity_config:
.Lfunc_begin37:
	.loc	4 835 0 is_stmt 1               @ ../std/GD32C2x1_Firmware_Library/GD32C2x1_standard_peripheral/Source/gd32c2x1_dma.c:835:0
	.fnstart
	.cfi_startproc
@ %bb.0:
	.save	{r4, lr}
	push	{r4, lr}
	.cfi_def_cfa_offset 8
	.cfi_offset lr, -4
	.cfi_offset r4, -8
	.pad	#8
	sub	sp, #8
	.cfi_def_cfa_offset 16
	mov	r2, r0
                                        @ kill: def $r0 killed $r2
	add	r0, sp, #4
	strb	r2, [r0]
	str	r1, [sp]
.Ltmp114:
	.loc	4 837 5 prologue_end            @ ../std/GD32C2x1_Firmware_Library/GD32C2x1_standard_peripheral/Source/gd32c2x1_dma.c:837:5
	ldrb	r1, [r0]
	lsls	r4, r1, #2
	ldr	r2, __arm_cp.37_0
	.loc	4 837 32 is_stmt 0              @ ../std/GD32C2x1_Firmware_Library/GD32C2x1_standard_peripheral/Source/gd32c2x1_dma.c:837:32
	ldr	r3, [r4, r2]
	movs	r1, #3
	lsls	r1, r1, #17
	bics	r3, r1
	str	r3, [r4, r2]
	.loc	4 838 36 is_stmt 1              @ ../std/GD32C2x1_Firmware_Library/GD32C2x1_standard_peripheral/Source/gd32c2x1_dma.c:838:36
	ldr	r3, [sp]
	.loc	4 838 45 is_stmt 0              @ ../std/GD32C2x1_Firmware_Library/GD32C2x1_standard_peripheral/Source/gd32c2x1_dma.c:838:45
	ands	r3, r1
	.loc	4 838 5                         @ ../std/GD32C2x1_Firmware_Library/GD32C2x1_standard_peripheral/Source/gd32c2x1_dma.c:838:5
	ldrb	r0, [r0]
	lsls	r1, r0, #2
	.loc	4 838 32                        @ ../std/GD32C2x1_Firmware_Library/GD32C2x1_standard_peripheral/Source/gd32c2x1_dma.c:838:32
	ldr	r0, [r1, r2]
	orrs	r0, r3
	str	r0, [r1, r2]
	.loc	4 839 1 is_stmt 1               @ ../std/GD32C2x1_Firmware_Library/GD32C2x1_standard_peripheral/Source/gd32c2x1_dma.c:839:1
	add	sp, #8
	pop	{r4, pc}
.Ltmp115:
	.p2align	2
@ %bb.1:
	.loc	4 0 1 is_stmt 0                 @ ../std/GD32C2x1_Firmware_Library/GD32C2x1_standard_peripheral/Source/gd32c2x1_dma.c:0:1
__arm_cp.37_0:
	.long	1073874944                      @ 0x40020800
.Lcpi_end47:
	.size	__arm_cp.37_0, .Lcpi_end47-__arm_cp.37_0
.Lfunc_end37:
	.size	dmamux_synchronization_polarity_config, .Lfunc_end37-dmamux_synchronization_polarity_config
	.cfi_endproc
	.cantunwind
	.fnend
                                        @ -- End function
	.section	.text.dmamux_request_forward_number_config,"ax",%progbits
	.hidden	dmamux_request_forward_number_config @ -- Begin function dmamux_request_forward_number_config
	.globl	dmamux_request_forward_number_config
	.p2align	2
	.type	dmamux_request_forward_number_config,%function
	.code	16                              @ @dmamux_request_forward_number_config
	.thumb_func
dmamux_request_forward_number_config:
.Lfunc_begin38:
	.loc	4 853 0 is_stmt 1               @ ../std/GD32C2x1_Firmware_Library/GD32C2x1_standard_peripheral/Source/gd32c2x1_dma.c:853:0
	.fnstart
	.cfi_startproc
@ %bb.0:
	.save	{r4, lr}
	push	{r4, lr}
	.cfi_def_cfa_offset 8
	.cfi_offset lr, -4
	.cfi_offset r4, -8
	.pad	#8
	sub	sp, #8
	.cfi_def_cfa_offset 16
	mov	r2, r0
                                        @ kill: def $r0 killed $r2
	add	r0, sp, #4
	strb	r2, [r0]
	str	r1, [sp]
.Ltmp116:
	.loc	4 854 5 prologue_end            @ ../std/GD32C2x1_Firmware_Library/GD32C2x1_standard_peripheral/Source/gd32c2x1_dma.c:854:5
	ldrb	r1, [r0]
	lsls	r4, r1, #2
	ldr	r2, __arm_cp.38_0
	.loc	4 854 32 is_stmt 0              @ ../std/GD32C2x1_Firmware_Library/GD32C2x1_standard_peripheral/Source/gd32c2x1_dma.c:854:32
	ldr	r3, [r4, r2]
	movs	r1, #31
	lsls	r1, r1, #19
	bics	r3, r1
	str	r3, [r4, r2]
	.loc	4 855 35 is_stmt 1              @ ../std/GD32C2x1_Firmware_Library/GD32C2x1_standard_peripheral/Source/gd32c2x1_dma.c:855:35
	ldr	r3, [sp]
	lsls	r3, r3, #19
	ldr	r4, __arm_cp.38_1
	adds	r3, r3, r4
	ands	r3, r1
	.loc	4 855 5 is_stmt 0               @ ../std/GD32C2x1_Firmware_Library/GD32C2x1_standard_peripheral/Source/gd32c2x1_dma.c:855:5
	ldrb	r0, [r0]
	lsls	r1, r0, #2
	.loc	4 855 32                        @ ../std/GD32C2x1_Firmware_Library/GD32C2x1_standard_peripheral/Source/gd32c2x1_dma.c:855:32
	ldr	r0, [r1, r2]
	orrs	r0, r3
	str	r0, [r1, r2]
	.loc	4 856 1 is_stmt 1               @ ../std/GD32C2x1_Firmware_Library/GD32C2x1_standard_peripheral/Source/gd32c2x1_dma.c:856:1
	add	sp, #8
	pop	{r4, pc}
.Ltmp117:
	.p2align	2
@ %bb.1:
	.loc	4 0 1 is_stmt 0                 @ ../std/GD32C2x1_Firmware_Library/GD32C2x1_standard_peripheral/Source/gd32c2x1_dma.c:0:1
__arm_cp.38_0:
	.long	1073874944                      @ 0x40020800
.Lcpi_end48:
	.size	__arm_cp.38_0, .Lcpi_end48-__arm_cp.38_0
__arm_cp.38_1:
	.long	4294443008                      @ 0xfff80000
.Lcpi_end49:
	.size	__arm_cp.38_1, .Lcpi_end49-__arm_cp.38_1
.Lfunc_end38:
	.size	dmamux_request_forward_number_config, .Lfunc_end38-dmamux_request_forward_number_config
	.cfi_endproc
	.cantunwind
	.fnend
                                        @ -- End function
	.section	.text.dmamux_sync_id_config,"ax",%progbits
	.hidden	dmamux_sync_id_config           @ -- Begin function dmamux_sync_id_config
	.globl	dmamux_sync_id_config
	.p2align	2
	.type	dmamux_sync_id_config,%function
	.code	16                              @ @dmamux_sync_id_config
	.thumb_func
dmamux_sync_id_config:
.Lfunc_begin39:
	.loc	4 890 0 is_stmt 1               @ ../std/GD32C2x1_Firmware_Library/GD32C2x1_standard_peripheral/Source/gd32c2x1_dma.c:890:0
	.fnstart
	.cfi_startproc
@ %bb.0:
	.save	{r4, r5, r7, lr}
	push	{r4, r5, r7, lr}
	.cfi_def_cfa_offset 16
	.cfi_offset lr, -4
	.cfi_offset r7, -8
	.cfi_offset r5, -12
	.cfi_offset r4, -16
	.pad	#8
	sub	sp, #8
	.cfi_def_cfa_offset 24
	mov	r2, r0
                                        @ kill: def $r0 killed $r2
	add	r0, sp, #4
	strb	r2, [r0]
	str	r1, [sp]
.Ltmp118:
	.loc	4 891 5 prologue_end            @ ../std/GD32C2x1_Firmware_Library/GD32C2x1_standard_peripheral/Source/gd32c2x1_dma.c:891:5
	ldrb	r1, [r0]
	lsls	r4, r1, #2
	ldr	r2, __arm_cp.39_0
	.loc	4 891 32 is_stmt 0              @ ../std/GD32C2x1_Firmware_Library/GD32C2x1_standard_peripheral/Source/gd32c2x1_dma.c:891:32
	ldr	r3, [r4, r2]
	movs	r1, #31
	lsls	r5, r1, #24
	bics	r3, r5
	str	r3, [r4, r2]
	.loc	4 892 46 is_stmt 1              @ ../std/GD32C2x1_Firmware_Library/GD32C2x1_standard_peripheral/Source/gd32c2x1_dma.c:892:46
	ldr	r3, [sp]
	.loc	4 892 49 is_stmt 0              @ ../std/GD32C2x1_Firmware_Library/GD32C2x1_standard_peripheral/Source/gd32c2x1_dma.c:892:49
	ands	r3, r1
	.loc	4 892 5                         @ ../std/GD32C2x1_Firmware_Library/GD32C2x1_standard_peripheral/Source/gd32c2x1_dma.c:892:5
	ldrb	r0, [r0]
	lsls	r1, r0, #2
	.loc	4 892 32                        @ ../std/GD32C2x1_Firmware_Library/GD32C2x1_standard_peripheral/Source/gd32c2x1_dma.c:892:32
	ldr	r0, [r1, r2]
	orrs	r0, r3
	str	r0, [r1, r2]
	.loc	4 893 1 is_stmt 1               @ ../std/GD32C2x1_Firmware_Library/GD32C2x1_standard_peripheral/Source/gd32c2x1_dma.c:893:1
	add	sp, #8
	pop	{r4, r5, r7, pc}
.Ltmp119:
	.p2align	2
@ %bb.1:
	.loc	4 0 1 is_stmt 0                 @ ../std/GD32C2x1_Firmware_Library/GD32C2x1_standard_peripheral/Source/gd32c2x1_dma.c:0:1
__arm_cp.39_0:
	.long	1073874944                      @ 0x40020800
.Lcpi_end50:
	.size	__arm_cp.39_0, .Lcpi_end50-__arm_cp.39_0
.Lfunc_end39:
	.size	dmamux_sync_id_config, .Lfunc_end39-dmamux_sync_id_config
	.cfi_endproc
	.cantunwind
	.fnend
                                        @ -- End function
	.section	.text.dmamux_request_id_config,"ax",%progbits
	.hidden	dmamux_request_id_config        @ -- Begin function dmamux_request_id_config
	.globl	dmamux_request_id_config
	.p2align	2
	.type	dmamux_request_id_config,%function
	.code	16                              @ @dmamux_request_id_config
	.thumb_func
dmamux_request_id_config:
.Lfunc_begin40:
	.loc	4 941 0 is_stmt 1               @ ../std/GD32C2x1_Firmware_Library/GD32C2x1_standard_peripheral/Source/gd32c2x1_dma.c:941:0
	.fnstart
	.cfi_startproc
@ %bb.0:
	.save	{r4, lr}
	push	{r4, lr}
	.cfi_def_cfa_offset 8
	.cfi_offset lr, -4
	.cfi_offset r4, -8
	.pad	#8
	sub	sp, #8
	.cfi_def_cfa_offset 16
	mov	r2, r0
                                        @ kill: def $r0 killed $r2
	add	r0, sp, #4
	strb	r2, [r0]
	str	r1, [sp]
.Ltmp120:
	.loc	4 942 5 prologue_end            @ ../std/GD32C2x1_Firmware_Library/GD32C2x1_standard_peripheral/Source/gd32c2x1_dma.c:942:5
	ldrb	r1, [r0]
	lsls	r4, r1, #2
	ldr	r2, __arm_cp.40_0
	.loc	4 942 32 is_stmt 0              @ ../std/GD32C2x1_Firmware_Library/GD32C2x1_standard_peripheral/Source/gd32c2x1_dma.c:942:32
	ldr	r3, [r4, r2]
	movs	r1, #63
	bics	r3, r1
	str	r3, [r4, r2]
	.loc	4 943 40 is_stmt 1              @ ../std/GD32C2x1_Firmware_Library/GD32C2x1_standard_peripheral/Source/gd32c2x1_dma.c:943:40
	ldr	r3, [sp]
	.loc	4 943 43 is_stmt 0              @ ../std/GD32C2x1_Firmware_Library/GD32C2x1_standard_peripheral/Source/gd32c2x1_dma.c:943:43
	ands	r3, r1
	.loc	4 943 9                         @ ../std/GD32C2x1_Firmware_Library/GD32C2x1_standard_peripheral/Source/gd32c2x1_dma.c:943:9
	ldrb	r0, [r0]
	lsls	r1, r0, #2
	.loc	4 943 36                        @ ../std/GD32C2x1_Firmware_Library/GD32C2x1_standard_peripheral/Source/gd32c2x1_dma.c:943:36
	ldr	r0, [r1, r2]
	orrs	r0, r3
	str	r0, [r1, r2]
	.loc	4 944 1 is_stmt 1               @ ../std/GD32C2x1_Firmware_Library/GD32C2x1_standard_peripheral/Source/gd32c2x1_dma.c:944:1
	add	sp, #8
	pop	{r4, pc}
.Ltmp121:
	.p2align	2
@ %bb.1:
	.loc	4 0 1 is_stmt 0                 @ ../std/GD32C2x1_Firmware_Library/GD32C2x1_standard_peripheral/Source/gd32c2x1_dma.c:0:1
__arm_cp.40_0:
	.long	1073874944                      @ 0x40020800
.Lcpi_end51:
	.size	__arm_cp.40_0, .Lcpi_end51-__arm_cp.40_0
.Lfunc_end40:
	.size	dmamux_request_id_config, .Lfunc_end40-dmamux_request_id_config
	.cfi_endproc
	.cantunwind
	.fnend
                                        @ -- End function
	.section	.text.dmamux_trigger_polarity_config,"ax",%progbits
	.hidden	dmamux_trigger_polarity_config  @ -- Begin function dmamux_trigger_polarity_config
	.globl	dmamux_trigger_polarity_config
	.p2align	2
	.type	dmamux_trigger_polarity_config,%function
	.code	16                              @ @dmamux_trigger_polarity_config
	.thumb_func
dmamux_trigger_polarity_config:
.Lfunc_begin41:
	.loc	4 961 0 is_stmt 1               @ ../std/GD32C2x1_Firmware_Library/GD32C2x1_standard_peripheral/Source/gd32c2x1_dma.c:961:0
	.fnstart
	.cfi_startproc
@ %bb.0:
	.save	{r4, lr}
	push	{r4, lr}
	.cfi_def_cfa_offset 8
	.cfi_offset lr, -4
	.cfi_offset r4, -8
	.pad	#8
	sub	sp, #8
	.cfi_def_cfa_offset 16
	mov	r2, r0
                                        @ kill: def $r0 killed $r2
	add	r0, sp, #4
	strb	r2, [r0]
	str	r1, [sp]
.Ltmp122:
	.loc	4 962 5 prologue_end            @ ../std/GD32C2x1_Firmware_Library/GD32C2x1_standard_peripheral/Source/gd32c2x1_dma.c:962:5
	ldrb	r1, [r0]
	lsls	r4, r1, #2
	ldr	r2, __arm_cp.41_0
	.loc	4 962 32 is_stmt 0              @ ../std/GD32C2x1_Firmware_Library/GD32C2x1_standard_peripheral/Source/gd32c2x1_dma.c:962:32
	ldr	r3, [r4, r2]
	movs	r1, #3
	lsls	r1, r1, #17
	bics	r3, r1
	str	r3, [r4, r2]
	.loc	4 963 40 is_stmt 1              @ ../std/GD32C2x1_Firmware_Library/GD32C2x1_standard_peripheral/Source/gd32c2x1_dma.c:963:40
	ldr	r3, [sp]
	.loc	4 963 49 is_stmt 0              @ ../std/GD32C2x1_Firmware_Library/GD32C2x1_standard_peripheral/Source/gd32c2x1_dma.c:963:49
	ands	r3, r1
	.loc	4 963 9                         @ ../std/GD32C2x1_Firmware_Library/GD32C2x1_standard_peripheral/Source/gd32c2x1_dma.c:963:9
	ldrb	r0, [r0]
	lsls	r1, r0, #2
	.loc	4 963 36                        @ ../std/GD32C2x1_Firmware_Library/GD32C2x1_standard_peripheral/Source/gd32c2x1_dma.c:963:36
	ldr	r0, [r1, r2]
	orrs	r0, r3
	str	r0, [r1, r2]
	.loc	4 964 1 is_stmt 1               @ ../std/GD32C2x1_Firmware_Library/GD32C2x1_standard_peripheral/Source/gd32c2x1_dma.c:964:1
	add	sp, #8
	pop	{r4, pc}
.Ltmp123:
	.p2align	2
@ %bb.1:
	.loc	4 0 1 is_stmt 0                 @ ../std/GD32C2x1_Firmware_Library/GD32C2x1_standard_peripheral/Source/gd32c2x1_dma.c:0:1
__arm_cp.41_0:
	.long	1073875200                      @ 0x40020900
.Lcpi_end52:
	.size	__arm_cp.41_0, .Lcpi_end52-__arm_cp.41_0
.Lfunc_end41:
	.size	dmamux_trigger_polarity_config, .Lfunc_end41-dmamux_trigger_polarity_config
	.cfi_endproc
	.cantunwind
	.fnend
                                        @ -- End function
	.section	.text.dmamux_request_generate_number_config,"ax",%progbits
	.hidden	dmamux_request_generate_number_config @ -- Begin function dmamux_request_generate_number_config
	.globl	dmamux_request_generate_number_config
	.p2align	2
	.type	dmamux_request_generate_number_config,%function
	.code	16                              @ @dmamux_request_generate_number_config
	.thumb_func
dmamux_request_generate_number_config:
.Lfunc_begin42:
	.loc	4 978 0 is_stmt 1               @ ../std/GD32C2x1_Firmware_Library/GD32C2x1_standard_peripheral/Source/gd32c2x1_dma.c:978:0
	.fnstart
	.cfi_startproc
@ %bb.0:
	.save	{r4, lr}
	push	{r4, lr}
	.cfi_def_cfa_offset 8
	.cfi_offset lr, -4
	.cfi_offset r4, -8
	.pad	#8
	sub	sp, #8
	.cfi_def_cfa_offset 16
	mov	r2, r0
                                        @ kill: def $r0 killed $r2
	add	r0, sp, #4
	strb	r2, [r0]
	str	r1, [sp]
.Ltmp124:
	.loc	4 979 5 prologue_end            @ ../std/GD32C2x1_Firmware_Library/GD32C2x1_standard_peripheral/Source/gd32c2x1_dma.c:979:5
	ldrb	r1, [r0]
	lsls	r3, r1, #2
	ldr	r2, __arm_cp.42_0
	.loc	4 979 32 is_stmt 0              @ ../std/GD32C2x1_Firmware_Library/GD32C2x1_standard_peripheral/Source/gd32c2x1_dma.c:979:32
	ldr	r1, [r3, r2]
	movs	r4, #31
	lsls	r4, r4, #19
	bics	r1, r4
	str	r1, [r3, r2]
	.loc	4 980 9 is_stmt 1               @ ../std/GD32C2x1_Firmware_Library/GD32C2x1_standard_peripheral/Source/gd32c2x1_dma.c:980:9
	ldrb	r0, [r0]
	lsls	r1, r0, #2
	.loc	4 980 36 is_stmt 0              @ ../std/GD32C2x1_Firmware_Library/GD32C2x1_standard_peripheral/Source/gd32c2x1_dma.c:980:36
	ldr	r0, [r1, r2]
	str	r0, [r1, r2]
	.loc	4 981 1 is_stmt 1               @ ../std/GD32C2x1_Firmware_Library/GD32C2x1_standard_peripheral/Source/gd32c2x1_dma.c:981:1
	add	sp, #8
	pop	{r4, pc}
.Ltmp125:
	.p2align	2
@ %bb.1:
	.loc	4 0 1 is_stmt 0                 @ ../std/GD32C2x1_Firmware_Library/GD32C2x1_standard_peripheral/Source/gd32c2x1_dma.c:0:1
__arm_cp.42_0:
	.long	1073875200                      @ 0x40020900
.Lcpi_end53:
	.size	__arm_cp.42_0, .Lcpi_end53-__arm_cp.42_0
.Lfunc_end42:
	.size	dmamux_request_generate_number_config, .Lfunc_end42-dmamux_request_generate_number_config
	.cfi_endproc
	.cantunwind
	.fnend
                                        @ -- End function
	.section	.text.dmamux_trigger_id_config,"ax",%progbits
	.hidden	dmamux_trigger_id_config        @ -- Begin function dmamux_trigger_id_config
	.globl	dmamux_trigger_id_config
	.p2align	2
	.type	dmamux_trigger_id_config,%function
	.code	16                              @ @dmamux_trigger_id_config
	.thumb_func
dmamux_trigger_id_config:
.Lfunc_begin43:
	.loc	4 1014 0 is_stmt 1              @ ../std/GD32C2x1_Firmware_Library/GD32C2x1_standard_peripheral/Source/gd32c2x1_dma.c:1014:0
	.fnstart
	.cfi_startproc
@ %bb.0:
	.save	{r4, lr}
	push	{r4, lr}
	.cfi_def_cfa_offset 8
	.cfi_offset lr, -4
	.cfi_offset r4, -8
	.pad	#8
	sub	sp, #8
	.cfi_def_cfa_offset 16
	mov	r2, r0
                                        @ kill: def $r0 killed $r2
	add	r0, sp, #4
	strb	r2, [r0]
	str	r1, [sp]
.Ltmp126:
	.loc	4 1015 5 prologue_end           @ ../std/GD32C2x1_Firmware_Library/GD32C2x1_standard_peripheral/Source/gd32c2x1_dma.c:1015:5
	ldrb	r1, [r0]
	lsls	r4, r1, #2
	ldr	r2, __arm_cp.43_0
	.loc	4 1015 32 is_stmt 0             @ ../std/GD32C2x1_Firmware_Library/GD32C2x1_standard_peripheral/Source/gd32c2x1_dma.c:1015:32
	ldr	r3, [r4, r2]
	movs	r1, #31
	bics	r3, r1
	str	r3, [r4, r2]
	.loc	4 1016 36 is_stmt 1             @ ../std/GD32C2x1_Firmware_Library/GD32C2x1_standard_peripheral/Source/gd32c2x1_dma.c:1016:36
	ldr	r3, [sp]
	.loc	4 1016 39 is_stmt 0             @ ../std/GD32C2x1_Firmware_Library/GD32C2x1_standard_peripheral/Source/gd32c2x1_dma.c:1016:39
	ands	r3, r1
	.loc	4 1016 5                        @ ../std/GD32C2x1_Firmware_Library/GD32C2x1_standard_peripheral/Source/gd32c2x1_dma.c:1016:5
	ldrb	r0, [r0]
	lsls	r1, r0, #2
	.loc	4 1016 32                       @ ../std/GD32C2x1_Firmware_Library/GD32C2x1_standard_peripheral/Source/gd32c2x1_dma.c:1016:32
	ldr	r0, [r1, r2]
	orrs	r0, r3
	str	r0, [r1, r2]
	.loc	4 1017 1 is_stmt 1              @ ../std/GD32C2x1_Firmware_Library/GD32C2x1_standard_peripheral/Source/gd32c2x1_dma.c:1017:1
	add	sp, #8
	pop	{r4, pc}
.Ltmp127:
	.p2align	2
@ %bb.1:
	.loc	4 0 1 is_stmt 0                 @ ../std/GD32C2x1_Firmware_Library/GD32C2x1_standard_peripheral/Source/gd32c2x1_dma.c:0:1
__arm_cp.43_0:
	.long	1073875200                      @ 0x40020900
.Lcpi_end54:
	.size	__arm_cp.43_0, .Lcpi_end54-__arm_cp.43_0
.Lfunc_end43:
	.size	dmamux_trigger_id_config, .Lfunc_end43-dmamux_trigger_id_config
	.cfi_endproc
	.cantunwind
	.fnend
                                        @ -- End function
	.section	.text.dmamux_flag_get,"ax",%progbits
	.hidden	dmamux_flag_get                 @ -- Begin function dmamux_flag_get
	.globl	dmamux_flag_get
	.p2align	2
	.type	dmamux_flag_get,%function
	.code	16                              @ @dmamux_flag_get
	.thumb_func
dmamux_flag_get:
.Lfunc_begin44:
	.loc	4 1034 0 is_stmt 1              @ ../std/GD32C2x1_Firmware_Library/GD32C2x1_standard_peripheral/Source/gd32c2x1_dma.c:1034:0
	.fnstart
	.cfi_startproc
@ %bb.0:
	.pad	#8
	sub	sp, #8
	.cfi_def_cfa_offset 8
                                        @ kill: def $r1 killed $r0
	add	r1, sp, #4
	strh	r0, [r1]
	mov	r2, sp
	movs	r0, #0
.Ltmp128:
	.loc	4 1035 16 prologue_end          @ ../std/GD32C2x1_Firmware_Library/GD32C2x1_standard_peripheral/Source/gd32c2x1_dma.c:1035:16
	strb	r0, [r2]
.Ltmp129:
	.loc	4 1036 28                       @ ../std/GD32C2x1_Firmware_Library/GD32C2x1_standard_peripheral/Source/gd32c2x1_dma.c:1036:28
	ldrh	r0, [r1]
	lsrs	r0, r0, #6
	ldr	r2, __arm_cp.44_0
	ldr	r0, [r0, r2]
	.loc	4 1036 51 is_stmt 0             @ ../std/GD32C2x1_Firmware_Library/GD32C2x1_standard_peripheral/Source/gd32c2x1_dma.c:1036:51
	ldrh	r1, [r1]
	movs	r2, #31
	ands	r1, r2
.Ltmp130:
	.loc	4 1036 8                        @ ../std/GD32C2x1_Firmware_Library/GD32C2x1_standard_peripheral/Source/gd32c2x1_dma.c:1036:8
	lsrs	r0, r1
	lsls	r0, r0, #31
	cbz	r0, .LBB44_2
	b	.LBB44_1
.LBB44_1:
	.loc	4 0 8                           @ ../std/GD32C2x1_Firmware_Library/GD32C2x1_standard_peripheral/Source/gd32c2x1_dma.c:0:8
	mov	r1, sp
	movs	r0, #1
.Ltmp131:
	.loc	4 1037 15 is_stmt 1             @ ../std/GD32C2x1_Firmware_Library/GD32C2x1_standard_peripheral/Source/gd32c2x1_dma.c:1037:15
	strb	r0, [r1]
	.loc	4 1038 5                        @ ../std/GD32C2x1_Firmware_Library/GD32C2x1_standard_peripheral/Source/gd32c2x1_dma.c:1038:5
	b	.LBB44_3
.Ltmp132:
.LBB44_2:
	.loc	4 0 5 is_stmt 0                 @ ../std/GD32C2x1_Firmware_Library/GD32C2x1_standard_peripheral/Source/gd32c2x1_dma.c:0:5
	mov	r1, sp
	movs	r0, #0
.Ltmp133:
	.loc	4 1039 15 is_stmt 1             @ ../std/GD32C2x1_Firmware_Library/GD32C2x1_standard_peripheral/Source/gd32c2x1_dma.c:1039:15
	strb	r0, [r1]
	b	.LBB44_3
.Ltmp134:
.LBB44_3:
	.loc	4 0 15 is_stmt 0                @ ../std/GD32C2x1_Firmware_Library/GD32C2x1_standard_peripheral/Source/gd32c2x1_dma.c:0:15
	mov	r0, sp
	.loc	4 1041 12 is_stmt 1             @ ../std/GD32C2x1_Firmware_Library/GD32C2x1_standard_peripheral/Source/gd32c2x1_dma.c:1041:12
	ldrb	r0, [r0]
	.loc	4 1041 5 is_stmt 0              @ ../std/GD32C2x1_Firmware_Library/GD32C2x1_standard_peripheral/Source/gd32c2x1_dma.c:1041:5
	add	sp, #8
	bx	lr
.Ltmp135:
	.p2align	2
@ %bb.4:
	.loc	4 0 5                           @ ../std/GD32C2x1_Firmware_Library/GD32C2x1_standard_peripheral/Source/gd32c2x1_dma.c:0:5
__arm_cp.44_0:
	.long	1073874944                      @ 0x40020800
.Lcpi_end55:
	.size	__arm_cp.44_0, .Lcpi_end55-__arm_cp.44_0
.Lfunc_end44:
	.size	dmamux_flag_get, .Lfunc_end44-dmamux_flag_get
	.cfi_endproc
	.cantunwind
	.fnend
                                        @ -- End function
	.section	.text.dmamux_flag_clear,"ax",%progbits
	.hidden	dmamux_flag_clear               @ -- Begin function dmamux_flag_clear
	.globl	dmamux_flag_clear
	.p2align	2
	.type	dmamux_flag_clear,%function
	.code	16                              @ @dmamux_flag_clear
	.thumb_func
dmamux_flag_clear:
.Lfunc_begin45:
	.loc	4 1059 0 is_stmt 1              @ ../std/GD32C2x1_Firmware_Library/GD32C2x1_standard_peripheral/Source/gd32c2x1_dma.c:1059:0
	.fnstart
	.cfi_startproc
@ %bb.0:
	.pad	#4
	sub	sp, #4
	.cfi_def_cfa_offset 4
	mov	r1, r0
                                        @ kill: def $r0 killed $r1
	mov	r0, sp
	strh	r1, [r0]
.Ltmp136:
	.loc	4 1060 29 prologue_end          @ ../std/GD32C2x1_Firmware_Library/GD32C2x1_standard_peripheral/Source/gd32c2x1_dma.c:1060:29
	ldrh	r1, [r0]
	movs	r0, #31
	mov	r2, r1
	ands	r2, r0
	movs	r0, #1
	lsls	r0, r2
	.loc	4 1060 5 is_stmt 0              @ ../std/GD32C2x1_Firmware_Library/GD32C2x1_standard_peripheral/Source/gd32c2x1_dma.c:1060:5
	lsrs	r1, r1, #6
	ldr	r2, __arm_cp.45_0
	.loc	4 1060 27                       @ ../std/GD32C2x1_Firmware_Library/GD32C2x1_standard_peripheral/Source/gd32c2x1_dma.c:1060:27
	str	r0, [r1, r2]
	.loc	4 1061 1 is_stmt 1              @ ../std/GD32C2x1_Firmware_Library/GD32C2x1_standard_peripheral/Source/gd32c2x1_dma.c:1061:1
	add	sp, #4
	bx	lr
.Ltmp137:
	.p2align	2
@ %bb.1:
	.loc	4 0 1 is_stmt 0                 @ ../std/GD32C2x1_Firmware_Library/GD32C2x1_standard_peripheral/Source/gd32c2x1_dma.c:0:1
__arm_cp.45_0:
	.long	1073874948                      @ 0x40020804
.Lcpi_end56:
	.size	__arm_cp.45_0, .Lcpi_end56-__arm_cp.45_0
.Lfunc_end45:
	.size	dmamux_flag_clear, .Lfunc_end45-dmamux_flag_clear
	.cfi_endproc
	.cantunwind
	.fnend
                                        @ -- End function
	.section	.text.dmamux_interrupt_flag_get,"ax",%progbits
	.hidden	dmamux_interrupt_flag_get       @ -- Begin function dmamux_interrupt_flag_get
	.globl	dmamux_interrupt_flag_get
	.p2align	2
	.type	dmamux_interrupt_flag_get,%function
	.code	16                              @ @dmamux_interrupt_flag_get
	.thumb_func
dmamux_interrupt_flag_get:
.Lfunc_begin46:
	.loc	4 1078 0 is_stmt 1              @ ../std/GD32C2x1_Firmware_Library/GD32C2x1_standard_peripheral/Source/gd32c2x1_dma.c:1078:0
	.fnstart
	.cfi_startproc
@ %bb.0:
	.save	{r4, r5, r7, lr}
	push	{r4, r5, r7, lr}
	.cfi_def_cfa_offset 16
	.cfi_offset lr, -4
	.cfi_offset r7, -8
	.cfi_offset r5, -12
	.cfi_offset r4, -16
	.pad	#16
	sub	sp, #16
	.cfi_def_cfa_offset 32
	str	r0, [sp, #12]
	add	r1, sp, #8
	movs	r0, #0
.Ltmp138:
	.loc	4 1079 16 prologue_end          @ ../std/GD32C2x1_Firmware_Library/GD32C2x1_standard_peripheral/Source/gd32c2x1_dma.c:1079:16
	strb	r0, [r1]
	.loc	4 1082 18                       @ ../std/GD32C2x1_Firmware_Library/GD32C2x1_standard_peripheral/Source/gd32c2x1_dma.c:1082:18
	ldr	r0, [sp, #12]
	lsrs	r0, r0, #22
	ldr	r2, __arm_cp.46_0
	ldr	r0, [r0, r2]
	.loc	4 1082 46 is_stmt 0             @ ../std/GD32C2x1_Firmware_Library/GD32C2x1_standard_peripheral/Source/gd32c2x1_dma.c:1082:46
	ldr	r1, [sp, #12]
	movs	r3, #31
	lsls	r4, r3, #16
	ands	r1, r4
	lsrs	r5, r1, #16
	movs	r1, #1
	mov	r4, r1
	lsls	r4, r5
	.loc	4 1082 44                       @ ../std/GD32C2x1_Firmware_Library/GD32C2x1_standard_peripheral/Source/gd32c2x1_dma.c:1082:44
	ands	r0, r4
	.loc	4 1082 15                       @ ../std/GD32C2x1_Firmware_Library/GD32C2x1_standard_peripheral/Source/gd32c2x1_dma.c:1082:15
	str	r0, [sp, #4]
	add	r0, sp, #12
	.loc	4 1084 19 is_stmt 1             @ ../std/GD32C2x1_Firmware_Library/GD32C2x1_standard_peripheral/Source/gd32c2x1_dma.c:1084:19
	ldrh	r0, [r0]
	lsrs	r0, r0, #6
	ldr	r0, [r0, r2]
	.loc	4 1084 46 is_stmt 0             @ ../std/GD32C2x1_Firmware_Library/GD32C2x1_standard_peripheral/Source/gd32c2x1_dma.c:1084:46
	ldr	r2, [sp, #12]
	ands	r2, r3
	lsls	r1, r2
	.loc	4 1084 44                       @ ../std/GD32C2x1_Firmware_Library/GD32C2x1_standard_peripheral/Source/gd32c2x1_dma.c:1084:44
	ands	r0, r1
	.loc	4 1084 16                       @ ../std/GD32C2x1_Firmware_Library/GD32C2x1_standard_peripheral/Source/gd32c2x1_dma.c:1084:16
	str	r0, [sp]
.Ltmp139:
	.loc	4 1086 15 is_stmt 1             @ ../std/GD32C2x1_Firmware_Library/GD32C2x1_standard_peripheral/Source/gd32c2x1_dma.c:1086:15
	ldr	r0, [sp]
	.loc	4 1086 27 is_stmt 0             @ ../std/GD32C2x1_Firmware_Library/GD32C2x1_standard_peripheral/Source/gd32c2x1_dma.c:1086:27
	cbz	r0, .LBB46_3
	b	.LBB46_1
.LBB46_1:
	.loc	4 1086 37                       @ ../std/GD32C2x1_Firmware_Library/GD32C2x1_standard_peripheral/Source/gd32c2x1_dma.c:1086:37
	ldr	r0, [sp, #4]
.Ltmp140:
	.loc	4 1086 8                        @ ../std/GD32C2x1_Firmware_Library/GD32C2x1_standard_peripheral/Source/gd32c2x1_dma.c:1086:8
	cbz	r0, .LBB46_3
	b	.LBB46_2
.LBB46_2:
	.loc	4 0 8                           @ ../std/GD32C2x1_Firmware_Library/GD32C2x1_standard_peripheral/Source/gd32c2x1_dma.c:0:8
	add	r1, sp, #8
	movs	r0, #1
.Ltmp141:
	.loc	4 1087 15 is_stmt 1             @ ../std/GD32C2x1_Firmware_Library/GD32C2x1_standard_peripheral/Source/gd32c2x1_dma.c:1087:15
	strb	r0, [r1]
	.loc	4 1088 5                        @ ../std/GD32C2x1_Firmware_Library/GD32C2x1_standard_peripheral/Source/gd32c2x1_dma.c:1088:5
	b	.LBB46_4
.Ltmp142:
.LBB46_3:
	.loc	4 0 5 is_stmt 0                 @ ../std/GD32C2x1_Firmware_Library/GD32C2x1_standard_peripheral/Source/gd32c2x1_dma.c:0:5
	add	r1, sp, #8
	movs	r0, #0
.Ltmp143:
	.loc	4 1089 15 is_stmt 1             @ ../std/GD32C2x1_Firmware_Library/GD32C2x1_standard_peripheral/Source/gd32c2x1_dma.c:1089:15
	strb	r0, [r1]
	b	.LBB46_4
.Ltmp144:
.LBB46_4:
	.loc	4 0 15 is_stmt 0                @ ../std/GD32C2x1_Firmware_Library/GD32C2x1_standard_peripheral/Source/gd32c2x1_dma.c:0:15
	add	r0, sp, #8
	.loc	4 1091 12 is_stmt 1             @ ../std/GD32C2x1_Firmware_Library/GD32C2x1_standard_peripheral/Source/gd32c2x1_dma.c:1091:12
	ldrb	r0, [r0]
	.loc	4 1091 5 is_stmt 0              @ ../std/GD32C2x1_Firmware_Library/GD32C2x1_standard_peripheral/Source/gd32c2x1_dma.c:1091:5
	add	sp, #16
	pop	{r4, r5, r7, pc}
.Ltmp145:
	.p2align	2
@ %bb.5:
	.loc	4 0 5                           @ ../std/GD32C2x1_Firmware_Library/GD32C2x1_standard_peripheral/Source/gd32c2x1_dma.c:0:5
__arm_cp.46_0:
	.long	1073874944                      @ 0x40020800
.Lcpi_end57:
	.size	__arm_cp.46_0, .Lcpi_end57-__arm_cp.46_0
.Lfunc_end46:
	.size	dmamux_interrupt_flag_get, .Lfunc_end46-dmamux_interrupt_flag_get
	.cfi_endproc
	.cantunwind
	.fnend
                                        @ -- End function
	.section	.text.dmamux_interrupt_flag_clear,"ax",%progbits
	.hidden	dmamux_interrupt_flag_clear     @ -- Begin function dmamux_interrupt_flag_clear
	.globl	dmamux_interrupt_flag_clear
	.p2align	2
	.type	dmamux_interrupt_flag_clear,%function
	.code	16                              @ @dmamux_interrupt_flag_clear
	.thumb_func
dmamux_interrupt_flag_clear:
.Lfunc_begin47:
	.loc	4 1109 0 is_stmt 1              @ ../std/GD32C2x1_Firmware_Library/GD32C2x1_standard_peripheral/Source/gd32c2x1_dma.c:1109:0
	.fnstart
	.cfi_startproc
@ %bb.0:
	.pad	#4
	sub	sp, #4
	.cfi_def_cfa_offset 4
	str	r0, [sp]
.Ltmp146:
	.loc	4 1110 33 prologue_end          @ ../std/GD32C2x1_Firmware_Library/GD32C2x1_standard_peripheral/Source/gd32c2x1_dma.c:1110:33
	ldr	r1, [sp]
	movs	r0, #31
	mov	r2, r1
	ands	r2, r0
	movs	r0, #1
	lsls	r0, r2
	.loc	4 1110 5 is_stmt 0              @ ../std/GD32C2x1_Firmware_Library/GD32C2x1_standard_peripheral/Source/gd32c2x1_dma.c:1110:5
	uxth	r1, r1
	lsrs	r1, r1, #6
	ldr	r2, __arm_cp.47_0
	.loc	4 1110 31                       @ ../std/GD32C2x1_Firmware_Library/GD32C2x1_standard_peripheral/Source/gd32c2x1_dma.c:1110:31
	str	r0, [r1, r2]
	.loc	4 1111 1 is_stmt 1              @ ../std/GD32C2x1_Firmware_Library/GD32C2x1_standard_peripheral/Source/gd32c2x1_dma.c:1111:1
	add	sp, #4
	bx	lr
.Ltmp147:
	.p2align	2
@ %bb.1:
	.loc	4 0 1 is_stmt 0                 @ ../std/GD32C2x1_Firmware_Library/GD32C2x1_standard_peripheral/Source/gd32c2x1_dma.c:0:1
__arm_cp.47_0:
	.long	1073874948                      @ 0x40020804
.Lcpi_end58:
	.size	__arm_cp.47_0, .Lcpi_end58-__arm_cp.47_0
.Lfunc_end47:
	.size	dmamux_interrupt_flag_clear, .Lfunc_end47-dmamux_interrupt_flag_clear
	.cfi_endproc
	.cantunwind
	.fnend
                                        @ -- End function
	.section	.text.dmamux_interrupt_enable,"ax",%progbits
	.hidden	dmamux_interrupt_enable         @ -- Begin function dmamux_interrupt_enable
	.globl	dmamux_interrupt_enable
	.p2align	2
	.type	dmamux_interrupt_enable,%function
	.code	16                              @ @dmamux_interrupt_enable
	.thumb_func
dmamux_interrupt_enable:
.Lfunc_begin48:
	.loc	4 1128 0 is_stmt 1              @ ../std/GD32C2x1_Firmware_Library/GD32C2x1_standard_peripheral/Source/gd32c2x1_dma.c:1128:0
	.fnstart
	.cfi_startproc
@ %bb.0:
	.pad	#4
	sub	sp, #4
	.cfi_def_cfa_offset 4
	mov	r1, r0
                                        @ kill: def $r0 killed $r1
	mov	r0, sp
	strh	r1, [r0]
.Ltmp148:
	.loc	4 1129 34 prologue_end          @ ../std/GD32C2x1_Firmware_Library/GD32C2x1_standard_peripheral/Source/gd32c2x1_dma.c:1129:34
	ldrh	r0, [r0]
	movs	r2, #31
	mov	r1, r0
	ands	r1, r2
	movs	r3, #1
	lsls	r3, r1
	.loc	4 1129 5 is_stmt 0              @ ../std/GD32C2x1_Firmware_Library/GD32C2x1_standard_peripheral/Source/gd32c2x1_dma.c:1129:5
	lsrs	r1, r0, #6
	ldr	r2, __arm_cp.48_0
	.loc	4 1129 31                       @ ../std/GD32C2x1_Firmware_Library/GD32C2x1_standard_peripheral/Source/gd32c2x1_dma.c:1129:31
	ldr	r0, [r1, r2]
	orrs	r0, r3
	str	r0, [r1, r2]
	.loc	4 1130 1 is_stmt 1              @ ../std/GD32C2x1_Firmware_Library/GD32C2x1_standard_peripheral/Source/gd32c2x1_dma.c:1130:1
	add	sp, #4
	bx	lr
.Ltmp149:
	.p2align	2
@ %bb.1:
	.loc	4 0 1 is_stmt 0                 @ ../std/GD32C2x1_Firmware_Library/GD32C2x1_standard_peripheral/Source/gd32c2x1_dma.c:0:1
__arm_cp.48_0:
	.long	1073874944                      @ 0x40020800
.Lcpi_end59:
	.size	__arm_cp.48_0, .Lcpi_end59-__arm_cp.48_0
.Lfunc_end48:
	.size	dmamux_interrupt_enable, .Lfunc_end48-dmamux_interrupt_enable
	.cfi_endproc
	.cantunwind
	.fnend
                                        @ -- End function
	.section	.text.dmamux_interrupt_disable,"ax",%progbits
	.hidden	dmamux_interrupt_disable        @ -- Begin function dmamux_interrupt_disable
	.globl	dmamux_interrupt_disable
	.p2align	2
	.type	dmamux_interrupt_disable,%function
	.code	16                              @ @dmamux_interrupt_disable
	.thumb_func
dmamux_interrupt_disable:
.Lfunc_begin49:
	.loc	4 1147 0 is_stmt 1              @ ../std/GD32C2x1_Firmware_Library/GD32C2x1_standard_peripheral/Source/gd32c2x1_dma.c:1147:0
	.fnstart
	.cfi_startproc
@ %bb.0:
	.pad	#4
	sub	sp, #4
	.cfi_def_cfa_offset 4
	mov	r1, r0
                                        @ kill: def $r0 killed $r1
	mov	r0, sp
	strh	r1, [r0]
.Ltmp150:
	.loc	4 1148 35 prologue_end          @ ../std/GD32C2x1_Firmware_Library/GD32C2x1_standard_peripheral/Source/gd32c2x1_dma.c:1148:35
	ldrh	r0, [r0]
	movs	r2, #31
	mov	r1, r0
	ands	r1, r2
	movs	r3, #1
	lsls	r3, r1
	.loc	4 1148 5 is_stmt 0              @ ../std/GD32C2x1_Firmware_Library/GD32C2x1_standard_peripheral/Source/gd32c2x1_dma.c:1148:5
	lsrs	r1, r0, #6
	ldr	r2, __arm_cp.49_0
	.loc	4 1148 31                       @ ../std/GD32C2x1_Firmware_Library/GD32C2x1_standard_peripheral/Source/gd32c2x1_dma.c:1148:31
	ldr	r0, [r1, r2]
	bics	r0, r3
	str	r0, [r1, r2]
	.loc	4 1149 1 is_stmt 1              @ ../std/GD32C2x1_Firmware_Library/GD32C2x1_standard_peripheral/Source/gd32c2x1_dma.c:1149:1
	add	sp, #4
	bx	lr
.Ltmp151:
	.p2align	2
@ %bb.1:
	.loc	4 0 1 is_stmt 0                 @ ../std/GD32C2x1_Firmware_Library/GD32C2x1_standard_peripheral/Source/gd32c2x1_dma.c:0:1
__arm_cp.49_0:
	.long	1073874944                      @ 0x40020800
.Lcpi_end60:
	.size	__arm_cp.49_0, .Lcpi_end60-__arm_cp.49_0
.Lfunc_end49:
	.size	dmamux_interrupt_disable, .Lfunc_end49-dmamux_interrupt_disable
	.cfi_endproc
	.cantunwind
	.fnend
                                        @ -- End function
	.section	".note.GNU-stack","",%progbits
	.eabi_attribute	30, 6	@ Tag_ABI_optimization_goals
	.ARM_attribute	16, 1	@ Tag_AV_eba