	.text
	.syntax unified
	.eabi_attribute	67, "2.09"	@ Tag_conformance
	.cpu	cortex-m23
	.eabi_attribute	6, 16	@ Tag_CPU_arch
	.eabi_attribute	7, 77	@ Tag_CPU_arch_profile
	.eabi_attribute	8, 0	@ Tag_ARM_ISA_use
	.eabi_attribute	9, 3	@ Tag_THUMB_ISA_use
	.eabi_attribute	34, 0	@ Tag_CPU_unaligned_access
	.eabi_attribute	17, 1	@ Tag_ABI_PCS_GOT_use
	.eabi_attribute	20, 2	@ Tag_ABI_FP_denormal
	.eabi_attribute	21, 0	@ Tag_ABI_FP_exceptions
	.eabi_attribute	23, 1	@ Tag_ABI_FP_number_model
	.eabi_attribute	24, 1	@ Tag_ABI_align_needed
	.eabi_attribute	25, 1	@ Tag_ABI_align_preserved
	.eabi_attribute	38, 1	@ Tag_ABI_FP_16bit_format
	.eabi_attribute	18, 2	@ Tag_ABI_PCS_wchar_t
	.eabi_attribute	26, 1	@ Tag_ABI_enum_size
	.eabi_attribute	14, 0	@ Tag_ABI_PCS_R9_use
	.file	"gd32c2x1_rtc.c"
	.file	1 "E:\\work\\CX_NFC_RX\\prj" "../std/GD32C2x1_Firmware_Library/CMSIS/GD/GD32C2x1/Include/gd32c2x1.h"
	.file	2 "E:\\work\\CX_NFC_RX\\prj" "../std/GD32C2x1_Firmware_Library/GD32C2x1_standard_peripheral/Include\\gd32c2x1_rtc.h"
	.file	3 "D:\\Keil_v5\\ARM\\ARMCLANG\\Bin\\..\\include" "stdint.h"
	.section	.text.rtc_bypass_shadow_enable,"ax",%progbits
	.hidden	rtc_bypass_shadow_enable        @ -- Begin function rtc_bypass_shadow_enable
	.globl	rtc_bypass_shadow_enable
	.p2align	2
	.type	rtc_bypass_shadow_enable,%function
	.code	16                              @ @rtc_bypass_shadow_enable
	.thumb_func
rtc_bypass_shadow_enable:
.Lfunc_begin0:
	.file	4 "E:\\work\\CX_NFC_RX\\prj" "../std/GD32C2x1_Firmware_Library/GD32C2x1_standard_peripheral/Source/gd32c2x1_rtc.c"
	.loc	4 51 0                          @ ../std/GD32C2x1_Firmware_Library/GD32C2x1_standard_peripheral/Source/gd32c2x1_rtc.c:51:0
	.fnstart
	.cfi_sections .debug_frame
	.cfi_startproc
@ %bb.0:
	ldr	r1, __arm_cp.0_0
	movs	r0, #202
.Ltmp0:
	.loc	4 53 13 prologue_end            @ ../std/GD32C2x1_Firmware_Library/GD32C2x1_standard_peripheral/Source/gd32c2x1_rtc.c:53:13
	str	r0, [r1]
	movs	r0, #83
	.loc	4 54 13                         @ ../std/GD32C2x1_Firmware_Library/GD32C2x1_standard_peripheral/Source/gd32c2x1_rtc.c:54:13
	str	r0, [r1]
	ldr	r2, __arm_cp.0_1
	.loc	4 56 13                         @ ../std/GD32C2x1_Firmware_Library/GD32C2x1_standard_peripheral/Source/gd32c2x1_rtc.c:56:13
	ldr	r0, [r2]
	movs	r3, #32
	orrs	r0, r3
	str	r0, [r2]
	movs	r0, #255
	.loc	4 59 13                         @ ../std/GD32C2x1_Firmware_Library/GD32C2x1_standard_peripheral/Source/gd32c2x1_rtc.c:59:13
	str	r0, [r1]
	.loc	4 60 1                          @ ../std/GD32C2x1_Firmware_Library/GD32C2x1_standard_peripheral/Source/gd32c2x1_rtc.c:60:1
	bx	lr
.Ltmp1:
	.p2align	2
@ %bb.1:
	.loc	4 0 1 is_stmt 0                 @ ../std/GD32C2x1_Firmware_Library/GD32C2x1_standard_peripheral/Source/gd32c2x1_rtc.c:0:1
__arm_cp.0_0:
	.long	1073752100                      @ 0x40002824
.Lcpi_end0:
	.size	__arm_cp.0_0, .Lcpi_end0-__arm_cp.0_0
__arm_cp.0_1:
	.long	1073752072                      @ 0x40002808
.Lcpi_end1:
	.size	__arm_cp.0_1, .Lcpi_end1-__arm_cp.0_1
.Lfunc_end0:
	.size	rtc_bypass_shadow_enable, .Lfunc_end0-rtc_bypass_shadow_enable
	.cfi_endproc
	.cantunwind
	.fnend
                                        @ -- End function
	.section	.text.rtc_bypass_shadow_disable,"ax",%progbits
	.hidden	rtc_bypass_shadow_disable       @ -- Begin function rtc_bypass_shadow_disable
	.globl	rtc_bypass_shadow_disable
	.p2align	2
	.type	rtc_bypass_shadow_disable,%function
	.code	16                              @ @rtc_bypass_shadow_disable
	.thumb_func
rtc_bypass_shadow_disable:
.Lfunc_begin1:
	.loc	4 69 0 is_stmt 1                @ ../std/GD32C2x1_Firmware_Library/GD32C2x1_standard_peripheral/Source/gd32c2x1_rtc.c:69:0
	.fnstart
	.cfi_startproc
@ %bb.0:
	ldr	r1, __arm_cp.1_0
	movs	r0, #202
.Ltmp2:
	.loc	4 71 13 prologue_end            @ ../std/GD32C2x1_Firmware_Library/GD32C2x1_standard_peripheral/Source/gd32c2x1_rtc.c:71:13
	str	r0, [r1]
	movs	r0, #83
	.loc	4 72 13                         @ ../std/GD32C2x1_Firmware_Library/GD32C2x1_standard_peripheral/Source/gd32c2x1_rtc.c:72:13
	str	r0, [r1]
	ldr	r2, __arm_cp.1_1
	.loc	4 74 13                         @ ../std/GD32C2x1_Firmware_Library/GD32C2x1_standard_peripheral/Source/gd32c2x1_rtc.c:74:13
	ldr	r0, [r2]
	movs	r3, #223
	ands	r0, r3
	str	r0, [r2]
	movs	r0, #255
	.loc	4 77 13                         @ ../std/GD32C2x1_Firmware_Library/GD32C2x1_standard_peripheral/Source/gd32c2x1_rtc.c:77:13
	str	r0, [r1]
	.loc	4 78 1                          @ ../std/GD32C2x1_Firmware_Library/GD32C2x1_standard_peripheral/Source/gd32c2x1_rtc.c:78:1
	bx	lr
.Ltmp3:
	.p2align	2
@ %bb.1:
	.loc	4 0 1 is_stmt 0                 @ ../std/GD32C2x1_Firmware_Library/GD32C2x1_standard_peripheral/Source/gd32c2x1_rtc.c:0:1
__arm_cp.1_0:
	.long	1073752100                      @ 0x40002824
.Lcpi_end2:
	.size	__arm_cp.1_0, .Lcpi_end2-__arm_cp.1_0
__arm_cp.1_1:
	.long	1073752072                      @ 0x40002808
.Lcpi_end3:
	.size	__arm_cp.1_1, .Lcpi_end3-__arm_cp.1_1
.Lfunc_end1:
	.size	rtc_bypass_shadow_disable, .Lfunc_end1-rtc_bypass_shadow_disable
	.cfi_endproc
	.cantunwind
	.fnend
                                        @ -- End function
	.section	.text.rtc_register_sync_wait,"ax",%progbits
	.hidden	rtc_register_sync_wait          @ -- Begin function rtc_register_sync_wait
	.globl	rtc_register_sync_wait
	.p2align	2
	.type	rtc_register_sync_wait,%function
	.code	16                              @ @rtc_register_sync_wait
	.thumb_func
rtc_register_sync_wait:
.Lfunc_begin2:
	.loc	4 90 0 is_stmt 1                @ ../std/GD32C2x1_Firmware_Library/GD32C2x1_standard_peripheral/Source/gd32c2x1_rtc.c:90:0
	.fnstart
	.cfi_startproc
@ %bb.0:
	.pad	#16
	sub	sp, #16
	.cfi_def_cfa_offset 16
	movw	r0, #32768
.Ltmp4:
	.loc	4 91 23 prologue_end            @ ../std/GD32C2x1_Firmware_Library/GD32C2x1_standard_peripheral/Source/gd32c2x1_rtc.c:91:23
	str	r0, [sp, #12]
	add	r1, sp, #4
	movs	r0, #0
	.loc	4 93 15                         @ ../std/GD32C2x1_Firmware_Library/GD32C2x1_standard_peripheral/Source/gd32c2x1_rtc.c:93:15
	strb	r0, [r1]
	ldr	r0, __arm_cp.2_0
.Ltmp5:
	.loc	4 95 28                         @ ../std/GD32C2x1_Firmware_Library/GD32C2x1_standard_peripheral/Source/gd32c2x1_rtc.c:95:28
	ldr	r0, [r0]
.Ltmp6:
	.loc	4 95 8 is_stmt 0                @ ../std/GD32C2x1_Firmware_Library/GD32C2x1_standard_peripheral/Source/gd32c2x1_rtc.c:95:8
	lsls	r0, r0, #26
	cmp	r0, #0
	bmi	.LBB2_9
	b	.LBB2_1
.LBB2_1:
	.loc	4 0 8                           @ ../std/GD32C2x1_Firmware_Library/GD32C2x1_standard_peripheral/Source/gd32c2x1_rtc.c:0:8
	ldr	r1, __arm_cp.2_1
	movs	r0, #202
.Ltmp7:
	.loc	4 97 17 is_stmt 1               @ ../std/GD32C2x1_Firmware_Library/GD32C2x1_standard_peripheral/Source/gd32c2x1_rtc.c:97:17
	str	r0, [r1]
	movs	r0, #83
	.loc	4 98 17                         @ ../std/GD32C2x1_Firmware_Library/GD32C2x1_standard_peripheral/Source/gd32c2x1_rtc.c:98:17
	str	r0, [r1]
	ldr	r1, __arm_cp.2_2
	.loc	4 101 18                        @ ../std/GD32C2x1_Firmware_Library/GD32C2x1_standard_peripheral/Source/gd32c2x1_rtc.c:101:18
	ldr	r0, [r1]
	movs	r2, #32
	bics	r0, r2
	str	r0, [r1]
	.loc	4 104 9                         @ ../std/GD32C2x1_Firmware_Library/GD32C2x1_standard_peripheral/Source/gd32c2x1_rtc.c:104:9
	b	.LBB2_2
.LBB2_2:                                @ =>This Inner Loop Header: Depth=1
	.loc	4 0 9 is_stmt 0                 @ ../std/GD32C2x1_Firmware_Library/GD32C2x1_standard_peripheral/Source/gd32c2x1_rtc.c:0:9
	ldr	r0, __arm_cp.2_2
.Ltmp8:
	.loc	4 105 27 is_stmt 1              @ ../std/GD32C2x1_Firmware_Library/GD32C2x1_standard_peripheral/Source/gd32c2x1_rtc.c:105:27
	ldr	r0, [r0]
	movs	r1, #32
	.loc	4 105 36 is_stmt 0              @ ../std/GD32C2x1_Firmware_Library/GD32C2x1_standard_peripheral/Source/gd32c2x1_rtc.c:105:36
	ands	r0, r1
	.loc	4 105 25                        @ ../std/GD32C2x1_Firmware_Library/GD32C2x1_standard_peripheral/Source/gd32c2x1_rtc.c:105:25
	str	r0, [sp, #8]
	.loc	4 106 9 is_stmt 1               @ ../std/GD32C2x1_Firmware_Library/GD32C2x1_standard_peripheral/Source/gd32c2x1_rtc.c:106:9
	b	.LBB2_3
.Ltmp9:
.LBB2_3:                                @   in Loop: Header=BB2_2 Depth=1
	.loc	4 106 18 is_stmt 0              @ ../std/GD32C2x1_Firmware_Library/GD32C2x1_standard_peripheral/Source/gd32c2x1_rtc.c:106:18
	ldr	r0, [sp, #12]
	subs	r1, r0, #1
	str	r1, [sp, #12]
	movs	r0, #0
	.loc	4 106 37                        @ ../std/GD32C2x1_Firmware_Library/GD32C2x1_standard_peripheral/Source/gd32c2x1_rtc.c:106:37
	str	r0, [sp]                        @ 4-byte Spill
	cbz	r1, .LBB2_5
	b	.LBB2_4
.LBB2_4:                                @   in Loop: Header=BB2_2 Depth=1
	.loc	4 106 57                        @ ../std/GD32C2x1_Firmware_Library/GD32C2x1_standard_peripheral/Source/gd32c2x1_rtc.c:106:57
	ldr	r0, [sp, #8]
	.loc	4 106 54                        @ ../std/GD32C2x1_Firmware_Library/GD32C2x1_standard_peripheral/Source/gd32c2x1_rtc.c:106:54
	rsbs	r1, r0, #0
	adcs	r0, r1
	str	r0, [sp]                        @ 4-byte Spill
	b	.LBB2_5
.LBB2_5:                                @   in Loop: Header=BB2_2 Depth=1
	.loc	4 0 0                           @ ../std/GD32C2x1_Firmware_Library/GD32C2x1_standard_peripheral/Source/gd32c2x1_rtc.c:0:0
	ldr	r0, [sp]                        @ 4-byte Reload
.Ltmp10:
	.loc	4 106 9                         @ ../std/GD32C2x1_Firmware_Library/GD32C2x1_standard_peripheral/Source/gd32c2x1_rtc.c:106:9
	lsls	r0, r0, #31
	cmp	r0, #0
	bne	.LBB2_2
	b	.LBB2_6
.Ltmp11:
.LBB2_6:
	.loc	4 108 31 is_stmt 1              @ ../std/GD32C2x1_Firmware_Library/GD32C2x1_standard_peripheral/Source/gd32c2x1_rtc.c:108:31
	ldr	r0, [sp, #8]
.Ltmp12:
	.loc	4 108 12 is_stmt 0              @ ../std/GD32C2x1_Firmware_Library/GD32C2x1_standard_peripheral/Source/gd32c2x1_rtc.c:108:12
	cbz	r0, .LBB2_8
	b	.LBB2_7
.LBB2_7:
	.loc	4 0 12                          @ ../std/GD32C2x1_Firmware_Library/GD32C2x1_standard_peripheral/Source/gd32c2x1_rtc.c:0:12
	add	r1, sp, #4
	movs	r0, #1
.Ltmp13:
	.loc	4 109 26 is_stmt 1              @ ../std/GD32C2x1_Firmware_Library/GD32C2x1_standard_peripheral/Source/gd32c2x1_rtc.c:109:26
	strb	r0, [r1]
	.loc	4 110 9                         @ ../std/GD32C2x1_Firmware_Library/GD32C2x1_standard_peripheral/Source/gd32c2x1_rtc.c:110:9
	b	.LBB2_8
.Ltmp14:
.LBB2_8:
	.loc	4 0 9 is_stmt 0                 @ ../std/GD32C2x1_Firmware_Library/GD32C2x1_standard_peripheral/Source/gd32c2x1_rtc.c:0:9
	ldr	r1, __arm_cp.2_1
	movs	r0, #255
	.loc	4 113 17 is_stmt 1              @ ../std/GD32C2x1_Firmware_Library/GD32C2x1_standard_peripheral/Source/gd32c2x1_rtc.c:113:17
	str	r0, [r1]
	.loc	4 114 5                         @ ../std/GD32C2x1_Firmware_Library/GD32C2x1_standard_peripheral/Source/gd32c2x1_rtc.c:114:5
	b	.LBB2_10
.Ltmp15:
.LBB2_9:
	.loc	4 0 5 is_stmt 0                 @ ../std/GD32C2x1_Firmware_Library/GD32C2x1_standard_peripheral/Source/gd32c2x1_rtc.c:0:5
	add	r1, sp, #4
	movs	r0, #1
.Ltmp16:
	.loc	4 115 22 is_stmt 1              @ ../std/GD32C2x1_Firmware_Library/GD32C2x1_standard_peripheral/Source/gd32c2x1_rtc.c:115:22
	strb	r0, [r1]
	b	.LBB2_10
.Ltmp17:
.LBB2_10:
	.loc	4 0 22 is_stmt 0                @ ../std/GD32C2x1_Firmware_Library/GD32C2x1_standard_peripheral/Source/gd32c2x1_rtc.c:0:22
	add	r0, sp, #4
	.loc	4 118 12 is_stmt 1              @ ../std/GD32C2x1_Firmware_Library/GD32C2x1_standard_peripheral/Source/gd32c2x1_rtc.c:118:12
	ldrb	r0, [r0]
	.loc	4 118 5 is_stmt 0               @ ../std/GD32C2x1_Firmware_Library/GD32C2x1_standard_peripheral/Source/gd32c2x1_rtc.c:118:5
	add	sp, #16
	bx	lr
.Ltmp18:
	.p2align	2
@ %bb.11:
	.loc	4 0 5                           @ ../std/GD32C2x1_Firmware_Library/GD32C2x1_standard_peripheral/Source/gd32c2x1_rtc.c:0:5
__arm_cp.2_0:
	.long	1073752072                      @ 0x40002808
.Lcpi_end4:
	.size	__arm_cp.2_0, .Lcpi_end4-__arm_cp.2_0
__arm_cp.2_1:
	.long	1073752100                      @ 0x40002824
.Lcpi_end5:
	.size	__arm_cp.2_1, .Lcpi_end5-__arm_cp.2_1
__arm_cp.2_2:
	.long	1073752076                      @ 0x4000280c
.Lcpi_end6:
	.size	__arm_cp.2_2, .Lcpi_end6-__arm_cp.2_2
.Lfunc_end2:
	.size	rtc_register_sync_wait, .Lfunc_end2-rtc_register_sync_wait
	.cfi_endproc
	.cantunwind
	.fnend
                                        @ -- End function
	.section	.text.rtc_alarm_enable,"ax",%progbits
	.hidden	rtc_alarm_enable                @ -- Begin function rtc_alarm_enable
	.globl	rtc_alarm_enable
	.p2align	2
	.type	rtc_alarm_enable,%function
	.code	16                              @ @rtc_alarm_enable
	.thumb_func
rtc_alarm_enable:
.Lfunc_begin3:
	.loc	4 128 0 is_stmt 1               @ ../std/GD32C2x1_Firmware_Library/GD32C2x1_standard_peripheral/Source/gd32c2x1_rtc.c:128:0
	.fnstart
	.cfi_startproc
@ %bb.0:
	ldr	r1, __arm_cp.3_0
	movs	r0, #202
.Ltmp19:
	.loc	4 130 13 prologue_end           @ ../std/GD32C2x1_Firmware_Library/GD32C2x1_standard_peripheral/Source/gd32c2x1_rtc.c:130:13
	str	r0, [r1]
	movs	r0, #83
	.loc	4 131 13                        @ ../std/GD32C2x1_Firmware_Library/GD32C2x1_standard_peripheral/Source/gd32c2x1_rtc.c:131:13
	str	r0, [r1]
	ldr	r2, __arm_cp.3_1
	.loc	4 133 13                        @ ../std/GD32C2x1_Firmware_Library/GD32C2x1_standard_peripheral/Source/gd32c2x1_rtc.c:133:13
	ldr	r0, [r2]
	movw	r3, #256
	orrs	r0, r3
	str	r0, [r2]
	movs	r0, #255
	.loc	4 136 13                        @ ../std/GD32C2x1_Firmware_Library/GD32C2x1_standard_peripheral/Source/gd32c2x1_rtc.c:136:13
	str	r0, [r1]
	.loc	4 137 1                         @ ../std/GD32C2x1_Firmware_Library/GD32C2x1_standard_peripheral/Source/gd32c2x1_rtc.c:137:1
	bx	lr
.Ltmp20:
	.p2align	2
@ %bb.1:
	.loc	4 0 1 is_stmt 0                 @ ../std/GD32C2x1_Firmware_Library/GD32C2x1_standard_peripheral/Source/gd32c2x1_rtc.c:0:1
__arm_cp.3_0:
	.long	1073752100                      @ 0x40002824
.Lcpi_end7:
	.size	__arm_cp.3_0, .Lcpi_end7-__arm_cp.3_0
__arm_cp.3_1:
	.long	1073752072                      @ 0x40002808
.Lcpi_end8:
	.size	__arm_cp.3_1, .Lcpi_end8-__arm_cp.3_1
.Lfunc_end3:
	.size	rtc_alarm_enable, .Lfunc_end3-rtc_alarm_enable
	.cfi_endproc
	.cantunwind
	.fnend
                                        @ -- End function
	.section	.text.rtc_alarm_disable,"ax",%progbits
	.hidden	rtc_alarm_disable               @ -- Begin function rtc_alarm_disable
	.globl	rtc_alarm_disable
	.p2align	2
	.type	rtc_alarm_disable,%function
	.code	16                              @ @rtc_alarm_disable
	.thumb_func
rtc_alarm_disable:
.Lfunc_begin4:
	.loc	4 147 0 is_stmt 1               @ ../std/GD32C2x1_Firmware_Library/GD32C2x1_standard_peripheral/Source/gd32c2x1_rtc.c:147:0
	.fnstart
	.cfi_startproc
@ %bb.0:
	.pad	#16
	sub	sp, #16
	.cfi_def_cfa_offset 16
	movw	r0, #32768
.Ltmp21:
	.loc	4 148 23 prologue_end           @ ../std/GD32C2x1_Firmware_Library/GD32C2x1_standard_peripheral/Source/gd32c2x1_rtc.c:148:23
	str	r0, [sp, #12]
	add	r1, sp, #8
	movs	r0, #0
	.loc	4 149 15                        @ ../std/GD32C2x1_Firmware_Library/GD32C2x1_standard_peripheral/Source/gd32c2x1_rtc.c:149:15
	strb	r0, [r1]
	ldr	r1, __arm_cp.4_0
	movs	r0, #202
	.loc	4 153 13                        @ ../std/GD32C2x1_Firmware_Library/GD32C2x1_standard_peripheral/Source/gd32c2x1_rtc.c:153:13
	str	r0, [r1]
	movs	r0, #83
	.loc	4 154 13                        @ ../std/GD32C2x1_Firmware_Library/GD32C2x1_standard_peripheral/Source/gd32c2x1_rtc.c:154:13
	str	r0, [r1]
	ldr	r1, __arm_cp.4_1
	.loc	4 157 13                        @ ../std/GD32C2x1_Firmware_Library/GD32C2x1_standard_peripheral/Source/gd32c2x1_rtc.c:157:13
	ldr	r0, [r1]
	movw	r2, #256
	bics	r0, r2
	str	r0, [r1]
	.loc	4 159 5                         @ ../std/GD32C2x1_Firmware_Library/GD32C2x1_standard_peripheral/Source/gd32c2x1_rtc.c:159:5
	b	.LBB4_1
.LBB4_1:                                @ =>This Inner Loop Header: Depth=1
	.loc	4 0 5 is_stmt 0                 @ ../std/GD32C2x1_Firmware_Library/GD32C2x1_standard_peripheral/Source/gd32c2x1_rtc.c:0:5
	ldr	r0, __arm_cp.4_2
.Ltmp22:
	.loc	4 160 23 is_stmt 1              @ ../std/GD32C2x1_Firmware_Library/GD32C2x1_standard_peripheral/Source/gd32c2x1_rtc.c:160:23
	ldr	r0, [r0]
	movs	r1, #1
	.loc	4 160 32 is_stmt 0              @ ../std/GD32C2x1_Firmware_Library/GD32C2x1_standard_peripheral/Source/gd32c2x1_rtc.c:160:32
	ands	r0, r1
	.loc	4 160 21                        @ ../std/GD32C2x1_Firmware_Library/GD32C2x1_standard_peripheral/Source/gd32c2x1_rtc.c:160:21
	str	r0, [sp, #4]
	.loc	4 161 5 is_stmt 1               @ ../std/GD32C2x1_Firmware_Library/GD32C2x1_standard_peripheral/Source/gd32c2x1_rtc.c:161:5
	b	.LBB4_2
.Ltmp23:
.LBB4_2:                                @   in Loop: Header=BB4_1 Depth=1
	.loc	4 161 14 is_stmt 0              @ ../std/GD32C2x1_Firmware_Library/GD32C2x1_standard_peripheral/Source/gd32c2x1_rtc.c:161:14
	ldr	r0, [sp, #12]
	subs	r1, r0, #1
	str	r1, [sp, #12]
	movs	r0, #0
	.loc	4 161 33                        @ ../std/GD32C2x1_Firmware_Library/GD32C2x1_standard_peripheral/Source/gd32c2x1_rtc.c:161:33
	str	r0, [sp]                        @ 4-byte Spill
	cbz	r1, .LBB4_4
	b	.LBB4_3
.LBB4_3:                                @   in Loop: Header=BB4_1 Depth=1
	.loc	4 161 56                        @ ../std/GD32C2x1_Firmware_Library/GD32C2x1_standard_peripheral/Source/gd32c2x1_rtc.c:161:56
	ldr	r0, [sp, #4]
	.loc	4 161 53                        @ ../std/GD32C2x1_Firmware_Library/GD32C2x1_standard_peripheral/Source/gd32c2x1_rtc.c:161:53
	rsbs	r1, r0, #0
	adcs	r0, r1
	str	r0, [sp]                        @ 4-byte Spill
	b	.LBB4_4
.LBB4_4:                                @   in Loop: Header=BB4_1 Depth=1
	.loc	4 0 0                           @ ../std/GD32C2x1_Firmware_Library/GD32C2x1_standard_peripheral/Source/gd32c2x1_rtc.c:0:0
	ldr	r0, [sp]                        @ 4-byte Reload
.Ltmp24:
	.loc	4 161 5                         @ ../std/GD32C2x1_Firmware_Library/GD32C2x1_standard_peripheral/Source/gd32c2x1_rtc.c:161:5
	lsls	r0, r0, #31
	cmp	r0, #0
	bne	.LBB4_1
	b	.LBB4_5
.Ltmp25:
.LBB4_5:
	.loc	4 163 27 is_stmt 1              @ ../std/GD32C2x1_Firmware_Library/GD32C2x1_standard_peripheral/Source/gd32c2x1_rtc.c:163:27
	ldr	r0, [sp, #4]
.Ltmp26:
	.loc	4 163 8 is_stmt 0               @ ../std/GD32C2x1_Firmware_Library/GD32C2x1_standard_peripheral/Source/gd32c2x1_rtc.c:163:8
	cbz	r0, .LBB4_7
	b	.LBB4_6
.LBB4_6:
	.loc	4 0 8                           @ ../std/GD32C2x1_Firmware_Library/GD32C2x1_standard_peripheral/Source/gd32c2x1_rtc.c:0:8
	add	r1, sp, #8
	movs	r0, #1
.Ltmp27:
	.loc	4 164 22 is_stmt 1              @ ../std/GD32C2x1_Firmware_Library/GD32C2x1_standard_peripheral/Source/gd32c2x1_rtc.c:164:22
	strb	r0, [r1]
	.loc	4 165 5                         @ ../std/GD32C2x1_Firmware_Library/GD32C2x1_standard_peripheral/Source/gd32c2x1_rtc.c:165:5
	b	.LBB4_7
.Ltmp28:
.LBB4_7:
	.loc	4 0 5 is_stmt 0                 @ ../std/GD32C2x1_Firmware_Library/GD32C2x1_standard_peripheral/Source/gd32c2x1_rtc.c:0:5
	ldr	r1, __arm_cp.4_0
	movs	r0, #255
	.loc	4 168 13 is_stmt 1              @ ../std/GD32C2x1_Firmware_Library/GD32C2x1_standard_peripheral/Source/gd32c2x1_rtc.c:168:13
	str	r0, [r1]
	add	r0, sp, #8
	.loc	4 170 12                        @ ../std/GD32C2x1_Firmware_Library/GD32C2x1_standard_peripheral/Source/gd32c2x1_rtc.c:170:12
	ldrb	r0, [r0]
	.loc	4 170 5 is_stmt 0               @ ../std/GD32C2x1_Firmware_Library/GD32C2x1_standard_peripheral/Source/gd32c2x1_rtc.c:170:5
	add	sp, #16
	bx	lr
.Ltmp29:
	.p2align	2
@ %bb.8:
	.loc	4 0 5                           @ ../std/GD32C2x1_Firmware_Library/GD32C2x1_standard_peripheral/Source/gd32c2x1_rtc.c:0:5
__arm_cp.4_0:
	.long	1073752100                      @ 0x40002824
.Lcpi_end9:
	.size	__arm_cp.4_0, .Lcpi_end9-__arm_cp.4_0
__arm_cp.4_1:
	.long	1073752072                      @ 0x40002808
.Lcpi_end10:
	.size	__arm_cp.4_1, .Lcpi_end10-__arm_cp.4_1
__arm_cp.4_2:
	.long	1073752076                      @ 0x4000280c
.Lcpi_end11:
	.size	__arm_cp.4_2, .Lcpi_end11-__arm_cp.4_2
.Lfunc_end4:
	.size	rtc_alarm_disable, .Lfunc_end4-rtc_alarm_disable
	.cfi_endproc
	.cantunwind
	.fnend
                                        @ -- End function
	.section	.text.rtc_alarm_config,"ax",%progbits
	.hidden	rtc_alarm_config                @ -- Begin function rtc_alarm_config
	.globl	rtc_alarm_config
	.p2align	2
	.type	rtc_alarm_config,%function
	.code	16                              @ @rtc_alarm_config
	.thumb_func
rtc_alarm_config:
.Lfunc_begin5:
	.loc	4 192 0 is_stmt 1               @ ../std/GD32C2x1_Firmware_Library/GD32C2x1_standard_peripheral/Source/gd32c2x1_rtc.c:192:0
	.fnstart
	.cfi_startproc
@ %bb.0:
	.pad	#8
	sub	sp, #8
	.cfi_def_cfa_offset 8
	str	r0, [sp, #4]
	ldr	r1, __arm_cp.5_0
	movs	r0, #202
.Ltmp30:
	.loc	4 203 17 prologue_end           @ ../std/GD32C2x1_Firmware_Library/GD32C2x1_standard_peripheral/Source/gd32c2x1_rtc.c:203:17
	str	r0, [r1]
	movs	r0, #83
	.loc	4 204 17                        @ ../std/GD32C2x1_Firmware_Library/GD32C2x1_standard_peripheral/Source/gd32c2x1_rtc.c:204:17
	str	r0, [r1]
	.loc	4 206 23                        @ ../std/GD32C2x1_Firmware_Library/GD32C2x1_standard_peripheral/Source/gd32c2x1_rtc.c:206:23
	ldr	r2, [sp, #4]
	.loc	4 206 39 is_stmt 0              @ ../std/GD32C2x1_Firmware_Library/GD32C2x1_standard_peripheral/Source/gd32c2x1_rtc.c:206:39
	ldr	r0, [r2]
	.loc	4 207 39 is_stmt 1              @ ../std/GD32C2x1_Firmware_Library/GD32C2x1_standard_peripheral/Source/gd32c2x1_rtc.c:207:39
	ldr	r3, [r2, #4]
	.loc	4 206 50                        @ ../std/GD32C2x1_Firmware_Library/GD32C2x1_standard_peripheral/Source/gd32c2x1_rtc.c:206:50
	orrs	r0, r3
	.loc	4 208 39                        @ ../std/GD32C2x1_Firmware_Library/GD32C2x1_standard_peripheral/Source/gd32c2x1_rtc.c:208:39
	ldr	r3, [r2, #12]
	.loc	4 207 55                        @ ../std/GD32C2x1_Firmware_Library/GD32C2x1_standard_peripheral/Source/gd32c2x1_rtc.c:207:55
	orrs	r0, r3
	.loc	4 209 23                        @ ../std/GD32C2x1_Firmware_Library/GD32C2x1_standard_peripheral/Source/gd32c2x1_rtc.c:209:23
	ldrb	r3, [r2, #8]
	lsls	r3, r3, #26
	lsrs	r3, r3, #2
	.loc	4 208 45                        @ ../std/GD32C2x1_Firmware_Library/GD32C2x1_standard_peripheral/Source/gd32c2x1_rtc.c:208:45
	orrs	r0, r3
	.loc	4 210 23                        @ ../std/GD32C2x1_Firmware_Library/GD32C2x1_standard_peripheral/Source/gd32c2x1_rtc.c:210:23
	ldrb	r3, [r2, #9]
	lsls	r3, r3, #26
	lsrs	r3, r3, #10
	.loc	4 209 61                        @ ../std/GD32C2x1_Firmware_Library/GD32C2x1_standard_peripheral/Source/gd32c2x1_rtc.c:209:61
	orrs	r0, r3
	.loc	4 211 23                        @ ../std/GD32C2x1_Firmware_Library/GD32C2x1_standard_peripheral/Source/gd32c2x1_rtc.c:211:23
	ldrb	r3, [r2, #10]
	lsls	r3, r3, #25
	lsrs	r3, r3, #17
	.loc	4 210 61                        @ ../std/GD32C2x1_Firmware_Library/GD32C2x1_standard_peripheral/Source/gd32c2x1_rtc.c:210:61
	orrs	r0, r3
	.loc	4 212 23                        @ ../std/GD32C2x1_Firmware_Library/GD32C2x1_standard_peripheral/Source/gd32c2x1_rtc.c:212:23
	ldrb	r2, [r2, #11]
	movs	r3, #127
	ands	r2, r3
	.loc	4 211 63                        @ ../std/GD32C2x1_Firmware_Library/GD32C2x1_standard_peripheral/Source/gd32c2x1_rtc.c:211:63
	orrs	r0, r2
	.loc	4 206 20                        @ ../std/GD32C2x1_Firmware_Library/GD32C2x1_standard_peripheral/Source/gd32c2x1_rtc.c:206:20
	str	r0, [sp]
	.loc	4 214 23                        @ ../std/GD32C2x1_Firmware_Library/GD32C2x1_standard_peripheral/Source/gd32c2x1_rtc.c:214:23
	ldr	r0, [sp]
	ldr	r2, __arm_cp.5_1
	.loc	4 214 21 is_stmt 0              @ ../std/GD32C2x1_Firmware_Library/GD32C2x1_standard_peripheral/Source/gd32c2x1_rtc.c:214:21
	str	r0, [r2]
	movs	r0, #255
	.loc	4 217 17 is_stmt 1              @ ../std/GD32C2x1_Firmware_Library/GD32C2x1_standard_peripheral/Source/gd32c2x1_rtc.c:217:17
	str	r0, [r1]
.Ltmp31:
	.loc	4 219 1                         @ ../std/GD32C2x1_Firmware_Library/GD32C2x1_standard_peripheral/Source/gd32c2x1_rtc.c:219:1
	add	sp, #8
	bx	lr
.Ltmp32:
	.p2align	2
@ %bb.1:
	.loc	4 0 1 is_stmt 0                 @ ../std/GD32C2x1_Firmware_Library/GD32C2x1_standard_peripheral/Source/gd32c2x1_rtc.c:0:1
__arm_cp.5_0:
	.long	1073752100                      @ 0x40002824
.Lcpi_end12:
	.size	__arm_cp.5_0, .Lcpi_end12-__arm_cp.5_0
__arm_cp.5_1:
	.long	1073752092                      @ 0x4000281c
.Lcpi_end13:
	.size	__arm_cp.5_1, .Lcpi_end13-__arm_cp.5_1
.Lfunc_end5:
	.size	rtc_alarm_config, .Lfunc_end5-rtc_alarm_config
	.cfi_endproc
	.cantunwind
	.fnend
                                        @ -- End function
	.section	.text.rtc_alarm_subsecond_config,"ax",%progbits
	.hidden	rtc_alarm_subsecond_config      @ -- Begin function rtc_alarm_subsecond_config
	.globl	rtc_alarm_subsecond_config
	.p2align	2
	.type	rtc_alarm_subsecond_config,%function
	.code	16                              @ @rtc_alarm_subsecond_config
	.thumb_func
rtc_alarm_subsecond_config:
.Lfunc_begin6:
	.loc	4 246 0 is_stmt 1               @ ../std/GD32C2x1_Firmware_Library/GD32C2x1_standard_peripheral/Source/gd32c2x1_rtc.c:246:0
	.fnstart
	.cfi_startproc
@ %bb.0:
	.pad	#8
	sub	sp, #8
	.cfi_def_cfa_offset 8
	str	r0, [sp, #4]
	str	r1, [sp]
	ldr	r1, __arm_cp.6_0
	movs	r0, #202
.Ltmp33:
	.loc	4 248 13 prologue_end           @ ../std/GD32C2x1_Firmware_Library/GD32C2x1_standard_peripheral/Source/gd32c2x1_rtc.c:248:13
	str	r0, [r1]
	movs	r0, #83
	.loc	4 249 13                        @ ../std/GD32C2x1_Firmware_Library/GD32C2x1_standard_peripheral/Source/gd32c2x1_rtc.c:249:13
	str	r0, [r1]
	.loc	4 251 19                        @ ../std/GD32C2x1_Firmware_Library/GD32C2x1_standard_peripheral/Source/gd32c2x1_rtc.c:251:19
	ldr	r0, [sp, #4]
	.loc	4 251 36 is_stmt 0              @ ../std/GD32C2x1_Firmware_Library/GD32C2x1_standard_peripheral/Source/gd32c2x1_rtc.c:251:36
	ldr	r2, [sp]
	.loc	4 251 34                        @ ../std/GD32C2x1_Firmware_Library/GD32C2x1_standard_peripheral/Source/gd32c2x1_rtc.c:251:34
	orrs	r0, r2
	ldr	r2, __arm_cp.6_1
	.loc	4 251 17                        @ ../std/GD32C2x1_Firmware_Library/GD32C2x1_standard_peripheral/Source/gd32c2x1_rtc.c:251:17
	str	r0, [r2]
	movs	r0, #255
	.loc	4 254 13 is_stmt 1              @ ../std/GD32C2x1_Firmware_Library/GD32C2x1_standard_peripheral/Source/gd32c2x1_rtc.c:254:13
	str	r0, [r1]
	.loc	4 255 1                         @ ../std/GD32C2x1_Firmware_Library/GD32C2x1_standard_peripheral/Source/gd32c2x1_rtc.c:255:1
	add	sp, #8
	bx	lr
.Ltmp34:
	.p2align	2
@ %bb.1:
	.loc	4 0 1 is_stmt 0                 @ ../std/GD32C2x1_Firmware_Library/GD32C2x1_standard_peripheral/Source/gd32c2x1_rtc.c:0:1
__arm_cp.6_0:
	.long	1073752100                      @ 0x40002824
.Lcpi_end14:
	.size	__arm_cp.6_0, .Lcpi_end14-__arm_cp.6_0
__arm_cp.6_1:
	.long	1073752132                      @ 0x40002844
.Lcpi_end15:
	.size	__arm_cp.6_1, .Lcpi_end15-__arm_cp.6_1
.Lfunc_end6:
	.size	rtc_alarm_subsecond_config, .Lfunc_end6-rtc_alarm_subsecond_config
	.cfi_endproc
	.cantunwind
	.fnend
                                        @ -- End function
	.section	.text.rtc_alarm_get,"ax",%progbits
	.hidden	rtc_alarm_get                   @ -- Begin function rtc_alarm_get
	.globl	rtc_alarm_get
	.p2align	2
	.type	rtc_alarm_get,%function
	.code	16                              @ @rtc_alarm_get
	.thumb_func
rtc_alarm_get:
.Lfunc_begin7:
	.loc	4 275 0 is_stmt 1               @ ../std/GD32C2x1_Firmware_Library/GD32C2x1_standard_peripheral/Source/gd32c2x1_rtc.c:275:0
	.fnstart
	.cfi_startproc
@ %bb.0:
	.pad	#8
	sub	sp, #8
	.cfi_def_cfa_offset 8
	str	r0, [sp, #4]
	ldr	r0, __arm_cp.7_0
.Ltmp35:
	.loc	4 286 22 prologue_end           @ ../std/GD32C2x1_Firmware_Library/GD32C2x1_standard_peripheral/Source/gd32c2x1_rtc.c:286:22
	ldr	r0, [r0]
	.loc	4 286 20 is_stmt 0              @ ../std/GD32C2x1_Firmware_Library/GD32C2x1_standard_peripheral/Source/gd32c2x1_rtc.c:286:20
	str	r0, [sp]
	.loc	4 289 38 is_stmt 1              @ ../std/GD32C2x1_Firmware_Library/GD32C2x1_standard_peripheral/Source/gd32c2x1_rtc.c:289:38
	ldr	r0, [sp]
	ldr	r1, __arm_cp.7_1
	.loc	4 289 49 is_stmt 0              @ ../std/GD32C2x1_Firmware_Library/GD32C2x1_standard_peripheral/Source/gd32c2x1_rtc.c:289:49
	ands	r0, r1
	.loc	4 289 9                         @ ../std/GD32C2x1_Firmware_Library/GD32C2x1_standard_peripheral/Source/gd32c2x1_rtc.c:289:9
	ldr	r1, [sp, #4]
	.loc	4 289 36                        @ ../std/GD32C2x1_Firmware_Library/GD32C2x1_standard_peripheral/Source/gd32c2x1_rtc.c:289:36
	str	r0, [r1]
	.loc	4 290 44 is_stmt 1              @ ../std/GD32C2x1_Firmware_Library/GD32C2x1_standard_peripheral/Source/gd32c2x1_rtc.c:290:44
	ldr	r0, [sp]
	movs	r1, #1
	lsls	r2, r1, #22
	.loc	4 290 55 is_stmt 0              @ ../std/GD32C2x1_Firmware_Library/GD32C2x1_standard_peripheral/Source/gd32c2x1_rtc.c:290:55
	ands	r0, r2
	.loc	4 290 9                         @ ../std/GD32C2x1_Firmware_Library/GD32C2x1_standard_peripheral/Source/gd32c2x1_rtc.c:290:9
	ldr	r2, [sp, #4]
	.loc	4 290 31                        @ ../std/GD32C2x1_Firmware_Library/GD32C2x1_standard_peripheral/Source/gd32c2x1_rtc.c:290:31
	str	r0, [r2, #12]
	.loc	4 291 54 is_stmt 1              @ ../std/GD32C2x1_Firmware_Library/GD32C2x1_standard_peripheral/Source/gd32c2x1_rtc.c:291:54
	ldr	r0, [sp]
	lsls	r1, r1, #30
	.loc	4 291 65 is_stmt 0              @ ../std/GD32C2x1_Firmware_Library/GD32C2x1_standard_peripheral/Source/gd32c2x1_rtc.c:291:65
	ands	r0, r1
	.loc	4 291 9                         @ ../std/GD32C2x1_Firmware_Library/GD32C2x1_standard_peripheral/Source/gd32c2x1_rtc.c:291:9
	ldr	r1, [sp, #4]
	.loc	4 291 41                        @ ../std/GD32C2x1_Firmware_Library/GD32C2x1_standard_peripheral/Source/gd32c2x1_rtc.c:291:41
	str	r0, [r1, #4]
	.loc	4 292 46 is_stmt 1              @ ../std/GD32C2x1_Firmware_Library/GD32C2x1_standard_peripheral/Source/gd32c2x1_rtc.c:292:46
	ldr	r0, [sp]
	movs	r1, #63
	lsls	r2, r1, #24
	ands	r0, r2
	lsrs	r0, r0, #24
	.loc	4 292 9 is_stmt 0               @ ../std/GD32C2x1_Firmware_Library/GD32C2x1_standard_peripheral/Source/gd32c2x1_rtc.c:292:9
	ldr	r2, [sp, #4]
	.loc	4 292 35                        @ ../std/GD32C2x1_Firmware_Library/GD32C2x1_standard_peripheral/Source/gd32c2x1_rtc.c:292:35
	strb	r0, [r2, #8]
	.loc	4 293 47 is_stmt 1              @ ../std/GD32C2x1_Firmware_Library/GD32C2x1_standard_peripheral/Source/gd32c2x1_rtc.c:293:47
	ldr	r0, [sp]
	lsls	r1, r1, #16
	ands	r0, r1
	lsrs	r0, r0, #16
	.loc	4 293 9 is_stmt 0               @ ../std/GD32C2x1_Firmware_Library/GD32C2x1_standard_peripheral/Source/gd32c2x1_rtc.c:293:9
	ldr	r1, [sp, #4]
	.loc	4 293 36                        @ ../std/GD32C2x1_Firmware_Library/GD32C2x1_standard_peripheral/Source/gd32c2x1_rtc.c:293:36
	strb	r0, [r1, #9]
	.loc	4 294 49 is_stmt 1              @ ../std/GD32C2x1_Firmware_Library/GD32C2x1_standard_peripheral/Source/gd32c2x1_rtc.c:294:49
	ldr	r0, [sp]
	movw	r1, #32512
	ands	r0, r1
	lsrs	r0, r0, #8
	.loc	4 294 9 is_stmt 0               @ ../std/GD32C2x1_Firmware_Library/GD32C2x1_standard_peripheral/Source/gd32c2x1_rtc.c:294:9
	ldr	r1, [sp, #4]
	.loc	4 294 38                        @ ../std/GD32C2x1_Firmware_Library/GD32C2x1_standard_peripheral/Source/gd32c2x1_rtc.c:294:38
	strb	r0, [r1, #10]
	.loc	4 295 49 is_stmt 1              @ ../std/GD32C2x1_Firmware_Library/GD32C2x1_standard_peripheral/Source/gd32c2x1_rtc.c:295:49
	ldr	r0, [sp]
	movs	r1, #127
	ands	r0, r1
	.loc	4 295 9 is_stmt 0               @ ../std/GD32C2x1_Firmware_Library/GD32C2x1_standard_peripheral/Source/gd32c2x1_rtc.c:295:9
	ldr	r1, [sp, #4]
	.loc	4 295 38                        @ ../std/GD32C2x1_Firmware_Library/GD32C2x1_standard_peripheral/Source/gd32c2x1_rtc.c:295:38
	strb	r0, [r1, #11]
.Ltmp36:
	.loc	4 297 1 is_stmt 1               @ ../std/GD32C2x1_Firmware_Library/GD32C2x1_standard_peripheral/Source/gd32c2x1_rtc.c:297:1
	add	sp, #8
	bx	lr
.Ltmp37:
	.p2align	2
@ %bb.1:
	.loc	4 0 1 is_stmt 0                 @ ../std/GD32C2x1_Firmware_Library/GD32C2x1_standard_peripheral/Source/gd32c2x1_rtc.c:0:1
__arm_cp.7_0:
	.long	1073752092                      @ 0x4000281c
.Lcpi_end16:
	.size	__arm_cp.7_0, .Lcpi_end16-__arm_cp.7_0
__arm_cp.7_1:
	.long	2155905152                      @ 0x80808080
.Lcpi_end17:
	.size	__arm_cp.7_1, .Lcpi_end17-__arm_cp.7_1
.Lfunc_end7:
	.size	rtc_alarm_get, .Lfunc_end7-rtc_alarm_get
	.cfi_endproc
	.cantunwind
	.fnend
                                        @ -- End function
	.section	.text.rtc_alarm_subsecond_get,"ax",%progbits
	.hidden	rtc_alarm_subsecond_get         @ -- Begin function rtc_alarm_subsecond_get
	.globl	rtc_alarm_subsecond_get
	.p2align	2
	.type	rtc_alarm_subsecond_get,%function
	.code	16                              @ @rtc_alarm_subsecond_get
	.thumb_func
rtc_alarm_subsecond_get:
.Lfunc_begin8:
	.loc	4 306 0 is_stmt 1               @ ../std/GD32C2x1_Firmware_Library/GD32C2x1_standard_peripheral/Source/gd32c2x1_rtc.c:306:0
	.fnstart
	.cfi_startproc
@ %bb.0:
	ldr	r0, __arm_cp.8_0
.Ltmp38:
	.loc	4 307 24 prologue_end           @ ../std/GD32C2x1_Firmware_Library/GD32C2x1_standard_peripheral/Source/gd32c2x1_rtc.c:307:24
	ldr	r0, [r0]
	ldr	r1, __arm_cp.8_1
	.loc	4 307 36 is_stmt 0              @ ../std/GD32C2x1_Firmware_Library/GD32C2x1_standard_peripheral/Source/gd32c2x1_rtc.c:307:36
	ands	r0, r1
	.loc	4 307 5                         @ ../std/GD32C2x1_Firmware_Library/GD32C2x1_standard_peripheral/Source/gd32c2x1_rtc.c:307:5
	bx	lr
.Ltmp39:
	.p2align	2
@ %bb.1:
	.loc	4 0 5                           @ ../std/GD32C2x1_Firmware_Library/GD32C2x1_standard_peripheral/Source/gd32c2x1_rtc.c:0:5
__arm_cp.8_0:
	.long	1073752132                      @ 0x40002844
.Lcpi_end18:
	.size	__arm_cp.8_0, .Lcpi_end18-__arm_cp.8_0
__arm_cp.8_1:
	.long	32767                           @ 0x7fff
.Lcpi_end19:
	.size	__arm_cp.8_1, .Lcpi_end19-__arm_cp.8_1
.Lfunc_end8:
	.size	rtc_alarm_subsecond_get, .Lfunc_end8-rtc_alarm_subsecond_get
	.cfi_endproc
	.cantunwind
	.fnend
                                        @ -- End function
	.section	.text.rtc_init_mode_enter,"ax",%progbits
	.hidden	rtc_init_mode_enter             @ -- Begin function rtc_init_mode_enter
	.globl	rtc_init_mode_enter
	.p2align	2
	.type	rtc_init_mode_enter,%function
	.code	16                              @ @rtc_init_mode_enter
	.thumb_func
rtc_init_mode_enter:
.Lfunc_begin9:
	.loc	4 319 0 is_stmt 1               @ ../std/GD32C2x1_Firmware_Library/GD32C2x1_standard_peripheral/Source/gd32c2x1_rtc.c:319:0
	.fnstart
	.cfi_startproc
@ %bb.0:
	.pad	#16
	sub	sp, #16
	.cfi_def_cfa_offset 16
	movw	r0, #16384
.Ltmp40:
	.loc	4 320 23 prologue_end           @ ../std/GD32C2x1_Firmware_Library/GD32C2x1_standard_peripheral/Source/gd32c2x1_rtc.c:320:23
	str	r0, [sp, #12]
	add	r1, sp, #4
	movs	r0, #0
	.loc	4 322 15                        @ ../std/GD32C2x1_Firmware_Library/GD32C2x1_standard_peripheral/Source/gd32c2x1_rtc.c:322:15
	strb	r0, [r1]
	ldr	r0, __arm_cp.9_0
.Ltmp41:
	.loc	4 325 28                        @ ../std/GD32C2x1_Firmware_Library/GD32C2x1_standard_peripheral/Source/gd32c2x1_rtc.c:325:28
	ldr	r0, [r0]
.Ltmp42:
	.loc	4 325 8 is_stmt 0               @ ../std/GD32C2x1_Firmware_Library/GD32C2x1_standard_peripheral/Source/gd32c2x1_rtc.c:325:8
	lsls	r0, r0, #25
	cmp	r0, #0
	bmi	.LBB9_9
	b	.LBB9_1
.LBB9_1:
	.loc	4 0 8                           @ ../std/GD32C2x1_Firmware_Library/GD32C2x1_standard_peripheral/Source/gd32c2x1_rtc.c:0:8
	ldr	r1, __arm_cp.9_0
.Ltmp43:
	.loc	4 326 18 is_stmt 1              @ ../std/GD32C2x1_Firmware_Library/GD32C2x1_standard_peripheral/Source/gd32c2x1_rtc.c:326:18
	ldr	r0, [r1]
	movs	r2, #128
	orrs	r0, r2
	str	r0, [r1]
	.loc	4 329 9                         @ ../std/GD32C2x1_Firmware_Library/GD32C2x1_standard_peripheral/Source/gd32c2x1_rtc.c:329:9
	b	.LBB9_2
.LBB9_2:                                @ =>This Inner Loop Header: Depth=1
	.loc	4 0 9 is_stmt 0                 @ ../std/GD32C2x1_Firmware_Library/GD32C2x1_standard_peripheral/Source/gd32c2x1_rtc.c:0:9
	ldr	r0, __arm_cp.9_0
.Ltmp44:
	.loc	4 330 27 is_stmt 1              @ ../std/GD32C2x1_Firmware_Library/GD32C2x1_standard_peripheral/Source/gd32c2x1_rtc.c:330:27
	ldr	r0, [r0]
	movs	r1, #64
	.loc	4 330 36 is_stmt 0              @ ../std/GD32C2x1_Firmware_Library/GD32C2x1_standard_peripheral/Source/gd32c2x1_rtc.c:330:36
	ands	r0, r1
	.loc	4 330 25                        @ ../std/GD32C2x1_Firmware_Library/GD32C2x1_standard_peripheral/Source/gd32c2x1_rtc.c:330:25
	str	r0, [sp, #8]
	.loc	4 331 9 is_stmt 1               @ ../std/GD32C2x1_Firmware_Library/GD32C2x1_standard_peripheral/Source/gd32c2x1_rtc.c:331:9
	b	.LBB9_3
.Ltmp45:
.LBB9_3:                                @   in Loop: Header=BB9_2 Depth=1
	.loc	4 331 18 is_stmt 0              @ ../std/GD32C2x1_Firmware_Library/GD32C2x1_standard_peripheral/Source/gd32c2x1_rtc.c:331:18
	ldr	r0, [sp, #12]
	subs	r1, r0, #1
	str	r1, [sp, #12]
	movs	r0, #0
	.loc	4 331 40                        @ ../std/GD32C2x1_Firmware_Library/GD32C2x1_standard_peripheral/Source/gd32c2x1_rtc.c:331:40
	str	r0, [sp]                        @ 4-byte Spill
	cbz	r1, .LBB9_5
	b	.LBB9_4
.LBB9_4:                                @   in Loop: Header=BB9_2 Depth=1
	.loc	4 331 63                        @ ../std/GD32C2x1_Firmware_Library/GD32C2x1_standard_peripheral/Source/gd32c2x1_rtc.c:331:63
	ldr	r0, [sp, #8]
	.loc	4 331 60                        @ ../std/GD32C2x1_Firmware_Library/GD32C2x1_standard_peripheral/Source/gd32c2x1_rtc.c:331:60
	rsbs	r1, r0, #0
	adcs	r0, r1
	str	r0, [sp]                        @ 4-byte Spill
	b	.LBB9_5
.LBB9_5:                                @   in Loop: Header=BB9_2 Depth=1
	.loc	4 0 0                           @ ../std/GD32C2x1_Firmware_Library/GD32C2x1_standard_peripheral/Source/gd32c2x1_rtc.c:0:0
	ldr	r0, [sp]                        @ 4-byte Reload
.Ltmp46:
	.loc	4 331 9                         @ ../std/GD32C2x1_Firmware_Library/GD32C2x1_standard_peripheral/Source/gd32c2x1_rtc.c:331:9
	lsls	r0, r0, #31
	cmp	r0, #0
	bne	.LBB9_2
	b	.LBB9_6
.Ltmp47:
.LBB9_6:
	.loc	4 333 31 is_stmt 1              @ ../std/GD32C2x1_Firmware_Library/GD32C2x1_standard_peripheral/Source/gd32c2x1_rtc.c:333:31
	ldr	r0, [sp, #8]
.Ltmp48:
	.loc	4 333 12 is_stmt 0              @ ../std/GD32C2x1_Firmware_Library/GD32C2x1_standard_peripheral/Source/gd32c2x1_rtc.c:333:12
	cbz	r0, .LBB9_8
	b	.LBB9_7
.LBB9_7:
	.loc	4 0 12                          @ ../std/GD32C2x1_Firmware_Library/GD32C2x1_standard_peripheral/Source/gd32c2x1_rtc.c:0:12
	add	r1, sp, #4
	movs	r0, #1
.Ltmp49:
	.loc	4 334 26 is_stmt 1              @ ../std/GD32C2x1_Firmware_Library/GD32C2x1_standard_peripheral/Source/gd32c2x1_rtc.c:334:26
	strb	r0, [r1]
	.loc	4 335 9                         @ ../std/GD32C2x1_Firmware_Library/GD32C2x1_standard_peripheral/Source/gd32c2x1_rtc.c:335:9
	b	.LBB9_8
.Ltmp50:
.LBB9_8:
	.loc	4 336 5                         @ ../std/GD32C2x1_Firmware_Library/GD32C2x1_standard_peripheral/Source/gd32c2x1_rtc.c:336:5
	b	.LBB9_10
.Ltmp51:
.LBB9_9:
	.loc	4 0 5 is_stmt 0                 @ ../std/GD32C2x1_Firmware_Library/GD32C2x1_standard_peripheral/Source/gd32c2x1_rtc.c:0:5
	add	r1, sp, #4
	movs	r0, #1
.Ltmp52:
	.loc	4 337 22 is_stmt 1              @ ../std/GD32C2x1_Firmware_Library/GD32C2x1_standard_peripheral/Source/gd32c2x1_rtc.c:337:22
	strb	r0, [r1]
	b	.LBB9_10
.Ltmp53:
.LBB9_10:
	.loc	4 0 22 is_stmt 0                @ ../std/GD32C2x1_Firmware_Library/GD32C2x1_standard_peripheral/Source/gd32c2x1_rtc.c:0:22
	add	r0, sp, #4
	.loc	4 339 12 is_stmt 1              @ ../std/GD32C2x1_Firmware_Library/GD32C2x1_standard_peripheral/Source/gd32c2x1_rtc.c:339:12
	ldrb	r0, [r0]
	.loc	4 339 5 is_stmt 0               @ ../std/GD32C2x1_Firmware_Library/GD32C2x1_standard_peripheral/Source/gd32c2x1_rtc.c:339:5
	add	sp, #16
	bx	lr
.Ltmp54:
	.p2align	2
@ %bb.11:
	.loc	4 0 5                           @ ../std/GD32C2x1_Firmware_Library/GD32C2x1_standard_peripheral/Source/gd32c2x1_rtc.c:0:5
__arm_cp.9_0:
	.long	1073752076                      @ 0x4000280c
.Lcpi_end20:
	.size	__arm_cp.9_0, .Lcpi_end20-__arm_cp.9_0
.Lfunc_end9:
	.size	rtc_init_mode_enter, .Lfunc_end9-rtc_init_mode_enter
	.cfi_endproc
	.cantunwind
	.fnend
                                        @ -- End function
	.section	.text.rtc_init,"ax",%progbits
	.hidden	rtc_init                        @ -- Begin function rtc_init
	.globl	rtc_init
	.p2align	2
	.type	rtc_init,%function
	.code	16                              @ @rtc_init
	.thumb_func
rtc_init:
.Lfunc_begin10:
	.loc	4 364 0 is_stmt 1               @ ../std/GD32C2x1_Firmware_Library/GD32C2x1_standard_peripheral/Source/gd32c2x1_rtc.c:364:0
	.fnstart
	.cfi_startproc
@ %bb.0:
	.save	{r7, lr}
	push	{r7, lr}
	.cfi_def_cfa_offset 8
	.cfi_offset lr, -4
	.cfi_offset r7, -8
	.pad	#24
	sub	sp, #24
	.cfi_def_cfa_offset 32
	str	r0, [sp, #20]
	add	r1, sp, #16
	str	r1, [sp, #4]                    @ 4-byte Spill
	movs	r0, #0
.Ltmp55:
	.loc	4 365 15 prologue_end           @ ../std/GD32C2x1_Firmware_Library/GD32C2x1_standard_peripheral/Source/gd32c2x1_rtc.c:365:15
	strb	r0, [r1]
.Ltmp56:
	.loc	4 375 21                        @ ../std/GD32C2x1_Firmware_Library/GD32C2x1_standard_peripheral/Source/gd32c2x1_rtc.c:375:21
	ldr	r1, [sp, #20]
	ldrb	r0, [r1]
	lsls	r0, r0, #16
	.loc	4 376 21                        @ ../std/GD32C2x1_Firmware_Library/GD32C2x1_standard_peripheral/Source/gd32c2x1_rtc.c:376:21
	ldrb	r2, [r1, #3]
	lsls	r2, r2, #29
	lsrs	r2, r2, #16
	.loc	4 375 56                        @ ../std/GD32C2x1_Firmware_Library/GD32C2x1_standard_peripheral/Source/gd32c2x1_rtc.c:375:56
	adds	r0, r0, r2
	.loc	4 377 21                        @ ../std/GD32C2x1_Firmware_Library/GD32C2x1_standard_peripheral/Source/gd32c2x1_rtc.c:377:21
	ldrb	r2, [r1, #1]
	lsls	r2, r2, #27
	lsrs	r2, r2, #19
	.loc	4 376 64                        @ ../std/GD32C2x1_Firmware_Library/GD32C2x1_standard_peripheral/Source/gd32c2x1_rtc.c:376:64
	adds	r0, r0, r2
	.loc	4 378 21                        @ ../std/GD32C2x1_Firmware_Library/GD32C2x1_standard_peripheral/Source/gd32c2x1_rtc.c:378:21
	ldrb	r1, [r1, #2]
	movs	r2, #63
	ands	r1, r2
	.loc	4 377 58                        @ ../std/GD32C2x1_Firmware_Library/GD32C2x1_standard_peripheral/Source/gd32c2x1_rtc.c:377:58
	adds	r0, r0, r1
	.loc	4 375 18                        @ ../std/GD32C2x1_Firmware_Library/GD32C2x1_standard_peripheral/Source/gd32c2x1_rtc.c:375:18
	str	r0, [sp, #8]
	.loc	4 380 21                        @ ../std/GD32C2x1_Firmware_Library/GD32C2x1_standard_peripheral/Source/gd32c2x1_rtc.c:380:21
	ldr	r1, [sp, #20]
	.loc	4 380 42 is_stmt 0              @ ../std/GD32C2x1_Firmware_Library/GD32C2x1_standard_peripheral/Source/gd32c2x1_rtc.c:380:42
	ldr	r0, [r1, #12]
	.loc	4 381 21 is_stmt 1              @ ../std/GD32C2x1_Firmware_Library/GD32C2x1_standard_peripheral/Source/gd32c2x1_rtc.c:381:21
	ldrb	r2, [r1, #4]
	lsls	r2, r2, #26
	lsrs	r2, r2, #10
	.loc	4 380 48                        @ ../std/GD32C2x1_Firmware_Library/GD32C2x1_standard_peripheral/Source/gd32c2x1_rtc.c:380:48
	orrs	r0, r2
	.loc	4 382 21                        @ ../std/GD32C2x1_Firmware_Library/GD32C2x1_standard_peripheral/Source/gd32c2x1_rtc.c:382:21
	ldrb	r2, [r1, #5]
	lsls	r2, r2, #25
	lsrs	r2, r2, #17
	.loc	4 381 57                        @ ../std/GD32C2x1_Firmware_Library/GD32C2x1_standard_peripheral/Source/gd32c2x1_rtc.c:381:57
	orrs	r0, r2
	.loc	4 383 21                        @ ../std/GD32C2x1_Firmware_Library/GD32C2x1_standard_peripheral/Source/gd32c2x1_rtc.c:383:21
	ldrb	r1, [r1, #6]
	movs	r2, #127
	ands	r1, r2
	.loc	4 382 58                        @ ../std/GD32C2x1_Firmware_Library/GD32C2x1_standard_peripheral/Source/gd32c2x1_rtc.c:382:58
	orrs	r0, r1
	.loc	4 380 18                        @ ../std/GD32C2x1_Firmware_Library/GD32C2x1_standard_peripheral/Source/gd32c2x1_rtc.c:380:18
	str	r0, [sp, #12]
	ldr	r1, __arm_cp.10_0
	movs	r0, #202
	.loc	4 386 17                        @ ../std/GD32C2x1_Firmware_Library/GD32C2x1_standard_peripheral/Source/gd32c2x1_rtc.c:386:17
	str	r0, [r1]
	movs	r0, #83
	.loc	4 387 17                        @ ../std/GD32C2x1_Firmware_Library/GD32C2x1_standard_peripheral/Source/gd32c2x1_rtc.c:387:17
	str	r0, [r1]
	.loc	4 390 24                        @ ../std/GD32C2x1_Firmware_Library/GD32C2x1_standard_peripheral/Source/gd32c2x1_rtc.c:390:24
	bl	rtc_init_mode_enter
	mov	r1, r0
	.loc	4 390 22 is_stmt 0              @ ../std/GD32C2x1_Firmware_Library/GD32C2x1_standard_peripheral/Source/gd32c2x1_rtc.c:390:22
	ldr	r0, [sp, #4]                    @ 4-byte Reload
	strb	r1, [r0]
.Ltmp57:
	.loc	4 392 21 is_stmt 1              @ ../std/GD32C2x1_Firmware_Library/GD32C2x1_standard_peripheral/Source/gd32c2x1_rtc.c:392:21
	ldrb	r0, [r0]
.Ltmp58:
	.loc	4 392 12 is_stmt 0              @ ../std/GD32C2x1_Firmware_Library/GD32C2x1_standard_peripheral/Source/gd32c2x1_rtc.c:392:12
	cbz	r0, .LBB10_2
	b	.LBB10_1
.LBB10_1:
.Ltmp59:
	.loc	4 393 34 is_stmt 1              @ ../std/GD32C2x1_Firmware_Library/GD32C2x1_standard_peripheral/Source/gd32c2x1_rtc.c:393:34
	ldr	r1, [sp, #20]
	ldrh	r0, [r1, #8]
	lsls	r0, r0, #16
	.loc	4 394 34                        @ ../std/GD32C2x1_Firmware_Library/GD32C2x1_standard_peripheral/Source/gd32c2x1_rtc.c:394:34
	ldrh	r1, [r1, #10]
	.loc	4 393 34                        @ ../std/GD32C2x1_Firmware_Library/GD32C2x1_standard_peripheral/Source/gd32c2x1_rtc.c:393:34
	adds	r0, r0, r1
	ldr	r1, __arm_cp.10_1
	.loc	4 393 81 is_stmt 0              @ ../std/GD32C2x1_Firmware_Library/GD32C2x1_standard_peripheral/Source/gd32c2x1_rtc.c:393:81
	ands	r0, r1
	ldr	r1, __arm_cp.10_2
	.loc	4 393 21                        @ ../std/GD32C2x1_Firmware_Library/GD32C2x1_standard_peripheral/Source/gd32c2x1_rtc.c:393:21
	str	r0, [r1]
	.loc	4 396 34 is_stmt 1              @ ../std/GD32C2x1_Firmware_Library/GD32C2x1_standard_peripheral/Source/gd32c2x1_rtc.c:396:34
	ldr	r0, [sp, #12]
	ldr	r1, __arm_cp.10_3
	.loc	4 396 22 is_stmt 0              @ ../std/GD32C2x1_Firmware_Library/GD32C2x1_standard_peripheral/Source/gd32c2x1_rtc.c:396:22
	str	r0, [r1]
	.loc	4 397 34 is_stmt 1              @ ../std/GD32C2x1_Firmware_Library/GD32C2x1_standard_peripheral/Source/gd32c2x1_rtc.c:397:34
	ldr	r0, [sp, #8]
	ldr	r1, __arm_cp.10_4
	.loc	4 397 22 is_stmt 0              @ ../std/GD32C2x1_Firmware_Library/GD32C2x1_standard_peripheral/Source/gd32c2x1_rtc.c:397:22
	str	r0, [r1]
	ldr	r1, __arm_cp.10_5
	.loc	4 399 21 is_stmt 1              @ ../std/GD32C2x1_Firmware_Library/GD32C2x1_standard_peripheral/Source/gd32c2x1_rtc.c:399:21
	ldr	r0, [r1]
	movs	r2, #64
	bics	r0, r2
	str	r0, [r1]
	.loc	4 400 25                        @ ../std/GD32C2x1_Firmware_Library/GD32C2x1_standard_peripheral/Source/gd32c2x1_rtc.c:400:25
	ldr	r0, [sp, #20]
	.loc	4 400 46 is_stmt 0              @ ../std/GD32C2x1_Firmware_Library/GD32C2x1_standard_peripheral/Source/gd32c2x1_rtc.c:400:46
	ldr	r2, [r0, #16]
	.loc	4 400 21                        @ ../std/GD32C2x1_Firmware_Library/GD32C2x1_standard_peripheral/Source/gd32c2x1_rtc.c:400:21
	ldr	r0, [r1]
	orrs	r0, r2
	str	r0, [r1]
	.loc	4 403 13 is_stmt 1              @ ../std/GD32C2x1_Firmware_Library/GD32C2x1_standard_peripheral/Source/gd32c2x1_rtc.c:403:13
	bl	rtc_init_mode_exit
	.loc	4 406 28                        @ ../std/GD32C2x1_Firmware_Library/GD32C2x1_standard_peripheral/Source/gd32c2x1_rtc.c:406:28
	bl	rtc_register_sync_wait
	add	r1, sp, #16
	.loc	4 406 26 is_stmt 0              @ ../std/GD32C2x1_Firmware_Library/GD32C2x1_standard_peripheral/Source/gd32c2x1_rtc.c:406:26
	strb	r0, [r1]
	.loc	4 407 9 is_stmt 1               @ ../std/GD32C2x1_Firmware_Library/GD32C2x1_standard_peripheral/Source/gd32c2x1_rtc.c:407:9
	b	.LBB10_2
.Ltmp60:
.LBB10_2:
	.loc	4 0 9 is_stmt 0                 @ ../std/GD32C2x1_Firmware_Library/GD32C2x1_standard_peripheral/Source/gd32c2x1_rtc.c:0:9
	ldr	r1, __arm_cp.10_0
	movs	r0, #255
	.loc	4 410 17 is_stmt 1              @ ../std/GD32C2x1_Firmware_Library/GD32C2x1_standard_peripheral/Source/gd32c2x1_rtc.c:410:17
	str	r0, [r1]
	add	r0, sp, #16
.Ltmp61:
	.loc	4 412 12                        @ ../std/GD32C2x1_Firmware_Library/GD32C2x1_standard_peripheral/Source/gd32c2x1_rtc.c:412:12
	ldrb	r0, [r0]
	.loc	4 412 5 is_stmt 0               @ ../std/GD32C2x1_Firmware_Library/GD32C2x1_standard_peripheral/Source/gd32c2x1_rtc.c:412:5
	add	sp, #24
	pop	{r7, pc}
.Ltmp62:
	.p2align	2
@ %bb.3:
	.loc	4 0 5                           @ ../std/GD32C2x1_Firmware_Library/GD32C2x1_standard_peripheral/Source/gd32c2x1_rtc.c:0:5
__arm_cp.10_0:
	.long	1073752100                      @ 0x40002824
.Lcpi_end21:
	.size	__arm_cp.10_0, .Lcpi_end21-__arm_cp.10_0
__arm_cp.10_1:
	.long	8355839                         @ 0x7f7fff
.Lcpi_end22:
	.size	__arm_cp.10_1, .Lcpi_end22-__arm_cp.10_1
__arm_cp.10_2:
	.long	1073752080                      @ 0x40002810
.Lcpi_end23:
	.size	__arm_cp.10_2, .Lcpi_end23-__arm_cp.10_2
__arm_cp.10_3:
	.long	1073752064                      @ 0x40002800
.Lcpi_end24:
	.size	__arm_cp.10_3, .Lcpi_end24-__arm_cp.10_3
__arm_cp.10_4:
	.long	1073752068                      @ 0x40002804
.Lcpi_end25:
	.size	__arm_cp.10_4, .Lcpi_end25-__arm_cp.10_4
__arm_cp.10_5:
	.long	1073752072                      @ 0x40002808
.Lcpi_end26:
	.size	__arm_cp.10_5, .Lcpi_end26-__arm_cp.10_5
.Lfunc_end10:
	.size	rtc_init, .Lfunc_end10-rtc_init
	.cfi_endproc
	.cantunwind
	.fnend
                                        @ -- End function
	.section	.text.rtc_init_mode_exit,"ax",%progbits
	.hidden	rtc_init_mode_exit              @ -- Begin function rtc_init_mode_exit
	.globl	rtc_init_mode_exit
	.p2align	2
	.type	rtc_init_mode_exit,%function
	.code	16                              @ @rtc_init_mode_exit
	.thumb_func
rtc_init_mode_exit:
.Lfunc_begin11:
	.loc	4 422 0 is_stmt 1               @ ../std/GD32C2x1_Firmware_Library/GD32C2x1_standard_peripheral/Source/gd32c2x1_rtc.c:422:0
	.fnstart
	.cfi_startproc
@ %bb.0:
	ldr	r1, __arm_cp.11_0
.Ltmp63:
	.loc	4 423 14 prologue_end           @ ../std/GD32C2x1_Firmware_Library/GD32C2x1_standard_peripheral/Source/gd32c2x1_rtc.c:423:14
	ldr	r0, [r1]
	movs	r2, #128
	bics	r0, r2
	str	r0, [r1]
	.loc	4 424 1                         @ ../std/GD32C2x1_Firmware_Library/GD32C2x1_standard_peripheral/Source/gd32c2x1_rtc.c:424:1
	bx	lr
.Ltmp64:
	.p2align	2
@ %bb.1:
	.loc	4 0 1 is_stmt 0                 @ ../std/GD32C2x1_Firmware_Library/GD32C2x1_standard_peripheral/Source/gd32c2x1_rtc.c:0:1
__arm_cp.11_0:
	.long	1073752076                      @ 0x4000280c
.Lcpi_end27:
	.size	__arm_cp.11_0, .Lcpi_end27-__arm_cp.11_0
.Lfunc_end11:
	.size	rtc_init_mode_exit, .Lfunc_end11-rtc_init_mode_exit
	.cfi_endproc
	.cantunwind
	.fnend
                                        @ -- End function
	.section	.text.rtc_current_time_get,"ax",%progbits
	.hidden	rtc_current_time_get            @ -- Begin function rtc_current_time_get
	.globl	rtc_current_time_get
	.p2align	2
	.type	rtc_current_time_get,%function
	.code	16                              @ @rtc_current_time_get
	.thumb_func
rtc_current_time_get:
.Lfunc_begin12:
	.loc	4 448 0 is_stmt 1               @ ../std/GD32C2x1_Firmware_Library/GD32C2x1_standard_peripheral/Source/gd32c2x1_rtc.c:448:0
	.fnstart
	.cfi_startproc
@ %bb.0:
	.pad	#20
	sub	sp, #20
	.cfi_def_cfa_offset 20
	str	r0, [sp, #16]
	ldr	r0, __arm_cp.12_0
.Ltmp65:
	.loc	4 458 29 prologue_end           @ ../std/GD32C2x1_Firmware_Library/GD32C2x1_standard_peripheral/Source/gd32c2x1_rtc.c:458:29
	ldr	r0, [r0]
	.loc	4 458 17 is_stmt 0              @ ../std/GD32C2x1_Firmware_Library/GD32C2x1_standard_peripheral/Source/gd32c2x1_rtc.c:458:17
	str	r0, [sp, #12]
	ldr	r0, __arm_cp.12_1
	.loc	4 459 29 is_stmt 1              @ ../std/GD32C2x1_Firmware_Library/GD32C2x1_standard_peripheral/Source/gd32c2x1_rtc.c:459:29
	ldr	r0, [r0]
	.loc	4 459 17 is_stmt 0              @ ../std/GD32C2x1_Firmware_Library/GD32C2x1_standard_peripheral/Source/gd32c2x1_rtc.c:459:17
	str	r0, [sp, #8]
	ldr	r0, __arm_cp.12_2
	.loc	4 460 31 is_stmt 1              @ ../std/GD32C2x1_Firmware_Library/GD32C2x1_standard_peripheral/Source/gd32c2x1_rtc.c:460:31
	ldr	r0, [r0]
	.loc	4 460 19 is_stmt 0              @ ../std/GD32C2x1_Firmware_Library/GD32C2x1_standard_peripheral/Source/gd32c2x1_rtc.c:460:19
	str	r0, [sp, #4]
	ldr	r0, __arm_cp.12_3
	.loc	4 461 31 is_stmt 1              @ ../std/GD32C2x1_Firmware_Library/GD32C2x1_standard_peripheral/Source/gd32c2x1_rtc.c:461:31
	ldr	r0, [r0]
	.loc	4 461 19 is_stmt 0              @ ../std/GD32C2x1_Firmware_Library/GD32C2x1_standard_peripheral/Source/gd32c2x1_rtc.c:461:19
	str	r0, [sp]
	add	r0, sp, #8
	.loc	4 464 46 is_stmt 1              @ ../std/GD32C2x1_Firmware_Library/GD32C2x1_standard_peripheral/Source/gd32c2x1_rtc.c:464:46
	ldrh	r1, [r0, #2]
	.loc	4 464 9 is_stmt 0               @ ../std/GD32C2x1_Firmware_Library/GD32C2x1_standard_peripheral/Source/gd32c2x1_rtc.c:464:9
	ldr	r2, [sp, #16]
	.loc	4 464 35                        @ ../std/GD32C2x1_Firmware_Library/GD32C2x1_standard_peripheral/Source/gd32c2x1_rtc.c:464:35
	strb	r1, [r2]
	.loc	4 465 47 is_stmt 1              @ ../std/GD32C2x1_Firmware_Library/GD32C2x1_standard_peripheral/Source/gd32c2x1_rtc.c:465:47
	ldr	r1, [sp, #8]
	movw	r2, #7936
	ands	r1, r2
	lsrs	r1, r1, #8
	.loc	4 465 9 is_stmt 0               @ ../std/GD32C2x1_Firmware_Library/GD32C2x1_standard_peripheral/Source/gd32c2x1_rtc.c:465:9
	ldr	r2, [sp, #16]
	.loc	4 465 36                        @ ../std/GD32C2x1_Firmware_Library/GD32C2x1_standard_peripheral/Source/gd32c2x1_rtc.c:465:36
	strb	r1, [r2, #1]
	.loc	4 466 46 is_stmt 1              @ ../std/GD32C2x1_Firmware_Library/GD32C2x1_standard_peripheral/Source/gd32c2x1_rtc.c:466:46
	ldr	r2, [sp, #8]
	movs	r1, #63
	ands	r2, r1
	.loc	4 466 9 is_stmt 0               @ ../std/GD32C2x1_Firmware_Library/GD32C2x1_standard_peripheral/Source/gd32c2x1_rtc.c:466:9
	ldr	r3, [sp, #16]
	.loc	4 466 35                        @ ../std/GD32C2x1_Firmware_Library/GD32C2x1_standard_peripheral/Source/gd32c2x1_rtc.c:466:35
	strb	r2, [r3, #2]
	.loc	4 467 53 is_stmt 1              @ ../std/GD32C2x1_Firmware_Library/GD32C2x1_standard_peripheral/Source/gd32c2x1_rtc.c:467:53
	ldrh	r0, [r0]
	lsrs	r0, r0, #13
	.loc	4 467 9 is_stmt 0               @ ../std/GD32C2x1_Firmware_Library/GD32C2x1_standard_peripheral/Source/gd32c2x1_rtc.c:467:9
	ldr	r2, [sp, #16]
	.loc	4 467 42                        @ ../std/GD32C2x1_Firmware_Library/GD32C2x1_standard_peripheral/Source/gd32c2x1_rtc.c:467:42
	strb	r0, [r2, #3]
	.loc	4 468 46 is_stmt 1              @ ../std/GD32C2x1_Firmware_Library/GD32C2x1_standard_peripheral/Source/gd32c2x1_rtc.c:468:46
	ldr	r0, [sp, #12]
	lsls	r1, r1, #16
	ands	r0, r1
	lsrs	r0, r0, #16
	.loc	4 468 9 is_stmt 0               @ ../std/GD32C2x1_Firmware_Library/GD32C2x1_standard_peripheral/Source/gd32c2x1_rtc.c:468:9
	ldr	r1, [sp, #16]
	.loc	4 468 35                        @ ../std/GD32C2x1_Firmware_Library/GD32C2x1_standard_peripheral/Source/gd32c2x1_rtc.c:468:35
	strb	r0, [r1, #4]
	.loc	4 469 48 is_stmt 1              @ ../std/GD32C2x1_Firmware_Library/GD32C2x1_standard_peripheral/Source/gd32c2x1_rtc.c:469:48
	ldr	r0, [sp, #12]
	movw	r1, #32512
	ands	r0, r1
	lsrs	r0, r0, #8
	.loc	4 469 9 is_stmt 0               @ ../std/GD32C2x1_Firmware_Library/GD32C2x1_standard_peripheral/Source/gd32c2x1_rtc.c:469:9
	ldr	r1, [sp, #16]
	.loc	4 469 37                        @ ../std/GD32C2x1_Firmware_Library/GD32C2x1_standard_peripheral/Source/gd32c2x1_rtc.c:469:37
	strb	r0, [r1, #5]
	.loc	4 470 48 is_stmt 1              @ ../std/GD32C2x1_Firmware_Library/GD32C2x1_standard_peripheral/Source/gd32c2x1_rtc.c:470:48
	ldr	r0, [sp, #12]
	movs	r1, #127
	ands	r0, r1
	.loc	4 470 9 is_stmt 0               @ ../std/GD32C2x1_Firmware_Library/GD32C2x1_standard_peripheral/Source/gd32c2x1_rtc.c:470:9
	ldr	r2, [sp, #16]
	.loc	4 470 37                        @ ../std/GD32C2x1_Firmware_Library/GD32C2x1_standard_peripheral/Source/gd32c2x1_rtc.c:470:37
	strb	r0, [r2, #6]
	.loc	4 471 54 is_stmt 1              @ ../std/GD32C2x1_Firmware_Library/GD32C2x1_standard_peripheral/Source/gd32c2x1_rtc.c:471:54
	ldr	r0, [sp, #4]
	lsls	r1, r1, #16
	ands	r0, r1
	lsrs	r0, r0, #16
	.loc	4 471 9 is_stmt 0               @ ../std/GD32C2x1_Firmware_Library/GD32C2x1_standard_peripheral/Source/gd32c2x1_rtc.c:471:9
	ldr	r1, [sp, #16]
	.loc	4 471 42                        @ ../std/GD32C2x1_Firmware_Library/GD32C2x1_standard_peripheral/Source/gd32c2x1_rtc.c:471:42
	strh	r0, [r1, #8]
	.loc	4 472 53 is_stmt 1              @ ../std/GD32C2x1_Firmware_Library/GD32C2x1_standard_peripheral/Source/gd32c2x1_rtc.c:472:53
	ldr	r0, [sp, #4]
	ldr	r1, __arm_cp.12_4
	ands	r0, r1
	.loc	4 472 9 is_stmt 0               @ ../std/GD32C2x1_Firmware_Library/GD32C2x1_standard_peripheral/Source/gd32c2x1_rtc.c:472:9
	ldr	r1, [sp, #16]
	.loc	4 472 41                        @ ../std/GD32C2x1_Firmware_Library/GD32C2x1_standard_peripheral/Source/gd32c2x1_rtc.c:472:41
	strh	r0, [r1, #10]
	.loc	4 473 49 is_stmt 1              @ ../std/GD32C2x1_Firmware_Library/GD32C2x1_standard_peripheral/Source/gd32c2x1_rtc.c:473:49
	ldr	r0, [sp, #12]
	movs	r1, #1
	lsls	r1, r1, #22
	.loc	4 473 57 is_stmt 0              @ ../std/GD32C2x1_Firmware_Library/GD32C2x1_standard_peripheral/Source/gd32c2x1_rtc.c:473:57
	ands	r0, r1
	.loc	4 473 9                         @ ../std/GD32C2x1_Firmware_Library/GD32C2x1_standard_peripheral/Source/gd32c2x1_rtc.c:473:9
	ldr	r1, [sp, #16]
	.loc	4 473 36                        @ ../std/GD32C2x1_Firmware_Library/GD32C2x1_standard_peripheral/Source/gd32c2x1_rtc.c:473:36
	str	r0, [r1, #12]
	.loc	4 474 58 is_stmt 1              @ ../std/GD32C2x1_Firmware_Library/GD32C2x1_standard_peripheral/Source/gd32c2x1_rtc.c:474:58
	ldr	r0, [sp]
	movs	r1, #64
	.loc	4 474 68 is_stmt 0              @ ../std/GD32C2x1_Firmware_Library/GD32C2x1_standard_peripheral/Source/gd32c2x1_rtc.c:474:68
	ands	r0, r1
	.loc	4 474 9                         @ ../std/GD32C2x1_Firmware_Library/GD32C2x1_standard_peripheral/Source/gd32c2x1_rtc.c:474:9
	ldr	r1, [sp, #16]
	.loc	4 474 45                        @ ../std/GD32C2x1_Firmware_Library/GD32C2x1_standard_peripheral/Source/gd32c2x1_rtc.c:474:45
	str	r0, [r1, #16]
.Ltmp66:
	.loc	4 476 1 is_stmt 1               @ ../std/GD32C2x1_Firmware_Library/GD32C2x1_standard_peripheral/Source/gd32c2x1_rtc.c:476:1
	add	sp, #20
	bx	lr
.Ltmp67:
	.p2align	2
@ %bb.1:
	.loc	4 0 1 is_stmt 0                 @ ../std/GD32C2x1_Firmware_Library/GD32C2x1_standard_peripheral/Source/gd32c2x1_rtc.c:0:1
__arm_cp.12_0:
	.long	1073752064                      @ 0x40002800
.Lcpi_end28:
	.size	__arm_cp.12_0, .Lcpi_end28-__arm_cp.12_0
__arm_cp.12_1:
	.long	1073752068                      @ 0x40002804
.Lcpi_end29:
	.size	__arm_cp.12_1, .Lcpi_end29-__arm_cp.12_1
__arm_cp.12_2:
	.long	1073752080                      @ 0x40002810
.Lcpi_end30:
	.size	__arm_cp.12_2, .Lcpi_end30-__arm_cp.12_2
__arm_cp.12_3:
	.long	1073752072                      @ 0x40002808
.Lcpi_end31:
	.size	__arm_cp.12_3, .Lcpi_end31-__arm_cp.12_3
__arm_cp.12_4:
	.long	32767                           @ 0x7fff
.Lcpi_end32:
	.size	__arm_cp.12_4, .Lcpi_end32-__arm_cp.12_4
.Lfunc_end12:
	.size	rtc_current_time_get, .Lfunc_end12-rtc_current_time_get
	.cfi_endproc
	.cantunwind
	.fnend
                                        @ -- End function
	.section	.text.rtc_subsecond_get,"ax",%progbits
	.hidden	rtc_subsecond_get               @ -- Begin function rtc_subsecond_get
	.globl	rtc_subsecond_get
	.p2align	2
	.type	rtc_subsecond_get,%function
	.code	16                              @ @rtc_subsecond_get
	.thumb_func
rtc_subsecond_get:
.Lfunc_begin13:
	.loc	4 485 0 is_stmt 1               @ ../std/GD32C2x1_Firmware_Library/GD32C2x1_standard_peripheral/Source/gd32c2x1_rtc.c:485:0
	.fnstart
	.cfi_startproc
@ %bb.0:
	.pad	#4
	sub	sp, #4
	.cfi_def_cfa_offset 4
	ldr	r0, __arm_cp.13_0
.Ltmp68:
	.loc	4 488 21 prologue_end           @ ../std/GD32C2x1_Firmware_Library/GD32C2x1_standard_peripheral/Source/gd32c2x1_rtc.c:488:21
	ldr	r0, [r0]
	.loc	4 488 9 is_stmt 0               @ ../std/GD32C2x1_Firmware_Library/GD32C2x1_standard_peripheral/Source/gd32c2x1_rtc.c:488:9
	str	r0, [sp]
	ldr	r0, __arm_cp.13_1
	.loc	4 490 12 is_stmt 1              @ ../std/GD32C2x1_Firmware_Library/GD32C2x1_standard_peripheral/Source/gd32c2x1_rtc.c:490:12
	ldr	r0, [r0]
	.loc	4 492 12                        @ ../std/GD32C2x1_Firmware_Library/GD32C2x1_standard_peripheral/Source/gd32c2x1_rtc.c:492:12
	ldr	r0, [sp]
	.loc	4 492 5 is_stmt 0               @ ../std/GD32C2x1_Firmware_Library/GD32C2x1_standard_peripheral/Source/gd32c2x1_rtc.c:492:5
	add	sp, #4
	bx	lr
.Ltmp69:
	.p2align	2
@ %bb.1:
	.loc	4 0 5                           @ ../std/GD32C2x1_Firmware_Library/GD32C2x1_standard_peripheral/Source/gd32c2x1_rtc.c:0:5
__arm_cp.13_0:
	.long	1073752104                      @ 0x40002828
.Lcpi_end33:
	.size	__arm_cp.13_0, .Lcpi_end33-__arm_cp.13_0
__arm_cp.13_1:
	.long	1073752068                      @ 0x40002804
.Lcpi_end34:
	.size	__arm_cp.13_1, .Lcpi_end34-__arm_cp.13_1
.Lfunc_end13:
	.size	rtc_subsecond_get, .Lfunc_end13-rtc_subsecond_get
	.cfi_endproc
	.cantunwind
	.fnend
                                        @ -- End function
	.section	.text.rtc_deinit,"ax",%progbits
	.hidden	rtc_deinit                      @ -- Begin function rtc_deinit
	.globl	rtc_deinit
	.p2align	2
	.type	rtc_deinit,%function
	.code	16                              @ @rtc_deinit
	.thumb_func
rtc_deinit:
.Lfunc_begin14:
	.loc	4 502 0 is_stmt 1               @ ../std/GD32C2x1_Firmware_Library/GD32C2x1_standard_peripheral/Source/gd32c2x1_rtc.c:502:0
	.fnstart
	.cfi_startproc
@ %bb.0:
	.save	{r7, lr}
	push	{r7, lr}
	.cfi_def_cfa_offset 8
	.cfi_offset lr, -4
	.cfi_offset r7, -8
	.pad	#8
	sub	sp, #8
	.cfi_def_cfa_offset 16
	add	r1, sp, #4
	str	r1, [sp]                        @ 4-byte Spill
	movs	r0, #0
.Ltmp70:
	.loc	4 505 15 prologue_end           @ ../std/GD32C2x1_Firmware_Library/GD32C2x1_standard_peripheral/Source/gd32c2x1_rtc.c:505:15
	strb	r0, [r1]
	ldr	r2, __arm_cp.14_0
	movs	r1, #202
	.loc	4 508 13                        @ ../std/GD32C2x1_Firmware_Library/GD32C2x1_standard_peripheral/Source/gd32c2x1_rtc.c:508:13
	str	r1, [r2]
	movs	r1, #83
	.loc	4 509 13                        @ ../std/GD32C2x1_Firmware_Library/GD32C2x1_standard_peripheral/Source/gd32c2x1_rtc.c:509:13
	str	r1, [r2]
	ldr	r1, __arm_cp.14_1
	.loc	4 512 13                        @ ../std/GD32C2x1_Firmware_Library/GD32C2x1_standard_peripheral/Source/gd32c2x1_rtc.c:512:13
	ldr	r2, [r1]
	movw	r3, #256
	bics	r2, r3
	str	r2, [r1]
	ldr	r2, __arm_cp.14_2
	.loc	4 515 17                        @ ../std/GD32C2x1_Firmware_Library/GD32C2x1_standard_peripheral/Source/gd32c2x1_rtc.c:515:17
	str	r0, [r2]
	ldr	r2, __arm_cp.14_3
	.loc	4 516 17                        @ ../std/GD32C2x1_Firmware_Library/GD32C2x1_standard_peripheral/Source/gd32c2x1_rtc.c:516:17
	str	r0, [r2]
	.loc	4 519 13                        @ ../std/GD32C2x1_Firmware_Library/GD32C2x1_standard_peripheral/Source/gd32c2x1_rtc.c:519:13
	ldr	r2, [r1]
	str	r0, [r1]
	.loc	4 522 20                        @ ../std/GD32C2x1_Firmware_Library/GD32C2x1_standard_peripheral/Source/gd32c2x1_rtc.c:522:20
	bl	rtc_init_mode_enter
	mov	r1, r0
	.loc	4 522 18 is_stmt 0              @ ../std/GD32C2x1_Firmware_Library/GD32C2x1_standard_peripheral/Source/gd32c2x1_rtc.c:522:18
	ldr	r0, [sp]                        @ 4-byte Reload
	strb	r1, [r0]
.Ltmp71:
	.loc	4 524 17 is_stmt 1              @ ../std/GD32C2x1_Firmware_Library/GD32C2x1_standard_peripheral/Source/gd32c2x1_rtc.c:524:17
	ldrb	r0, [r0]
.Ltmp72:
	.loc	4 524 8 is_stmt 0               @ ../std/GD32C2x1_Firmware_Library/GD32C2x1_standard_peripheral/Source/gd32c2x1_rtc.c:524:8
	cbz	r0, .LBB14_2
	b	.LBB14_1
.LBB14_1:
	.loc	4 0 8                           @ ../std/GD32C2x1_Firmware_Library/GD32C2x1_standard_peripheral/Source/gd32c2x1_rtc.c:0:8
	ldr	r1, __arm_cp.14_4
	movs	r0, #0
.Ltmp73:
	.loc	4 527 18 is_stmt 1              @ ../std/GD32C2x1_Firmware_Library/GD32C2x1_standard_peripheral/Source/gd32c2x1_rtc.c:527:18
	str	r0, [r1]
	ldr	r2, __arm_cp.14_5
	ldr	r1, __arm_cp.14_6
	.loc	4 528 18                        @ ../std/GD32C2x1_Firmware_Library/GD32C2x1_standard_peripheral/Source/gd32c2x1_rtc.c:528:18
	str	r1, [r2]
	ldr	r2, __arm_cp.14_7
	ldr	r1, __arm_cp.14_8
	.loc	4 530 17                        @ ../std/GD32C2x1_Firmware_Library/GD32C2x1_standard_peripheral/Source/gd32c2x1_rtc.c:530:17
	str	r1, [r2]
	ldr	r2, __arm_cp.14_9
	movs	r1, #7
	.loc	4 534 18                        @ ../std/GD32C2x1_Firmware_Library/GD32C2x1_standard_peripheral/Source/gd32c2x1_rtc.c:534:18
	str	r1, [r2]
	ldr	r1, __arm_cp.14_2
	.loc	4 537 21                        @ ../std/GD32C2x1_Firmware_Library/GD32C2x1_standard_peripheral/Source/gd32c2x1_rtc.c:537:21
	str	r0, [r1]
	ldr	r1, __arm_cp.14_3
	.loc	4 538 21                        @ ../std/GD32C2x1_Firmware_Library/GD32C2x1_standard_peripheral/Source/gd32c2x1_rtc.c:538:21
	str	r0, [r1]
	ldr	r1, __arm_cp.14_10
	.loc	4 541 22                        @ ../std/GD32C2x1_Firmware_Library/GD32C2x1_standard_peripheral/Source/gd32c2x1_rtc.c:541:22
	str	r0, [r1]
	ldr	r1, __arm_cp.14_11
	.loc	4 542 18                        @ ../std/GD32C2x1_Firmware_Library/GD32C2x1_standard_peripheral/Source/gd32c2x1_rtc.c:542:18
	str	r0, [r1]
	.loc	4 544 24                        @ ../std/GD32C2x1_Firmware_Library/GD32C2x1_standard_peripheral/Source/gd32c2x1_rtc.c:544:24
	bl	rtc_register_sync_wait
	add	r1, sp, #4
	.loc	4 544 22 is_stmt 0              @ ../std/GD32C2x1_Firmware_Library/GD32C2x1_standard_peripheral/Source/gd32c2x1_rtc.c:544:22
	strb	r0, [r1]
	.loc	4 545 5 is_stmt 1               @ ../std/GD32C2x1_Firmware_Library/GD32C2x1_standard_peripheral/Source/gd32c2x1_rtc.c:545:5
	b	.LBB14_2
.Ltmp74:
.LBB14_2:
	.loc	4 0 5 is_stmt 0                 @ ../std/GD32C2x1_Firmware_Library/GD32C2x1_standard_peripheral/Source/gd32c2x1_rtc.c:0:5
	ldr	r1, __arm_cp.14_0
	movs	r0, #255
	.loc	4 548 13 is_stmt 1              @ ../std/GD32C2x1_Firmware_Library/GD32C2x1_standard_peripheral/Source/gd32c2x1_rtc.c:548:13
	str	r0, [r1]
	add	r0, sp, #4
	.loc	4 550 12                        @ ../std/GD32C2x1_Firmware_Library/GD32C2x1_standard_peripheral/Source/gd32c2x1_rtc.c:550:12
	ldrb	r0, [r0]
	.loc	4 550 5 is_stmt 0               @ ../std/GD32C2x1_Firmware_Library/GD32C2x1_standard_peripheral/Source/gd32c2x1_rtc.c:550:5
	add	sp, #8
	pop	{r7, pc}
.Ltmp75:
	.p2align	2
@ %bb.3:
	.loc	4 0 5                           @ ../std/GD32C2x1_Firmware_Library/GD32C2x1_standard_peripheral/Source/gd32c2x1_rtc.c:0:5
__arm_cp.14_0:
	.long	1073752100                      @ 0x40002824
.Lcpi_end35:
	.size	__arm_cp.14_0, .Lcpi_end35-__arm_cp.14_0
__arm_cp.14_1:
	.long	1073752072                      @ 0x40002808
.Lcpi_end36:
	.size	__arm_cp.14_1, .Lcpi_end36-__arm_cp.14_1
__arm_cp.14_2:
	.long	1073752092                      @ 0x4000281c
.Lcpi_end37:
	.size	__arm_cp.14_2, .Lcpi_end37-__arm_cp.14_2
__arm_cp.14_3:
	.long	1073752132                      @ 0x40002844
.Lcpi_end38:
	.size	__arm_cp.14_3, .Lcpi_end38-__arm_cp.14_3
__arm_cp.14_4:
	.long	1073752064                      @ 0x40002800
.Lcpi_end39:
	.size	__arm_cp.14_4, .Lcpi_end39-__arm_cp.14_4
__arm_cp.14_5:
	.long	1073752068                      @ 0x40002804
.Lcpi_end40:
	.size	__arm_cp.14_5, .Lcpi_end40-__arm_cp.14_5
__arm_cp.14_6:
	.long	8449                            @ 0x2101
.Lcpi_end41:
	.size	__arm_cp.14_6, .Lcpi_end41-__arm_cp.14_6
__arm_cp.14_7:
	.long	1073752080                      @ 0x40002810
.Lcpi_end42:
	.size	__arm_cp.14_7, .Lcpi_end42-__arm_cp.14_7
__arm_cp.14_8:
	.long	8323327                         @ 0x7f00ff
.Lcpi_end43:
	.size	__arm_cp.14_8, .Lcpi_end43-__arm_cp.14_8
__arm_cp.14_9:
	.long	1073752076                      @ 0x4000280c
.Lcpi_end44:
	.size	__arm_cp.14_9, .Lcpi_end44-__arm_cp.14_9
__arm_cp.14_10:
	.long	1073752108                      @ 0x4000282c
.Lcpi_end45:
	.size	__arm_cp.14_10, .Lcpi_end45-__arm_cp.14_10
__arm_cp.14_11:
	.long	1073752124                      @ 0x4000283c
.Lcpi_end46:
	.size	__arm_cp.14_11, .Lcpi_end46-__arm_cp.14_11
.Lfunc_end14:
	.size	rtc_deinit, .Lfunc_end14-rtc_deinit
	.cfi_endproc
	.cantunwind
	.fnend
                                        @ -- End function
	.section	.text.rtc_hour_adjust,"ax",%progbits
	.hidden	rtc_hour_adjust                 @ -- Begin function rtc_hour_adjust
	.globl	rtc_hour_adjust
	.p2align	2
	.type	rtc_hour_adjust,%function
	.code	16                              @ @rtc_hour_adjust
	.thumb_func
rtc_hour_adjust:
.Lfunc_begin15:
	.loc	4 563 0 is_stmt 1               @ ../std/GD32C2x1_Firmware_Library/GD32C2x1_standard_peripheral/Source/gd32c2x1_rtc.c:563:0
	.fnstart
	.cfi_startproc
@ %bb.0:
	.pad	#4
	sub	sp, #4
	.cfi_def_cfa_offset 4
	str	r0, [sp]
	ldr	r1, __arm_cp.15_0
	movs	r0, #202
.Ltmp76:
	.loc	4 565 13 prologue_end           @ ../std/GD32C2x1_Firmware_Library/GD32C2x1_standard_peripheral/Source/gd32c2x1_rtc.c:565:13
	str	r0, [r1]
	movs	r0, #83
	.loc	4 566 13                        @ ../std/GD32C2x1_Firmware_Library/GD32C2x1_standard_peripheral/Source/gd32c2x1_rtc.c:566:13
	str	r0, [r1]
	.loc	4 568 28                        @ ../std/GD32C2x1_Firmware_Library/GD32C2x1_standard_peripheral/Source/gd32c2x1_rtc.c:568:28
	ldr	r3, [sp]
	movs	r0, #3
	lsls	r0, r0, #16
	.loc	4 568 38 is_stmt 0              @ ../std/GD32C2x1_Firmware_Library/GD32C2x1_standard_peripheral/Source/gd32c2x1_rtc.c:568:38
	ands	r3, r0
	ldr	r2, __arm_cp.15_1
	.loc	4 568 13                        @ ../std/GD32C2x1_Firmware_Library/GD32C2x1_standard_peripheral/Source/gd32c2x1_rtc.c:568:13
	ldr	r0, [r2]
	orrs	r0, r3
	str	r0, [r2]
	movs	r0, #255
	.loc	4 571 13 is_stmt 1              @ ../std/GD32C2x1_Firmware_Library/GD32C2x1_standard_peripheral/Source/gd32c2x1_rtc.c:571:13
	str	r0, [r1]
	.loc	4 572 1                         @ ../std/GD32C2x1_Firmware_Library/GD32C2x1_standard_peripheral/Source/gd32c2x1_rtc.c:572:1
	add	sp, #4
	bx	lr
.Ltmp77:
	.p2align	2
@ %bb.1:
	.loc	4 0 1 is_stmt 0                 @ ../std/GD32C2x1_Firmware_Library/GD32C2x1_standard_peripheral/Source/gd32c2x1_rtc.c:0:1
__arm_cp.15_0:
	.long	1073752100                      @ 0x40002824
.Lcpi_end47:
	.size	__arm_cp.15_0, .Lcpi_end47-__arm_cp.15_0
__arm_cp.15_1:
	.long	1073752072                      @ 0x40002808
.Lcpi_end48:
	.size	__arm_cp.15_1, .Lcpi_end48-__arm_cp.15_1
.Lfunc_end15:
	.size	rtc_hour_adjust, .Lfunc_end15-rtc_hour_adjust
	.cfi_endproc
	.cantunwind
	.fnend
                                        @ -- End function
	.section	.text.rtc_second_adjust,"ax",%progbits
	.hidden	rtc_second_adjust               @ -- Begin function rtc_second_adjust
	.globl	rtc_second_adjust
	.p2align	2
	.type	rtc_second_adjust,%function
	.code	16                              @ @rtc_second_adjust
	.thumb_func
rtc_second_adjust:
.Lfunc_begin16:
	.loc	4 588 0 is_stmt 1               @ ../std/GD32C2x1_Firmware_Library/GD32C2x1_standard_peripheral/Source/gd32c2x1_rtc.c:588:0
	.fnstart
	.cfi_startproc
@ %bb.0:
	.save	{r7, lr}
	push	{r7, lr}
	.cfi_def_cfa_offset 8
	.cfi_offset lr, -4
	.cfi_offset r7, -8
	.pad	#32
	sub	sp, #32
	.cfi_def_cfa_offset 40
	str	r0, [sp, #28]
	str	r1, [sp, #24]
	add	r1, sp, #20
	movs	r0, #0
.Ltmp78:
	.loc	4 589 15 prologue_end           @ ../std/GD32C2x1_Firmware_Library/GD32C2x1_standard_peripheral/Source/gd32c2x1_rtc.c:589:15
	strb	r0, [r1]
	movw	r0, #4096
	.loc	4 591 14                        @ ../std/GD32C2x1_Firmware_Library/GD32C2x1_standard_peripheral/Source/gd32c2x1_rtc.c:591:14
	str	r0, [sp, #16]
	ldr	r1, __arm_cp.16_0
	movs	r0, #202
	.loc	4 597 13                        @ ../std/GD32C2x1_Firmware_Library/GD32C2x1_standard_peripheral/Source/gd32c2x1_rtc.c:597:13
	str	r0, [r1]
	movs	r0, #83
	.loc	4 598 13                        @ ../std/GD32C2x1_Firmware_Library/GD32C2x1_standard_peripheral/Source/gd32c2x1_rtc.c:598:13
	str	r0, [r1]
	.loc	4 601 5                         @ ../std/GD32C2x1_Firmware_Library/GD32C2x1_standard_peripheral/Source/gd32c2x1_rtc.c:601:5
	b	.LBB16_1
.LBB16_1:                               @ =>This Inner Loop Header: Depth=1
	.loc	4 0 5 is_stmt 0                 @ ../std/GD32C2x1_Firmware_Library/GD32C2x1_standard_peripheral/Source/gd32c2x1_rtc.c:0:5
	ldr	r0, __arm_cp.16_1
.Ltmp79:
	.loc	4 602 23 is_stmt 1              @ ../std/GD32C2x1_Firmware_Library/GD32C2x1_standard_peripheral/Source/gd32c2x1_rtc.c:602:23
	ldr	r0, [r0]
	movs	r1, #8
	.loc	4 602 32 is_stmt 0              @ ../std/GD32C2x1_Firmware_Library/GD32C2x1_standard_peripheral/Source/gd32c2x1_rtc.c:602:32
	ands	r0, r1
	.loc	4 602 21                        @ ../std/GD32C2x1_Firmware_Library/GD32C2x1_standard_peripheral/Source/gd32c2x1_rtc.c:602:21
	str	r0, [sp, #12]
	.loc	4 603 5 is_stmt 1               @ ../std/GD32C2x1_Firmware_Library/GD32C2x1_standard_peripheral/Source/gd32c2x1_rtc.c:603:5
	b	.LBB16_2
.Ltmp80:
.LBB16_2:                               @   in Loop: Header=BB16_1 Depth=1
	.loc	4 603 14 is_stmt 0              @ ../std/GD32C2x1_Firmware_Library/GD32C2x1_standard_peripheral/Source/gd32c2x1_rtc.c:603:14
	ldr	r0, [sp, #16]
	subs	r1, r0, #1
	str	r1, [sp, #16]
	movs	r0, #0
	.loc	4 603 33                        @ ../std/GD32C2x1_Firmware_Library/GD32C2x1_standard_peripheral/Source/gd32c2x1_rtc.c:603:33
	str	r0, [sp, #4]                    @ 4-byte Spill
	cbz	r1, .LBB16_4
	b	.LBB16_3
.LBB16_3:                               @   in Loop: Header=BB16_1 Depth=1
	.loc	4 603 56                        @ ../std/GD32C2x1_Firmware_Library/GD32C2x1_standard_peripheral/Source/gd32c2x1_rtc.c:603:56
	ldr	r0, [sp, #12]
	.loc	4 603 53                        @ ../std/GD32C2x1_Firmware_Library/GD32C2x1_standard_peripheral/Source/gd32c2x1_rtc.c:603:53
	subs	r1, r0, #1
	sbcs	r0, r1
	str	r0, [sp, #4]                    @ 4-byte Spill
	b	.LBB16_4
.LBB16_4:                               @   in Loop: Header=BB16_1 Depth=1
	.loc	4 0 0                           @ ../std/GD32C2x1_Firmware_Library/GD32C2x1_standard_peripheral/Source/gd32c2x1_rtc.c:0:0
	ldr	r0, [sp, #4]                    @ 4-byte Reload
.Ltmp81:
	.loc	4 603 5                         @ ../std/GD32C2x1_Firmware_Library/GD32C2x1_standard_peripheral/Source/gd32c2x1_rtc.c:603:5
	lsls	r0, r0, #31
	cmp	r0, #0
	bne	.LBB16_1
	b	.LBB16_5
.Ltmp82:
.LBB16_5:
	.loc	4 0 5                           @ ../std/GD32C2x1_Firmware_Library/GD32C2x1_standard_peripheral/Source/gd32c2x1_rtc.c:0:5
	ldr	r0, __arm_cp.16_2
	.loc	4 606 12 is_stmt 1              @ ../std/GD32C2x1_Firmware_Library/GD32C2x1_standard_peripheral/Source/gd32c2x1_rtc.c:606:12
	ldr	r0, [r0]
	movs	r1, #16
	.loc	4 606 20 is_stmt 0              @ ../std/GD32C2x1_Firmware_Library/GD32C2x1_standard_peripheral/Source/gd32c2x1_rtc.c:606:20
	ands	r0, r1
	.loc	4 606 10                        @ ../std/GD32C2x1_Firmware_Library/GD32C2x1_standard_peripheral/Source/gd32c2x1_rtc.c:606:10
	str	r0, [sp, #8]
.Ltmp83:
	.loc	4 607 15 is_stmt 1              @ ../std/GD32C2x1_Firmware_Library/GD32C2x1_standard_peripheral/Source/gd32c2x1_rtc.c:607:15
	ldr	r0, [sp, #12]
	.loc	4 607 28 is_stmt 0              @ ../std/GD32C2x1_Firmware_Library/GD32C2x1_standard_peripheral/Source/gd32c2x1_rtc.c:607:28
	cbnz	r0, .LBB16_8
	b	.LBB16_6
.LBB16_6:
	.loc	4 607 38                        @ ../std/GD32C2x1_Firmware_Library/GD32C2x1_standard_peripheral/Source/gd32c2x1_rtc.c:607:38
	ldr	r0, [sp, #8]
.Ltmp84:
	.loc	4 607 8                         @ ../std/GD32C2x1_Firmware_Library/GD32C2x1_standard_peripheral/Source/gd32c2x1_rtc.c:607:8
	cbnz	r0, .LBB16_8
	b	.LBB16_7
.LBB16_7:
.Ltmp85:
	.loc	4 608 35 is_stmt 1              @ ../std/GD32C2x1_Firmware_Library/GD32C2x1_standard_peripheral/Source/gd32c2x1_rtc.c:608:35
	ldr	r0, [sp, #28]
	.loc	4 608 41 is_stmt 0              @ ../std/GD32C2x1_Firmware_Library/GD32C2x1_standard_peripheral/Source/gd32c2x1_rtc.c:608:41
	ldr	r1, [sp, #24]
	ldr	r2, __arm_cp.16_3
	ands	r1, r2
	.loc	4 608 39                        @ ../std/GD32C2x1_Firmware_Library/GD32C2x1_standard_peripheral/Source/gd32c2x1_rtc.c:608:39
	orrs	r0, r1
	ldr	r1, __arm_cp.16_4
	.loc	4 608 22                        @ ../std/GD32C2x1_Firmware_Library/GD32C2x1_standard_peripheral/Source/gd32c2x1_rtc.c:608:22
	str	r0, [r1]
	.loc	4 609 24 is_stmt 1              @ ../std/GD32C2x1_Firmware_Library/GD32C2x1_standard_peripheral/Source/gd32c2x1_rtc.c:609:24
	bl	rtc_register_sync_wait
	add	r1, sp, #20
	.loc	4 609 22 is_stmt 0              @ ../std/GD32C2x1_Firmware_Library/GD32C2x1_standard_peripheral/Source/gd32c2x1_rtc.c:609:22
	strb	r0, [r1]
	.loc	4 610 5 is_stmt 1               @ ../std/GD32C2x1_Firmware_Library/GD32C2x1_standard_peripheral/Source/gd32c2x1_rtc.c:610:5
	b	.LBB16_8
.Ltmp86:
.LBB16_8:
	.loc	4 0 5 is_stmt 0                 @ ../std/GD32C2x1_Firmware_Library/GD32C2x1_standard_peripheral/Source/gd32c2x1_rtc.c:0:5
	ldr	r1, __arm_cp.16_0
	movs	r0, #255
	.loc	4 613 13 is_stmt 1              @ ../std/GD32C2x1_Firmware_Library/GD32C2x1_standard_peripheral/Source/gd32c2x1_rtc.c:613:13
	str	r0, [r1]
	add	r0, sp, #20
	.loc	4 614 12                        @ ../std/GD32C2x1_Firmware_Library/GD32C2x1_standard_peripheral/Source/gd32c2x1_rtc.c:614:12
	ldrb	r0, [r0]
	.loc	4 614 5 is_stmt 0               @ ../std/GD32C2x1_Firmware_Library/GD32C2x1_standard_peripheral/Source/gd32c2x1_rtc.c:614:5
	add	sp, #32
	pop	{r7, pc}
.Ltmp87:
	.p2align	2
@ %bb.9:
	.loc	4 0 5                           @ ../std/GD32C2x1_Firmware_Library/GD32C2x1_standard_peripheral/Source/gd32c2x1_rtc.c:0:5
__arm_cp.16_0:
	.long	1073752100                      @ 0x40002824
.Lcpi_end49:
	.size	__arm_cp.16_0, .Lcpi_end49-__arm_cp.16_0
__arm_cp.16_1:
	.long	1073752076                      @ 0x4000280c
.Lcpi_end50:
	.size	__arm_cp.16_1, .Lcpi_end50-__arm_cp.16_1
__arm_cp.16_2:
	.long	1073752072                      @ 0x40002808
.Lcpi_end51:
	.size	__arm_cp.16_2, .Lcpi_end51-__arm_cp.16_2
__arm_cp.16_3:
	.long	32767                           @ 0x7fff
.Lcpi_end52:
	.size	__arm_cp.16_3, .Lcpi_end52-__arm_cp.16_3
__arm_cp.16_4:
	.long	1073752108                      @ 0x4000282c
.Lcpi_end53:
	.size	__arm_cp.16_4, .Lcpi_end53-__arm_cp.16_4
.Lfunc_end16:
	.size	rtc_second_adjust, .Lfunc_end16-rtc_second_adjust
	.cfi_endproc
	.cantunwind
	.fnend
                                        @ -- End function
	.section	.text.rtc_refclock_detection_enable,"ax",%progbits
	.hidden	rtc_refclock_detection_enable   @ -- Begin function rtc_refclock_detection_enable
	.globl	rtc_refclock_detection_enable
	.p2align	2
	.type	rtc_refclock_detection_enable,%function
	.code	16                              @ @rtc_refclock_detection_enable
	.thumb_func
rtc_refclock_detection_enable:
.Lfunc_begin17:
	.loc	4 624 0 is_stmt 1               @ ../std/GD32C2x1_Firmware_Library/GD32C2x1_standard_peripheral/Source/gd32c2x1_rtc.c:624:0
	.fnstart
	.cfi_startproc
@ %bb.0:
	.save	{r7, lr}
	push	{r7, lr}
	.cfi_def_cfa_offset 8
	.cfi_offset lr, -4
	.cfi_offset r7, -8
	.pad	#8
	sub	sp, #8
	.cfi_def_cfa_offset 16
	add	r1, sp, #4
	str	r1, [sp]                        @ 4-byte Spill
	movs	r0, #0
.Ltmp88:
	.loc	4 625 15 prologue_end           @ ../std/GD32C2x1_Firmware_Library/GD32C2x1_standard_peripheral/Source/gd32c2x1_rtc.c:625:15
	strb	r0, [r1]
	ldr	r1, __arm_cp.17_0
	movs	r0, #202
	.loc	4 628 13                        @ ../std/GD32C2x1_Firmware_Library/GD32C2x1_standard_peripheral/Source/gd32c2x1_rtc.c:628:13
	str	r0, [r1]
	movs	r0, #83
	.loc	4 629 13                        @ ../std/GD32C2x1_Firmware_Library/GD32C2x1_standard_peripheral/Source/gd32c2x1_rtc.c:629:13
	str	r0, [r1]
	.loc	4 632 20                        @ ../std/GD32C2x1_Firmware_Library/GD32C2x1_standard_peripheral/Source/gd32c2x1_rtc.c:632:20
	bl	rtc_init_mode_enter
	mov	r1, r0
	.loc	4 632 18 is_stmt 0              @ ../std/GD32C2x1_Firmware_Library/GD32C2x1_standard_peripheral/Source/gd32c2x1_rtc.c:632:18
	ldr	r0, [sp]                        @ 4-byte Reload
	strb	r1, [r0]
.Ltmp89:
	.loc	4 634 17 is_stmt 1              @ ../std/GD32C2x1_Firmware_Library/GD32C2x1_standard_peripheral/Source/gd32c2x1_rtc.c:634:17
	ldrb	r0, [r0]
.Ltmp90:
	.loc	4 634 8 is_stmt 0               @ ../std/GD32C2x1_Firmware_Library/GD32C2x1_standard_peripheral/Source/gd32c2x1_rtc.c:634:8
	cbz	r0, .LBB17_2
	b	.LBB17_1
.LBB17_1:
	.loc	4 0 8                           @ ../std/GD32C2x1_Firmware_Library/GD32C2x1_standard_peripheral/Source/gd32c2x1_rtc.c:0:8
	ldr	r1, __arm_cp.17_1
.Ltmp91:
	.loc	4 635 17 is_stmt 1              @ ../std/GD32C2x1_Firmware_Library/GD32C2x1_standard_peripheral/Source/gd32c2x1_rtc.c:635:17
	ldr	r0, [r1]
	movs	r2, #16
	orrs	r0, r2
	str	r0, [r1]
	.loc	4 637 9                         @ ../std/GD32C2x1_Firmware_Library/GD32C2x1_standard_peripheral/Source/gd32c2x1_rtc.c:637:9
	bl	rtc_init_mode_exit
	.loc	4 638 5                         @ ../std/GD32C2x1_Firmware_Library/GD32C2x1_standard_peripheral/Source/gd32c2x1_rtc.c:638:5
	b	.LBB17_2
.Ltmp92:
.LBB17_2:
	.loc	4 0 5 is_stmt 0                 @ ../std/GD32C2x1_Firmware_Library/GD32C2x1_standard_peripheral/Source/gd32c2x1_rtc.c:0:5
	ldr	r1, __arm_cp.17_0
	movs	r0, #255
	.loc	4 641 13 is_stmt 1              @ ../std/GD32C2x1_Firmware_Library/GD32C2x1_standard_peripheral/Source/gd32c2x1_rtc.c:641:13
	str	r0, [r1]
	add	r0, sp, #4
	.loc	4 643 12                        @ ../std/GD32C2x1_Firmware_Library/GD32C2x1_standard_peripheral/Source/gd32c2x1_rtc.c:643:12
	ldrb	r0, [r0]
	.loc	4 643 5 is_stmt 0               @ ../std/GD32C2x1_Firmware_Library/GD32C2x1_standard_peripheral/Source/gd32c2x1_rtc.c:643:5
	add	sp, #8
	pop	{r7, pc}
.Ltmp93:
	.p2align	2
@ %bb.3:
	.loc	4 0 5                           @ ../std/GD32C2x1_Firmware_Library/GD32C2x1_standard_peripheral/Source/gd32c2x1_rtc.c:0:5
__arm_cp.17_0:
	.long	1073752100                      @ 0x40002824
.Lcpi_end54:
	.size	__arm_cp.17_0, .Lcpi_end54-__arm_cp.17_0
__arm_cp.17_1:
	.long	1073752072                      @ 0x40002808
.Lcpi_end55:
	.size	__arm_cp.17_1, .Lcpi_end55-__arm_cp.17_1
.Lfunc_end17:
	.size	rtc_refclock_detection_enable, .Lfunc_end17-rtc_refclock_detection_enable
	.cfi_endproc
	.cantunwind
	.fnend
                                        @ -- End function
	.section	.text.rtc_refclock_detection_disable,"ax",%progbits
	.hidden	rtc_refclock_detection_disable  @ -- Begin function rtc_refclock_detection_disable
	.globl	rtc_refclock_detection_disable
	.p2align	2
	.type	rtc_refclock_detection_disable,%function
	.code	16                              @ @rtc_refclock_detection_disable
	.thumb_func
rtc_refclock_detection_disable:
.Lfunc_begin18:
	.loc	4 653 0 is_stmt 1               @ ../std/GD32C2x1_Firmware_Library/GD32C2x1_standard_peripheral/Source/gd32c2x1_rtc.c:653:0
	.fnstart
	.cfi_startproc
@ %bb.0:
	.save	{r7, lr}
	push	{r7, lr}
	.cfi_def_cfa_offset 8
	.cfi_offset lr, -4
	.cfi_offset r7, -8
	.pad	#8
	sub	sp, #8
	.cfi_def_cfa_offset 16
	add	r1, sp, #4
	str	r1, [sp]                        @ 4-byte Spill
	movs	r0, #0
.Ltmp94:
	.loc	4 654 15 prologue_end           @ ../std/GD32C2x1_Firmware_Library/GD32C2x1_standard_peripheral/Source/gd32c2x1_rtc.c:654:15
	strb	r0, [r1]
	ldr	r1, __arm_cp.18_0
	movs	r0, #202
	.loc	4 657 13                        @ ../std/GD32C2x1_Firmware_Library/GD32C2x1_standard_peripheral/Source/gd32c2x1_rtc.c:657:13
	str	r0, [r1]
	movs	r0, #83
	.loc	4 658 13                        @ ../std/GD32C2x1_Firmware_Library/GD32C2x1_standard_peripheral/Source/gd32c2x1_rtc.c:658:13
	str	r0, [r1]
	.loc	4 661 20                        @ ../std/GD32C2x1_Firmware_Library/GD32C2x1_standard_peripheral/Source/gd32c2x1_rtc.c:661:20
	bl	rtc_init_mode_enter
	mov	r1, r0
	.loc	4 661 18 is_stmt 0              @ ../std/GD32C2x1_Firmware_Library/GD32C2x1_standard_peripheral/Source/gd32c2x1_rtc.c:661:18
	ldr	r0, [sp]                        @ 4-byte Reload
	strb	r1, [r0]
.Ltmp95:
	.loc	4 663 17 is_stmt 1              @ ../std/GD32C2x1_Firmware_Library/GD32C2x1_standard_peripheral/Source/gd32c2x1_rtc.c:663:17
	ldrb	r0, [r0]
.Ltmp96:
	.loc	4 663 8 is_stmt 0               @ ../std/GD32C2x1_Firmware_Library/GD32C2x1_standard_peripheral/Source/gd32c2x1_rtc.c:663:8
	cbz	r0, .LBB18_2
	b	.LBB18_1
.LBB18_1:
	.loc	4 0 8                           @ ../std/GD32C2x1_Firmware_Library/GD32C2x1_standard_peripheral/Source/gd32c2x1_rtc.c:0:8
	ldr	r1, __arm_cp.18_1
.Ltmp97:
	.loc	4 664 17 is_stmt 1              @ ../std/GD32C2x1_Firmware_Library/GD32C2x1_standard_peripheral/Source/gd32c2x1_rtc.c:664:17
	ldr	r0, [r1]
	movs	r2, #16
	bics	r0, r2
	str	r0, [r1]
	.loc	4 666 9                         @ ../std/GD32C2x1_Firmware_Library/GD32C2x1_standard_peripheral/Source/gd32c2x1_rtc.c:666:9
	bl	rtc_init_mode_exit
	.loc	4 667 5                         @ ../std/GD32C2x1_Firmware_Library/GD32C2x1_standard_peripheral/Source/gd32c2x1_rtc.c:667:5
	b	.LBB18_2
.Ltmp98:
.LBB18_2:
	.loc	4 0 5 is_stmt 0                 @ ../std/GD32C2x1_Firmware_Library/GD32C2x1_standard_peripheral/Source/gd32c2x1_rtc.c:0:5
	ldr	r1, __arm_cp.18_0
	movs	r0, #255
	.loc	4 670 13 is_stmt 1              @ ../std/GD32C2x1_Firmware_Library/GD32C2x1_standard_peripheral/Source/gd32c2x1_rtc.c:670:13
	str	r0, [r1]
	add	r0, sp, #4
	.loc	4 672 12                        @ ../std/GD32C2x1_Firmware_Library/GD32C2x1_standard_peripheral/Source/gd32c2x1_rtc.c:672:12
	ldrb	r0, [r0]
	.loc	4 672 5 is_stmt 0               @ ../std/GD32C2x1_Firmware_Library/GD32C2x1_standard_peripheral/Source/gd32c2x1_rtc.c:672:5
	add	sp, #8
	pop	{r7, pc}
.Ltmp99:
	.p2align	2
@ %bb.3:
	.loc	4 0 5                           @ ../std/GD32C2x1_Firmware_Library/GD32C2x1_standard_peripheral/Source/gd32c2x1_rtc.c:0:5
__arm_cp.18_0:
	.long	1073752100                      @ 0x40002824
.Lcpi_end56:
	.size	__arm_cp.18_0, .Lcpi_end56-__arm_cp.18_0
__arm_cp.18_1:
	.long	1073752072                      @ 0x40002808
.Lcpi_end57:
	.size	__arm_cp.18_1, .Lcpi_end57-__arm_cp.18_1
.Lfunc_end18:
	.size	rtc_refclock_detection_disable, .Lfunc_end18-rtc_refclock_detection_disable
	.cfi_endproc
	.cantunwind
	.fnend
                                        @ -- End function
	.section	.text.rtc_smooth_calibration_config,"ax",%progbits
	.hidden	rtc_smooth_calibration_config   @ -- Begin function rtc_smooth_calibration_config
	.globl	rtc_smooth_calibration_config
	.p2align	2
	.type	rtc_smooth_calibration_config,%function
	.code	16                              @ @rtc_smooth_calibration_config
	.thumb_func
rtc_smooth_calibration_config:
.Lfunc_begin19:
	.loc	4 691 0 is_stmt 1               @ ../std/GD32C2x1_Firmware_Library/GD32C2x1_standard_peripheral/Source/gd32c2x1_rtc.c:691:0
	.fnstart
	.cfi_startproc
@ %bb.0:
	.pad	#28
	sub	sp, #28
	.cfi_def_cfa_offset 28
	str	r0, [sp, #24]
	str	r1, [sp, #20]
	str	r2, [sp, #16]
	add	r1, sp, #12
	movs	r0, #0
.Ltmp100:
	.loc	4 692 15 prologue_end           @ ../std/GD32C2x1_Firmware_Library/GD32C2x1_standard_peripheral/Source/gd32c2x1_rtc.c:692:15
	strb	r0, [r1]
	movw	r0, #32768
	.loc	4 694 23                        @ ../std/GD32C2x1_Firmware_Library/GD32C2x1_standard_peripheral/Source/gd32c2x1_rtc.c:694:23
	str	r0, [sp, #8]
	ldr	r1, __arm_cp.19_0
	movs	r0, #202
	.loc	4 698 13                        @ ../std/GD32C2x1_Firmware_Library/GD32C2x1_standard_peripheral/Source/gd32c2x1_rtc.c:698:13
	str	r0, [r1]
	movs	r0, #83
	.loc	4 699 13                        @ ../std/GD32C2x1_Firmware_Library/GD32C2x1_standard_peripheral/Source/gd32c2x1_rtc.c:699:13
	str	r0, [r1]
	.loc	4 702 5                         @ ../std/GD32C2x1_Firmware_Library/GD32C2x1_standard_peripheral/Source/gd32c2x1_rtc.c:702:5
	b	.LBB19_1
.LBB19_1:                               @ =>This Inner Loop Header: Depth=1
	.loc	4 0 5 is_stmt 0                 @ ../std/GD32C2x1_Firmware_Library/GD32C2x1_standard_peripheral/Source/gd32c2x1_rtc.c:0:5
	ldr	r0, __arm_cp.19_1
.Ltmp101:
	.loc	4 703 23 is_stmt 1              @ ../std/GD32C2x1_Firmware_Library/GD32C2x1_standard_peripheral/Source/gd32c2x1_rtc.c:703:23
	ldr	r0, [r0]
	movs	r1, #1
	lsls	r1, r1, #16
	.loc	4 703 32 is_stmt 0              @ ../std/GD32C2x1_Firmware_Library/GD32C2x1_standard_peripheral/Source/gd32c2x1_rtc.c:703:32
	ands	r0, r1
	.loc	4 703 21                        @ ../std/GD32C2x1_Firmware_Library/GD32C2x1_standard_peripheral/Source/gd32c2x1_rtc.c:703:21
	str	r0, [sp, #4]
	.loc	4 704 5 is_stmt 1               @ ../std/GD32C2x1_Firmware_Library/GD32C2x1_standard_peripheral/Source/gd32c2x1_rtc.c:704:5
	b	.LBB19_2
.Ltmp102:
.LBB19_2:                               @   in Loop: Header=BB19_1 Depth=1
	.loc	4 704 14 is_stmt 0              @ ../std/GD32C2x1_Firmware_Library/GD32C2x1_standard_peripheral/Source/gd32c2x1_rtc.c:704:14
	ldr	r0, [sp, #8]
	subs	r1, r0, #1
	str	r1, [sp, #8]
	movs	r0, #0
	.loc	4 704 33                        @ ../std/GD32C2x1_Firmware_Library/GD32C2x1_standard_peripheral/Source/gd32c2x1_rtc.c:704:33
	str	r0, [sp]                        @ 4-byte Spill
	cbz	r1, .LBB19_4
	b	.LBB19_3
.LBB19_3:                               @   in Loop: Header=BB19_1 Depth=1
	.loc	4 704 56                        @ ../std/GD32C2x1_Firmware_Library/GD32C2x1_standard_peripheral/Source/gd32c2x1_rtc.c:704:56
	ldr	r0, [sp, #4]
	.loc	4 704 53                        @ ../std/GD32C2x1_Firmware_Library/GD32C2x1_standard_peripheral/Source/gd32c2x1_rtc.c:704:53
	subs	r1, r0, #1
	sbcs	r0, r1
	str	r0, [sp]                        @ 4-byte Spill
	b	.LBB19_4
.LBB19_4:                               @   in Loop: Header=BB19_1 Depth=1
	.loc	4 0 0                           @ ../std/GD32C2x1_Firmware_Library/GD32C2x1_standard_peripheral/Source/gd32c2x1_rtc.c:0:0
	ldr	r0, [sp]                        @ 4-byte Reload
.Ltmp103:
	.loc	4 704 5                         @ ../std/GD32C2x1_Firmware_Library/GD32C2x1_standard_peripheral/Source/gd32c2x1_rtc.c:704:5
	lsls	r0, r0, #31
	cmp	r0, #0
	bne	.LBB19_1
	b	.LBB19_5
.Ltmp104:
.LBB19_5:
	.loc	4 706 27 is_stmt 1              @ ../std/GD32C2x1_Firmware_Library/GD32C2x1_standard_peripheral/Source/gd32c2x1_rtc.c:706:27
	ldr	r0, [sp, #4]
.Ltmp105:
	.loc	4 706 8 is_stmt 0               @ ../std/GD32C2x1_Firmware_Library/GD32C2x1_standard_peripheral/Source/gd32c2x1_rtc.c:706:8
	cbnz	r0, .LBB19_7
	b	.LBB19_6
.LBB19_6:
.Ltmp106:
	.loc	4 707 31 is_stmt 1              @ ../std/GD32C2x1_Firmware_Library/GD32C2x1_standard_peripheral/Source/gd32c2x1_rtc.c:707:31
	ldr	r0, [sp, #24]
	.loc	4 707 40 is_stmt 0              @ ../std/GD32C2x1_Firmware_Library/GD32C2x1_standard_peripheral/Source/gd32c2x1_rtc.c:707:40
	ldr	r1, [sp, #20]
	.loc	4 707 38                        @ ../std/GD32C2x1_Firmware_Library/GD32C2x1_standard_peripheral/Source/gd32c2x1_rtc.c:707:38
	orrs	r0, r1
	.loc	4 707 47                        @ ../std/GD32C2x1_Firmware_Library/GD32C2x1_standard_peripheral/Source/gd32c2x1_rtc.c:707:47
	ldr	r1, [sp, #16]
	ldr	r2, __arm_cp.19_2
	ands	r1, r2
	.loc	4 707 45                        @ ../std/GD32C2x1_Firmware_Library/GD32C2x1_standard_peripheral/Source/gd32c2x1_rtc.c:707:45
	orrs	r0, r1
	ldr	r1, __arm_cp.19_3
	.loc	4 707 18                        @ ../std/GD32C2x1_Firmware_Library/GD32C2x1_standard_peripheral/Source/gd32c2x1_rtc.c:707:18
	str	r0, [r1]
	add	r1, sp, #12
	movs	r0, #1
	.loc	4 708 22 is_stmt 1              @ ../std/GD32C2x1_Firmware_Library/GD32C2x1_standard_peripheral/Source/gd32c2x1_rtc.c:708:22
	strb	r0, [r1]
	.loc	4 709 5                         @ ../std/GD32C2x1_Firmware_Library/GD32C2x1_standard_peripheral/Source/gd32c2x1_rtc.c:709:5
	b	.LBB19_7
.Ltmp107:
.LBB19_7:
	.loc	4 0 5 is_stmt 0                 @ ../std/GD32C2x1_Firmware_Library/GD32C2x1_standard_peripheral/Source/gd32c2x1_rtc.c:0:5
	ldr	r1, __arm_cp.19_0
	movs	r0, #255
	.loc	4 712 13 is_stmt 1              @ ../std/GD32C2x1_Firmware_Library/GD32C2x1_standard_peripheral/Source/gd32c2x1_rtc.c:712:13
	str	r0, [r1]
	add	r0, sp, #12
	.loc	4 714 12                        @ ../std/GD32C2x1_Firmware_Library/GD32C2x1_standard_peripheral/Source/gd32c2x1_rtc.c:714:12
	ldrb	r0, [r0]
	.loc	4 714 5 is_stmt 0               @ ../std/GD32C2x1_Firmware_Library/GD32C2x1_standard_peripheral/Source/gd32c2x1_rtc.c:714:5
	add	sp, #28
	bx	lr
.Ltmp108:
	.p2align	2
@ %bb.8:
	.loc	4 0 5                           @ ../std/GD32C2x1_Firmware_Library/GD32C2x1_standard_peripheral/Source/gd32c2x1_rtc.c:0:5
__arm_cp.19_0:
	.long	1073752100                      @ 0x40002824
.Lcpi_end58:
	.size	__arm_cp.19_0, .Lcpi_end58-__arm_cp.19_0
__arm_cp.19_1:
	.long	1073752076                      @ 0x4000280c
.Lcpi_end59:
	.size	__arm_cp.19_1, .Lcpi_end59-__arm_cp.19_1
__arm_cp.19_2:
	.long	511                             @ 0x1ff
.Lcpi_end60:
	.size	__arm_cp.19_2, .Lcpi_end60-__arm_cp.19_2
__arm_cp.19_3:
	.long	1073752124                      @ 0x4000283c
.Lcpi_end61:
	.size	__arm_cp.19_3, .Lcpi_end61-__arm_cp.19_3
.Lfunc_end19:
	.size	rtc_smooth_calibration_config, .Lfunc_end19-rtc_smooth_calibration_config
	.cfi_endproc
	.cantunwind
	.fnend
                                        @ -- End function
	.section	.text.rtc_timestamp_enable,"ax",%progbits
	.hidden	rtc_timestamp_enable            @ -- Begin function rtc_timestamp_enable
	.globl	rtc_timestamp_enable
	.p2align	2
	.type	rtc_timestamp_enable,%function
	.code	16                              @ @rtc_timestamp_enable
	.thumb_func
rtc_timestamp_enable:
.Lfunc_begin20:
	.loc	4 727 0 is_stmt 1               @ ../std/GD32C2x1_Firmware_Library/GD32C2x1_standard_peripheral/Source/gd32c2x1_rtc.c:727:0
	.fnstart
	.cfi_startproc
@ %bb.0:
	.pad	#8
	sub	sp, #8
	.cfi_def_cfa_offset 8
	str	r0, [sp, #4]
	ldr	r1, __arm_cp.20_0
	movs	r0, #202
.Ltmp109:
	.loc	4 731 13 prologue_end           @ ../std/GD32C2x1_Firmware_Library/GD32C2x1_standard_peripheral/Source/gd32c2x1_rtc.c:731:13
	str	r0, [r1]
	movs	r0, #83
	.loc	4 732 13                        @ ../std/GD32C2x1_Firmware_Library/GD32C2x1_standard_peripheral/Source/gd32c2x1_rtc.c:732:13
	str	r0, [r1]
	ldr	r2, __arm_cp.20_1
	.loc	4 735 26                        @ ../std/GD32C2x1_Firmware_Library/GD32C2x1_standard_peripheral/Source/gd32c2x1_rtc.c:735:26
	ldr	r0, [r2]
	ldr	r3, __arm_cp.20_2
	.loc	4 735 34 is_stmt 0              @ ../std/GD32C2x1_Firmware_Library/GD32C2x1_standard_peripheral/Source/gd32c2x1_rtc.c:735:34
	ands	r0, r3
	.loc	4 735 13                        @ ../std/GD32C2x1_Firmware_Library/GD32C2x1_standard_peripheral/Source/gd32c2x1_rtc.c:735:13
	str	r0, [sp]
	.loc	4 738 28 is_stmt 1              @ ../std/GD32C2x1_Firmware_Library/GD32C2x1_standard_peripheral/Source/gd32c2x1_rtc.c:738:28
	ldr	r0, [sp, #4]
	movs	r3, #8
	.loc	4 738 32 is_stmt 0              @ ../std/GD32C2x1_Firmware_Library/GD32C2x1_standard_peripheral/Source/gd32c2x1_rtc.c:738:32
	ands	r0, r3
	.loc	4 738 13                        @ ../std/GD32C2x1_Firmware_Library/GD32C2x1_standard_peripheral/Source/gd32c2x1_rtc.c:738:13
	ldr	r3, [sp]
	.loc	4 738 49                        @ ../std/GD32C2x1_Firmware_Library/GD32C2x1_standard_peripheral/Source/gd32c2x1_rtc.c:738:49
	orrs	r0, r3
	movw	r3, #2048
	.loc	4 738 13                        @ ../std/GD32C2x1_Firmware_Library/GD32C2x1_standard_peripheral/Source/gd32c2x1_rtc.c:738:13
	orrs	r0, r3
	str	r0, [sp]
	.loc	4 740 25 is_stmt 1              @ ../std/GD32C2x1_Firmware_Library/GD32C2x1_standard_peripheral/Source/gd32c2x1_rtc.c:740:25
	ldr	r0, [sp]
	.loc	4 740 13 is_stmt 0              @ ../std/GD32C2x1_Firmware_Library/GD32C2x1_standard_peripheral/Source/gd32c2x1_rtc.c:740:13
	str	r0, [r2]
	movs	r0, #255
	.loc	4 743 13 is_stmt 1              @ ../std/GD32C2x1_Firmware_Library/GD32C2x1_standard_peripheral/Source/gd32c2x1_rtc.c:743:13
	str	r0, [r1]
	.loc	4 744 1                         @ ../std/GD32C2x1_Firmware_Library/GD32C2x1_standard_peripheral/Source/gd32c2x1_rtc.c:744:1
	add	sp, #8
	bx	lr
.Ltmp110:
	.p2align	2
@ %bb.1:
	.loc	4 0 1 is_stmt 0                 @ ../std/GD32C2x1_Firmware_Library/GD32C2x1_standard_peripheral/Source/gd32c2x1_rtc.c:0:1
__arm_cp.20_0:
	.long	1073752100                      @ 0x40002824
.Lcpi_end62:
	.size	__arm_cp.20_0, .Lcpi_end62-__arm_cp.20_0
__arm_cp.20_1:
	.long	1073752072                      @ 0x40002808
.Lcpi_end63:
	.size	__arm_cp.20_1, .Lcpi_end63-__arm_cp.20_1
__arm_cp.20_2:
	.long	4294965239                      @ 0xfffff7f7
.Lcpi_end64:
	.size	__arm_cp.20_2, .Lcpi_end64-__arm_cp.20_2
.Lfunc_end20:
	.size	rtc_timestamp_enable, .Lfunc_end20-rtc_timestamp_enable
	.cfi_endproc
	.cantunwind
	.fnend
                                        @ -- End function
	.section	.text.rtc_timestamp_disable,"ax",%progbits
	.hidden	rtc_timestamp_disable           @ -- Begin function rtc_timestamp_disable
	.globl	rtc_timestamp_disable
	.p2align	2
	.type	rtc_timestamp_disable,%function
	.code	16                              @ @rtc_timestamp_disable
	.thumb_func
rtc_timestamp_disable:
.Lfunc_begin21:
	.loc	4 753 0 is_stmt 1               @ ../std/GD32C2x1_Firmware_Library/GD32C2x1_standard_peripheral/Source/gd32c2x1_rtc.c:753:0
	.fnstart
	.cfi_startproc
@ %bb.0:
	ldr	r1, __arm_cp.21_0
	movs	r0, #202
.Ltmp111:
	.loc	4 755 13 prologue_end           @ ../std/GD32C2x1_Firmware_Library/GD32C2x1_standard_peripheral/Source/gd32c2x1_rtc.c:755:13
	str	r0, [r1]
	movs	r0, #83
	.loc	4 756 13                        @ ../std/GD32C2x1_Firmware_Library/GD32C2x1_standard_peripheral/Source/gd32c2x1_rtc.c:756:13
	str	r0, [r1]
	ldr	r2, __arm_cp.21_1
	.loc	4 759 13                        @ ../std/GD32C2x1_Firmware_Library/GD32C2x1_standard_peripheral/Source/gd32c2x1_rtc.c:759:13
	ldr	r0, [r2]
	movw	r3, #2048
	bics	r0, r3
	str	r0, [r2]
	movs	r0, #255
	.loc	4 762 13                        @ ../std/GD32C2x1_Firmware_Library/GD32C2x1_standard_peripheral/Source/gd32c2x1_rtc.c:762:13
	str	r0, [r1]
	.loc	4 763 1                         @ ../std/GD32C2x1_Firmware_Library/GD32C2x1_standard_peripheral/Source/gd32c2x1_rtc.c:763:1
	bx	lr
.Ltmp112:
	.p2align	2
@ %bb.1:
	.loc	4 0 1 is_stmt 0                 @ ../std/GD32C2x1_Firmware_Library/GD32C2x1_standard_peripheral/Source/gd32c2x1_rtc.c:0:1
__arm_cp.21_0:
	.long	1073752100                      @ 0x40002824
.Lcpi_end65:
	.size	__arm_cp.21_0, .Lcpi_end65-__arm_cp.21_0
__arm_cp.21_1:
	.long	1073752072                      @ 0x40002808
.Lcpi_end66:
	.size	__arm_cp.21_1, .Lcpi_end66-__arm_cp.21_1
.Lfunc_end21:
	.size	rtc_timestamp_disable, .Lfunc_end21-rtc_timestamp_disable
	.cfi_endproc
	.cantunwind
	.fnend
                                        @ -- End function
	.section	.text.rtc_timestamp_get,"ax",%progbits
	.hidden	rtc_timestamp_get               @ -- Begin function rtc_timestamp_get
	.globl	rtc_timestamp_get
	.p2align	2
	.type	rtc_timestamp_get,%function
	.code	16                              @ @rtc_timestamp_get
	.thumb_func
rtc_timestamp_get:
.Lfunc_begin22:
	.loc	4 783 0 is_stmt 1               @ ../std/GD32C2x1_Firmware_Library/GD32C2x1_standard_peripheral/Source/gd32c2x1_rtc.c:783:0
	.fnstart
	.cfi_startproc
@ %bb.0:
	.pad	#12
	sub	sp, #12
	.cfi_def_cfa_offset 12
	str	r0, [sp, #8]
	ldr	r0, __arm_cp.22_0
.Ltmp113:
	.loc	4 794 30 prologue_end           @ ../std/GD32C2x1_Firmware_Library/GD32C2x1_standard_peripheral/Source/gd32c2x1_rtc.c:794:30
	ldr	r0, [r0]
	.loc	4 794 18 is_stmt 0              @ ../std/GD32C2x1_Firmware_Library/GD32C2x1_standard_peripheral/Source/gd32c2x1_rtc.c:794:18
	str	r0, [sp, #4]
	ldr	r0, __arm_cp.22_1
	.loc	4 795 30 is_stmt 1              @ ../std/GD32C2x1_Firmware_Library/GD32C2x1_standard_peripheral/Source/gd32c2x1_rtc.c:795:30
	ldr	r0, [r0]
	.loc	4 795 18 is_stmt 0              @ ../std/GD32C2x1_Firmware_Library/GD32C2x1_standard_peripheral/Source/gd32c2x1_rtc.c:795:18
	str	r0, [sp]
	.loc	4 798 43 is_stmt 1              @ ../std/GD32C2x1_Firmware_Library/GD32C2x1_standard_peripheral/Source/gd32c2x1_rtc.c:798:43
	ldr	r0, [sp, #4]
	movs	r1, #1
	lsls	r1, r1, #22
	.loc	4 798 52 is_stmt 0              @ ../std/GD32C2x1_Firmware_Library/GD32C2x1_standard_peripheral/Source/gd32c2x1_rtc.c:798:52
	ands	r0, r1
	.loc	4 798 9                         @ ../std/GD32C2x1_Firmware_Library/GD32C2x1_standard_peripheral/Source/gd32c2x1_rtc.c:798:9
	ldr	r1, [sp, #8]
	.loc	4 798 30                        @ ../std/GD32C2x1_Firmware_Library/GD32C2x1_standard_peripheral/Source/gd32c2x1_rtc.c:798:30
	str	r0, [r1, #8]
	.loc	4 799 51 is_stmt 1              @ ../std/GD32C2x1_Firmware_Library/GD32C2x1_standard_peripheral/Source/gd32c2x1_rtc.c:799:51
	ldr	r0, [sp]
	movw	r1, #7936
	ands	r0, r1
	lsrs	r0, r0, #8
	.loc	4 799 9 is_stmt 0               @ ../std/GD32C2x1_Firmware_Library/GD32C2x1_standard_peripheral/Source/gd32c2x1_rtc.c:799:9
	ldr	r1, [sp, #8]
	.loc	4 799 40                        @ ../std/GD32C2x1_Firmware_Library/GD32C2x1_standard_peripheral/Source/gd32c2x1_rtc.c:799:40
	strb	r0, [r1]
	.loc	4 800 50 is_stmt 1              @ ../std/GD32C2x1_Firmware_Library/GD32C2x1_standard_peripheral/Source/gd32c2x1_rtc.c:800:50
	ldr	r0, [sp]
	movs	r1, #63
	ands	r0, r1
	.loc	4 800 9 is_stmt 0               @ ../std/GD32C2x1_Firmware_Library/GD32C2x1_standard_peripheral/Source/gd32c2x1_rtc.c:800:9
	ldr	r2, [sp, #8]
	.loc	4 800 39                        @ ../std/GD32C2x1_Firmware_Library/GD32C2x1_standard_peripheral/Source/gd32c2x1_rtc.c:800:39
	strb	r0, [r2, #1]
	mov	r0, sp
	.loc	4 801 49 is_stmt 1              @ ../std/GD32C2x1_Firmware_Library/GD32C2x1_standard_peripheral/Source/gd32c2x1_rtc.c:801:49
	ldrh	r0, [r0]
	lsrs	r0, r0, #13
	.loc	4 801 9 is_stmt 0               @ ../std/GD32C2x1_Firmware_Library/GD32C2x1_standard_peripheral/Source/gd32c2x1_rtc.c:801:9
	ldr	r2, [sp, #8]
	.loc	4 801 38                        @ ../std/GD32C2x1_Firmware_Library/GD32C2x1_standard_peripheral/Source/gd32c2x1_rtc.c:801:38
	strb	r0, [r2, #2]
	.loc	4 802 50 is_stmt 1              @ ../std/GD32C2x1_Firmware_Library/GD32C2x1_standard_peripheral/Source/gd32c2x1_rtc.c:802:50
	ldr	r0, [sp, #4]
	lsls	r1, r1, #16
	ands	r0, r1
	lsrs	r0, r0, #16
	.loc	4 802 9 is_stmt 0               @ ../std/GD32C2x1_Firmware_Library/GD32C2x1_standard_peripheral/Source/gd32c2x1_rtc.c:802:9
	ldr	r1, [sp, #8]
	.loc	4 802 39                        @ ../std/GD32C2x1_Firmware_Library/GD32C2x1_standard_peripheral/Source/gd32c2x1_rtc.c:802:39
	strb	r0, [r1, #3]
	.loc	4 803 52 is_stmt 1              @ ../std/GD32C2x1_Firmware_Library/GD32C2x1_standard_peripheral/Source/gd32c2x1_rtc.c:803:52
	ldr	r0, [sp, #4]
	movw	r1, #32512
	ands	r0, r1
	lsrs	r0, r0, #8
	.loc	4 803 9 is_stmt 0               @ ../std/GD32C2x1_Firmware_Library/GD32C2x1_standard_peripheral/Source/gd32c2x1_rtc.c:803:9
	ldr	r1, [sp, #8]
	.loc	4 803 41                        @ ../std/GD32C2x1_Firmware_Library/GD32C2x1_standard_peripheral/Source/gd32c2x1_rtc.c:803:41
	strb	r0, [r1, #4]
	.loc	4 804 52 is_stmt 1              @ ../std/GD32C2x1_Firmware_Library/GD32C2x1_standard_peripheral/Source/gd32c2x1_rtc.c:804:52
	ldr	r0, [sp, #4]
	movs	r1, #127
	ands	r0, r1
	.loc	4 804 9 is_stmt 0               @ ../std/GD32C2x1_Firmware_Library/GD32C2x1_standard_peripheral/Source/gd32c2x1_rtc.c:804:9
	ldr	r1, [sp, #8]
	.loc	4 804 41                        @ ../std/GD32C2x1_Firmware_Library/GD32C2x1_standard_peripheral/Source/gd32c2x1_rtc.c:804:41
	strb	r0, [r1, #5]
.Ltmp114:
	.loc	4 806 1 is_stmt 1               @ ../std/GD32C2x1_Firmware_Library/GD32C2x1_standard_peripheral/Source/gd32c2x1_rtc.c:806:1
	add	sp, #12
	bx	lr
.Ltmp115:
	.p2align	2
@ %bb.1:
	.loc	4 0 1 is_stmt 0                 @ ../std/GD32C2x1_Firmware_Library/GD32C2x1_standard_peripheral/Source/gd32c2x1_rtc.c:0:1
__arm_cp.22_0:
	.long	1073752112                      @ 0x40002830
.Lcpi_end67:
	.size	__arm_cp.22_0, .Lcpi_end67-__arm_cp.22_0
__arm_cp.22_1:
	.long	1073752116                      @ 0x40002834
.Lcpi_end68:
	.size	__arm_cp.22_1, .Lcpi_end68-__arm_cp.22_1
.Lfunc_end22:
	.size	rtc_timestamp_get, .Lfunc_end22-rtc_timestamp_get
	.cfi_endproc
	.cantunwind
	.fnend
                                        @ -- End function
	.section	.text.rtc_timestamp_subsecond_get,"ax",%progbits
	.hidden	rtc_timestamp_subsecond_get     @ -- Begin function rtc_timestamp_subsecond_get
	.globl	rtc_timestamp_subsecond_get
	.p2align	2
	.type	rtc_timestamp_subsecond_get,%function
	.code	16                              @ @rtc_timestamp_subsecond_get
	.thumb_func
rtc_timestamp_subsecond_get:
.Lfunc_begin23:
	.loc	4 815 0 is_stmt 1               @ ../std/GD32C2x1_Firmware_Library/GD32C2x1_standard_peripheral/Source/gd32c2x1_rtc.c:815:0
	.fnstart
	.cfi_startproc
@ %bb.0:
	ldr	r0, __arm_cp.23_0
.Ltmp116:
	.loc	4 816 23 prologue_end           @ ../std/GD32C2x1_Firmware_Library/GD32C2x1_standard_peripheral/Source/gd32c2x1_rtc.c:816:23
	ldr	r0, [r0]
	.loc	4 816 5 is_stmt 0               @ ../std/GD32C2x1_Firmware_Library/GD32C2x1_standard_peripheral/Source/gd32c2x1_rtc.c:816:5
	bx	lr
.Ltmp117:
	.p2align	2
@ %bb.1:
	.loc	4 0 5                           @ ../std/GD32C2x1_Firmware_Library/GD32C2x1_standard_peripheral/Source/gd32c2x1_rtc.c:0:5
__arm_cp.23_0:
	.long	1073752120                      @ 0x40002838
.Lcpi_end69:
	.size	__arm_cp.23_0, .Lcpi_end69-__arm_cp.23_0
.Lfunc_end23:
	.size	rtc_timestamp_subsecond_get, .Lfunc_end23-rtc_timestamp_subsecond_get
	.cfi_endproc
	.cantunwind
	.fnend
                                        @ -- End function
	.section	.text.rtc_calibration_output_config,"ax",%progbits
	.hidden	rtc_calibration_output_config   @ -- Begin function rtc_calibration_output_config
	.globl	rtc_calibration_output_config
	.p2align	2
	.type	rtc_calibration_output_config,%function
	.code	16                              @ @rtc_calibration_output_config
	.thumb_func
rtc_calibration_output_config:
.Lfunc_begin24:
	.loc	4 830 0 is_stmt 1               @ ../std/GD32C2x1_Firmware_Library/GD32C2x1_standard_peripheral/Source/gd32c2x1_rtc.c:830:0
	.fnstart
	.cfi_startproc
@ %bb.0:
	.pad	#4
	sub	sp, #4
	.cfi_def_cfa_offset 4
	str	r0, [sp]
	ldr	r1, __arm_cp.24_0
	movs	r0, #202
.Ltmp118:
	.loc	4 832 13 prologue_end           @ ../std/GD32C2x1_Firmware_Library/GD32C2x1_standard_peripheral/Source/gd32c2x1_rtc.c:832:13
	str	r0, [r1]
	movs	r0, #83
	.loc	4 833 13                        @ ../std/GD32C2x1_Firmware_Library/GD32C2x1_standard_peripheral/Source/gd32c2x1_rtc.c:833:13
	str	r0, [r1]
	ldr	r2, __arm_cp.24_1
	.loc	4 835 13                        @ ../std/GD32C2x1_Firmware_Library/GD32C2x1_standard_peripheral/Source/gd32c2x1_rtc.c:835:13
	ldr	r3, [r2]
	movs	r0, #17
	lsls	r0, r0, #19
	bics	r3, r0
	str	r3, [r2]
	.loc	4 837 27                        @ ../std/GD32C2x1_Firmware_Library/GD32C2x1_standard_peripheral/Source/gd32c2x1_rtc.c:837:27
	ldr	r3, [sp]
	.loc	4 837 33 is_stmt 0              @ ../std/GD32C2x1_Firmware_Library/GD32C2x1_standard_peripheral/Source/gd32c2x1_rtc.c:837:33
	ands	r3, r0
	.loc	4 837 13                        @ ../std/GD32C2x1_Firmware_Library/GD32C2x1_standard_peripheral/Source/gd32c2x1_rtc.c:837:13
	ldr	r0, [r2]
	orrs	r0, r3
	str	r0, [r2]
	movs	r0, #255
	.loc	4 839 13 is_stmt 1              @ ../std/GD32C2x1_Firmware_Library/GD32C2x1_standard_peripheral/Source/gd32c2x1_rtc.c:839:13
	str	r0, [r1]
	.loc	4 840 1                         @ ../std/GD32C2x1_Firmware_Library/GD32C2x1_standard_peripheral/Source/gd32c2x1_rtc.c:840:1
	add	sp, #4
	bx	lr
.Ltmp119:
	.p2align	2
@ %bb.1:
	.loc	4 0 1 is_stmt 0                 @ ../std/GD32C2x1_Firmware_Library/GD32C2x1_standard_peripheral/Source/gd32c2x1_rtc.c:0:1
__arm_cp.24_0:
	.long	1073752100                      @ 0x40002824
.Lcpi_end70:
	.size	__arm_cp.24_0, .Lcpi_end70-__arm_cp.24_0
__arm_cp.24_1:
	.long	1073752072                      @ 0x40002808
.Lcpi_end71:
	.size	__arm_cp.24_1, .Lcpi_end71-__arm_cp.24_1
.Lfunc_end24:
	.size	rtc_calibration_output_config, .Lfunc_end24-rtc_calibration_output_config
	.cfi_endproc
	.cantunwind
	.fnend
                                        @ -- End function
	.section	.text.rtc_alarm_output_config,"ax",%progbits
	.hidden	rtc_alarm_output_config         @ -- Begin function rtc_alarm_output_config
	.globl	rtc_alarm_output_config
	.p2align	2
	.type	rtc_alarm_output_config,%function
	.code	16                              @ @rtc_alarm_output_config
	.thumb_func
rtc_alarm_output_config:
.Lfunc_begin25:
	.loc	4 855 0 is_stmt 1               @ ../std/GD32C2x1_Firmware_Library/GD32C2x1_standard_peripheral/Source/gd32c2x1_rtc.c:855:0
	.fnstart
	.cfi_startproc
@ %bb.0:
	.save	{r4, r5, r7, lr}
	push	{r4, r5, r7, lr}
	.cfi_def_cfa_offset 16
	.cfi_offset lr, -4
	.cfi_offset r7, -8
	.cfi_offset r5, -12
	.cfi_offset r4, -16
	.pad	#8
	sub	sp, #8
	.cfi_def_cfa_offset 24
	str	r0, [sp, #4]
	str	r1, [sp]
	ldr	r1, __arm_cp.25_0
	movs	r0, #202
.Ltmp120:
	.loc	4 857 13 prologue_end           @ ../std/GD32C2x1_Firmware_Library/GD32C2x1_standard_peripheral/Source/gd32c2x1_rtc.c:857:13
	str	r0, [r1]
	movs	r0, #83
	.loc	4 858 13                        @ ../std/GD32C2x1_Firmware_Library/GD32C2x1_standard_peripheral/Source/gd32c2x1_rtc.c:858:13
	str	r0, [r1]
	ldr	r4, __arm_cp.25_1
	.loc	4 860 13                        @ ../std/GD32C2x1_Firmware_Library/GD32C2x1_standard_peripheral/Source/gd32c2x1_rtc.c:860:13
	ldr	r0, [r4]
	movs	r2, #7
	lsls	r3, r2, #20
	bics	r0, r3
	str	r0, [r4]
	ldr	r2, __arm_cp.25_2
	.loc	4 861 14                        @ ../std/GD32C2x1_Firmware_Library/GD32C2x1_standard_peripheral/Source/gd32c2x1_rtc.c:861:14
	ldr	r5, [r2]
	movs	r0, #1
	lsls	r0, r0, #18
	bics	r5, r0
	str	r5, [r2]
	.loc	4 863 27                        @ ../std/GD32C2x1_Firmware_Library/GD32C2x1_standard_peripheral/Source/gd32c2x1_rtc.c:863:27
	ldr	r5, [sp, #4]
	.loc	4 863 40 is_stmt 0              @ ../std/GD32C2x1_Firmware_Library/GD32C2x1_standard_peripheral/Source/gd32c2x1_rtc.c:863:40
	ands	r5, r3
	.loc	4 863 13                        @ ../std/GD32C2x1_Firmware_Library/GD32C2x1_standard_peripheral/Source/gd32c2x1_rtc.c:863:13
	ldr	r3, [r4]
	orrs	r3, r5
	str	r3, [r4]
	.loc	4 865 28 is_stmt 1              @ ../std/GD32C2x1_Firmware_Library/GD32C2x1_standard_peripheral/Source/gd32c2x1_rtc.c:865:28
	ldr	r3, [sp]
	.loc	4 865 33 is_stmt 0              @ ../std/GD32C2x1_Firmware_Library/GD32C2x1_standard_peripheral/Source/gd32c2x1_rtc.c:865:33
	ands	r3, r0
	.loc	4 865 14                        @ ../std/GD32C2x1_Firmware_Library/GD32C2x1_standard_peripheral/Source/gd32c2x1_rtc.c:865:14
	ldr	r0, [r2]
	orrs	r0, r3
	str	r0, [r2]
	movs	r0, #255
	.loc	4 867 13 is_stmt 1              @ ../std/GD32C2x1_Firmware_Library/GD32C2x1_standard_peripheral/Source/gd32c2x1_rtc.c:867:13
	str	r0, [r1]
	.loc	4 868 1                         @ ../std/GD32C2x1_Firmware_Library/GD32C2x1_standard_peripheral/Source/gd32c2x1_rtc.c:868:1
	add	sp, #8
	pop	{r4, r5, r7, pc}
.Ltmp121:
	.p2align	2
@ %bb.1:
	.loc	4 0 1 is_stmt 0                 @ ../std/GD32C2x1_Firmware_Library/GD32C2x1_standard_peripheral/Source/gd32c2x1_rtc.c:0:1
__arm_cp.25_0:
	.long	1073752100                      @ 0x40002824
.Lcpi_end72:
	.size	__arm_cp.25_0, .Lcpi_end72-__arm_cp.25_0
__arm_cp.25_1:
	.long	1073752072                      @ 0x40002808
.Lcpi_end73:
	.size	__arm_cp.25_1, .Lcpi_end73-__arm_cp.25_1
__arm_cp.25_2:
	.long	1073752128                      @ 0x40002840
.Lcpi_end74:
	.size	__arm_cp.25_2, .Lcpi_end74-__arm_cp.25_2
.Lfunc_end25:
	.size	rtc_alarm_output_config, .Lfunc_end25-rtc_alarm_output_config
	.cfi_endproc
	.cantunwind
	.fnend
                                        @ -- End function
	.section	.text.rtc_output_pin_select,"ax",%progbits
	.hidden	rtc_output_pin_select           @ -- Begin function rtc_output_pin_select
	.globl	rtc_output_pin_select
	.p2align	2
	.type	rtc_output_pin_select,%function
	.code	16                              @ @rtc_output_pin_select
	.thumb_func
rtc_output_pin_select:
.Lfunc_begin26:
	.loc	4 879 0 is_stmt 1               @ ../std/GD32C2x1_Firmware_Library/GD32C2x1_standard_peripheral/Source/gd32c2x1_rtc.c:879:0
	.fnstart
	.cfi_startproc
@ %bb.0:
	.pad	#8
	sub	sp, #8
	.cfi_def_cfa_offset 8
	str	r0, [sp, #4]
	ldr	r2, __arm_cp.26_0
.Ltmp122:
	.loc	4 880 24 prologue_end           @ ../std/GD32C2x1_Firmware_Library/GD32C2x1_standard_peripheral/Source/gd32c2x1_rtc.c:880:24
	ldr	r0, [r2]
	.loc	4 880 14 is_stmt 0              @ ../std/GD32C2x1_Firmware_Library/GD32C2x1_standard_peripheral/Source/gd32c2x1_rtc.c:880:14
	str	r0, [sp]
	ldr	r1, __arm_cp.26_1
	movs	r0, #202
	.loc	4 882 13 is_stmt 1              @ ../std/GD32C2x1_Firmware_Library/GD32C2x1_standard_peripheral/Source/gd32c2x1_rtc.c:882:13
	str	r0, [r1]
	movs	r0, #83
	.loc	4 883 13                        @ ../std/GD32C2x1_Firmware_Library/GD32C2x1_standard_peripheral/Source/gd32c2x1_rtc.c:883:13
	str	r0, [r1]
	.loc	4 885 13                        @ ../std/GD32C2x1_Firmware_Library/GD32C2x1_standard_peripheral/Source/gd32c2x1_rtc.c:885:13
	ldr	r3, [sp]
	movs	r0, #1
	lsls	r0, r0, #31
	bics	r3, r0
	str	r3, [sp]
	.loc	4 886 27                        @ ../std/GD32C2x1_Firmware_Library/GD32C2x1_standard_peripheral/Source/gd32c2x1_rtc.c:886:27
	ldr	r3, [sp, #4]
	.loc	4 886 37 is_stmt 0              @ ../std/GD32C2x1_Firmware_Library/GD32C2x1_standard_peripheral/Source/gd32c2x1_rtc.c:886:37
	ands	r3, r0
	.loc	4 886 13                        @ ../std/GD32C2x1_Firmware_Library/GD32C2x1_standard_peripheral/Source/gd32c2x1_rtc.c:886:13
	ldr	r0, [sp]
	orrs	r0, r3
	str	r0, [sp]
	.loc	4 887 15 is_stmt 1              @ ../std/GD32C2x1_Firmware_Library/GD32C2x1_standard_peripheral/Source/gd32c2x1_rtc.c:887:15
	ldr	r0, [sp]
	.loc	4 887 13 is_stmt 0              @ ../std/GD32C2x1_Firmware_Library/GD32C2x1_standard_peripheral/Source/gd32c2x1_rtc.c:887:13
	str	r0, [r2]
	movs	r0, #255
	.loc	4 890 13 is_stmt 1              @ ../std/GD32C2x1_Firmware_Library/GD32C2x1_standard_peripheral/Source/gd32c2x1_rtc.c:890:13
	str	r0, [r1]
	.loc	4 891 1                         @ ../std/GD32C2x1_Firmware_Library/GD32C2x1_standard_peripheral/Source/gd32c2x1_rtc.c:891:1
	add	sp, #8
	bx	lr
.Ltmp123:
	.p2align	2
@ %bb.1:
	.loc	4 0 1 is_stmt 0                 @ ../std/GD32C2x1_Firmware_Library/GD32C2x1_standard_peripheral/Source/gd32c2x1_rtc.c:0:1
__arm_cp.26_0:
	.long	1073752072                      @ 0x40002808
.Lcpi_end75:
	.size	__arm_cp.26_0, .Lcpi_end75-__arm_cp.26_0
__arm_cp.26_1:
	.long	1073752100                      @ 0x40002824
.Lcpi_end76:
	.size	__arm_cp.26_1, .Lcpi_end76-__arm_cp.26_1
.Lfunc_end26:
	.size	rtc_output_pin_select, .Lfunc_end26-rtc_output_pin_select
	.cfi_endproc
	.cantunwind
	.fnend
                                        @ -- End function
	.section	.text.rtc_interrupt_enable,"ax",%progbits
	.hidden	rtc_interrupt_enable            @ -- Begin function rtc_interrupt_enable
	.globl	rtc_interrupt_enable
	.p2align	2
	.type	rtc_interrupt_enable,%function
	.code	16                              @ @rtc_interrupt_enable
	.thumb_func
rtc_interrupt_enable:
.Lfunc_begin27:
	.loc	4 903 0 is_stmt 1               @ ../std/GD32C2x1_Firmware_Library/GD32C2x1_standard_peripheral/Source/gd32c2x1_rtc.c:903:0
	.fnstart
	.cfi_startproc
@ %bb.0:
	.pad	#4
	sub	sp, #4
	.cfi_def_cfa_offset 4
	mov	r1, r0
                                        @ kill: def $r0 killed $r1
	mov	r0, sp
	strh	r1, [r0]
	ldr	r1, __arm_cp.27_0
	movs	r2, #202
.Ltmp124:
	.loc	4 905 13 prologue_end           @ ../std/GD32C2x1_Firmware_Library/GD32C2x1_standard_peripheral/Source/gd32c2x1_rtc.c:905:13
	str	r2, [r1]
	movs	r2, #83
	.loc	4 906 13                        @ ../std/GD32C2x1_Firmware_Library/GD32C2x1_standard_peripheral/Source/gd32c2x1_rtc.c:906:13
	str	r2, [r1]
	.loc	4 909 27                        @ ../std/GD32C2x1_Firmware_Library/GD32C2x1_standard_peripheral/Source/gd32c2x1_rtc.c:909:27
	ldrh	r3, [r0]
	ldr	r2, __arm_cp.27_1
	.loc	4 909 13 is_stmt 0              @ ../std/GD32C2x1_Firmware_Library/GD32C2x1_standard_peripheral/Source/gd32c2x1_rtc.c:909:13
	ldr	r0, [r2]
	orrs	r0, r3
	str	r0, [r2]
	movs	r0, #255
	.loc	4 912 13 is_stmt 1              @ ../std/GD32C2x1_Firmware_Library/GD32C2x1_standard_peripheral/Source/gd32c2x1_rtc.c:912:13
	str	r0, [r1]
	.loc	4 913 1                         @ ../std/GD32C2x1_Firmware_Library/GD32C2x1_standard_peripheral/Source/gd32c2x1_rtc.c:913:1
	add	sp, #4
	bx	lr
.Ltmp125:
	.p2align	2
@ %bb.1:
	.loc	4 0 1 is_stmt 0                 @ ../std/GD32C2x1_Firmware_Library/GD32C2x1_standard_peripheral/Source/gd32c2x1_rtc.c:0:1
__arm_cp.27_0:
	.long	1073752100                      @ 0x40002824
.Lcpi_end77:
	.size	__arm_cp.27_0, .Lcpi_end77-__arm_cp.27_0
__arm_cp.27_1:
	.long	1073752072                      @ 0x40002808
.Lcpi_end78:
	.size	__arm_cp.27_1, .Lcpi_end78-__arm_cp.27_1
.Lfunc_end27:
	.size	rtc_interrupt_enable, .Lfunc_end27-rtc_interrupt_enable
	.cfi_endproc
	.cantunwind
	.fnend
                                        @ -- End function
	.section	.text.rtc_interrupt_disable,"ax",%progbits
	.hidden	rtc_interrupt_disable           @ -- Begin function rtc_interrupt_disable
	.globl	rtc_interrupt_disable
	.p2align	2
	.type	rtc_interrupt_disable,%function
	.code	16                              @ @rtc_interrupt_disable
	.thumb_func
rtc_interrupt_disable:
.Lfunc_begin28:
	.loc	4 925 0 is_stmt 1               @ ../std/GD32C2x1_Firmware_Library/GD32C2x1_standard_peripheral/Source/gd32c2x1_rtc.c:925:0
	.fnstart
	.cfi_startproc
@ %bb.0:
	.pad	#4
	sub	sp, #4
	.cfi_def_cfa_offset 4
	mov	r1, r0
                                        @ kill: def $r0 killed $r1
	mov	r0, sp
	strh	r1, [r0]
	ldr	r1, __arm_cp.28_0
	movs	r2, #202
.Ltmp126:
	.loc	4 927 13 prologue_end           @ ../std/GD32C2x1_Firmware_Library/GD32C2x1_standard_peripheral/Source/gd32c2x1_rtc.c:927:13
	str	r2, [r1]
	movs	r2, #83
	.loc	4 928 13                        @ ../std/GD32C2x1_Firmware_Library/GD32C2x1_standard_peripheral/Source/gd32c2x1_rtc.c:928:13
	str	r2, [r1]
	.loc	4 931 28                        @ ../std/GD32C2x1_Firmware_Library/GD32C2x1_standard_peripheral/Source/gd32c2x1_rtc.c:931:28
	ldrh	r3, [r0]
	ldr	r2, __arm_cp.28_1
	.loc	4 931 13 is_stmt 0              @ ../std/GD32C2x1_Firmware_Library/GD32C2x1_standard_peripheral/Source/gd32c2x1_rtc.c:931:13
	ldr	r0, [r2]
	bics	r0, r3
	str	r0, [r2]
	movs	r0, #255
	.loc	4 934 13 is_stmt 1              @ ../std/GD32C2x1_Firmware_Library/GD32C2x1_standard_peripheral/Source/gd32c2x1_rtc.c:934:13
	str	r0, [r1]
	.loc	4 935 1                         @ ../std/GD32C2x1_Firmware_Library/GD32C2x1_standard_peripheral/Source/gd32c2x1_rtc.c:935:1
	add	sp, #4
	bx	lr
.Ltmp127:
	.p2align	2
@ %bb.1:
	.loc	4 0 1 is_stmt 0                 @ ../std/GD32C2x1_Firmware_Library/GD32C2x1_standard_peripheral/Source/gd32c2x1_rtc.c:0:1
__arm_cp.28_0:
	.long	1073752100                      @ 0x40002824
.Lcpi_end79:
	.size	__arm_cp.28_0, .Lcpi_end79-__arm_cp.28_0
__arm_cp.28_1:
	.long	1073752072                      @ 0x40002808
.Lcpi_end80:
	.size	__arm_cp.28_1, .Lcpi_end80-__arm_cp.28_1
.Lfunc_end28:
	.size	rtc_interrupt_disable, .Lfunc_end28-rtc_interrupt_disable
	.cfi_endproc
	.cantunwind
	.fnend
                                        @ -- End function
	.section	.text.rtc_flag_get,"ax",%progbits
	.hidden	rtc_flag_get                    @ -- Begin function rtc_flag_get
	.globl	rtc_flag_get
	.p2align	2
	.type	rtc_flag_get,%function
	.code	16                              @ @rtc_flag_get
	.thumb_func
rtc_flag_get:
.Lfunc_begin29:
	.loc	4 954 0 is_stmt 1               @ ../std/GD32C2x1_Firmware_Library/GD32C2x1_standard_peripheral/Source/gd32c2x1_rtc.c:954:0
	.fnstart
	.cfi_startproc
@ %bb.0:
	.pad	#8
	sub	sp, #8
	.cfi_def_cfa_offset 8
                                        @ kill: def $r1 killed $r0
	add	r1, sp, #4
	strh	r0, [r1]
	mov	r2, sp
	movs	r0, #0
.Ltmp128:
	.loc	4 955 16 prologue_end           @ ../std/GD32C2x1_Firmware_Library/GD32C2x1_standard_peripheral/Source/gd32c2x1_rtc.c:955:16
	strb	r0, [r2]
	ldr	r0, __arm_cp.29_0
.Ltmp129:
	.loc	4 957 28                        @ ../std/GD32C2x1_Firmware_Library/GD32C2x1_standard_peripheral/Source/gd32c2x1_rtc.c:957:28
	ldr	r0, [r0]
	.loc	4 957 49 is_stmt 0              @ ../std/GD32C2x1_Firmware_Library/GD32C2x1_standard_peripheral/Source/gd32c2x1_rtc.c:957:49
	ldrh	r1, [r1]
.Ltmp130:
	.loc	4 957 8                         @ ../std/GD32C2x1_Firmware_Library/GD32C2x1_standard_peripheral/Source/gd32c2x1_rtc.c:957:8
	tst	r0, r1
	beq	.LBB29_2
	b	.LBB29_1
.LBB29_1:
	.loc	4 0 8                           @ ../std/GD32C2x1_Firmware_Library/GD32C2x1_standard_peripheral/Source/gd32c2x1_rtc.c:0:8
	mov	r1, sp
	movs	r0, #1
.Ltmp131:
	.loc	4 958 20 is_stmt 1              @ ../std/GD32C2x1_Firmware_Library/GD32C2x1_standard_peripheral/Source/gd32c2x1_rtc.c:958:20
	strb	r0, [r1]
	.loc	4 959 5                         @ ../std/GD32C2x1_Firmware_Library/GD32C2x1_standard_peripheral/Source/gd32c2x1_rtc.c:959:5
	b	.LBB29_2
.Ltmp132:
.LBB29_2:
	.loc	4 0 5 is_stmt 0                 @ ../std/GD32C2x1_Firmware_Library/GD32C2x1_standard_peripheral/Source/gd32c2x1_rtc.c:0:5
	mov	r0, sp
	.loc	4 960 12 is_stmt 1              @ ../std/GD32C2x1_Firmware_Library/GD32C2x1_standard_peripheral/Source/gd32c2x1_rtc.c:960:12
	ldrb	r0, [r0]
	.loc	4 960 5 is_stmt 0               @ ../std/GD32C2x1_Firmware_Library/GD32C2x1_standard_peripheral/Source/gd32c2x1_rtc.c:960:5
	add	sp, #8
	bx	lr
.Ltmp133:
	.p2align	2
@ %bb.3:
	.loc	4 0 5                           @ ../std/GD32C2x1_Firmware_Library/GD32C2x1_standard_peripheral/Source/gd32c2x1_rtc.c:0:5
__arm_cp.29_0:
	.long	1073752076                      @ 0x4000280c
.Lcpi_end81:
	.size	__arm_cp.29_0, .Lcpi_end81-__arm_cp.29_0
.Lfunc_end29:
	.size	rtc_flag_get, .Lfunc_end29-rtc_flag_get
	.cfi_endproc
	.cantunwind
	.fnend
                                        @ -- End function
	.section	.text.rtc_flag_clear,"ax",%progbits
	.hidden	rtc_flag_clear                  @ -- Begin function rtc_flag_clear
	.globl	rtc_flag_clear
	.p2align	2
	.type	rtc_flag_clear,%function
	.code	16                              @ @rtc_flag_clear
	.thumb_func
rtc_flag_clear:
.Lfunc_begin30:
	.loc	4 975 0 is_stmt 1               @ ../std/GD32C2x1_Firmware_Library/GD32C2x1_standard_peripheral/Source/gd32c2x1_rtc.c:975:0
	.fnstart
	.cfi_startproc
@ %bb.0:
	.pad	#4
	sub	sp, #4
	.cfi_def_cfa_offset 4
	mov	r1, r0
                                        @ kill: def $r0 killed $r1
	mov	r0, sp
	strh	r1, [r0]
.Ltmp134:
	.loc	4 976 29 prologue_end           @ ../std/GD32C2x1_Firmware_Library/GD32C2x1_standard_peripheral/Source/gd32c2x1_rtc.c:976:29
	ldrh	r2, [r0]
	ldr	r1, __arm_cp.30_0
	.loc	4 976 14 is_stmt 0              @ ../std/GD32C2x1_Firmware_Library/GD32C2x1_standard_peripheral/Source/gd32c2x1_rtc.c:976:14
	ldr	r0, [r1]
	bics	r0, r2
	str	r0, [r1]
	.loc	4 977 1 is_stmt 1               @ ../std/GD32C2x1_Firmware_Library/GD32C2x1_standard_peripheral/Source/gd32c2x1_rtc.c:977:1
	add	sp, #4
	bx	lr
.Ltmp135:
	.p2align	2
@ %bb.1:
	.loc	4 0 1 is_stmt 0                 @ ../std/GD32C2x1_Firmware_Library/GD32C2x1_standard_peripheral/Source/gd32c2x1_rtc.c:0:1
__arm_cp.30_0:
	.long	1073752076                      @ 0x4000280c
.Lcpi_end82:
	.size	__arm_cp.30_0, .Lcpi_end82-__arm_cp.30_0
.Lfunc_end30:
	.size	rtc_flag_clear, .Lfunc_end30-rtc_flag_clear
	.cfi_endproc
	.cantunwind
	.fnend
                                        @ -- End function
	.section	".note.GNU-stack","",%progbits
	.eabi_attribute	30, 6	@ Tag_ABI_optimization_goals
	.ARM_attribute	16, 1	@ Tag_AV_eba