	.text
	.syntax unified
	.eabi_attribute	67, "2.09"	@ Tag_conformance
	.cpu	cortex-m23
	.eabi_attribute	6, 16	@ Tag_CPU_arch
	.eabi_attribute	7, 77	@ Tag_CPU_arch_profile
	.eabi_attribute	8, 0	@ Tag_ARM_ISA_use
	.eabi_attribute	9, 3	@ Tag_THUMB_ISA_use
	.eabi_attribute	34, 0	@ Tag_CPU_unaligned_access
	.eabi_attribute	17, 1	@ Tag_ABI_PCS_GOT_use
	.eabi_attribute	20, 2	@ Tag_ABI_FP_denormal
	.eabi_attribute	21, 0	@ Tag_ABI_FP_exceptions
	.eabi_attribute	23, 1	@ Tag_ABI_FP_number_model
	.eabi_attribute	24, 1	@ Tag_ABI_align_needed
	.eabi_attribute	25, 1	@ Tag_ABI_align_preserved
	.eabi_attribute	38, 1	@ Tag_ABI_FP_16bit_format
	.eabi_attribute	18, 2	@ Tag_ABI_PCS_wchar_t
	.eabi_attribute	26, 1	@ Tag_ABI_enum_size
	.eabi_attribute	14, 0	@ Tag_ABI_PCS_R9_use
	.file	"gd32c2x1_err_report.c"
	.file	1 "D:\\Keil_v5\\ARM\\ARMCLANG\\Bin\\..\\include" "stdint.h"
	.file	2 "E:\\work\\CX_NFC_RX\\prj" "../std/GD32C2x1_Firmware_Library/CMSIS/GD/GD32C2x1/Source/gd32c2x1_err_report.c"
	.file	3 "E:\\work\\CX_NFC_RX\\prj" "../std/GD32C2x1_Firmware_Library/CMSIS/GD/GD32C2x1/Include\\gd32c2x1_err_report.h"
	.section	.text.fw_debug_report_err,"ax",%progbits
	.hidden	fw_debug_report_err             @ -- Begin function fw_debug_report_err
	.globl	fw_debug_report_err
	.p2align	2
	.type	fw_debug_report_err,%function
	.code	16                              @ @fw_debug_report_err
	.thumb_func
fw_debug_report_err:
.Lfunc_begin0:
	.loc	2 55 0                          @ ../std/GD32C2x1_Firmware_Library/CMSIS/GD/GD32C2x1/Source/gd32c2x1_err_report.c:55:0
	.fnstart
	.cfi_sections .debug_frame
	.cfi_startproc
@ %bb.0:
	.save	{r7, lr}
	push	{r7, lr}
	.cfi_def_cfa_offset 8
	.cfi_offset lr, -4
	.cfi_offset r7, -8
	.pad	#16
	sub	sp, #16
	.cfi_def_cfa_offset 24
                                        @ kill: def $r3 killed $r2
                                        @ kill: def $r3 killed $r1
                                        @ kill: def $r3 killed $r0
	add	r3, sp, #12
	strh	r0, [r3]
	add	r0, sp, #8
	strh	r1, [r0]
	add	r0, sp, #4
	strb	r2, [r0]
.Ltmp0:
	.loc	2 58 8 prologue_end             @ ../std/GD32C2x1_Firmware_Library/CMSIS/GD/GD32C2x1/Source/gd32c2x1_err_report.c:58:8
	ldr	r0, __arm_cp.0_0
	ldrb	r0, [r0]
.Ltmp1:
	.loc	2 58 8 is_stmt 0                @ ../std/GD32C2x1_Firmware_Library/CMSIS/GD/GD32C2x1/Source/gd32c2x1_err_report.c:58:8
	cmp	r0, #1
	bhi	.LBB0_2
	b	.LBB0_1
.LBB0_1:
.Ltmp2:
	.loc	2 59 75 is_stmt 1               @ ../std/GD32C2x1_Firmware_Library/CMSIS/GD/GD32C2x1/Source/gd32c2x1_err_report.c:59:75
	ldr	r2, __arm_cp.0_0
	ldrb	r0, [r2]
	adds	r1, r0, #1
	strb	r1, [r2]
	movs	r1, #6
	.loc	2 59 36 is_stmt 0               @ ../std/GD32C2x1_Firmware_Library/CMSIS/GD/GD32C2x1/Source/gd32c2x1_err_report.c:59:36
	muls	r1, r0, r1
	ldr	r0, __arm_cp.0_1
	adds	r0, r0, r1
	.loc	2 59 33                         @ ../std/GD32C2x1_Firmware_Library/CMSIS/GD/GD32C2x1/Source/gd32c2x1_err_report.c:59:33
	str	r0, [sp]
	.loc	2 60 45 is_stmt 1               @ ../std/GD32C2x1_Firmware_Library/CMSIS/GD/GD32C2x1/Source/gd32c2x1_err_report.c:60:45
	ldr	r0, [sp, #12]
	.loc	2 60 9 is_stmt 0                @ ../std/GD32C2x1_Firmware_Library/CMSIS/GD/GD32C2x1/Source/gd32c2x1_err_report.c:60:9
	ldr	r1, [sp]
	.loc	2 60 43                         @ ../std/GD32C2x1_Firmware_Library/CMSIS/GD/GD32C2x1/Source/gd32c2x1_err_report.c:60:43
	strh	r0, [r1]
	.loc	2 61 42 is_stmt 1               @ ../std/GD32C2x1_Firmware_Library/CMSIS/GD/GD32C2x1/Source/gd32c2x1_err_report.c:61:42
	ldr	r0, [sp, #8]
	.loc	2 61 9 is_stmt 0                @ ../std/GD32C2x1_Firmware_Library/CMSIS/GD/GD32C2x1/Source/gd32c2x1_err_report.c:61:9
	ldr	r1, [sp]
	.loc	2 61 40                         @ ../std/GD32C2x1_Firmware_Library/CMSIS/GD/GD32C2x1/Source/gd32c2x1_err_report.c:61:40
	strh	r0, [r1, #2]
	.loc	2 62 42 is_stmt 1               @ ../std/GD32C2x1_Firmware_Library/CMSIS/GD/GD32C2x1/Source/gd32c2x1_err_report.c:62:42
	ldr	r0, [sp, #4]
	.loc	2 62 9 is_stmt 0                @ ../std/GD32C2x1_Firmware_Library/CMSIS/GD/GD32C2x1/Source/gd32c2x1_err_report.c:62:9
	ldr	r1, [sp]
	.loc	2 62 40                         @ ../std/GD32C2x1_Firmware_Library/CMSIS/GD/GD32C2x1/Source/gd32c2x1_err_report.c:62:40
	strb	r0, [r1, #4]
	.loc	2 63 5 is_stmt 1                @ ../std/GD32C2x1_Firmware_Library/CMSIS/GD/GD32C2x1/Source/gd32c2x1_err_report.c:63:5
	b	.LBB0_3
.Ltmp3:
.LBB0_2:
	.loc	2 0 5 is_stmt 0                 @ ../std/GD32C2x1_Firmware_Library/CMSIS/GD/GD32C2x1/Source/gd32c2x1_err_report.c:0:5
	b	.LBB0_3
.LBB0_3:
	.loc	2 66 5 is_stmt 1                @ ../std/GD32C2x1_Firmware_Library/CMSIS/GD/GD32C2x1/Source/gd32c2x1_err_report.c:66:5
	bl	fw_error_notification
	.loc	2 67 1                          @ ../std/GD32C2x1_Firmware_Library/CMSIS/GD/GD32C2x1/Source/gd32c2x1_err_report.c:67:1
	add	sp, #16
	pop	{r7, pc}
.Ltmp4:
	.p2align	2
@ %bb.4:
	.loc	2 0 1 is_stmt 0                 @ ../std/GD32C2x1_Firmware_Library/CMSIS/GD/GD32C2x1/Source/gd32c2x1_err_report.c:0:1
__arm_cp.0_0:
	.long	err_report_buff_index
.Lcpi_end0:
	.size	__arm_cp.0_0, .Lcpi_end0-__arm_cp.0_0
__arm_cp.0_1:
	.long	err_report_buffer
.Lcpi_end1:
	.size	__arm_cp.0_1, .Lcpi_end1-__arm_cp.0_1
.Lfunc_end0:
	.size	fw_debug_report_err, .Lfunc_end0-fw_debug_report_err
	.cfi_endproc
	.cantunwind
	.fnend
                                        @ -- End function
	.section	.text.fw_error_notification,"ax",%progbits
	.hidden	fw_error_notification           @ -- Begin function fw_error_notification
	.weak	fw_error_notification
	.p2align	1
	.type	fw_error_notification,%function
	.code	16                              @ @fw_error_notification
	.thumb_func
fw_error_notification:
.Lfunc_begin1:
	.loc	2 75 0 is_stmt 1                @ ../std/GD32C2x1_Firmware_Library/CMSIS/GD/GD32C2x1/Source/gd32c2x1_err_report.c:75:0
	.fnstart
	.cfi_startproc
@ %bb.0:
	.loc	2 76 5 prologue_end             @ ../std/GD32C2x1_Firmware_Library/CMSIS/GD/GD32C2x1/Source/gd32c2x1_err_report.c:76:5
	b	.LBB1_1
.LBB1_1:                                @ =>This Inner Loop Header: Depth=1
.Ltmp5:
	.loc	2 76 5 is_stmt 0                @ ../std/GD32C2x1_Firmware_Library/CMSIS/GD/GD32C2x1/Source/gd32c2x1_err_report.c:76:5
	b	.LBB1_2
.LBB1_2:                                @   in Loop: Header=BB1_1 Depth=1
	.loc	2 0 5                           @ ../std/GD32C2x1_Firmware_Library/CMSIS/GD/GD32C2x1/Source/gd32c2x1_err_report.c:0:5
	movs	r0, #1
	.loc	2 76 5                          @ ../std/GD32C2x1_Firmware_Library/CMSIS/GD/GD32C2x1/Source/gd32c2x1_err_report.c:76:5
	cmp	r0, #0
	bne	.LBB1_1
	b	.LBB1_3
.Ltmp6:
.LBB1_3:
	.loc	2 77 1 is_stmt 1                @ ../std/GD32C2x1_Firmware_Library/CMSIS/GD/GD32C2x1/Source/gd32c2x1_err_report.c:77:1
	bx	lr
.Ltmp7:
.Lfunc_end1:
	.size	fw_error_notification, .Lfunc_end1-fw_error_notification
	.cfi_endproc
	.cantunwind
	.fnend
                                        @ -- End function
	.hidden	err_report_buff_index           @ @err_report_buff_index
	.type	err_report_buff_index,%object
	.section	.bss.err_report_buff_index,"aw",%nobits
	.globl	err_report_buff_index
err_report_buff_index:
	.byte	0                               @ 0x0
	.size	err_report_buff_index, 1

	.hidden	err_report_buffer               @ @err_report_buffer
	.type	err_report_buffer,%object
	.section	.bss.err_report_buffer,"aw",%nobits
	.globl	err_report_buffer
	.p2align	1
err_report_buffer:
	.zero	12
	.size	err_report_buffer, 12

	.section	".note.GNU-stack","",%progbits
	.eabi_attribute	30, 6	@ Tag_ABI_optimization_goals
	.ARM_attribute	16, 1	@ Tag_AV_eba