	.text
	.syntax unified
	.eabi_attribute	67, "2.09"	@ Tag_conformance
	.cpu	cortex-m23
	.eabi_attribute	6, 16	@ Tag_CPU_arch
	.eabi_attribute	7, 77	@ Tag_CPU_arch_profile
	.eabi_attribute	8, 0	@ Tag_ARM_ISA_use
	.eabi_attribute	9, 3	@ Tag_THUMB_ISA_use
	.eabi_attribute	34, 0	@ Tag_CPU_unaligned_access
	.eabi_attribute	17, 1	@ Tag_ABI_PCS_GOT_use
	.eabi_attribute	20, 2	@ Tag_ABI_FP_denormal
	.eabi_attribute	21, 0	@ Tag_ABI_FP_exceptions
	.eabi_attribute	23, 1	@ Tag_ABI_FP_number_model
	.eabi_attribute	24, 1	@ Tag_ABI_align_needed
	.eabi_attribute	25, 1	@ Tag_ABI_align_preserved
	.eabi_attribute	38, 1	@ Tag_ABI_FP_16bit_format
	.eabi_attribute	18, 2	@ Tag_ABI_PCS_wchar_t
	.eabi_attribute	26, 1	@ Tag_ABI_enum_size
	.eabi_attribute	14, 0	@ Tag_ABI_PCS_R9_use
	.file	"gd32c2x1_adc.c"
	.file	1 "E:\\work\\CX_NFC_RX\\prj" "../std/GD32C2x1_Firmware_Library/GD32C2x1_standard_peripheral/Include\\gd32c2x1_rcu.h"
	.file	2 "E:\\work\\CX_NFC_RX\\prj" "../std/GD32C2x1_Firmware_Library/CMSIS/GD/GD32C2x1/Include/gd32c2x1.h"
	.file	3 "D:\\Keil_v5\\ARM\\ARMCLANG\\Bin\\..\\include" "stdint.h"
	.section	.text.adc_deinit,"ax",%progbits
	.hidden	adc_deinit                      @ -- Begin function adc_deinit
	.globl	adc_deinit
	.p2align	2
	.type	adc_deinit,%function
	.code	16                              @ @adc_deinit
	.thumb_func
adc_deinit:
.Lfunc_begin0:
	.file	4 "E:\\work\\CX_NFC_RX\\prj" "../std/GD32C2x1_Firmware_Library/GD32C2x1_standard_peripheral/Source/gd32c2x1_adc.c"
	.loc	4 72 0                          @ ../std/GD32C2x1_Firmware_Library/GD32C2x1_standard_peripheral/Source/gd32c2x1_adc.c:72:0
	.fnstart
	.cfi_sections .debug_frame
	.cfi_startproc
@ %bb.0:
	.save	{r7, lr}
	push	{r7, lr}
	.cfi_def_cfa_offset 8
	.cfi_offset lr, -4
	.cfi_offset r7, -8
	.pad	#8
	sub	sp, #8
	.cfi_def_cfa_offset 16
	ldr	r0, __arm_cp.0_0
.Ltmp0:
	.loc	4 73 5 prologue_end             @ ../std/GD32C2x1_Firmware_Library/GD32C2x1_standard_peripheral/Source/gd32c2x1_adc.c:73:5
	str	r0, [sp, #4]                    @ 4-byte Spill
	bl	rcu_periph_reset_enable
	ldr	r0, [sp, #4]                    @ 4-byte Reload
	.loc	4 74 5                          @ ../std/GD32C2x1_Firmware_Library/GD32C2x1_standard_peripheral/Source/gd32c2x1_adc.c:74:5
	bl	rcu_periph_reset_disable
	.loc	4 75 1                          @ ../std/GD32C2x1_Firmware_Library/GD32C2x1_standard_peripheral/Source/gd32c2x1_adc.c:75:1
	add	sp, #8
	pop	{r7, pc}
.Ltmp1:
	.p2align	2
@ %bb.1:
	.loc	4 0 1 is_stmt 0                 @ ../std/GD32C2x1_Firmware_Library/GD32C2x1_standard_peripheral/Source/gd32c2x1_adc.c:0:1
__arm_cp.0_0:
	.long	2313                            @ 0x909
.Lcpi_end0:
	.size	__arm_cp.0_0, .Lcpi_end0-__arm_cp.0_0
.Lfunc_end0:
	.size	adc_deinit, .Lfunc_end0-adc_deinit
	.cfi_endproc
	.cantunwind
	.fnend
                                        @ -- End function
	.section	.text.adc_enable,"ax",%progbits
	.hidden	adc_enable                      @ -- Begin function adc_enable
	.globl	adc_enable
	.p2align	2
	.type	adc_enable,%function
	.code	16                              @ @adc_enable
	.thumb_func
adc_enable:
.Lfunc_begin1:
	.loc	4 84 0 is_stmt 1                @ ../std/GD32C2x1_Firmware_Library/GD32C2x1_standard_peripheral/Source/gd32c2x1_adc.c:84:0
	.fnstart
	.cfi_startproc
@ %bb.0:
	ldr	r0, __arm_cp.1_0
.Ltmp2:
	.loc	4 85 15 prologue_end            @ ../std/GD32C2x1_Firmware_Library/GD32C2x1_standard_peripheral/Source/gd32c2x1_adc.c:85:15
	ldr	r0, [r0]
.Ltmp3:
	.loc	4 85 8 is_stmt 0                @ ../std/GD32C2x1_Firmware_Library/GD32C2x1_standard_peripheral/Source/gd32c2x1_adc.c:85:8
	lsls	r0, r0, #31
	cbnz	r0, .LBB1_2
	b	.LBB1_1
.LBB1_1:
	.loc	4 0 8                           @ ../std/GD32C2x1_Firmware_Library/GD32C2x1_standard_peripheral/Source/gd32c2x1_adc.c:0:8
	ldr	r1, __arm_cp.1_0
.Ltmp4:
	.loc	4 87 18 is_stmt 1               @ ../std/GD32C2x1_Firmware_Library/GD32C2x1_standard_peripheral/Source/gd32c2x1_adc.c:87:18
	ldr	r0, [r1]
	movs	r2, #1
	orrs	r0, r2
	str	r0, [r1]
	.loc	4 88 5                          @ ../std/GD32C2x1_Firmware_Library/GD32C2x1_standard_peripheral/Source/gd32c2x1_adc.c:88:5
	b	.LBB1_2
.Ltmp5:
.LBB1_2:
	.loc	4 89 1                          @ ../std/GD32C2x1_Firmware_Library/GD32C2x1_standard_peripheral/Source/gd32c2x1_adc.c:89:1
	bx	lr
.Ltmp6:
	.p2align	2
@ %bb.3:
	.loc	4 0 1 is_stmt 0                 @ ../std/GD32C2x1_Firmware_Library/GD32C2x1_standard_peripheral/Source/gd32c2x1_adc.c:0:1
__arm_cp.1_0:
	.long	1073816584                      @ 0x40012408
.Lcpi_end1:
	.size	__arm_cp.1_0, .Lcpi_end1-__arm_cp.1_0
.Lfunc_end1:
	.size	adc_enable, .Lfunc_end1-adc_enable
	.cfi_endproc
	.cantunwind
	.fnend
                                        @ -- End function
	.section	.text.adc_disable,"ax",%progbits
	.hidden	adc_disable                     @ -- Begin function adc_disable
	.globl	adc_disable
	.p2align	2
	.type	adc_disable,%function
	.code	16                              @ @adc_disable
	.thumb_func
adc_disable:
.Lfunc_begin2:
	.loc	4 98 0 is_stmt 1                @ ../std/GD32C2x1_Firmware_Library/GD32C2x1_standard_peripheral/Source/gd32c2x1_adc.c:98:0
	.fnstart
	.cfi_startproc
@ %bb.0:
	ldr	r1, __arm_cp.2_0
.Ltmp7:
	.loc	4 100 14 prologue_end           @ ../std/GD32C2x1_Firmware_Library/GD32C2x1_standard_peripheral/Source/gd32c2x1_adc.c:100:14
	ldr	r0, [r1]
	movs	r2, #1
	bics	r0, r2
	str	r0, [r1]
	.loc	4 101 1                         @ ../std/GD32C2x1_Firmware_Library/GD32C2x1_standard_peripheral/Source/gd32c2x1_adc.c:101:1
	bx	lr
.Ltmp8:
	.p2align	2
@ %bb.1:
	.loc	4 0 1 is_stmt 0                 @ ../std/GD32C2x1_Firmware_Library/GD32C2x1_standard_peripheral/Source/gd32c2x1_adc.c:0:1
__arm_cp.2_0:
	.long	1073816584                      @ 0x40012408
.Lcpi_end2:
	.size	__arm_cp.2_0, .Lcpi_end2-__arm_cp.2_0
.Lfunc_end2:
	.size	adc_disable, .Lfunc_end2-adc_disable
	.cfi_endproc
	.cantunwind
	.fnend
                                        @ -- End function
	.section	.text.adc_dma_mode_enable,"ax",%progbits
	.hidden	adc_dma_mode_enable             @ -- Begin function adc_dma_mode_enable
	.globl	adc_dma_mode_enable
	.p2align	2
	.type	adc_dma_mode_enable,%function
	.code	16                              @ @adc_dma_mode_enable
	.thumb_func
adc_dma_mode_enable:
.Lfunc_begin3:
	.loc	4 110 0 is_stmt 1               @ ../std/GD32C2x1_Firmware_Library/GD32C2x1_standard_peripheral/Source/gd32c2x1_adc.c:110:0
	.fnstart
	.cfi_startproc
@ %bb.0:
	ldr	r1, __arm_cp.3_0
.Ltmp9:
	.loc	4 112 14 prologue_end           @ ../std/GD32C2x1_Firmware_Library/GD32C2x1_standard_peripheral/Source/gd32c2x1_adc.c:112:14
	ldr	r0, [r1]
	movw	r2, #256
	orrs	r0, r2
	str	r0, [r1]
	.loc	4 113 1                         @ ../std/GD32C2x1_Firmware_Library/GD32C2x1_standard_peripheral/Source/gd32c2x1_adc.c:113:1
	bx	lr
.Ltmp10:
	.p2align	2
@ %bb.1:
	.loc	4 0 1 is_stmt 0                 @ ../std/GD32C2x1_Firmware_Library/GD32C2x1_standard_peripheral/Source/gd32c2x1_adc.c:0:1
__arm_cp.3_0:
	.long	1073816584                      @ 0x40012408
.Lcpi_end3:
	.size	__arm_cp.3_0, .Lcpi_end3-__arm_cp.3_0
.Lfunc_end3:
	.size	adc_dma_mode_enable, .Lfunc_end3-adc_dma_mode_enable
	.cfi_endproc
	.cantunwind
	.fnend
                                        @ -- End function
	.section	.text.adc_dma_mode_disable,"ax",%progbits
	.hidden	adc_dma_mode_disable            @ -- Begin function adc_dma_mode_disable
	.globl	adc_dma_mode_disable
	.p2align	2
	.type	adc_dma_mode_disable,%function
	.code	16                              @ @adc_dma_mode_disable
	.thumb_func
adc_dma_mode_disable:
.Lfunc_begin4:
	.loc	4 122 0 is_stmt 1               @ ../std/GD32C2x1_Firmware_Library/GD32C2x1_standard_peripheral/Source/gd32c2x1_adc.c:122:0
	.fnstart
	.cfi_startproc
@ %bb.0:
	ldr	r1, __arm_cp.4_0
.Ltmp11:
	.loc	4 124 14 prologue_end           @ ../std/GD32C2x1_Firmware_Library/GD32C2x1_standard_peripheral/Source/gd32c2x1_adc.c:124:14
	ldr	r0, [r1]
	movw	r2, #256
	bics	r0, r2
	str	r0, [r1]
	.loc	4 125 1                         @ ../std/GD32C2x1_Firmware_Library/GD32C2x1_standard_peripheral/Source/gd32c2x1_adc.c:125:1
	bx	lr
.Ltmp12:
	.p2align	2
@ %bb.1:
	.loc	4 0 1 is_stmt 0                 @ ../std/GD32C2x1_Firmware_Library/GD32C2x1_standard_peripheral/Source/gd32c2x1_adc.c:0:1
__arm_cp.4_0:
	.long	1073816584                      @ 0x40012408
.Lcpi_end4:
	.size	__arm_cp.4_0, .Lcpi_end4-__arm_cp.4_0
.Lfunc_end4:
	.size	adc_dma_mode_disable, .Lfunc_end4-adc_dma_mode_disable
	.cfi_endproc
	.cantunwind
	.fnend
                                        @ -- End function
	.section	.text.adc_discontinuous_mode_config,"ax",%progbits
	.hidden	adc_discontinuous_mode_config   @ -- Begin function adc_discontinuous_mode_config
	.globl	adc_discontinuous_mode_config
	.p2align	2
	.type	adc_discontinuous_mode_config,%function
	.code	16                              @ @adc_discontinuous_mode_config
	.thumb_func
adc_discontinuous_mode_config:
.Lfunc_begin5:
	.loc	4 140 0 is_stmt 1               @ ../std/GD32C2x1_Firmware_Library/GD32C2x1_standard_peripheral/Source/gd32c2x1_adc.c:140:0
	.fnstart
	.cfi_startproc
@ %bb.0:
	.pad	#12
	sub	sp, #12
	.cfi_def_cfa_offset 12
	mov	r2, r0
                                        @ kill: def $r0 killed $r1
                                        @ kill: def $r0 killed $r2
	add	r0, sp, #8
	strb	r2, [r0]
	add	r2, sp, #4
	strb	r1, [r2]
	ldr	r2, __arm_cp.5_0
.Ltmp13:
	.loc	4 142 14 prologue_end           @ ../std/GD32C2x1_Firmware_Library/GD32C2x1_standard_peripheral/Source/gd32c2x1_adc.c:142:14
	ldr	r1, [r2]
	movw	r3, #6144
	bics	r1, r3
	str	r1, [r2]
	.loc	4 143 12                        @ ../std/GD32C2x1_Firmware_Library/GD32C2x1_standard_peripheral/Source/gd32c2x1_adc.c:143:12
	ldrb	r0, [r0]
	.loc	4 143 5 is_stmt 0               @ ../std/GD32C2x1_Firmware_Library/GD32C2x1_standard_peripheral/Source/gd32c2x1_adc.c:143:5
	str	r0, [sp]                        @ 4-byte Spill
	cmp	r0, #1
	beq	.LBB5_3
	b	.LBB5_1
.LBB5_1:
	ldr	r0, [sp]                        @ 4-byte Reload
	cmp	r0, #2
	beq	.LBB5_7
	b	.LBB5_2
.LBB5_2:
	ldr	r0, [sp]                        @ 4-byte Reload
	cmp	r0, #4
	beq	.LBB5_8
	b	.LBB5_9
.LBB5_3:
	.loc	4 0 5                           @ ../std/GD32C2x1_Firmware_Library/GD32C2x1_standard_peripheral/Source/gd32c2x1_adc.c:0:5
	ldr	r1, __arm_cp.5_0
.Ltmp14:
	.loc	4 146 18 is_stmt 1              @ ../std/GD32C2x1_Firmware_Library/GD32C2x1_standard_peripheral/Source/gd32c2x1_adc.c:146:18
	ldr	r0, [r1]
	movw	r2, #57344
	bics	r0, r2
	str	r0, [r1]
	add	r0, sp, #4
.Ltmp15:
	.loc	4 147 13                        @ ../std/GD32C2x1_Firmware_Library/GD32C2x1_standard_peripheral/Source/gd32c2x1_adc.c:147:13
	ldrb	r0, [r0]
	.loc	4 147 27 is_stmt 0              @ ../std/GD32C2x1_Firmware_Library/GD32C2x1_standard_peripheral/Source/gd32c2x1_adc.c:147:27
	cmp	r0, #8
	bhi	.LBB5_6
	b	.LBB5_4
.LBB5_4:
	.loc	4 0 27                          @ ../std/GD32C2x1_Firmware_Library/GD32C2x1_standard_peripheral/Source/gd32c2x1_adc.c:0:27
	add	r0, sp, #4
	.loc	4 147 31                        @ ../std/GD32C2x1_Firmware_Library/GD32C2x1_standard_peripheral/Source/gd32c2x1_adc.c:147:31
	ldrb	r0, [r0]
.Ltmp16:
	.loc	4 147 12                        @ ../std/GD32C2x1_Firmware_Library/GD32C2x1_standard_peripheral/Source/gd32c2x1_adc.c:147:12
	cbz	r0, .LBB5_6
	b	.LBB5_5
.LBB5_5:
.Ltmp17:
	.loc	4 148 25 is_stmt 1              @ ../std/GD32C2x1_Firmware_Library/GD32C2x1_standard_peripheral/Source/gd32c2x1_adc.c:148:25
	ldr	r0, [sp, #4]
	lsls	r0, r0, #13
	movw	r1, #8192
	subs	r0, r0, r1
	uxth	r2, r0
	ldr	r1, __arm_cp.5_0
	.loc	4 148 22 is_stmt 0              @ ../std/GD32C2x1_Firmware_Library/GD32C2x1_standard_peripheral/Source/gd32c2x1_adc.c:148:22
	ldr	r0, [r1]
	orrs	r0, r2
	str	r0, [r1]
	.loc	4 149 9 is_stmt 1               @ ../std/GD32C2x1_Firmware_Library/GD32C2x1_standard_peripheral/Source/gd32c2x1_adc.c:149:9
	b	.LBB5_6
.Ltmp18:
.LBB5_6:
	.loc	4 0 9 is_stmt 0                 @ ../std/GD32C2x1_Firmware_Library/GD32C2x1_standard_peripheral/Source/gd32c2x1_adc.c:0:9
	ldr	r1, __arm_cp.5_0
	.loc	4 151 18 is_stmt 1              @ ../std/GD32C2x1_Firmware_Library/GD32C2x1_standard_peripheral/Source/gd32c2x1_adc.c:151:18
	ldr	r0, [r1]
	movw	r2, #2048
	orrs	r0, r2
	str	r0, [r1]
	.loc	4 152 9                         @ ../std/GD32C2x1_Firmware_Library/GD32C2x1_standard_peripheral/Source/gd32c2x1_adc.c:152:9
	b	.LBB5_10
.LBB5_7:
	.loc	4 0 9 is_stmt 0                 @ ../std/GD32C2x1_Firmware_Library/GD32C2x1_standard_peripheral/Source/gd32c2x1_adc.c:0:9
	ldr	r1, __arm_cp.5_0
	.loc	4 155 18 is_stmt 1              @ ../std/GD32C2x1_Firmware_Library/GD32C2x1_standard_peripheral/Source/gd32c2x1_adc.c:155:18
	ldr	r0, [r1]
	movw	r2, #4096
	orrs	r0, r2
	str	r0, [r1]
	.loc	4 156 9                         @ ../std/GD32C2x1_Firmware_Library/GD32C2x1_standard_peripheral/Source/gd32c2x1_adc.c:156:9
	b	.LBB5_10
.LBB5_8:
	b	.LBB5_9
.LBB5_9:
	.loc	4 160 9                         @ ../std/GD32C2x1_Firmware_Library/GD32C2x1_standard_peripheral/Source/gd32c2x1_adc.c:160:9
	b	.LBB5_10
.Ltmp19:
.LBB5_10:
	.loc	4 162 1                         @ ../std/GD32C2x1_Firmware_Library/GD32C2x1_standard_peripheral/Source/gd32c2x1_adc.c:162:1
	add	sp, #12
	bx	lr
.Ltmp20:
	.p2align	2
@ %bb.11:
	.loc	4 0 1 is_stmt 0                 @ ../std/GD32C2x1_Firmware_Library/GD32C2x1_standard_peripheral/Source/gd32c2x1_adc.c:0:1
__arm_cp.5_0:
	.long	1073816580                      @ 0x40012404
.Lcpi_end5:
	.size	__arm_cp.5_0, .Lcpi_end5-__arm_cp.5_0
.Lfunc_end5:
	.size	adc_discontinuous_mode_config, .Lfunc_end5-adc_discontinuous_mode_config
	.cfi_endproc
	.cantunwind
	.fnend
                                        @ -- End function
	.section	.text.adc_special_function_config,"ax",%progbits
	.hidden	adc_special_function_config     @ -- Begin function adc_special_function_config
	.globl	adc_special_function_config
	.p2align	2
	.type	adc_special_function_config,%function
	.code	16                              @ @adc_special_function_config
	.thumb_func
adc_special_function_config:
.Lfunc_begin6:
	.loc	4 176 0 is_stmt 1               @ ../std/GD32C2x1_Firmware_Library/GD32C2x1_standard_peripheral/Source/gd32c2x1_adc.c:176:0
	.fnstart
	.cfi_startproc
@ %bb.0:
	.pad	#8
	sub	sp, #8
	.cfi_def_cfa_offset 8
                                        @ kill: def $r2 killed $r1
	str	r0, [sp, #4]
	mov	r0, sp
	strb	r1, [r0]
.Ltmp21:
	.loc	4 177 18 prologue_end           @ ../std/GD32C2x1_Firmware_Library/GD32C2x1_standard_peripheral/Source/gd32c2x1_adc.c:177:18
	ldrb	r0, [r0]
.Ltmp22:
	.loc	4 177 8 is_stmt 0               @ ../std/GD32C2x1_Firmware_Library/GD32C2x1_standard_peripheral/Source/gd32c2x1_adc.c:177:8
	cmp	r0, #1
	bne	.LBB6_8
	b	.LBB6_1
.LBB6_1:
	.loc	4 0 8                           @ ../std/GD32C2x1_Firmware_Library/GD32C2x1_standard_peripheral/Source/gd32c2x1_adc.c:0:8
	add	r0, sp, #4
.Ltmp23:
	.loc	4 179 12 is_stmt 1              @ ../std/GD32C2x1_Firmware_Library/GD32C2x1_standard_peripheral/Source/gd32c2x1_adc.c:179:12
	ldrb	r0, [r0, #1]
	lsls	r0, r0, #31
	cbz	r0, .LBB6_3
	b	.LBB6_2
.LBB6_2:
	.loc	4 0 12 is_stmt 0                @ ../std/GD32C2x1_Firmware_Library/GD32C2x1_standard_peripheral/Source/gd32c2x1_adc.c:0:12
	ldr	r1, __arm_cp.6_0
.Ltmp24:
	.loc	4 180 22 is_stmt 1              @ ../std/GD32C2x1_Firmware_Library/GD32C2x1_standard_peripheral/Source/gd32c2x1_adc.c:180:22
	ldr	r0, [r1]
	movw	r2, #256
	orrs	r0, r2
	str	r0, [r1]
	.loc	4 181 9                         @ ../std/GD32C2x1_Firmware_Library/GD32C2x1_standard_peripheral/Source/gd32c2x1_adc.c:181:9
	b	.LBB6_3
.Ltmp25:
.LBB6_3:
	.loc	4 0 9 is_stmt 0                 @ ../std/GD32C2x1_Firmware_Library/GD32C2x1_standard_peripheral/Source/gd32c2x1_adc.c:0:9
	add	r0, sp, #4
	.loc	4 183 12 is_stmt 1              @ ../std/GD32C2x1_Firmware_Library/GD32C2x1_standard_peripheral/Source/gd32c2x1_adc.c:183:12
	ldrb	r0, [r0, #1]
	lsls	r0, r0, #29
	cmp	r0, #0
	bpl	.LBB6_5
	b	.LBB6_4
.LBB6_4:
	.loc	4 0 12 is_stmt 0                @ ../std/GD32C2x1_Firmware_Library/GD32C2x1_standard_peripheral/Source/gd32c2x1_adc.c:0:12
	ldr	r1, __arm_cp.6_0
.Ltmp26:
	.loc	4 184 22 is_stmt 1              @ ../std/GD32C2x1_Firmware_Library/GD32C2x1_standard_peripheral/Source/gd32c2x1_adc.c:184:22
	ldr	r0, [r1]
	movw	r2, #1024
	orrs	r0, r2
	str	r0, [r1]
	.loc	4 185 9                         @ ../std/GD32C2x1_Firmware_Library/GD32C2x1_standard_peripheral/Source/gd32c2x1_adc.c:185:9
	b	.LBB6_5
.Ltmp27:
.LBB6_5:
	.loc	4 0 9 is_stmt 0                 @ ../std/GD32C2x1_Firmware_Library/GD32C2x1_standard_peripheral/Source/gd32c2x1_adc.c:0:9
	add	r0, sp, #4
	.loc	4 187 12 is_stmt 1              @ ../std/GD32C2x1_Firmware_Library/GD32C2x1_standard_peripheral/Source/gd32c2x1_adc.c:187:12
	ldrb	r0, [r0]
	lsls	r0, r0, #30
	cmp	r0, #0
	bpl	.LBB6_7
	b	.LBB6_6
.LBB6_6:
	.loc	4 0 12 is_stmt 0                @ ../std/GD32C2x1_Firmware_Library/GD32C2x1_standard_peripheral/Source/gd32c2x1_adc.c:0:12
	ldr	r1, __arm_cp.6_1
.Ltmp28:
	.loc	4 188 22 is_stmt 1              @ ../std/GD32C2x1_Firmware_Library/GD32C2x1_standard_peripheral/Source/gd32c2x1_adc.c:188:22
	ldr	r0, [r1]
	movs	r2, #2
	orrs	r0, r2
	str	r0, [r1]
	.loc	4 189 9                         @ ../std/GD32C2x1_Firmware_Library/GD32C2x1_standard_peripheral/Source/gd32c2x1_adc.c:189:9
	b	.LBB6_7
.Ltmp29:
.LBB6_7:
	.loc	4 190 5                         @ ../std/GD32C2x1_Firmware_Library/GD32C2x1_standard_peripheral/Source/gd32c2x1_adc.c:190:5
	b	.LBB6_15
.Ltmp30:
.LBB6_8:
	.loc	4 0 5 is_stmt 0                 @ ../std/GD32C2x1_Firmware_Library/GD32C2x1_standard_peripheral/Source/gd32c2x1_adc.c:0:5
	add	r0, sp, #4
.Ltmp31:
	.loc	4 192 12 is_stmt 1              @ ../std/GD32C2x1_Firmware_Library/GD32C2x1_standard_peripheral/Source/gd32c2x1_adc.c:192:12
	ldrb	r0, [r0, #1]
	lsls	r0, r0, #31
	cbz	r0, .LBB6_10
	b	.LBB6_9
.LBB6_9:
	.loc	4 0 12 is_stmt 0                @ ../std/GD32C2x1_Firmware_Library/GD32C2x1_standard_peripheral/Source/gd32c2x1_adc.c:0:12
	ldr	r1, __arm_cp.6_0
.Ltmp32:
	.loc	4 193 22 is_stmt 1              @ ../std/GD32C2x1_Firmware_Library/GD32C2x1_standard_peripheral/Source/gd32c2x1_adc.c:193:22
	ldr	r0, [r1]
	movw	r2, #256
	bics	r0, r2
	str	r0, [r1]
	.loc	4 194 9                         @ ../std/GD32C2x1_Firmware_Library/GD32C2x1_standard_peripheral/Source/gd32c2x1_adc.c:194:9
	b	.LBB6_10
.Ltmp33:
.LBB6_10:
	.loc	4 0 9 is_stmt 0                 @ ../std/GD32C2x1_Firmware_Library/GD32C2x1_standard_peripheral/Source/gd32c2x1_adc.c:0:9
	add	r0, sp, #4
	.loc	4 196 12 is_stmt 1              @ ../std/GD32C2x1_Firmware_Library/GD32C2x1_standard_peripheral/Source/gd32c2x1_adc.c:196:12
	ldrb	r0, [r0, #1]
	lsls	r0, r0, #29
	cmp	r0, #0
	bpl	.LBB6_12
	b	.LBB6_11
.LBB6_11:
	.loc	4 0 12 is_stmt 0                @ ../std/GD32C2x1_Firmware_Library/GD32C2x1_standard_peripheral/Source/gd32c2x1_adc.c:0:12
	ldr	r1, __arm_cp.6_0
.Ltmp34:
	.loc	4 197 22 is_stmt 1              @ ../std/GD32C2x1_Firmware_Library/GD32C2x1_standard_peripheral/Source/gd32c2x1_adc.c:197:22
	ldr	r0, [r1]
	movw	r2, #1024
	bics	r0, r2
	str	r0, [r1]
	.loc	4 198 9                         @ ../std/GD32C2x1_Firmware_Library/GD32C2x1_standard_peripheral/Source/gd32c2x1_adc.c:198:9
	b	.LBB6_12
.Ltmp35:
.LBB6_12:
	.loc	4 0 9 is_stmt 0                 @ ../std/GD32C2x1_Firmware_Library/GD32C2x1_standard_peripheral/Source/gd32c2x1_adc.c:0:9
	add	r0, sp, #4
	.loc	4 200 12 is_stmt 1              @ ../std/GD32C2x1_Firmware_Library/GD32C2x1_standard_peripheral/Source/gd32c2x1_adc.c:200:12
	ldrb	r0, [r0]
	lsls	r0, r0, #30
	cmp	r0, #0
	bpl	.LBB6_14
	b	.LBB6_13
.LBB6_13:
	.loc	4 0 12 is_stmt 0                @ ../std/GD32C2x1_Firmware_Library/GD32C2x1_standard_peripheral/Source/gd32c2x1_adc.c:0:12
	ldr	r1, __arm_cp.6_1
.Ltmp36:
	.loc	4 201 22 is_stmt 1              @ ../std/GD32C2x1_Firmware_Library/GD32C2x1_standard_peripheral/Source/gd32c2x1_adc.c:201:22
	ldr	r0, [r1]
	movs	r2, #2
	bics	r0, r2
	str	r0, [r1]
	.loc	4 202 9                         @ ../std/GD32C2x1_Firmware_Library/GD32C2x1_standard_peripheral/Source/gd32c2x1_adc.c:202:9
	b	.LBB6_14
.Ltmp37:
.LBB6_14:
	.loc	4 0 9 is_stmt 0                 @ ../std/GD32C2x1_Firmware_Library/GD32C2x1_standard_peripheral/Source/gd32c2x1_adc.c:0:9
	b	.LBB6_15
.LBB6_15:
	.loc	4 204 1 is_stmt 1               @ ../std/GD32C2x1_Firmware_Library/GD32C2x1_standard_peripheral/Source/gd32c2x1_adc.c:204:1
	add	sp, #8
	bx	lr
.Ltmp38:
	.p2align	2
@ %bb.16:
	.loc	4 0 1 is_stmt 0                 @ ../std/GD32C2x1_Firmware_Library/GD32C2x1_standard_peripheral/Source/gd32c2x1_adc.c:0:1
__arm_cp.6_0:
	.long	1073816580                      @ 0x40012404
.Lcpi_end6:
	.size	__arm_cp.6_0, .Lcpi_end6-__arm_cp.6_0
__arm_cp.6_1:
	.long	1073816584                      @ 0x40012408
.Lcpi_end7:
	.size	__arm_cp.6_1, .Lcpi_end7-__arm_cp.6_1
.Lfunc_end6:
	.size	adc_special_function_config, .Lfunc_end6-adc_special_function_config
	.cfi_endproc
	.cantunwind
	.fnend
                                        @ -- End function
	.section	.text.adc_internal_channel_config,"ax",%progbits
	.hidden	adc_internal_channel_config     @ -- Begin function adc_internal_channel_config
	.globl	adc_internal_channel_config
	.p2align	2
	.type	adc_internal_channel_config,%function
	.code	16                              @ @adc_internal_channel_config
	.thumb_func
adc_internal_channel_config:
.Lfunc_begin7:
	.loc	4 217 0 is_stmt 1               @ ../std/GD32C2x1_Firmware_Library/GD32C2x1_standard_peripheral/Source/gd32c2x1_adc.c:217:0
	.fnstart
	.cfi_startproc
@ %bb.0:
	.pad	#8
	sub	sp, #8
	.cfi_def_cfa_offset 8
                                        @ kill: def $r2 killed $r1
	str	r0, [sp, #4]
	mov	r0, sp
	strb	r1, [r0]
.Ltmp39:
	.loc	4 218 18 prologue_end           @ ../std/GD32C2x1_Firmware_Library/GD32C2x1_standard_peripheral/Source/gd32c2x1_adc.c:218:18
	ldrb	r0, [r0]
.Ltmp40:
	.loc	4 218 8 is_stmt 0               @ ../std/GD32C2x1_Firmware_Library/GD32C2x1_standard_peripheral/Source/gd32c2x1_adc.c:218:8
	cmp	r0, #1
	bne	.LBB7_2
	b	.LBB7_1
.LBB7_1:
.Ltmp41:
	.loc	4 219 32 is_stmt 1              @ ../std/GD32C2x1_Firmware_Library/GD32C2x1_standard_peripheral/Source/gd32c2x1_adc.c:219:32
	ldr	r2, [sp, #4]
	movs	r0, #3
	lsls	r0, r0, #23
	.loc	4 219 49 is_stmt 0              @ ../std/GD32C2x1_Firmware_Library/GD32C2x1_standard_peripheral/Source/gd32c2x1_adc.c:219:49
	ands	r2, r0
	ldr	r1, __arm_cp.7_1
	.loc	4 219 18                        @ ../std/GD32C2x1_Firmware_Library/GD32C2x1_standard_peripheral/Source/gd32c2x1_adc.c:219:18
	ldr	r0, [r1]
	orrs	r0, r2
	str	r0, [r1]
	.loc	4 220 5 is_stmt 1               @ ../std/GD32C2x1_Firmware_Library/GD32C2x1_standard_peripheral/Source/gd32c2x1_adc.c:220:5
	b	.LBB7_3
.Ltmp42:
.LBB7_2:
	.loc	4 221 33                        @ ../std/GD32C2x1_Firmware_Library/GD32C2x1_standard_peripheral/Source/gd32c2x1_adc.c:221:33
	ldr	r0, [sp, #4]
	mvns	r2, r0
	ldr	r0, __arm_cp.7_0
	.loc	4 221 21 is_stmt 0              @ ../std/GD32C2x1_Firmware_Library/GD32C2x1_standard_peripheral/Source/gd32c2x1_adc.c:221:21
	orrs	r2, r0
	ldr	r1, __arm_cp.7_1
	.loc	4 221 18                        @ ../std/GD32C2x1_Firmware_Library/GD32C2x1_standard_peripheral/Source/gd32c2x1_adc.c:221:18
	ldr	r0, [r1]
	ands	r0, r2
	str	r0, [r1]
	b	.LBB7_3
.Ltmp43:
.LBB7_3:
	.loc	4 223 1 is_stmt 1               @ ../std/GD32C2x1_Firmware_Library/GD32C2x1_standard_peripheral/Source/gd32c2x1_adc.c:223:1
	add	sp, #8
	bx	lr
.Ltmp44:
	.p2align	2
@ %bb.4:
	.loc	4 0 1 is_stmt 0                 @ ../std/GD32C2x1_Firmware_Library/GD32C2x1_standard_peripheral/Source/gd32c2x1_adc.c:0:1
__arm_cp.7_0:
	.long	4269801471                      @ 0xfe7fffff
.Lcpi_end8:
	.size	__arm_cp.7_0, .Lcpi_end8-__arm_cp.7_0
__arm_cp.7_1:
	.long	1073816584                      @ 0x40012408
.Lcpi_end9:
	.size	__arm_cp.7_1, .Lcpi_end9-__arm_cp.7_1
.Lfunc_end7:
	.size	adc_internal_channel_config, .Lfunc_end7-adc_internal_channel_config
	.cfi_endproc
	.cantunwind
	.fnend
                                        @ -- End function
	.section	.text.adc_data_alignment_config,"ax",%progbits
	.hidden	adc_data_alignment_config       @ -- Begin function adc_data_alignment_config
	.globl	adc_data_alignment_config
	.p2align	2
	.type	adc_data_alignment_config,%function
	.code	16                              @ @adc_data_alignment_config
	.thumb_func
adc_data_alignment_config:
.Lfunc_begin8:
	.loc	4 235 0 is_stmt 1               @ ../std/GD32C2x1_Firmware_Library/GD32C2x1_standard_peripheral/Source/gd32c2x1_adc.c:235:0
	.fnstart
	.cfi_startproc
@ %bb.0:
	.pad	#4
	sub	sp, #4
	.cfi_def_cfa_offset 4
	str	r0, [sp]
.Ltmp45:
	.loc	4 236 31 prologue_end           @ ../std/GD32C2x1_Firmware_Library/GD32C2x1_standard_peripheral/Source/gd32c2x1_adc.c:236:31
	ldr	r0, [sp]
.Ltmp46:
	.loc	4 236 8 is_stmt 0               @ ../std/GD32C2x1_Firmware_Library/GD32C2x1_standard_peripheral/Source/gd32c2x1_adc.c:236:8
	cbz	r0, .LBB8_2
	b	.LBB8_1
.LBB8_1:
	.loc	4 0 8                           @ ../std/GD32C2x1_Firmware_Library/GD32C2x1_standard_peripheral/Source/gd32c2x1_adc.c:0:8
	ldr	r1, __arm_cp.8_0
.Ltmp47:
	.loc	4 238 18 is_stmt 1              @ ../std/GD32C2x1_Firmware_Library/GD32C2x1_standard_peripheral/Source/gd32c2x1_adc.c:238:18
	ldr	r0, [r1]
	movw	r2, #2048
	orrs	r0, r2
	str	r0, [r1]
	.loc	4 239 5                         @ ../std/GD32C2x1_Firmware_Library/GD32C2x1_standard_peripheral/Source/gd32c2x1_adc.c:239:5
	b	.LBB8_3
.Ltmp48:
.LBB8_2:
	.loc	4 0 5 is_stmt 0                 @ ../std/GD32C2x1_Firmware_Library/GD32C2x1_standard_peripheral/Source/gd32c2x1_adc.c:0:5
	ldr	r1, __arm_cp.8_0
.Ltmp49:
	.loc	4 241 18 is_stmt 1              @ ../std/GD32C2x1_Firmware_Library/GD32C2x1_standard_peripheral/Source/gd32c2x1_adc.c:241:18
	ldr	r0, [r1]
	movw	r2, #2048
	bics	r0, r2
	str	r0, [r1]
	b	.LBB8_3
.Ltmp50:
.LBB8_3:
	.loc	4 243 1                         @ ../std/GD32C2x1_Firmware_Library/GD32C2x1_standard_peripheral/Source/gd32c2x1_adc.c:243:1
	add	sp, #4
	bx	lr
.Ltmp51:
	.p2align	2
@ %bb.4:
	.loc	4 0 1 is_stmt 0                 @ ../std/GD32C2x1_Firmware_Library/GD32C2x1_standard_peripheral/Source/gd32c2x1_adc.c:0:1
__arm_cp.8_0:
	.long	1073816584                      @ 0x40012408
.Lcpi_end10:
	.size	__arm_cp.8_0, .Lcpi_end10-__arm_cp.8_0
.Lfunc_end8:
	.size	adc_data_alignment_config, .Lfunc_end8-adc_data_alignment_config
	.cfi_endproc
	.cantunwind
	.fnend
                                        @ -- End function
	.section	.text.adc_channel_length_config,"ax",%progbits
	.hidden	adc_channel_length_config       @ -- Begin function adc_channel_length_config
	.globl	adc_channel_length_config
	.p2align	2
	.type	adc_channel_length_config,%function
	.code	16                              @ @adc_channel_length_config
	.thumb_func
adc_channel_length_config:
.Lfunc_begin9:
	.loc	4 258 0 is_stmt 1               @ ../std/GD32C2x1_Firmware_Library/GD32C2x1_standard_peripheral/Source/gd32c2x1_adc.c:258:0
	.fnstart
	.cfi_startproc
@ %bb.0:
	.pad	#12
	sub	sp, #12
	.cfi_def_cfa_offset 12
	mov	r2, r0
                                        @ kill: def $r0 killed $r2
	add	r0, sp, #8
	strb	r2, [r0]
	str	r1, [sp, #4]
.Ltmp52:
	.loc	4 259 12 prologue_end           @ ../std/GD32C2x1_Firmware_Library/GD32C2x1_standard_peripheral/Source/gd32c2x1_adc.c:259:12
	ldrb	r0, [r0]
	.loc	4 259 5 is_stmt 0               @ ../std/GD32C2x1_Firmware_Library/GD32C2x1_standard_peripheral/Source/gd32c2x1_adc.c:259:5
	str	r0, [sp]                        @ 4-byte Spill
	cmp	r0, #1
	beq	.LBB9_2
	b	.LBB9_1
.LBB9_1:
	ldr	r0, [sp]                        @ 4-byte Reload
	cmp	r0, #2
	beq	.LBB9_6
	b	.LBB9_10
.LBB9_2:
.Ltmp53:
	.loc	4 262 13 is_stmt 1              @ ../std/GD32C2x1_Firmware_Library/GD32C2x1_standard_peripheral/Source/gd32c2x1_adc.c:262:13
	ldr	r0, [sp, #4]
	.loc	4 262 27 is_stmt 0              @ ../std/GD32C2x1_Firmware_Library/GD32C2x1_standard_peripheral/Source/gd32c2x1_adc.c:262:27
	cbz	r0, .LBB9_5
	b	.LBB9_3
.LBB9_3:
	.loc	4 262 31                        @ ../std/GD32C2x1_Firmware_Library/GD32C2x1_standard_peripheral/Source/gd32c2x1_adc.c:262:31
	ldr	r0, [sp, #4]
.Ltmp54:
	.loc	4 262 12                        @ ../std/GD32C2x1_Firmware_Library/GD32C2x1_standard_peripheral/Source/gd32c2x1_adc.c:262:12
	cmp	r0, #16
	bhi	.LBB9_5
	b	.LBB9_4
.LBB9_4:
	.loc	4 0 12                          @ ../std/GD32C2x1_Firmware_Library/GD32C2x1_standard_peripheral/Source/gd32c2x1_adc.c:0:12
	ldr	r1, __arm_cp.9_2
.Ltmp55:
	.loc	4 263 22 is_stmt 1              @ ../std/GD32C2x1_Firmware_Library/GD32C2x1_standard_peripheral/Source/gd32c2x1_adc.c:263:22
	ldr	r2, [r1]
	movs	r0, #15
	lsls	r0, r0, #20
	bics	r2, r0
	str	r2, [r1]
	.loc	4 264 25                        @ ../std/GD32C2x1_Firmware_Library/GD32C2x1_standard_peripheral/Source/gd32c2x1_adc.c:264:25
	ldr	r2, [sp, #4]
	lsls	r2, r2, #20
	ldr	r3, __arm_cp.9_1
	adds	r2, r2, r3
	ands	r2, r0
	.loc	4 264 22 is_stmt 0              @ ../std/GD32C2x1_Firmware_Library/GD32C2x1_standard_peripheral/Source/gd32c2x1_adc.c:264:22
	ldr	r0, [r1]
	orrs	r0, r2
	str	r0, [r1]
	.loc	4 265 9 is_stmt 1               @ ../std/GD32C2x1_Firmware_Library/GD32C2x1_standard_peripheral/Source/gd32c2x1_adc.c:265:9
	b	.LBB9_5
.Ltmp56:
.LBB9_5:
	.loc	4 266 9                         @ ../std/GD32C2x1_Firmware_Library/GD32C2x1_standard_peripheral/Source/gd32c2x1_adc.c:266:9
	b	.LBB9_11
.LBB9_6:
.Ltmp57:
	.loc	4 269 13                        @ ../std/GD32C2x1_Firmware_Library/GD32C2x1_standard_peripheral/Source/gd32c2x1_adc.c:269:13
	ldr	r0, [sp, #4]
	.loc	4 269 27 is_stmt 0              @ ../std/GD32C2x1_Firmware_Library/GD32C2x1_standard_peripheral/Source/gd32c2x1_adc.c:269:27
	cbz	r0, .LBB9_9
	b	.LBB9_7
.LBB9_7:
	.loc	4 269 31                        @ ../std/GD32C2x1_Firmware_Library/GD32C2x1_standard_peripheral/Source/gd32c2x1_adc.c:269:31
	ldr	r0, [sp, #4]
.Ltmp58:
	.loc	4 269 12                        @ ../std/GD32C2x1_Firmware_Library/GD32C2x1_standard_peripheral/Source/gd32c2x1_adc.c:269:12
	cmp	r0, #4
	bhi	.LBB9_9
	b	.LBB9_8
.LBB9_8:
	.loc	4 0 12                          @ ../std/GD32C2x1_Firmware_Library/GD32C2x1_standard_peripheral/Source/gd32c2x1_adc.c:0:12
	ldr	r1, __arm_cp.9_0
.Ltmp59:
	.loc	4 270 21 is_stmt 1              @ ../std/GD32C2x1_Firmware_Library/GD32C2x1_standard_peripheral/Source/gd32c2x1_adc.c:270:21
	ldr	r2, [r1]
	movs	r0, #3
	lsls	r0, r0, #20
	bics	r2, r0
	str	r2, [r1]
	.loc	4 271 24                        @ ../std/GD32C2x1_Firmware_Library/GD32C2x1_standard_peripheral/Source/gd32c2x1_adc.c:271:24
	ldr	r2, [sp, #4]
	lsls	r2, r2, #20
	ldr	r3, __arm_cp.9_1
	adds	r2, r2, r3
	ands	r2, r0
	.loc	4 271 21 is_stmt 0              @ ../std/GD32C2x1_Firmware_Library/GD32C2x1_standard_peripheral/Source/gd32c2x1_adc.c:271:21
	ldr	r0, [r1]
	orrs	r0, r2
	str	r0, [r1]
	.loc	4 272 9 is_stmt 1               @ ../std/GD32C2x1_Firmware_Library/GD32C2x1_standard_peripheral/Source/gd32c2x1_adc.c:272:9
	b	.LBB9_9
.Ltmp60:
.LBB9_9:
	.loc	4 273 9                         @ ../std/GD32C2x1_Firmware_Library/GD32C2x1_standard_peripheral/Source/gd32c2x1_adc.c:273:9
	b	.LBB9_11
.LBB9_10:
	.loc	4 275 9                         @ ../std/GD32C2x1_Firmware_Library/GD32C2x1_standard_peripheral/Source/gd32c2x1_adc.c:275:9
	b	.LBB9_11
.Ltmp61:
.LBB9_11:
	.loc	4 277 1                         @ ../std/GD32C2x1_Firmware_Library/GD32C2x1_standard_peripheral/Source/gd32c2x1_adc.c:277:1
	add	sp, #12
	bx	lr
.Ltmp62:
	.p2align	2
@ %bb.12:
	.loc	4 0 1 is_stmt 0                 @ ../std/GD32C2x1_Firmware_Library/GD32C2x1_standard_peripheral/Source/gd32c2x1_adc.c:0:1
__arm_cp.9_0:
	.long	1073816632                      @ 0x40012438
.Lcpi_end11:
	.size	__arm_cp.9_0, .Lcpi_end11-__arm_cp.9_0
__arm_cp.9_1:
	.long	4293918720                      @ 0xfff00000
.Lcpi_end12:
	.size	__arm_cp.9_1, .Lcpi_end12-__arm_cp.9_1
__arm_cp.9_2:
	.long	1073816620                      @ 0x4001242c
.Lcpi_end13:
	.size	__arm_cp.9_2, .Lcpi_end13-__arm_cp.9_2
.Lfunc_end9:
	.size	adc_channel_length_config, .Lfunc_end9-adc_channel_length_config
	.cfi_endproc
	.cantunwind
	.fnend
                                        @ -- End function
	.section	.text.adc_routine_channel_config,"ax",%progbits
	.hidden	adc_routine_channel_config      @ -- Begin function adc_routine_channel_config
	.globl	adc_routine_channel_config
	.p2align	2
	.type	adc_routine_channel_config,%function
	.code	16                              @ @adc_routine_channel_config
	.thumb_func
adc_routine_channel_config:
.Lfunc_begin10:
	.loc	4 299 0 is_stmt 1               @ ../std/GD32C2x1_Firmware_Library/GD32C2x1_standard_peripheral/Source/gd32c2x1_adc.c:299:0
	.fnstart
	.cfi_startproc
@ %bb.0:
	.save	{r4, r5, r7, lr}
	push	{r4, r5, r7, lr}
	.cfi_def_cfa_offset 16
	.cfi_offset lr, -4
	.cfi_offset r7, -8
	.cfi_offset r5, -12
	.cfi_offset r4, -16
	.pad	#20
	sub	sp, #20
	.cfi_def_cfa_offset 36
	mov	r3, r0
                                        @ kill: def $r0 killed $r1
                                        @ kill: def $r0 killed $r3
	add	r0, sp, #16
	strb	r3, [r0]
	add	r3, sp, #12
	strb	r1, [r3]
	str	r2, [sp, #8]
.Ltmp63:
	.loc	4 303 8 prologue_end            @ ../std/GD32C2x1_Firmware_Library/GD32C2x1_standard_peripheral/Source/gd32c2x1_adc.c:303:8
	ldrb	r0, [r0]
.Ltmp64:
	.loc	4 303 8 is_stmt 0               @ ../std/GD32C2x1_Firmware_Library/GD32C2x1_standard_peripheral/Source/gd32c2x1_adc.c:303:8
	cmp	r0, #5
	bgt	.LBB10_2
	b	.LBB10_1
.LBB10_1:
	.loc	4 0 8                           @ ../std/GD32C2x1_Firmware_Library/GD32C2x1_standard_peripheral/Source/gd32c2x1_adc.c:0:8
	ldr	r1, __arm_cp.10_2
.Ltmp65:
	.loc	4 305 15 is_stmt 1              @ ../std/GD32C2x1_Firmware_Library/GD32C2x1_standard_peripheral/Source/gd32c2x1_adc.c:305:15
	ldr	r0, [r1]
	.loc	4 305 13 is_stmt 0              @ ../std/GD32C2x1_Firmware_Library/GD32C2x1_standard_peripheral/Source/gd32c2x1_adc.c:305:13
	str	r0, [sp, #4]
	add	r3, sp, #16
	.loc	4 306 82 is_stmt 1              @ ../std/GD32C2x1_Firmware_Library/GD32C2x1_standard_peripheral/Source/gd32c2x1_adc.c:306:82
	ldrb	r4, [r3]
	movs	r0, #5
	.loc	4 306 80 is_stmt 0              @ ../std/GD32C2x1_Firmware_Library/GD32C2x1_standard_peripheral/Source/gd32c2x1_adc.c:306:80
	mov	r2, r0
	muls	r2, r4, r2
	movs	r4, #15
	.loc	4 306 44                        @ ../std/GD32C2x1_Firmware_Library/GD32C2x1_standard_peripheral/Source/gd32c2x1_adc.c:306:44
	mov	r5, r4
	lsls	r5, r2
	.loc	4 306 13                        @ ../std/GD32C2x1_Firmware_Library/GD32C2x1_standard_peripheral/Source/gd32c2x1_adc.c:306:13
	ldr	r2, [sp, #4]
	bics	r2, r5
	str	r2, [sp, #4]
	add	r2, sp, #12
	.loc	4 308 28 is_stmt 1              @ ../std/GD32C2x1_Firmware_Library/GD32C2x1_standard_peripheral/Source/gd32c2x1_adc.c:308:28
	ldrb	r2, [r2]
	.loc	4 308 40 is_stmt 0              @ ../std/GD32C2x1_Firmware_Library/GD32C2x1_standard_peripheral/Source/gd32c2x1_adc.c:308:40
	ands	r2, r4
	.loc	4 308 95                        @ ../std/GD32C2x1_Firmware_Library/GD32C2x1_standard_peripheral/Source/gd32c2x1_adc.c:308:95
	ldrb	r3, [r3]
	.loc	4 308 93                        @ ../std/GD32C2x1_Firmware_Library/GD32C2x1_standard_peripheral/Source/gd32c2x1_adc.c:308:93
	muls	r0, r3, r0
	.loc	4 308 57                        @ ../std/GD32C2x1_Firmware_Library/GD32C2x1_standard_peripheral/Source/gd32c2x1_adc.c:308:57
	lsls	r2, r0
	.loc	4 308 13                        @ ../std/GD32C2x1_Firmware_Library/GD32C2x1_standard_peripheral/Source/gd32c2x1_adc.c:308:13
	ldr	r0, [sp, #4]
	orrs	r0, r2
	str	r0, [sp, #4]
	.loc	4 309 20 is_stmt 1              @ ../std/GD32C2x1_Firmware_Library/GD32C2x1_standard_peripheral/Source/gd32c2x1_adc.c:309:20
	ldr	r0, [sp, #4]
	.loc	4 309 18 is_stmt 0              @ ../std/GD32C2x1_Firmware_Library/GD32C2x1_standard_peripheral/Source/gd32c2x1_adc.c:309:18
	str	r0, [r1]
	.loc	4 310 5 is_stmt 1               @ ../std/GD32C2x1_Firmware_Library/GD32C2x1_standard_peripheral/Source/gd32c2x1_adc.c:310:5
	b	.LBB10_6
.Ltmp66:
.LBB10_2:
	.loc	4 0 5 is_stmt 0                 @ ../std/GD32C2x1_Firmware_Library/GD32C2x1_standard_peripheral/Source/gd32c2x1_adc.c:0:5
	add	r0, sp, #16
.Ltmp67:
	.loc	4 310 15                        @ ../std/GD32C2x1_Firmware_Library/GD32C2x1_standard_peripheral/Source/gd32c2x1_adc.c:310:15
	ldrb	r0, [r0]
.Ltmp68:
	.loc	4 310 15                        @ ../std/GD32C2x1_Firmware_Library/GD32C2x1_standard_peripheral/Source/gd32c2x1_adc.c:310:15
	cmp	r0, #11
	bgt	.LBB10_4
	b	.LBB10_3
.LBB10_3:
	.loc	4 0 15                          @ ../std/GD32C2x1_Firmware_Library/GD32C2x1_standard_peripheral/Source/gd32c2x1_adc.c:0:15
	ldr	r1, __arm_cp.10_1
.Ltmp69:
	.loc	4 312 15 is_stmt 1              @ ../std/GD32C2x1_Firmware_Library/GD32C2x1_standard_peripheral/Source/gd32c2x1_adc.c:312:15
	ldr	r0, [r1]
	.loc	4 312 13 is_stmt 0              @ ../std/GD32C2x1_Firmware_Library/GD32C2x1_standard_peripheral/Source/gd32c2x1_adc.c:312:13
	str	r0, [sp, #4]
	add	r3, sp, #16
	.loc	4 313 82 is_stmt 1              @ ../std/GD32C2x1_Firmware_Library/GD32C2x1_standard_peripheral/Source/gd32c2x1_adc.c:313:82
	ldrb	r4, [r3]
	movs	r0, #5
	.loc	4 313 87 is_stmt 0              @ ../std/GD32C2x1_Firmware_Library/GD32C2x1_standard_peripheral/Source/gd32c2x1_adc.c:313:87
	mov	r2, r0
	muls	r2, r4, r2
	.loc	4 313 79                        @ ../std/GD32C2x1_Firmware_Library/GD32C2x1_standard_peripheral/Source/gd32c2x1_adc.c:313:79
	subs	r2, #30
	movs	r4, #15
	.loc	4 313 43                        @ ../std/GD32C2x1_Firmware_Library/GD32C2x1_standard_peripheral/Source/gd32c2x1_adc.c:313:43
	mov	r5, r4
	lsls	r5, r2
	.loc	4 313 13                        @ ../std/GD32C2x1_Firmware_Library/GD32C2x1_standard_peripheral/Source/gd32c2x1_adc.c:313:13
	ldr	r2, [sp, #4]
	bics	r2, r5
	str	r2, [sp, #4]
	add	r2, sp, #12
	.loc	4 315 28 is_stmt 1              @ ../std/GD32C2x1_Firmware_Library/GD32C2x1_standard_peripheral/Source/gd32c2x1_adc.c:315:28
	ldrb	r2, [r2]
	.loc	4 315 40 is_stmt 0              @ ../std/GD32C2x1_Firmware_Library/GD32C2x1_standard_peripheral/Source/gd32c2x1_adc.c:315:40
	ands	r2, r4
	.loc	4 315 96                        @ ../std/GD32C2x1_Firmware_Library/GD32C2x1_standard_peripheral/Source/gd32c2x1_adc.c:315:96
	ldrb	r3, [r3]
	.loc	4 315 101                       @ ../std/GD32C2x1_Firmware_Library/GD32C2x1_standard_peripheral/Source/gd32c2x1_adc.c:315:101
	muls	r0, r3, r0
	.loc	4 315 93                        @ ../std/GD32C2x1_Firmware_Library/GD32C2x1_standard_peripheral/Source/gd32c2x1_adc.c:315:93
	subs	r0, #30
	.loc	4 315 57                        @ ../std/GD32C2x1_Firmware_Library/GD32C2x1_standard_peripheral/Source/gd32c2x1_adc.c:315:57
	lsls	r2, r0
	.loc	4 315 13                        @ ../std/GD32C2x1_Firmware_Library/GD32C2x1_standard_peripheral/Source/gd32c2x1_adc.c:315:13
	ldr	r0, [sp, #4]
	orrs	r0, r2
	str	r0, [sp, #4]
	.loc	4 316 20 is_stmt 1              @ ../std/GD32C2x1_Firmware_Library/GD32C2x1_standard_peripheral/Source/gd32c2x1_adc.c:316:20
	ldr	r0, [sp, #4]
	.loc	4 316 18 is_stmt 0              @ ../std/GD32C2x1_Firmware_Library/GD32C2x1_standard_peripheral/Source/gd32c2x1_adc.c:316:18
	str	r0, [r1]
	.loc	4 317 5 is_stmt 1               @ ../std/GD32C2x1_Firmware_Library/GD32C2x1_standard_peripheral/Source/gd32c2x1_adc.c:317:5
	b	.LBB10_5
.Ltmp70:
.LBB10_4:
	.loc	4 0 5 is_stmt 0                 @ ../std/GD32C2x1_Firmware_Library/GD32C2x1_standard_peripheral/Source/gd32c2x1_adc.c:0:5
	ldr	r1, __arm_cp.10_0
.Ltmp71:
	.loc	4 319 15 is_stmt 1              @ ../std/GD32C2x1_Firmware_Library/GD32C2x1_standard_peripheral/Source/gd32c2x1_adc.c:319:15
	ldr	r0, [r1]
	.loc	4 319 13 is_stmt 0              @ ../std/GD32C2x1_Firmware_Library/GD32C2x1_standard_peripheral/Source/gd32c2x1_adc.c:319:13
	str	r0, [sp, #4]
	add	r3, sp, #16
	.loc	4 320 82 is_stmt 1              @ ../std/GD32C2x1_Firmware_Library/GD32C2x1_standard_peripheral/Source/gd32c2x1_adc.c:320:82
	ldrb	r4, [r3]
	movs	r0, #5
	.loc	4 320 87 is_stmt 0              @ ../std/GD32C2x1_Firmware_Library/GD32C2x1_standard_peripheral/Source/gd32c2x1_adc.c:320:87
	mov	r2, r0
	muls	r2, r4, r2
	.loc	4 320 79                        @ ../std/GD32C2x1_Firmware_Library/GD32C2x1_standard_peripheral/Source/gd32c2x1_adc.c:320:79
	subs	r2, #60
	movs	r4, #15
	.loc	4 320 43                        @ ../std/GD32C2x1_Firmware_Library/GD32C2x1_standard_peripheral/Source/gd32c2x1_adc.c:320:43
	mov	r5, r4
	lsls	r5, r2
	.loc	4 320 13                        @ ../std/GD32C2x1_Firmware_Library/GD32C2x1_standard_peripheral/Source/gd32c2x1_adc.c:320:13
	ldr	r2, [sp, #4]
	bics	r2, r5
	str	r2, [sp, #4]
	add	r2, sp, #12
	.loc	4 322 28 is_stmt 1              @ ../std/GD32C2x1_Firmware_Library/GD32C2x1_standard_peripheral/Source/gd32c2x1_adc.c:322:28
	ldrb	r2, [r2]
	.loc	4 322 40 is_stmt 0              @ ../std/GD32C2x1_Firmware_Library/GD32C2x1_standard_peripheral/Source/gd32c2x1_adc.c:322:40
	ands	r2, r4
	.loc	4 322 96                        @ ../std/GD32C2x1_Firmware_Library/GD32C2x1_standard_peripheral/Source/gd32c2x1_adc.c:322:96
	ldrb	r3, [r3]
	.loc	4 322 101                       @ ../std/GD32C2x1_Firmware_Library/GD32C2x1_standard_peripheral/Source/gd32c2x1_adc.c:322:101
	muls	r0, r3, r0
	.loc	4 322 93                        @ ../std/GD32C2x1_Firmware_Library/GD32C2x1_standard_peripheral/Source/gd32c2x1_adc.c:322:93
	subs	r0, #60
	.loc	4 322 57                        @ ../std/GD32C2x1_Firmware_Library/GD32C2x1_standard_peripheral/Source/gd32c2x1_adc.c:322:57
	lsls	r2, r0
	.loc	4 322 13                        @ ../std/GD32C2x1_Firmware_Library/GD32C2x1_standard_peripheral/Source/gd32c2x1_adc.c:322:13
	ldr	r0, [sp, #4]
	orrs	r0, r2
	str	r0, [sp, #4]
	.loc	4 323 20 is_stmt 1              @ ../std/GD32C2x1_Firmware_Library/GD32C2x1_standard_peripheral/Source/gd32c2x1_adc.c:323:20
	ldr	r0, [sp, #4]
	.loc	4 323 18 is_stmt 0              @ ../std/GD32C2x1_Firmware_Library/GD32C2x1_standard_peripheral/Source/gd32c2x1_adc.c:323:18
	str	r0, [r1]
	b	.LBB10_5
.Ltmp72:
.LBB10_5:
	.loc	4 0 18                          @ ../std/GD32C2x1_Firmware_Library/GD32C2x1_standard_peripheral/Source/gd32c2x1_adc.c:0:18
	b	.LBB10_6
.LBB10_6:
	add	r0, sp, #12
.Ltmp73:
	.loc	4 327 8 is_stmt 1               @ ../std/GD32C2x1_Firmware_Library/GD32C2x1_standard_peripheral/Source/gd32c2x1_adc.c:327:8
	ldrb	r0, [r0]
.Ltmp74:
	.loc	4 327 8 is_stmt 0               @ ../std/GD32C2x1_Firmware_Library/GD32C2x1_standard_peripheral/Source/gd32c2x1_adc.c:327:8
	cmp	r0, #9
	bgt	.LBB10_8
	b	.LBB10_7
.LBB10_7:
	.loc	4 0 8                           @ ../std/GD32C2x1_Firmware_Library/GD32C2x1_standard_peripheral/Source/gd32c2x1_adc.c:0:8
	ldr	r1, __arm_cp.10_4
.Ltmp75:
	.loc	4 329 17 is_stmt 1              @ ../std/GD32C2x1_Firmware_Library/GD32C2x1_standard_peripheral/Source/gd32c2x1_adc.c:329:17
	ldr	r0, [r1]
	.loc	4 329 15 is_stmt 0              @ ../std/GD32C2x1_Firmware_Library/GD32C2x1_standard_peripheral/Source/gd32c2x1_adc.c:329:15
	str	r0, [sp]
	add	r3, sp, #12
	.loc	4 330 79 is_stmt 1              @ ../std/GD32C2x1_Firmware_Library/GD32C2x1_standard_peripheral/Source/gd32c2x1_adc.c:330:79
	ldrb	r4, [r3]
	movs	r0, #3
	.loc	4 330 77 is_stmt 0              @ ../std/GD32C2x1_Firmware_Library/GD32C2x1_standard_peripheral/Source/gd32c2x1_adc.c:330:77
	mov	r2, r0
	muls	r2, r4, r2
	movs	r4, #7
	.loc	4 330 47                        @ ../std/GD32C2x1_Firmware_Library/GD32C2x1_standard_peripheral/Source/gd32c2x1_adc.c:330:47
	mov	r5, r4
	lsls	r5, r2
	.loc	4 330 15                        @ ../std/GD32C2x1_Firmware_Library/GD32C2x1_standard_peripheral/Source/gd32c2x1_adc.c:330:15
	ldr	r2, [sp]
	bics	r2, r5
	str	r2, [sp]
	.loc	4 332 30 is_stmt 1              @ ../std/GD32C2x1_Firmware_Library/GD32C2x1_standard_peripheral/Source/gd32c2x1_adc.c:332:30
	ldr	r2, [sp, #8]
	.loc	4 332 42 is_stmt 0              @ ../std/GD32C2x1_Firmware_Library/GD32C2x1_standard_peripheral/Source/gd32c2x1_adc.c:332:42
	ands	r2, r4
	.loc	4 332 93                        @ ../std/GD32C2x1_Firmware_Library/GD32C2x1_standard_peripheral/Source/gd32c2x1_adc.c:332:93
	ldrb	r3, [r3]
	.loc	4 332 91                        @ ../std/GD32C2x1_Firmware_Library/GD32C2x1_standard_peripheral/Source/gd32c2x1_adc.c:332:91
	muls	r0, r3, r0
	.loc	4 332 61                        @ ../std/GD32C2x1_Firmware_Library/GD32C2x1_standard_peripheral/Source/gd32c2x1_adc.c:332:61
	lsls	r2, r0
	.loc	4 332 15                        @ ../std/GD32C2x1_Firmware_Library/GD32C2x1_standard_peripheral/Source/gd32c2x1_adc.c:332:15
	ldr	r0, [sp]
	orrs	r0, r2
	str	r0, [sp]
	.loc	4 333 22 is_stmt 1              @ ../std/GD32C2x1_Firmware_Library/GD32C2x1_standard_peripheral/Source/gd32c2x1_adc.c:333:22
	ldr	r0, [sp]
	.loc	4 333 20 is_stmt 0              @ ../std/GD32C2x1_Firmware_Library/GD32C2x1_standard_peripheral/Source/gd32c2x1_adc.c:333:20
	str	r0, [r1]
	.loc	4 334 5 is_stmt 1               @ ../std/GD32C2x1_Firmware_Library/GD32C2x1_standard_peripheral/Source/gd32c2x1_adc.c:334:5
	b	.LBB10_9
.Ltmp76:
.LBB10_8:
	.loc	4 0 5 is_stmt 0                 @ ../std/GD32C2x1_Firmware_Library/GD32C2x1_standard_peripheral/Source/gd32c2x1_adc.c:0:5
	ldr	r1, __arm_cp.10_3
.Ltmp77:
	.loc	4 336 17 is_stmt 1              @ ../std/GD32C2x1_Firmware_Library/GD32C2x1_standard_peripheral/Source/gd32c2x1_adc.c:336:17
	ldr	r0, [r1]
	.loc	4 336 15 is_stmt 0              @ ../std/GD32C2x1_Firmware_Library/GD32C2x1_standard_peripheral/Source/gd32c2x1_adc.c:336:15
	str	r0, [sp]
	add	r3, sp, #12
	.loc	4 337 80 is_stmt 1              @ ../std/GD32C2x1_Firmware_Library/GD32C2x1_standard_peripheral/Source/gd32c2x1_adc.c:337:80
	ldrb	r4, [r3]
	movs	r0, #3
	.loc	4 337 92 is_stmt 0              @ ../std/GD32C2x1_Firmware_Library/GD32C2x1_standard_peripheral/Source/gd32c2x1_adc.c:337:92
	mov	r2, r0
	muls	r2, r4, r2
	.loc	4 337 77                        @ ../std/GD32C2x1_Firmware_Library/GD32C2x1_standard_peripheral/Source/gd32c2x1_adc.c:337:77
	subs	r2, #30
	movs	r4, #7
	.loc	4 337 47                        @ ../std/GD32C2x1_Firmware_Library/GD32C2x1_standard_peripheral/Source/gd32c2x1_adc.c:337:47
	mov	r5, r4
	lsls	r5, r2
	.loc	4 337 15                        @ ../std/GD32C2x1_Firmware_Library/GD32C2x1_standard_peripheral/Source/gd32c2x1_adc.c:337:15
	ldr	r2, [sp]
	bics	r2, r5
	str	r2, [sp]
	.loc	4 339 30 is_stmt 1              @ ../std/GD32C2x1_Firmware_Library/GD32C2x1_standard_peripheral/Source/gd32c2x1_adc.c:339:30
	ldr	r2, [sp, #8]
	.loc	4 339 42 is_stmt 0              @ ../std/GD32C2x1_Firmware_Library/GD32C2x1_standard_peripheral/Source/gd32c2x1_adc.c:339:42
	ands	r2, r4
	.loc	4 339 94                        @ ../std/GD32C2x1_Firmware_Library/GD32C2x1_standard_peripheral/Source/gd32c2x1_adc.c:339:94
	ldrb	r3, [r3]
	.loc	4 339 106                       @ ../std/GD32C2x1_Firmware_Library/GD32C2x1_standard_peripheral/Source/gd32c2x1_adc.c:339:106
	muls	r0, r3, r0
	.loc	4 339 91                        @ ../std/GD32C2x1_Firmware_Library/GD32C2x1_standard_peripheral/Source/gd32c2x1_adc.c:339:91
	subs	r0, #30
	.loc	4 339 61                        @ ../std/GD32C2x1_Firmware_Library/GD32C2x1_standard_peripheral/Source/gd32c2x1_adc.c:339:61
	lsls	r2, r0
	.loc	4 339 15                        @ ../std/GD32C2x1_Firmware_Library/GD32C2x1_standard_peripheral/Source/gd32c2x1_adc.c:339:15
	ldr	r0, [sp]
	orrs	r0, r2
	str	r0, [sp]
	.loc	4 340 22 is_stmt 1              @ ../std/GD32C2x1_Firmware_Library/GD32C2x1_standard_peripheral/Source/gd32c2x1_adc.c:340:22
	ldr	r0, [sp]
	.loc	4 340 20 is_stmt 0              @ ../std/GD32C2x1_Firmware_Library/GD32C2x1_standard_peripheral/Source/gd32c2x1_adc.c:340:20
	str	r0, [r1]
	b	.LBB10_9
.Ltmp78:
.LBB10_9:
	.loc	4 342 1 is_stmt 1               @ ../std/GD32C2x1_Firmware_Library/GD32C2x1_standard_peripheral/Source/gd32c2x1_adc.c:342:1
	add	sp, #20
	pop	{r4, r5, r7, pc}
.Ltmp79:
	.p2align	2
@ %bb.10:
	.loc	4 0 1 is_stmt 0                 @ ../std/GD32C2x1_Firmware_Library/GD32C2x1_standard_peripheral/Source/gd32c2x1_adc.c:0:1
__arm_cp.10_0:
	.long	1073816620                      @ 0x4001242c
.Lcpi_end14:
	.size	__arm_cp.10_0, .Lcpi_end14-__arm_cp.10_0
__arm_cp.10_1:
	.long	1073816624                      @ 0x40012430
.Lcpi_end15:
	.size	__arm_cp.10_1, .Lcpi_end15-__arm_cp.10_1
__arm_cp.10_2:
	.long	1073816628                      @ 0x40012434
.Lcpi_end16:
	.size	__arm_cp.10_2, .Lcpi_end16-__arm_cp.10_2
__arm_cp.10_3:
	.long	1073816588                      @ 0x4001240c
.Lcpi_end17:
	.size	__arm_cp.10_3, .Lcpi_end17-__arm_cp.10_3
__arm_cp.10_4:
	.long	1073816592                      @ 0x40012410
.Lcpi_end18:
	.size	__arm_cp.10_4, .Lcpi_end18-__arm_cp.10_4
.Lfunc_end10:
	.size	adc_routine_channel_config, .Lfunc_end10-adc_routine_channel_config
	.cfi_endproc
	.cantunwind
	.fnend
                                        @ -- End function
	.section	.text.adc_inserted_channel_config,"ax",%progbits
	.hidden	adc_inserted_channel_config     @ -- Begin function adc_inserted_channel_config
	.globl	adc_inserted_channel_config
	.p2align	2
	.type	adc_inserted_channel_config,%function
	.code	16                              @ @adc_inserted_channel_config
	.thumb_func
adc_inserted_channel_config:
.Lfunc_begin11:
	.loc	4 364 0 is_stmt 1               @ ../std/GD32C2x1_Firmware_Library/GD32C2x1_standard_peripheral/Source/gd32c2x1_adc.c:364:0
	.fnstart
	.cfi_startproc
@ %bb.0:
	.save	{r4, r5, r6, lr}
	push	{r4, r5, r6, lr}
	.cfi_def_cfa_offset 16
	.cfi_offset lr, -4
	.cfi_offset r6, -8
	.cfi_offset r5, -12
	.cfi_offset r4, -16
	.pad	#24
	sub	sp, #24
	.cfi_def_cfa_offset 40
	mov	r3, r0
                                        @ kill: def $r0 killed $r1
                                        @ kill: def $r0 killed $r3
	add	r0, sp, #20
	strb	r3, [r0]
	add	r3, sp, #16
	strb	r1, [r3]
	str	r2, [sp, #12]
	ldr	r1, __arm_cp.11_0
.Ltmp80:
	.loc	4 369 32 prologue_end           @ ../std/GD32C2x1_Firmware_Library/GD32C2x1_standard_peripheral/Source/gd32c2x1_adc.c:369:32
	ldr	r1, [r1]
	movs	r2, #3
	lsls	r2, r2, #20
	ands	r1, r2
	lsrs	r1, r1, #20
	add	r2, sp, #8
	.loc	4 369 21 is_stmt 0              @ ../std/GD32C2x1_Firmware_Library/GD32C2x1_standard_peripheral/Source/gd32c2x1_adc.c:369:21
	strb	r1, [r2]
.Ltmp81:
	.loc	4 371 8 is_stmt 1               @ ../std/GD32C2x1_Firmware_Library/GD32C2x1_standard_peripheral/Source/gd32c2x1_adc.c:371:8
	ldrb	r0, [r0]
.Ltmp82:
	.loc	4 371 8 is_stmt 0               @ ../std/GD32C2x1_Firmware_Library/GD32C2x1_standard_peripheral/Source/gd32c2x1_adc.c:371:8
	cmp	r0, #3
	bhi	.LBB11_2
	b	.LBB11_1
.LBB11_1:
	.loc	4 0 8                           @ ../std/GD32C2x1_Firmware_Library/GD32C2x1_standard_peripheral/Source/gd32c2x1_adc.c:0:8
	ldr	r1, __arm_cp.11_0
.Ltmp83:
	.loc	4 372 15 is_stmt 1              @ ../std/GD32C2x1_Firmware_Library/GD32C2x1_standard_peripheral/Source/gd32c2x1_adc.c:372:15
	ldr	r0, [r1]
	.loc	4 372 13 is_stmt 0              @ ../std/GD32C2x1_Firmware_Library/GD32C2x1_standard_peripheral/Source/gd32c2x1_adc.c:372:13
	str	r0, [sp, #4]
	add	r4, sp, #8
	.loc	4 373 83 is_stmt 1              @ ../std/GD32C2x1_Firmware_Library/GD32C2x1_standard_peripheral/Source/gd32c2x1_adc.c:373:83
	ldrb	r0, [r4]
	add	r5, sp, #20
	.loc	4 373 101 is_stmt 0             @ ../std/GD32C2x1_Firmware_Library/GD32C2x1_standard_peripheral/Source/gd32c2x1_adc.c:373:101
	ldrb	r2, [r5]
	.loc	4 373 99                        @ ../std/GD32C2x1_Firmware_Library/GD32C2x1_standard_peripheral/Source/gd32c2x1_adc.c:373:99
	subs	r0, r0, r2
	movs	r3, #5
	.loc	4 373 107                       @ ../std/GD32C2x1_Firmware_Library/GD32C2x1_standard_peripheral/Source/gd32c2x1_adc.c:373:107
	mov	r2, r3
	muls	r2, r0, r2
	movs	r0, #15
	.loc	4 373 80                        @ ../std/GD32C2x1_Firmware_Library/GD32C2x1_standard_peripheral/Source/gd32c2x1_adc.c:373:80
	subs	r2, r0, r2
	.loc	4 373 42                        @ ../std/GD32C2x1_Firmware_Library/GD32C2x1_standard_peripheral/Source/gd32c2x1_adc.c:373:42
	mov	r6, r0
	lsls	r6, r2
	.loc	4 373 13                        @ ../std/GD32C2x1_Firmware_Library/GD32C2x1_standard_peripheral/Source/gd32c2x1_adc.c:373:13
	ldr	r2, [sp, #4]
	bics	r2, r6
	str	r2, [sp, #4]
	add	r2, sp, #16
	.loc	4 374 28 is_stmt 1              @ ../std/GD32C2x1_Firmware_Library/GD32C2x1_standard_peripheral/Source/gd32c2x1_adc.c:374:28
	ldrb	r2, [r2]
	.loc	4 374 40 is_stmt 0              @ ../std/GD32C2x1_Firmware_Library/GD32C2x1_standard_peripheral/Source/gd32c2x1_adc.c:374:40
	ands	r2, r0
	.loc	4 374 97                        @ ../std/GD32C2x1_Firmware_Library/GD32C2x1_standard_peripheral/Source/gd32c2x1_adc.c:374:97
	ldrb	r4, [r4]
	.loc	4 374 115                       @ ../std/GD32C2x1_Firmware_Library/GD32C2x1_standard_peripheral/Source/gd32c2x1_adc.c:374:115
	ldrb	r5, [r5]
	.loc	4 374 113                       @ ../std/GD32C2x1_Firmware_Library/GD32C2x1_standard_peripheral/Source/gd32c2x1_adc.c:374:113
	subs	r4, r4, r5
	.loc	4 374 121                       @ ../std/GD32C2x1_Firmware_Library/GD32C2x1_standard_peripheral/Source/gd32c2x1_adc.c:374:121
	muls	r3, r4, r3
	.loc	4 374 94                        @ ../std/GD32C2x1_Firmware_Library/GD32C2x1_standard_peripheral/Source/gd32c2x1_adc.c:374:94
	subs	r0, r0, r3
	.loc	4 374 56                        @ ../std/GD32C2x1_Firmware_Library/GD32C2x1_standard_peripheral/Source/gd32c2x1_adc.c:374:56
	lsls	r2, r0
	.loc	4 374 13                        @ ../std/GD32C2x1_Firmware_Library/GD32C2x1_standard_peripheral/Source/gd32c2x1_adc.c:374:13
	ldr	r0, [sp, #4]
	orrs	r0, r2
	str	r0, [sp, #4]
	.loc	4 375 19 is_stmt 1              @ ../std/GD32C2x1_Firmware_Library/GD32C2x1_standard_peripheral/Source/gd32c2x1_adc.c:375:19
	ldr	r0, [sp, #4]
	.loc	4 375 17 is_stmt 0              @ ../std/GD32C2x1_Firmware_Library/GD32C2x1_standard_peripheral/Source/gd32c2x1_adc.c:375:17
	str	r0, [r1]
	.loc	4 376 5 is_stmt 1               @ ../std/GD32C2x1_Firmware_Library/GD32C2x1_standard_peripheral/Source/gd32c2x1_adc.c:376:5
	b	.LBB11_2
.Ltmp84:
.LBB11_2:
	.loc	4 0 5 is_stmt 0                 @ ../std/GD32C2x1_Firmware_Library/GD32C2x1_standard_peripheral/Source/gd32c2x1_adc.c:0:5
	add	r0, sp, #16
.Ltmp85:
	.loc	4 379 8 is_stmt 1               @ ../std/GD32C2x1_Firmware_Library/GD32C2x1_standard_peripheral/Source/gd32c2x1_adc.c:379:8
	ldrb	r0, [r0]
.Ltmp86:
	.loc	4 379 8 is_stmt 0               @ ../std/GD32C2x1_Firmware_Library/GD32C2x1_standard_peripheral/Source/gd32c2x1_adc.c:379:8
	cmp	r0, #9
	bgt	.LBB11_4
	b	.LBB11_3
.LBB11_3:
	.loc	4 0 8                           @ ../std/GD32C2x1_Firmware_Library/GD32C2x1_standard_peripheral/Source/gd32c2x1_adc.c:0:8
	ldr	r1, __arm_cp.11_2
.Ltmp87:
	.loc	4 381 17 is_stmt 1              @ ../std/GD32C2x1_Firmware_Library/GD32C2x1_standard_peripheral/Source/gd32c2x1_adc.c:381:17
	ldr	r0, [r1]
	.loc	4 381 15 is_stmt 0              @ ../std/GD32C2x1_Firmware_Library/GD32C2x1_standard_peripheral/Source/gd32c2x1_adc.c:381:15
	str	r0, [sp]
	add	r3, sp, #16
	.loc	4 382 79 is_stmt 1              @ ../std/GD32C2x1_Firmware_Library/GD32C2x1_standard_peripheral/Source/gd32c2x1_adc.c:382:79
	ldrb	r4, [r3]
	movs	r0, #3
	.loc	4 382 77 is_stmt 0              @ ../std/GD32C2x1_Firmware_Library/GD32C2x1_standard_peripheral/Source/gd32c2x1_adc.c:382:77
	mov	r2, r0
	muls	r2, r4, r2
	movs	r4, #7
	.loc	4 382 47                        @ ../std/GD32C2x1_Firmware_Library/GD32C2x1_standard_peripheral/Source/gd32c2x1_adc.c:382:47
	mov	r5, r4
	lsls	r5, r2
	.loc	4 382 15                        @ ../std/GD32C2x1_Firmware_Library/GD32C2x1_standard_peripheral/Source/gd32c2x1_adc.c:382:15
	ldr	r2, [sp]
	bics	r2, r5
	str	r2, [sp]
	.loc	4 384 29 is_stmt 1              @ ../std/GD32C2x1_Firmware_Library/GD32C2x1_standard_peripheral/Source/gd32c2x1_adc.c:384:29
	ldr	r2, [sp, #12]
	.loc	4 384 41 is_stmt 0              @ ../std/GD32C2x1_Firmware_Library/GD32C2x1_standard_peripheral/Source/gd32c2x1_adc.c:384:41
	ands	r2, r4
	.loc	4 384 92                        @ ../std/GD32C2x1_Firmware_Library/GD32C2x1_standard_peripheral/Source/gd32c2x1_adc.c:384:92
	ldrb	r3, [r3]
	.loc	4 384 90                        @ ../std/GD32C2x1_Firmware_Library/GD32C2x1_standard_peripheral/Source/gd32c2x1_adc.c:384:90
	muls	r0, r3, r0
	.loc	4 384 60                        @ ../std/GD32C2x1_Firmware_Library/GD32C2x1_standard_peripheral/Source/gd32c2x1_adc.c:384:60
	lsls	r2, r0
	.loc	4 384 15                        @ ../std/GD32C2x1_Firmware_Library/GD32C2x1_standard_peripheral/Source/gd32c2x1_adc.c:384:15
	ldr	r0, [sp]
	orrs	r0, r2
	str	r0, [sp]
	.loc	4 385 22 is_stmt 1              @ ../std/GD32C2x1_Firmware_Library/GD32C2x1_standard_peripheral/Source/gd32c2x1_adc.c:385:22
	ldr	r0, [sp]
	.loc	4 385 20 is_stmt 0              @ ../std/GD32C2x1_Firmware_Library/GD32C2x1_standard_peripheral/Source/gd32c2x1_adc.c:385:20
	str	r0, [r1]
	.loc	4 386 5 is_stmt 1               @ ../std/GD32C2x1_Firmware_Library/GD32C2x1_standard_peripheral/Source/gd32c2x1_adc.c:386:5
	b	.LBB11_5
.Ltmp88:
.LBB11_4:
	.loc	4 0 5 is_stmt 0                 @ ../std/GD32C2x1_Firmware_Library/GD32C2x1_standard_peripheral/Source/gd32c2x1_adc.c:0:5
	ldr	r1, __arm_cp.11_1
.Ltmp89:
	.loc	4 388 17 is_stmt 1              @ ../std/GD32C2x1_Firmware_Library/GD32C2x1_standard_peripheral/Source/gd32c2x1_adc.c:388:17
	ldr	r0, [r1]
	.loc	4 388 15 is_stmt 0              @ ../std/GD32C2x1_Firmware_Library/GD32C2x1_standard_peripheral/Source/gd32c2x1_adc.c:388:15
	str	r0, [sp]
	add	r3, sp, #16
	.loc	4 389 80 is_stmt 1              @ ../std/GD32C2x1_Firmware_Library/GD32C2x1_standard_peripheral/Source/gd32c2x1_adc.c:389:80
	ldrb	r4, [r3]
	movs	r0, #3
	.loc	4 389 92 is_stmt 0              @ ../std/GD32C2x1_Firmware_Library/GD32C2x1_standard_peripheral/Source/gd32c2x1_adc.c:389:92
	mov	r2, r0
	muls	r2, r4, r2
	.loc	4 389 77                        @ ../std/GD32C2x1_Firmware_Library/GD32C2x1_standard_peripheral/Source/gd32c2x1_adc.c:389:77
	subs	r2, #30
	movs	r4, #7
	.loc	4 389 47                        @ ../std/GD32C2x1_Firmware_Library/GD32C2x1_standard_peripheral/Source/gd32c2x1_adc.c:389:47
	mov	r5, r4
	lsls	r5, r2
	.loc	4 389 15                        @ ../std/GD32C2x1_Firmware_Library/GD32C2x1_standard_peripheral/Source/gd32c2x1_adc.c:389:15
	ldr	r2, [sp]
	bics	r2, r5
	str	r2, [sp]
	.loc	4 391 30 is_stmt 1              @ ../std/GD32C2x1_Firmware_Library/GD32C2x1_standard_peripheral/Source/gd32c2x1_adc.c:391:30
	ldr	r2, [sp, #12]
	.loc	4 391 42 is_stmt 0              @ ../std/GD32C2x1_Firmware_Library/GD32C2x1_standard_peripheral/Source/gd32c2x1_adc.c:391:42
	ands	r2, r4
	.loc	4 391 94                        @ ../std/GD32C2x1_Firmware_Library/GD32C2x1_standard_peripheral/Source/gd32c2x1_adc.c:391:94
	ldrb	r3, [r3]
	.loc	4 391 106                       @ ../std/GD32C2x1_Firmware_Library/GD32C2x1_standard_peripheral/Source/gd32c2x1_adc.c:391:106
	muls	r0, r3, r0
	.loc	4 391 91                        @ ../std/GD32C2x1_Firmware_Library/GD32C2x1_standard_peripheral/Source/gd32c2x1_adc.c:391:91
	subs	r0, #30
	.loc	4 391 61                        @ ../std/GD32C2x1_Firmware_Library/GD32C2x1_standard_peripheral/Source/gd32c2x1_adc.c:391:61
	lsls	r2, r0
	.loc	4 391 15                        @ ../std/GD32C2x1_Firmware_Library/GD32C2x1_standard_peripheral/Source/gd32c2x1_adc.c:391:15
	ldr	r0, [sp]
	orrs	r0, r2
	str	r0, [sp]
	.loc	4 392 22 is_stmt 1              @ ../std/GD32C2x1_Firmware_Library/GD32C2x1_standard_peripheral/Source/gd32c2x1_adc.c:392:22
	ldr	r0, [sp]
	.loc	4 392 20 is_stmt 0              @ ../std/GD32C2x1_Firmware_Library/GD32C2x1_standard_peripheral/Source/gd32c2x1_adc.c:392:20
	str	r0, [r1]
	b	.LBB11_5
.Ltmp90:
.LBB11_5:
	.loc	4 394 1 is_stmt 1               @ ../std/GD32C2x1_Firmware_Library/GD32C2x1_standard_peripheral/Source/gd32c2x1_adc.c:394:1
	add	sp, #24
	pop	{r4, r5, r6, pc}
.Ltmp91:
	.p2align	2
@ %bb.6:
	.loc	4 0 1 is_stmt 0                 @ ../std/GD32C2x1_Firmware_Library/GD32C2x1_standard_peripheral/Source/gd32c2x1_adc.c:0:1
__arm_cp.11_0:
	.long	1073816632                      @ 0x40012438
.Lcpi_end19:
	.size	__arm_cp.11_0, .Lcpi_end19-__arm_cp.11_0
__arm_cp.11_1:
	.long	1073816588                      @ 0x4001240c
.Lcpi_end20:
	.size	__arm_cp.11_1, .Lcpi_end20-__arm_cp.11_1
__arm_cp.11_2:
	.long	1073816592                      @ 0x40012410
.Lcpi_end21:
	.size	__arm_cp.11_2, .Lcpi_end21-__arm_cp.11_2
.Lfunc_end11:
	.size	adc_inserted_channel_config, .Lfunc_end11-adc_inserted_channel_config
	.cfi_endproc
	.cantunwind
	.fnend
                                        @ -- End function
	.section	.text.adc_inserted_channel_offset_config,"ax",%progbits
	.hidden	adc_inserted_channel_offset_config @ -- Begin function adc_inserted_channel_offset_config
	.globl	adc_inserted_channel_offset_config
	.p2align	2
	.type	adc_inserted_channel_offset_config,%function
	.code	16                              @ @adc_inserted_channel_offset_config
	.thumb_func
adc_inserted_channel_offset_config:
.Lfunc_begin12:
	.loc	4 409 0 is_stmt 1               @ ../std/GD32C2x1_Firmware_Library/GD32C2x1_standard_peripheral/Source/gd32c2x1_adc.c:409:0
	.fnstart
	.cfi_startproc
@ %bb.0:
	.pad	#16
	sub	sp, #16
	.cfi_def_cfa_offset 16
	mov	r2, r0
                                        @ kill: def $r0 killed $r1
                                        @ kill: def $r0 killed $r2
	add	r0, sp, #12
	strb	r2, [r0]
	add	r2, sp, #8
	strh	r1, [r2]
	ldr	r1, __arm_cp.12_0
.Ltmp92:
	.loc	4 413 32 prologue_end           @ ../std/GD32C2x1_Firmware_Library/GD32C2x1_standard_peripheral/Source/gd32c2x1_adc.c:413:32
	ldr	r1, [r1]
	movs	r2, #3
	lsls	r2, r2, #20
	ands	r1, r2
	lsrs	r2, r1, #20
	add	r1, sp, #4
	.loc	4 413 21 is_stmt 0              @ ../std/GD32C2x1_Firmware_Library/GD32C2x1_standard_peripheral/Source/gd32c2x1_adc.c:413:21
	strb	r2, [r1]
	.loc	4 414 53 is_stmt 1              @ ../std/GD32C2x1_Firmware_Library/GD32C2x1_standard_peripheral/Source/gd32c2x1_adc.c:414:53
	ldrb	r1, [r1]
	.loc	4 414 81 is_stmt 0              @ ../std/GD32C2x1_Firmware_Library/GD32C2x1_standard_peripheral/Source/gd32c2x1_adc.c:414:81
	ldrb	r0, [r0]
	.loc	4 414 40                        @ ../std/GD32C2x1_Firmware_Library/GD32C2x1_standard_peripheral/Source/gd32c2x1_adc.c:414:40
	subs	r0, r0, r1
	adds	r0, r0, #3
	.loc	4 414 9                         @ ../std/GD32C2x1_Firmware_Library/GD32C2x1_standard_peripheral/Source/gd32c2x1_adc.c:414:9
	str	r0, [sp]
.Ltmp93:
	.loc	4 416 8 is_stmt 1               @ ../std/GD32C2x1_Firmware_Library/GD32C2x1_standard_peripheral/Source/gd32c2x1_adc.c:416:8
	ldr	r0, [sp]
.Ltmp94:
	.loc	4 416 8 is_stmt 0               @ ../std/GD32C2x1_Firmware_Library/GD32C2x1_standard_peripheral/Source/gd32c2x1_adc.c:416:8
	cmp	r0, #3
	bhi	.LBB12_2
	b	.LBB12_1
.LBB12_1:
.Ltmp95:
	.loc	4 418 15 is_stmt 1              @ ../std/GD32C2x1_Firmware_Library/GD32C2x1_standard_peripheral/Source/gd32c2x1_adc.c:418:15
	ldr	r0, [sp]
	.loc	4 418 19 is_stmt 0              @ ../std/GD32C2x1_Firmware_Library/GD32C2x1_standard_peripheral/Source/gd32c2x1_adc.c:418:19
	lsls	r0, r0, #2
	.loc	4 418 13                        @ ../std/GD32C2x1_Firmware_Library/GD32C2x1_standard_peripheral/Source/gd32c2x1_adc.c:418:13
	str	r0, [sp]
	add	r0, sp, #8
	.loc	4 420 47 is_stmt 1              @ ../std/GD32C2x1_Firmware_Library/GD32C2x1_standard_peripheral/Source/gd32c2x1_adc.c:420:47
	ldrh	r0, [r0]
	ldr	r1, __arm_cp.12_1
	.loc	4 420 54 is_stmt 0              @ ../std/GD32C2x1_Firmware_Library/GD32C2x1_standard_peripheral/Source/gd32c2x1_adc.c:420:54
	ands	r0, r1
	.loc	4 420 9                         @ ../std/GD32C2x1_Firmware_Library/GD32C2x1_standard_peripheral/Source/gd32c2x1_adc.c:420:9
	ldr	r1, [sp]
	ldr	r2, __arm_cp.12_2
	.loc	4 420 34                        @ ../std/GD32C2x1_Firmware_Library/GD32C2x1_standard_peripheral/Source/gd32c2x1_adc.c:420:34
	str	r0, [r1, r2]
	.loc	4 421 5 is_stmt 1               @ ../std/GD32C2x1_Firmware_Library/GD32C2x1_standard_peripheral/Source/gd32c2x1_adc.c:421:5
	b	.LBB12_2
.Ltmp96:
.LBB12_2:
	.loc	4 422 1                         @ ../std/GD32C2x1_Firmware_Library/GD32C2x1_standard_peripheral/Source/gd32c2x1_adc.c:422:1
	add	sp, #16
	bx	lr
.Ltmp97:
	.p2align	2
@ %bb.3:
	.loc	4 0 1 is_stmt 0                 @ ../std/GD32C2x1_Firmware_Library/GD32C2x1_standard_peripheral/Source/gd32c2x1_adc.c:0:1
__arm_cp.12_0:
	.long	1073816632                      @ 0x40012438
.Lcpi_end22:
	.size	__arm_cp.12_0, .Lcpi_end22-__arm_cp.12_0
__arm_cp.12_1:
	.long	4095                            @ 0xfff
.Lcpi_end23:
	.size	__arm_cp.12_1, .Lcpi_end23-__arm_cp.12_1
__arm_cp.12_2:
	.long	1073816596                      @ 0x40012414
.Lcpi_end24:
	.size	__arm_cp.12_2, .Lcpi_end24-__arm_cp.12_2
.Lfunc_end12:
	.size	adc_inserted_channel_offset_config, .Lfunc_end12-adc_inserted_channel_offset_config
	.cfi_endproc
	.cantunwind
	.fnend
                                        @ -- End function
	.section	.text.adc_external_trigger_config,"ax",%progbits
	.hidden	adc_external_trigger_config     @ -- Begin function adc_external_trigger_config
	.globl	adc_external_trigger_config
	.p2align	2
	.type	adc_external_trigger_config,%function
	.code	16                              @ @adc_external_trigger_config
	.thumb_func
adc_external_trigger_config:
.Lfunc_begin13:
	.loc	4 435 0 is_stmt 1               @ ../std/GD32C2x1_Firmware_Library/GD32C2x1_standard_peripheral/Source/gd32c2x1_adc.c:435:0
	.fnstart
	.cfi_startproc
@ %bb.0:
	.pad	#8
	sub	sp, #8
	.cfi_def_cfa_offset 8
                                        @ kill: def $r2 killed $r1
                                        @ kill: def $r2 killed $r0
	add	r2, sp, #4
	strb	r0, [r2]
	mov	r0, sp
	strb	r1, [r0]
.Ltmp98:
	.loc	4 436 18 prologue_end           @ ../std/GD32C2x1_Firmware_Library/GD32C2x1_standard_peripheral/Source/gd32c2x1_adc.c:436:18
	ldrb	r0, [r0]
.Ltmp99:
	.loc	4 436 8 is_stmt 0               @ ../std/GD32C2x1_Firmware_Library/GD32C2x1_standard_peripheral/Source/gd32c2x1_adc.c:436:8
	cmp	r0, #1
	bne	.LBB13_6
	b	.LBB13_1
.LBB13_1:
	.loc	4 0 8                           @ ../std/GD32C2x1_Firmware_Library/GD32C2x1_standard_peripheral/Source/gd32c2x1_adc.c:0:8
	add	r0, sp, #4
.Ltmp100:
	.loc	4 438 19 is_stmt 1              @ ../std/GD32C2x1_Firmware_Library/GD32C2x1_standard_peripheral/Source/gd32c2x1_adc.c:438:19
	ldrb	r0, [r0]
.Ltmp101:
	.loc	4 438 12 is_stmt 0              @ ../std/GD32C2x1_Firmware_Library/GD32C2x1_standard_peripheral/Source/gd32c2x1_adc.c:438:12
	lsls	r0, r0, #31
	cbz	r0, .LBB13_3
	b	.LBB13_2
.LBB13_2:
	.loc	4 0 12                          @ ../std/GD32C2x1_Firmware_Library/GD32C2x1_standard_peripheral/Source/gd32c2x1_adc.c:0:12
	ldr	r1, __arm_cp.13_0
.Ltmp102:
	.loc	4 439 22 is_stmt 1              @ ../std/GD32C2x1_Firmware_Library/GD32C2x1_standard_peripheral/Source/gd32c2x1_adc.c:439:22
	ldr	r0, [r1]
	movs	r2, #1
	lsls	r2, r2, #20
	orrs	r0, r2
	str	r0, [r1]
	.loc	4 440 9                         @ ../std/GD32C2x1_Firmware_Library/GD32C2x1_standard_peripheral/Source/gd32c2x1_adc.c:440:9
	b	.LBB13_3
.Ltmp103:
.LBB13_3:
	.loc	4 0 9 is_stmt 0                 @ ../std/GD32C2x1_Firmware_Library/GD32C2x1_standard_peripheral/Source/gd32c2x1_adc.c:0:9
	add	r0, sp, #4
.Ltmp104:
	.loc	4 442 19 is_stmt 1              @ ../std/GD32C2x1_Firmware_Library/GD32C2x1_standard_peripheral/Source/gd32c2x1_adc.c:442:19
	ldrb	r0, [r0]
.Ltmp105:
	.loc	4 442 12 is_stmt 0              @ ../std/GD32C2x1_Firmware_Library/GD32C2x1_standard_peripheral/Source/gd32c2x1_adc.c:442:12
	lsls	r0, r0, #30
	cmp	r0, #0
	bpl	.LBB13_5
	b	.LBB13_4
.LBB13_4:
	.loc	4 0 12                          @ ../std/GD32C2x1_Firmware_Library/GD32C2x1_standard_peripheral/Source/gd32c2x1_adc.c:0:12
	ldr	r1, __arm_cp.13_0
.Ltmp106:
	.loc	4 443 22 is_stmt 1              @ ../std/GD32C2x1_Firmware_Library/GD32C2x1_standard_peripheral/Source/gd32c2x1_adc.c:443:22
	ldr	r0, [r1]
	movw	r2, #32768
	orrs	r0, r2
	str	r0, [r1]
	.loc	4 444 9                         @ ../std/GD32C2x1_Firmware_Library/GD32C2x1_standard_peripheral/Source/gd32c2x1_adc.c:444:9
	b	.LBB13_5
.Ltmp107:
.LBB13_5:
	.loc	4 445 5                         @ ../std/GD32C2x1_Firmware_Library/GD32C2x1_standard_peripheral/Source/gd32c2x1_adc.c:445:5
	b	.LBB13_11
.Ltmp108:
.LBB13_6:
	.loc	4 0 5 is_stmt 0                 @ ../std/GD32C2x1_Firmware_Library/GD32C2x1_standard_peripheral/Source/gd32c2x1_adc.c:0:5
	add	r0, sp, #4
.Ltmp109:
	.loc	4 447 19 is_stmt 1              @ ../std/GD32C2x1_Firmware_Library/GD32C2x1_standard_peripheral/Source/gd32c2x1_adc.c:447:19
	ldrb	r0, [r0]
.Ltmp110:
	.loc	4 447 12 is_stmt 0              @ ../std/GD32C2x1_Firmware_Library/GD32C2x1_standard_peripheral/Source/gd32c2x1_adc.c:447:12
	lsls	r0, r0, #31
	cbz	r0, .LBB13_8
	b	.LBB13_7
.LBB13_7:
	.loc	4 0 12                          @ ../std/GD32C2x1_Firmware_Library/GD32C2x1_standard_peripheral/Source/gd32c2x1_adc.c:0:12
	ldr	r1, __arm_cp.13_0
.Ltmp111:
	.loc	4 448 22 is_stmt 1              @ ../std/GD32C2x1_Firmware_Library/GD32C2x1_standard_peripheral/Source/gd32c2x1_adc.c:448:22
	ldr	r0, [r1]
	movs	r2, #1
	lsls	r2, r2, #20
	bics	r0, r2
	str	r0, [r1]
	.loc	4 449 9                         @ ../std/GD32C2x1_Firmware_Library/GD32C2x1_standard_peripheral/Source/gd32c2x1_adc.c:449:9
	b	.LBB13_8
.Ltmp112:
.LBB13_8:
	.loc	4 0 9 is_stmt 0                 @ ../std/GD32C2x1_Firmware_Library/GD32C2x1_standard_peripheral/Source/gd32c2x1_adc.c:0:9
	add	r0, sp, #4
.Ltmp113:
	.loc	4 451 19 is_stmt 1              @ ../std/GD32C2x1_Firmware_Library/GD32C2x1_standard_peripheral/Source/gd32c2x1_adc.c:451:19
	ldrb	r0, [r0]
.Ltmp114:
	.loc	4 451 12 is_stmt 0              @ ../std/GD32C2x1_Firmware_Library/GD32C2x1_standard_peripheral/Source/gd32c2x1_adc.c:451:12
	lsls	r0, r0, #30
	cmp	r0, #0
	bpl	.LBB13_10
	b	.LBB13_9
.LBB13_9:
	.loc	4 0 12                          @ ../std/GD32C2x1_Firmware_Library/GD32C2x1_standard_peripheral/Source/gd32c2x1_adc.c:0:12
	ldr	r1, __arm_cp.13_0
.Ltmp115:
	.loc	4 452 22 is_stmt 1              @ ../std/GD32C2x1_Firmware_Library/GD32C2x1_standard_peripheral/Source/gd32c2x1_adc.c:452:22
	ldr	r0, [r1]
	movw	r2, #32768
	bics	r0, r2
	str	r0, [r1]
	.loc	4 453 9                         @ ../std/GD32C2x1_Firmware_Library/GD32C2x1_standard_peripheral/Source/gd32c2x1_adc.c:453:9
	b	.LBB13_10
.Ltmp116:
.LBB13_10:
	.loc	4 0 9 is_stmt 0                 @ ../std/GD32C2x1_Firmware_Library/GD32C2x1_standard_peripheral/Source/gd32c2x1_adc.c:0:9
	b	.LBB13_11
.LBB13_11:
	.loc	4 455 1 is_stmt 1               @ ../std/GD32C2x1_Firmware_Library/GD32C2x1_standard_peripheral/Source/gd32c2x1_adc.c:455:1
	add	sp, #8
	bx	lr
.Ltmp117:
	.p2align	2
@ %bb.12:
	.loc	4 0 1 is_stmt 0                 @ ../std/GD32C2x1_Firmware_Library/GD32C2x1_standard_peripheral/Source/gd32c2x1_adc.c:0:1
__arm_cp.13_0:
	.long	1073816584                      @ 0x40012408
.Lcpi_end25:
	.size	__arm_cp.13_0, .Lcpi_end25-__arm_cp.13_0
.Lfunc_end13:
	.size	adc_external_trigger_config, .Lfunc_end13-adc_external_trigger_config
	.cfi_endproc
	.cantunwind
	.fnend
                                        @ -- End function
	.section	.text.adc_external_trigger_source_config,"ax",%progbits
	.hidden	adc_external_trigger_source_config @ -- Begin function adc_external_trigger_source_config
	.globl	adc_external_trigger_source_config
	.p2align	2
	.type	adc_external_trigger_source_config,%function
	.code	16                              @ @adc_external_trigger_source_config
	.thumb_func
adc_external_trigger_source_config:
.Lfunc_begin14:
	.loc	4 487 0 is_stmt 1               @ ../std/GD32C2x1_Firmware_Library/GD32C2x1_standard_peripheral/Source/gd32c2x1_adc.c:487:0
	.fnstart
	.cfi_startproc
@ %bb.0:
	.pad	#12
	sub	sp, #12
	.cfi_def_cfa_offset 12
	mov	r2, r0
                                        @ kill: def $r0 killed $r2
	add	r0, sp, #8
	strb	r2, [r0]
	str	r1, [sp, #4]
.Ltmp118:
	.loc	4 488 12 prologue_end           @ ../std/GD32C2x1_Firmware_Library/GD32C2x1_standard_peripheral/Source/gd32c2x1_adc.c:488:12
	ldrb	r0, [r0]
	.loc	4 488 5 is_stmt 0               @ ../std/GD32C2x1_Firmware_Library/GD32C2x1_standard_peripheral/Source/gd32c2x1_adc.c:488:5
	str	r0, [sp]                        @ 4-byte Spill
	cmp	r0, #1
	beq	.LBB14_2
	b	.LBB14_1
.LBB14_1:
	ldr	r0, [sp]                        @ 4-byte Reload
	cmp	r0, #2
	beq	.LBB14_3
	b	.LBB14_4
.LBB14_2:
	.loc	4 0 5                           @ ../std/GD32C2x1_Firmware_Library/GD32C2x1_standard_peripheral/Source/gd32c2x1_adc.c:0:5
	ldr	r1, __arm_cp.14_0
.Ltmp119:
	.loc	4 491 18 is_stmt 1              @ ../std/GD32C2x1_Firmware_Library/GD32C2x1_standard_peripheral/Source/gd32c2x1_adc.c:491:18
	ldr	r2, [r1]
	movs	r0, #7
	lsls	r0, r0, #17
	bics	r2, r0
	str	r2, [r1]
	.loc	4 492 32                        @ ../std/GD32C2x1_Firmware_Library/GD32C2x1_standard_peripheral/Source/gd32c2x1_adc.c:492:32
	ldr	r2, [sp, #4]
	.loc	4 492 56 is_stmt 0              @ ../std/GD32C2x1_Firmware_Library/GD32C2x1_standard_peripheral/Source/gd32c2x1_adc.c:492:56
	ands	r2, r0
	.loc	4 492 18                        @ ../std/GD32C2x1_Firmware_Library/GD32C2x1_standard_peripheral/Source/gd32c2x1_adc.c:492:18
	ldr	r0, [r1]
	orrs	r0, r2
	str	r0, [r1]
	.loc	4 493 9 is_stmt 1               @ ../std/GD32C2x1_Firmware_Library/GD32C2x1_standard_peripheral/Source/gd32c2x1_adc.c:493:9
	b	.LBB14_5
.LBB14_3:
	.loc	4 0 9 is_stmt 0                 @ ../std/GD32C2x1_Firmware_Library/GD32C2x1_standard_peripheral/Source/gd32c2x1_adc.c:0:9
	ldr	r1, __arm_cp.14_0
	.loc	4 496 18 is_stmt 1              @ ../std/GD32C2x1_Firmware_Library/GD32C2x1_standard_peripheral/Source/gd32c2x1_adc.c:496:18
	ldr	r2, [r1]
	movw	r0, #28672
	bics	r2, r0
	str	r2, [r1]
	.loc	4 497 32                        @ ../std/GD32C2x1_Firmware_Library/GD32C2x1_standard_peripheral/Source/gd32c2x1_adc.c:497:32
	ldr	r2, [sp, #4]
	.loc	4 497 56 is_stmt 0              @ ../std/GD32C2x1_Firmware_Library/GD32C2x1_standard_peripheral/Source/gd32c2x1_adc.c:497:56
	ands	r2, r0
	.loc	4 497 18                        @ ../std/GD32C2x1_Firmware_Library/GD32C2x1_standard_peripheral/Source/gd32c2x1_adc.c:497:18
	ldr	r0, [r1]
	orrs	r0, r2
	str	r0, [r1]
	.loc	4 498 9 is_stmt 1               @ ../std/GD32C2x1_Firmware_Library/GD32C2x1_standard_peripheral/Source/gd32c2x1_adc.c:498:9
	b	.LBB14_5
.LBB14_4:
	.loc	4 500 9                         @ ../std/GD32C2x1_Firmware_Library/GD32C2x1_standard_peripheral/Source/gd32c2x1_adc.c:500:9
	b	.LBB14_5
.Ltmp120:
.LBB14_5:
	.loc	4 502 1                         @ ../std/GD32C2x1_Firmware_Library/GD32C2x1_standard_peripheral/Source/gd32c2x1_adc.c:502:1
	add	sp, #12
	bx	lr
.Ltmp121:
	.p2align	2
@ %bb.6:
	.loc	4 0 1 is_stmt 0                 @ ../std/GD32C2x1_Firmware_Library/GD32C2x1_standard_peripheral/Source/gd32c2x1_adc.c:0:1
__arm_cp.14_0:
	.long	1073816584                      @ 0x40012408
.Lcpi_end26:
	.size	__arm_cp.14_0, .Lcpi_end26-__arm_cp.14_0
.Lfunc_end14:
	.size	adc_external_trigger_source_config, .Lfunc_end14-adc_external_trigger_source_config
	.cfi_endproc
	.cantunwind
	.fnend
                                        @ -- End function
	.section	.text.adc_software_trigger_enable,"ax",%progbits
	.hidden	adc_software_trigger_enable     @ -- Begin function adc_software_trigger_enable
	.globl	adc_software_trigger_enable
	.p2align	2
	.type	adc_software_trigger_enable,%function
	.code	16                              @ @adc_software_trigger_enable
	.thumb_func
adc_software_trigger_enable:
.Lfunc_begin15:
	.loc	4 514 0 is_stmt 1               @ ../std/GD32C2x1_Firmware_Library/GD32C2x1_standard_peripheral/Source/gd32c2x1_adc.c:514:0
	.fnstart
	.cfi_startproc
@ %bb.0:
	.pad	#4
	sub	sp, #4
	.cfi_def_cfa_offset 4
	mov	r1, r0
                                        @ kill: def $r0 killed $r1
	mov	r0, sp
	strb	r1, [r0]
.Ltmp122:
	.loc	4 516 15 prologue_end           @ ../std/GD32C2x1_Firmware_Library/GD32C2x1_standard_peripheral/Source/gd32c2x1_adc.c:516:15
	ldrb	r0, [r0]
.Ltmp123:
	.loc	4 516 8 is_stmt 0               @ ../std/GD32C2x1_Firmware_Library/GD32C2x1_standard_peripheral/Source/gd32c2x1_adc.c:516:8
	lsls	r0, r0, #31
	cbz	r0, .LBB15_2
	b	.LBB15_1
.LBB15_1:
	.loc	4 0 8                           @ ../std/GD32C2x1_Firmware_Library/GD32C2x1_standard_peripheral/Source/gd32c2x1_adc.c:0:8
	ldr	r1, __arm_cp.15_0
.Ltmp124:
	.loc	4 517 18 is_stmt 1              @ ../std/GD32C2x1_Firmware_Library/GD32C2x1_standard_peripheral/Source/gd32c2x1_adc.c:517:18
	ldr	r0, [r1]
	movs	r2, #1
	lsls	r2, r2, #22
	orrs	r0, r2
	str	r0, [r1]
	.loc	4 518 5                         @ ../std/GD32C2x1_Firmware_Library/GD32C2x1_standard_peripheral/Source/gd32c2x1_adc.c:518:5
	b	.LBB15_2
.Ltmp125:
.LBB15_2:
	.loc	4 0 5 is_stmt 0                 @ ../std/GD32C2x1_Firmware_Library/GD32C2x1_standard_peripheral/Source/gd32c2x1_adc.c:0:5
	mov	r0, sp
.Ltmp126:
	.loc	4 520 15 is_stmt 1              @ ../std/GD32C2x1_Firmware_Library/GD32C2x1_standard_peripheral/Source/gd32c2x1_adc.c:520:15
	ldrb	r0, [r0]
.Ltmp127:
	.loc	4 520 8 is_stmt 0               @ ../std/GD32C2x1_Firmware_Library/GD32C2x1_standard_peripheral/Source/gd32c2x1_adc.c:520:8
	lsls	r0, r0, #30
	cmp	r0, #0
	bpl	.LBB15_4
	b	.LBB15_3
.LBB15_3:
	.loc	4 0 8                           @ ../std/GD32C2x1_Firmware_Library/GD32C2x1_standard_peripheral/Source/gd32c2x1_adc.c:0:8
	ldr	r1, __arm_cp.15_0
.Ltmp128:
	.loc	4 521 18 is_stmt 1              @ ../std/GD32C2x1_Firmware_Library/GD32C2x1_standard_peripheral/Source/gd32c2x1_adc.c:521:18
	ldr	r0, [r1]
	movs	r2, #1
	lsls	r2, r2, #21
	orrs	r0, r2
	str	r0, [r1]
	.loc	4 522 5                         @ ../std/GD32C2x1_Firmware_Library/GD32C2x1_standard_peripheral/Source/gd32c2x1_adc.c:522:5
	b	.LBB15_4
.Ltmp129:
.LBB15_4:
	.loc	4 523 1                         @ ../std/GD32C2x1_Firmware_Library/GD32C2x1_standard_peripheral/Source/gd32c2x1_adc.c:523:1
	add	sp, #4
	bx	lr
.Ltmp130:
	.p2align	2
@ %bb.5:
	.loc	4 0 1 is_stmt 0                 @ ../std/GD32C2x1_Firmware_Library/GD32C2x1_standard_peripheral/Source/gd32c2x1_adc.c:0:1
__arm_cp.15_0:
	.long	1073816584                      @ 0x40012408
.Lcpi_end27:
	.size	__arm_cp.15_0, .Lcpi_end27-__arm_cp.15_0
.Lfunc_end15:
	.size	adc_software_trigger_enable, .Lfunc_end15-adc_software_trigger_enable
	.cfi_endproc
	.cantunwind
	.fnend
                                        @ -- End function
	.section	.text.adc_routine_data_read,"ax",%progbits
	.hidden	adc_routine_data_read           @ -- Begin function adc_routine_data_read
	.globl	adc_routine_data_read
	.p2align	2
	.type	adc_routine_data_read,%function
	.code	16                              @ @adc_routine_data_read
	.thumb_func
adc_routine_data_read:
.Lfunc_begin16:
	.loc	4 532 0 is_stmt 1               @ ../std/GD32C2x1_Firmware_Library/GD32C2x1_standard_peripheral/Source/gd32c2x1_adc.c:532:0
	.fnstart
	.cfi_startproc
@ %bb.0:
	ldr	r0, __arm_cp.16_0
.Ltmp131:
	.loc	4 533 24 prologue_end           @ ../std/GD32C2x1_Firmware_Library/GD32C2x1_standard_peripheral/Source/gd32c2x1_adc.c:533:24
	ldr	r0, [r0]
	.loc	4 533 5 is_stmt 0               @ ../std/GD32C2x1_Firmware_Library/GD32C2x1_standard_peripheral/Source/gd32c2x1_adc.c:533:5
	uxth	r0, r0
	bx	lr
.Ltmp132:
	.p2align	2
@ %bb.1:
	.loc	4 0 5                           @ ../std/GD32C2x1_Firmware_Library/GD32C2x1_standard_peripheral/Source/gd32c2x1_adc.c:0:5
__arm_cp.16_0:
	.long	1073816652                      @ 0x4001244c
.Lcpi_end28:
	.size	__arm_cp.16_0, .Lcpi_end28-__arm_cp.16_0
.Lfunc_end16:
	.size	adc_routine_data_read, .Lfunc_end16-adc_routine_data_read
	.cfi_endproc
	.cantunwind
	.fnend
                                        @ -- End function
	.section	.text.adc_inserted_data_read,"ax",%progbits
	.hidden	adc_inserted_data_read          @ -- Begin function adc_inserted_data_read
	.globl	adc_inserted_data_read
	.p2align	2
	.type	adc_inserted_data_read,%function
	.code	16                              @ @adc_inserted_data_read
	.thumb_func
adc_inserted_data_read:
.Lfunc_begin17:
	.loc	4 548 0 is_stmt 1               @ ../std/GD32C2x1_Firmware_Library/GD32C2x1_standard_peripheral/Source/gd32c2x1_adc.c:548:0
	.fnstart
	.cfi_startproc
@ %bb.0:
	.pad	#12
	sub	sp, #12
	.cfi_def_cfa_offset 12
	mov	r1, r0
                                        @ kill: def $r0 killed $r1
	add	r0, sp, #8
	strb	r1, [r0]
	movs	r1, #0
.Ltmp133:
	.loc	4 549 14 prologue_end           @ ../std/GD32C2x1_Firmware_Library/GD32C2x1_standard_peripheral/Source/gd32c2x1_adc.c:549:14
	str	r1, [sp, #4]
	.loc	4 552 12                        @ ../std/GD32C2x1_Firmware_Library/GD32C2x1_standard_peripheral/Source/gd32c2x1_adc.c:552:12
	ldrb	r0, [r0]
	.loc	4 552 5 is_stmt 0               @ ../std/GD32C2x1_Firmware_Library/GD32C2x1_standard_peripheral/Source/gd32c2x1_adc.c:552:5
	str	r0, [sp]                        @ 4-byte Spill
	cmp	r0, #3
	bhi	.LBB17_7
@ %bb.1:
	.loc	4 0 5                           @ ../std/GD32C2x1_Firmware_Library/GD32C2x1_standard_peripheral/Source/gd32c2x1_adc.c:0:5
	ldr	r1, [sp]                        @ 4-byte Reload
	lsls	r2, r1, #2
	adr	r0, .LJTI17_0
	adds	r0, r0, r2
	mov	pc, r0
@ %bb.2:
	.p2align	2
.LJTI17_0:
	b.w	.LBB17_3
	b.w	.LBB17_4
	b.w	.LBB17_5
	b.w	.LBB17_6
.LBB17_3:
	ldr	r0, __arm_cp.17_3
.Ltmp134:
	.loc	4 555 17 is_stmt 1              @ ../std/GD32C2x1_Firmware_Library/GD32C2x1_standard_peripheral/Source/gd32c2x1_adc.c:555:17
	ldr	r0, [r0]
	.loc	4 555 15 is_stmt 0              @ ../std/GD32C2x1_Firmware_Library/GD32C2x1_standard_peripheral/Source/gd32c2x1_adc.c:555:15
	str	r0, [sp, #4]
	.loc	4 556 9 is_stmt 1               @ ../std/GD32C2x1_Firmware_Library/GD32C2x1_standard_peripheral/Source/gd32c2x1_adc.c:556:9
	b	.LBB17_8
.LBB17_4:
	.loc	4 0 9 is_stmt 0                 @ ../std/GD32C2x1_Firmware_Library/GD32C2x1_standard_peripheral/Source/gd32c2x1_adc.c:0:9
	ldr	r0, __arm_cp.17_2
	.loc	4 559 17 is_stmt 1              @ ../std/GD32C2x1_Firmware_Library/GD32C2x1_standard_peripheral/Source/gd32c2x1_adc.c:559:17
	ldr	r0, [r0]
	.loc	4 559 15 is_stmt 0              @ ../std/GD32C2x1_Firmware_Library/GD32C2x1_standard_peripheral/Source/gd32c2x1_adc.c:559:15
	str	r0, [sp, #4]
	.loc	4 560 9 is_stmt 1               @ ../std/GD32C2x1_Firmware_Library/GD32C2x1_standard_peripheral/Source/gd32c2x1_adc.c:560:9
	b	.LBB17_8
.LBB17_5:
	.loc	4 0 9 is_stmt 0                 @ ../std/GD32C2x1_Firmware_Library/GD32C2x1_standard_peripheral/Source/gd32c2x1_adc.c:0:9
	ldr	r0, __arm_cp.17_1
	.loc	4 563 17 is_stmt 1              @ ../std/GD32C2x1_Firmware_Library/GD32C2x1_standard_peripheral/Source/gd32c2x1_adc.c:563:17
	ldr	r0, [r0]
	.loc	4 563 15 is_stmt 0              @ ../std/GD32C2x1_Firmware_Library/GD32C2x1_standard_peripheral/Source/gd32c2x1_adc.c:563:15
	str	r0, [sp, #4]
	.loc	4 564 9 is_stmt 1               @ ../std/GD32C2x1_Firmware_Library/GD32C2x1_standard_peripheral/Source/gd32c2x1_adc.c:564:9
	b	.LBB17_8
.LBB17_6:
	.loc	4 0 9 is_stmt 0                 @ ../std/GD32C2x1_Firmware_Library/GD32C2x1_standard_peripheral/Source/gd32c2x1_adc.c:0:9
	ldr	r0, __arm_cp.17_0
	.loc	4 567 17 is_stmt 1              @ ../std/GD32C2x1_Firmware_Library/GD32C2x1_standard_peripheral/Source/gd32c2x1_adc.c:567:17
	ldr	r0, [r0]
	.loc	4 567 15 is_stmt 0              @ ../std/GD32C2x1_Firmware_Library/GD32C2x1_standard_peripheral/Source/gd32c2x1_adc.c:567:15
	str	r0, [sp, #4]
	.loc	4 568 9 is_stmt 1               @ ../std/GD32C2x1_Firmware_Library/GD32C2x1_standard_peripheral/Source/gd32c2x1_adc.c:568:9
	b	.LBB17_8
.LBB17_7:
	.loc	4 570 9                         @ ../std/GD32C2x1_Firmware_Library/GD32C2x1_standard_peripheral/Source/gd32c2x1_adc.c:570:9
	b	.LBB17_8
.Ltmp135:
.LBB17_8:
	.loc	4 0 9 is_stmt 0                 @ ../std/GD32C2x1_Firmware_Library/GD32C2x1_standard_peripheral/Source/gd32c2x1_adc.c:0:9
	add	r0, sp, #4
	.loc	4 572 23 is_stmt 1              @ ../std/GD32C2x1_Firmware_Library/GD32C2x1_standard_peripheral/Source/gd32c2x1_adc.c:572:23
	ldrh	r0, [r0]
	.loc	4 572 5 is_stmt 0               @ ../std/GD32C2x1_Firmware_Library/GD32C2x1_standard_peripheral/Source/gd32c2x1_adc.c:572:5
	add	sp, #12
	bx	lr
.Ltmp136:
	.p2align	2
@ %bb.9:
	.loc	4 0 5                           @ ../std/GD32C2x1_Firmware_Library/GD32C2x1_standard_peripheral/Source/gd32c2x1_adc.c:0:5
__arm_cp.17_0:
	.long	1073816648                      @ 0x40012448
.Lcpi_end29:
	.size	__arm_cp.17_0, .Lcpi_end29-__arm_cp.17_0
__arm_cp.17_1:
	.long	1073816644                      @ 0x40012444
.Lcpi_end30:
	.size	__arm_cp.17_1, .Lcpi_end30-__arm_cp.17_1
__arm_cp.17_2:
	.long	1073816640                      @ 0x40012440
.Lcpi_end31:
	.size	__arm_cp.17_2, .Lcpi_end31-__arm_cp.17_2
__arm_cp.17_3:
	.long	1073816636                      @ 0x4001243c
.Lcpi_end32:
	.size	__arm_cp.17_3, .Lcpi_end32-__arm_cp.17_3
.Lfunc_end17:
	.size	adc_inserted_data_read, .Lfunc_end17-adc_inserted_data_read
	.cfi_endproc
	.cantunwind
	.fnend
                                        @ -- End function
	.section	.text.adc_watchdog0_single_channel_enable,"ax",%progbits
	.hidden	adc_watchdog0_single_channel_enable @ -- Begin function adc_watchdog0_single_channel_enable
	.globl	adc_watchdog0_single_channel_enable
	.p2align	2
	.type	adc_watchdog0_single_channel_enable,%function
	.code	16                              @ @adc_watchdog0_single_channel_enable
	.thumb_func
adc_watchdog0_single_channel_enable:
.Lfunc_begin18:
	.loc	4 584 0 is_stmt 1               @ ../std/GD32C2x1_Firmware_Library/GD32C2x1_standard_peripheral/Source/gd32c2x1_adc.c:584:0
	.fnstart
	.cfi_startproc
@ %bb.0:
	.pad	#4
	sub	sp, #4
	.cfi_def_cfa_offset 4
	mov	r1, r0
                                        @ kill: def $r0 killed $r1
	mov	r0, sp
	strb	r1, [r0]
	ldr	r1, __arm_cp.18_0
.Ltmp137:
	.loc	4 585 14 prologue_end           @ ../std/GD32C2x1_Firmware_Library/GD32C2x1_standard_peripheral/Source/gd32c2x1_adc.c:585:14
	ldr	r2, [r1]
	ldr	r3, __arm_cp.18_1
	ands	r2, r3
	str	r2, [r1]
	.loc	4 586 28                        @ ../std/GD32C2x1_Firmware_Library/GD32C2x1_standard_peripheral/Source/gd32c2x1_adc.c:586:28
	ldrb	r2, [r0]
	movs	r0, #15
	.loc	4 586 40 is_stmt 0              @ ../std/GD32C2x1_Firmware_Library/GD32C2x1_standard_peripheral/Source/gd32c2x1_adc.c:586:40
	ands	r2, r0
	.loc	4 586 14                        @ ../std/GD32C2x1_Firmware_Library/GD32C2x1_standard_peripheral/Source/gd32c2x1_adc.c:586:14
	ldr	r0, [r1]
	orrs	r0, r2
	str	r0, [r1]
	.loc	4 587 14 is_stmt 1              @ ../std/GD32C2x1_Firmware_Library/GD32C2x1_standard_peripheral/Source/gd32c2x1_adc.c:587:14
	ldr	r0, [r1]
	ldr	r2, __arm_cp.18_2
	orrs	r0, r2
	str	r0, [r1]
	.loc	4 588 1                         @ ../std/GD32C2x1_Firmware_Library/GD32C2x1_standard_peripheral/Source/gd32c2x1_adc.c:588:1
	add	sp, #4
	bx	lr
.Ltmp138:
	.p2align	2
@ %bb.1:
	.loc	4 0 1 is_stmt 0                 @ ../std/GD32C2x1_Firmware_Library/GD32C2x1_standard_peripheral/Source/gd32c2x1_adc.c:0:1
__arm_cp.18_0:
	.long	1073816580                      @ 0x40012404
.Lcpi_end33:
	.size	__arm_cp.18_0, .Lcpi_end33-__arm_cp.18_0
__arm_cp.18_1:
	.long	4282383856                      @ 0xff3ffdf0
.Lcpi_end34:
	.size	__arm_cp.18_1, .Lcpi_end34-__arm_cp.18_1
__arm_cp.18_2:
	.long	12583424                        @ 0xc00200
.Lcpi_end35:
	.size	__arm_cp.18_2, .Lcpi_end35-__arm_cp.18_2
.Lfunc_end18:
	.size	adc_watchdog0_single_channel_enable, .Lfunc_end18-adc_watchdog0_single_channel_enable
	.cfi_endproc
	.cantunwind
	.fnend
                                        @ -- End function
	.section	.text.adc_watchdog0_sequence_channel_enable,"ax",%progbits
	.hidden	adc_watchdog0_sequence_channel_enable @ -- Begin function adc_watchdog0_sequence_channel_enable
	.globl	adc_watchdog0_sequence_channel_enable
	.p2align	2
	.type	adc_watchdog0_sequence_channel_enable,%function
	.code	16                              @ @adc_watchdog0_sequence_channel_enable
	.thumb_func
adc_watchdog0_sequence_channel_enable:
.Lfunc_begin19:
	.loc	4 601 0 is_stmt 1               @ ../std/GD32C2x1_Firmware_Library/GD32C2x1_standard_peripheral/Source/gd32c2x1_adc.c:601:0
	.fnstart
	.cfi_startproc
@ %bb.0:
	.pad	#8
	sub	sp, #8
	.cfi_def_cfa_offset 8
	mov	r1, r0
                                        @ kill: def $r0 killed $r1
	add	r0, sp, #4
	strb	r1, [r0]
	ldr	r2, __arm_cp.19_0
.Ltmp139:
	.loc	4 602 14 prologue_end           @ ../std/GD32C2x1_Firmware_Library/GD32C2x1_standard_peripheral/Source/gd32c2x1_adc.c:602:14
	ldr	r1, [r2]
	ldr	r3, __arm_cp.19_1
	ands	r1, r3
	str	r1, [r2]
	.loc	4 604 12                        @ ../std/GD32C2x1_Firmware_Library/GD32C2x1_standard_peripheral/Source/gd32c2x1_adc.c:604:12
	ldrb	r0, [r0]
	.loc	4 604 5 is_stmt 0               @ ../std/GD32C2x1_Firmware_Library/GD32C2x1_standard_peripheral/Source/gd32c2x1_adc.c:604:5
	str	r0, [sp]                        @ 4-byte Spill
	cmp	r0, #1
	beq	.LBB19_3
	b	.LBB19_1
.LBB19_1:
	ldr	r0, [sp]                        @ 4-byte Reload
	cmp	r0, #2
	beq	.LBB19_4
	b	.LBB19_2
.LBB19_2:
	ldr	r0, [sp]                        @ 4-byte Reload
	cmp	r0, #3
	beq	.LBB19_5
	b	.LBB19_6
.LBB19_3:
	.loc	4 0 5                           @ ../std/GD32C2x1_Firmware_Library/GD32C2x1_standard_peripheral/Source/gd32c2x1_adc.c:0:5
	ldr	r1, __arm_cp.19_0
.Ltmp140:
	.loc	4 607 18 is_stmt 1              @ ../std/GD32C2x1_Firmware_Library/GD32C2x1_standard_peripheral/Source/gd32c2x1_adc.c:607:18
	ldr	r0, [r1]
	movs	r2, #1
	lsls	r2, r2, #23
	orrs	r0, r2
	str	r0, [r1]
	.loc	4 608 9                         @ ../std/GD32C2x1_Firmware_Library/GD32C2x1_standard_peripheral/Source/gd32c2x1_adc.c:608:9
	b	.LBB19_7
.LBB19_4:
	.loc	4 0 9 is_stmt 0                 @ ../std/GD32C2x1_Firmware_Library/GD32C2x1_standard_peripheral/Source/gd32c2x1_adc.c:0:9
	ldr	r1, __arm_cp.19_0
	.loc	4 611 18 is_stmt 1              @ ../std/GD32C2x1_Firmware_Library/GD32C2x1_standard_peripheral/Source/gd32c2x1_adc.c:611:18
	ldr	r0, [r1]
	movs	r2, #1
	lsls	r2, r2, #22
	orrs	r0, r2
	str	r0, [r1]
	.loc	4 612 9                         @ ../std/GD32C2x1_Firmware_Library/GD32C2x1_standard_peripheral/Source/gd32c2x1_adc.c:612:9
	b	.LBB19_7
.LBB19_5:
	.loc	4 0 9 is_stmt 0                 @ ../std/GD32C2x1_Firmware_Library/GD32C2x1_standard_peripheral/Source/gd32c2x1_adc.c:0:9
	ldr	r1, __arm_cp.19_0
	.loc	4 615 18 is_stmt 1              @ ../std/GD32C2x1_Firmware_Library/GD32C2x1_standard_peripheral/Source/gd32c2x1_adc.c:615:18
	ldr	r0, [r1]
	movs	r2, #3
	lsls	r2, r2, #22
	orrs	r0, r2
	str	r0, [r1]
	.loc	4 616 9                         @ ../std/GD32C2x1_Firmware_Library/GD32C2x1_standard_peripheral/Source/gd32c2x1_adc.c:616:9
	b	.LBB19_7
.LBB19_6:
	.loc	4 618 9                         @ ../std/GD32C2x1_Firmware_Library/GD32C2x1_standard_peripheral/Source/gd32c2x1_adc.c:618:9
	b	.LBB19_7
.Ltmp141:
.LBB19_7:
	.loc	4 620 1                         @ ../std/GD32C2x1_Firmware_Library/GD32C2x1_standard_peripheral/Source/gd32c2x1_adc.c:620:1
	add	sp, #8
	bx	lr
.Ltmp142:
	.p2align	2
@ %bb.8:
	.loc	4 0 1 is_stmt 0                 @ ../std/GD32C2x1_Firmware_Library/GD32C2x1_standard_peripheral/Source/gd32c2x1_adc.c:0:1
__arm_cp.19_0:
	.long	1073816580                      @ 0x40012404
.Lcpi_end36:
	.size	__arm_cp.19_0, .Lcpi_end36-__arm_cp.19_0
__arm_cp.19_1:
	.long	4282383871                      @ 0xff3ffdff
.Lcpi_end37:
	.size	__arm_cp.19_1, .Lcpi_end37-__arm_cp.19_1
.Lfunc_end19:
	.size	adc_watchdog0_sequence_channel_enable, .Lfunc_end19-adc_watchdog0_sequence_channel_enable
	.cfi_endproc
	.cantunwind
	.fnend
                                        @ -- End function
	.section	.text.adc_watchdog0_disable,"ax",%progbits
	.hidden	adc_watchdog0_disable           @ -- Begin function adc_watchdog0_disable
	.globl	adc_watchdog0_disable
	.p2align	2
	.type	adc_watchdog0_disable,%function
	.code	16                              @ @adc_watchdog0_disable
	.thumb_func
adc_watchdog0_disable:
.Lfunc_begin20:
	.loc	4 629 0 is_stmt 1               @ ../std/GD32C2x1_Firmware_Library/GD32C2x1_standard_peripheral/Source/gd32c2x1_adc.c:629:0
	.fnstart
	.cfi_startproc
@ %bb.0:
	ldr	r1, __arm_cp.20_0
.Ltmp143:
	.loc	4 630 14 prologue_end           @ ../std/GD32C2x1_Firmware_Library/GD32C2x1_standard_peripheral/Source/gd32c2x1_adc.c:630:14
	ldr	r0, [r1]
	ldr	r2, __arm_cp.20_1
	ands	r0, r2
	str	r0, [r1]
	.loc	4 631 1                         @ ../std/GD32C2x1_Firmware_Library/GD32C2x1_standard_peripheral/Source/gd32c2x1_adc.c:631:1
	bx	lr
.Ltmp144:
	.p2align	2
@ %bb.1:
	.loc	4 0 1 is_stmt 0                 @ ../std/GD32C2x1_Firmware_Library/GD32C2x1_standard_peripheral/Source/gd32c2x1_adc.c:0:1
__arm_cp.20_0:
	.long	1073816580                      @ 0x40012404
.Lcpi_end38:
	.size	__arm_cp.20_0, .Lcpi_end38-__arm_cp.20_0
__arm_cp.20_1:
	.long	4282383856                      @ 0xff3ffdf0
.Lcpi_end39:
	.size	__arm_cp.20_1, .Lcpi_end39-__arm_cp.20_1
.Lfunc_end20:
	.size	adc_watchdog0_disable, .Lfunc_end20-adc_watchdog0_disable
	.cfi_endproc
	.cantunwind
	.fnend
                                        @ -- End function
	.section	.text.adc_watchdog1_channel_config,"ax",%progbits
	.hidden	adc_watchdog1_channel_config    @ -- Begin function adc_watchdog1_channel_config
	.globl	adc_watchdog1_channel_config
	.p2align	2
	.type	adc_watchdog1_channel_config,%function
	.code	16                              @ @adc_watchdog1_channel_config
	.thumb_func
adc_watchdog1_channel_config:
.Lfunc_begin21:
	.loc	4 643 0 is_stmt 1               @ ../std/GD32C2x1_Firmware_Library/GD32C2x1_standard_peripheral/Source/gd32c2x1_adc.c:643:0
	.fnstart
	.cfi_startproc
@ %bb.0:
	.pad	#8
	sub	sp, #8
	.cfi_def_cfa_offset 8
                                        @ kill: def $r2 killed $r1
	str	r0, [sp, #4]
	mov	r0, sp
	strb	r1, [r0]
.Ltmp145:
	.loc	4 644 18 prologue_end           @ ../std/GD32C2x1_Firmware_Library/GD32C2x1_standard_peripheral/Source/gd32c2x1_adc.c:644:18
	ldrb	r0, [r0]
.Ltmp146:
	.loc	4 644 8 is_stmt 0               @ ../std/GD32C2x1_Firmware_Library/GD32C2x1_standard_peripheral/Source/gd32c2x1_adc.c:644:8
	cmp	r0, #1
	bne	.LBB21_2
	b	.LBB21_1
.LBB21_1:
.Ltmp147:
	.loc	4 645 32 is_stmt 1              @ ../std/GD32C2x1_Firmware_Library/GD32C2x1_standard_peripheral/Source/gd32c2x1_adc.c:645:32
	ldr	r2, [sp, #4]
	ldr	r1, __arm_cp.21_0
	.loc	4 645 19 is_stmt 0              @ ../std/GD32C2x1_Firmware_Library/GD32C2x1_standard_peripheral/Source/gd32c2x1_adc.c:645:19
	ldr	r0, [r1]
	orrs	r0, r2
	str	r0, [r1]
	.loc	4 646 5 is_stmt 1               @ ../std/GD32C2x1_Firmware_Library/GD32C2x1_standard_peripheral/Source/gd32c2x1_adc.c:646:5
	b	.LBB21_3
.Ltmp148:
.LBB21_2:
	.loc	4 647 34                        @ ../std/GD32C2x1_Firmware_Library/GD32C2x1_standard_peripheral/Source/gd32c2x1_adc.c:647:34
	ldr	r2, [sp, #4]
	ldr	r1, __arm_cp.21_0
	.loc	4 647 19 is_stmt 0              @ ../std/GD32C2x1_Firmware_Library/GD32C2x1_standard_peripheral/Source/gd32c2x1_adc.c:647:19
	ldr	r0, [r1]
	bics	r0, r2
	str	r0, [r1]
	b	.LBB21_3
.Ltmp149:
.LBB21_3:
	.loc	4 649 1 is_stmt 1               @ ../std/GD32C2x1_Firmware_Library/GD32C2x1_standard_peripheral/Source/gd32c2x1_adc.c:649:1
	add	sp, #8
	bx	lr
.Ltmp150:
	.p2align	2
@ %bb.4:
	.loc	4 0 1 is_stmt 0                 @ ../std/GD32C2x1_Firmware_Library/GD32C2x1_standard_peripheral/Source/gd32c2x1_adc.c:0:1
__arm_cp.21_0:
	.long	1073816656                      @ 0x40012450
.Lcpi_end40:
	.size	__arm_cp.21_0, .Lcpi_end40-__arm_cp.21_0
.Lfunc_end21:
	.size	adc_watchdog1_channel_config, .Lfunc_end21-adc_watchdog1_channel_config
	.cfi_endproc
	.cantunwind
	.fnend
                                        @ -- End function
	.section	.text.adc_watchdog2_channel_config,"ax",%progbits
	.hidden	adc_watchdog2_channel_config    @ -- Begin function adc_watchdog2_channel_config
	.globl	adc_watchdog2_channel_config
	.p2align	2
	.type	adc_watchdog2_channel_config,%function
	.code	16                              @ @adc_watchdog2_channel_config
	.thumb_func
adc_watchdog2_channel_config:
.Lfunc_begin22:
	.loc	4 661 0 is_stmt 1               @ ../std/GD32C2x1_Firmware_Library/GD32C2x1_standard_peripheral/Source/gd32c2x1_adc.c:661:0
	.fnstart
	.cfi_startproc
@ %bb.0:
	.pad	#8
	sub	sp, #8
	.cfi_def_cfa_offset 8
                                        @ kill: def $r2 killed $r1
	str	r0, [sp, #4]
	mov	r0, sp
	strb	r1, [r0]
.Ltmp151:
	.loc	4 662 18 prologue_end           @ ../std/GD32C2x1_Firmware_Library/GD32C2x1_standard_peripheral/Source/gd32c2x1_adc.c:662:18
	ldrb	r0, [r0]
.Ltmp152:
	.loc	4 662 8 is_stmt 0               @ ../std/GD32C2x1_Firmware_Library/GD32C2x1_standard_peripheral/Source/gd32c2x1_adc.c:662:8
	cmp	r0, #1
	bne	.LBB22_2
	b	.LBB22_1
.LBB22_1:
.Ltmp153:
	.loc	4 663 32 is_stmt 1              @ ../std/GD32C2x1_Firmware_Library/GD32C2x1_standard_peripheral/Source/gd32c2x1_adc.c:663:32
	ldr	r2, [sp, #4]
	ldr	r1, __arm_cp.22_0
	.loc	4 663 19 is_stmt 0              @ ../std/GD32C2x1_Firmware_Library/GD32C2x1_standard_peripheral/Source/gd32c2x1_adc.c:663:19
	ldr	r0, [r1]
	orrs	r0, r2
	str	r0, [r1]
	.loc	4 664 5 is_stmt 1               @ ../std/GD32C2x1_Firmware_Library/GD32C2x1_standard_peripheral/Source/gd32c2x1_adc.c:664:5
	b	.LBB22_3
.Ltmp154:
.LBB22_2:
	.loc	4 665 34                        @ ../std/GD32C2x1_Firmware_Library/GD32C2x1_standard_peripheral/Source/gd32c2x1_adc.c:665:34
	ldr	r2, [sp, #4]
	ldr	r1, __arm_cp.22_0
	.loc	4 665 19 is_stmt 0              @ ../std/GD32C2x1_Firmware_Library/GD32C2x1_standard_peripheral/Source/gd32c2x1_adc.c:665:19
	ldr	r0, [r1]
	bics	r0, r2
	str	r0, [r1]
	b	.LBB22_3
.Ltmp155:
.LBB22_3:
	.loc	4 667 1 is_stmt 1               @ ../std/GD32C2x1_Firmware_Library/GD32C2x1_standard_peripheral/Source/gd32c2x1_adc.c:667:1
	add	sp, #8
	bx	lr
.Ltmp156:
	.p2align	2
@ %bb.4:
	.loc	4 0 1 is_stmt 0                 @ ../std/GD32C2x1_Firmware_Library/GD32C2x1_standard_peripheral/Source/gd32c2x1_adc.c:0:1
__arm_cp.22_0:
	.long	1073816660                      @ 0x40012454
.Lcpi_end41:
	.size	__arm_cp.22_0, .Lcpi_end41-__arm_cp.22_0
.Lfunc_end22:
	.size	adc_watchdog2_channel_config, .Lfunc_end22-adc_watchdog2_channel_config
	.cfi_endproc
	.cantunwind
	.fnend
                                        @ -- End function
	.section	.text.adc_watchdog1_disable,"ax",%progbits
	.hidden	adc_watchdog1_disable           @ -- Begin function adc_watchdog1_disable
	.globl	adc_watchdog1_disable
	.p2align	2
	.type	adc_watchdog1_disable,%function
	.code	16                              @ @adc_watchdog1_disable
	.thumb_func
adc_watchdog1_disable:
.Lfunc_begin23:
	.loc	4 676 0 is_stmt 1               @ ../std/GD32C2x1_Firmware_Library/GD32C2x1_standard_peripheral/Source/gd32c2x1_adc.c:676:0
	.fnstart
	.cfi_startproc
@ %bb.0:
	ldr	r1, __arm_cp.23_0
.Ltmp157:
	.loc	4 677 15 prologue_end           @ ../std/GD32C2x1_Firmware_Library/GD32C2x1_standard_peripheral/Source/gd32c2x1_adc.c:677:15
	ldr	r0, [r1]
	ldr	r2, __arm_cp.23_1
	ands	r0, r2
	str	r0, [r1]
	.loc	4 678 1                         @ ../std/GD32C2x1_Firmware_Library/GD32C2x1_standard_peripheral/Source/gd32c2x1_adc.c:678:1
	bx	lr
.Ltmp158:
	.p2align	2
@ %bb.1:
	.loc	4 0 1 is_stmt 0                 @ ../std/GD32C2x1_Firmware_Library/GD32C2x1_standard_peripheral/Source/gd32c2x1_adc.c:0:1
__arm_cp.23_0:
	.long	1073816656                      @ 0x40012450
.Lcpi_end42:
	.size	__arm_cp.23_0, .Lcpi_end42-__arm_cp.23_0
__arm_cp.23_1:
	.long	4294901760                      @ 0xffff0000
.Lcpi_end43:
	.size	__arm_cp.23_1, .Lcpi_end43-__arm_cp.23_1
.Lfunc_end23:
	.size	adc_watchdog1_disable, .Lfunc_end23-adc_watchdog1_disable
	.cfi_endproc
	.cantunwind
	.fnend
                                        @ -- End function
	.section	.text.adc_watchdog2_disable,"ax",%progbits
	.hidden	adc_watchdog2_disable           @ -- Begin function adc_watchdog2_disable
	.globl	adc_watchdog2_disable
	.p2align	2
	.type	adc_watchdog2_disable,%function
	.code	16                              @ @adc_watchdog2_disable
	.thumb_func
adc_watchdog2_disable:
.Lfunc_begin24:
	.loc	4 687 0 is_stmt 1               @ ../std/GD32C2x1_Firmware_Library/GD32C2x1_standard_peripheral/Source/gd32c2x1_adc.c:687:0
	.fnstart
	.cfi_startproc
@ %bb.0:
	ldr	r1, __arm_cp.24_0
.Ltmp159:
	.loc	4 688 15 prologue_end           @ ../std/GD32C2x1_Firmware_Library/GD32C2x1_standard_peripheral/Source/gd32c2x1_adc.c:688:15
	ldr	r0, [r1]
	ldr	r2, __arm_cp.24_1
	ands	r0, r2
	str	r0, [r1]
	.loc	4 689 1                         @ ../std/GD32C2x1_Firmware_Library/GD32C2x1_standard_peripheral/Source/gd32c2x1_adc.c:689:1
	bx	lr
.Ltmp160:
	.p2align	2
@ %bb.1:
	.loc	4 0 1 is_stmt 0                 @ ../std/GD32C2x1_Firmware_Library/GD32C2x1_standard_peripheral/Source/gd32c2x1_adc.c:0:1
__arm_cp.24_0:
	.long	1073816660                      @ 0x40012454
.Lcpi_end44:
	.size	__arm_cp.24_0, .Lcpi_end44-__arm_cp.24_0
__arm_cp.24_1:
	.long	4294901760                      @ 0xffff0000
.Lcpi_end45:
	.size	__arm_cp.24_1, .Lcpi_end45-__arm_cp.24_1
.Lfunc_end24:
	.size	adc_watchdog2_disable, .Lfunc_end24-adc_watchdog2_disable
	.cfi_endproc
	.cantunwind
	.fnend
                                        @ -- End function
	.section	.text.adc_watchdog0_threshold_config,"ax",%progbits
	.hidden	adc_watchdog0_threshold_config  @ -- Begin function adc_watchdog0_threshold_config
	.globl	adc_watchdog0_threshold_config
	.p2align	2
	.type	adc_watchdog0_threshold_config,%function
	.code	16                              @ @adc_watchdog0_threshold_config
	.thumb_func
adc_watchdog0_threshold_config:
.Lfunc_begin25:
	.loc	4 699 0 is_stmt 1               @ ../std/GD32C2x1_Firmware_Library/GD32C2x1_standard_peripheral/Source/gd32c2x1_adc.c:699:0
	.fnstart
	.cfi_startproc
@ %bb.0:
	.pad	#8
	sub	sp, #8
	.cfi_def_cfa_offset 8
	str	r0, [sp, #4]
	str	r1, [sp]
.Ltmp161:
	.loc	4 700 27 prologue_end           @ ../std/GD32C2x1_Firmware_Library/GD32C2x1_standard_peripheral/Source/gd32c2x1_adc.c:700:27
	ldr	r0, [sp, #4]
	ldr	r1, __arm_cp.25_0
	ands	r0, r1
	ldr	r2, __arm_cp.25_1
	.loc	4 700 15 is_stmt 0              @ ../std/GD32C2x1_Firmware_Library/GD32C2x1_standard_peripheral/Source/gd32c2x1_adc.c:700:15
	str	r0, [r2]
	.loc	4 701 27 is_stmt 1              @ ../std/GD32C2x1_Firmware_Library/GD32C2x1_standard_peripheral/Source/gd32c2x1_adc.c:701:27
	ldr	r0, [sp]
	ands	r0, r1
	ldr	r1, __arm_cp.25_2
	.loc	4 701 15 is_stmt 0              @ ../std/GD32C2x1_Firmware_Library/GD32C2x1_standard_peripheral/Source/gd32c2x1_adc.c:701:15
	str	r0, [r1]
	.loc	4 702 1 is_stmt 1               @ ../std/GD32C2x1_Firmware_Library/GD32C2x1_standard_peripheral/Source/gd32c2x1_adc.c:702:1
	add	sp, #8
	bx	lr
.Ltmp162:
	.p2align	2
@ %bb.1:
	.loc	4 0 1 is_stmt 0                 @ ../std/GD32C2x1_Firmware_Library/GD32C2x1_standard_peripheral/Source/gd32c2x1_adc.c:0:1
__arm_cp.25_0:
	.long	4095                            @ 0xfff
.Lcpi_end46:
	.size	__arm_cp.25_0, .Lcpi_end46-__arm_cp.25_0
__arm_cp.25_1:
	.long	1073816616                      @ 0x40012428
.Lcpi_end47:
	.size	__arm_cp.25_1, .Lcpi_end47-__arm_cp.25_1
__arm_cp.25_2:
	.long	1073816612                      @ 0x40012424
.Lcpi_end48:
	.size	__arm_cp.25_2, .Lcpi_end48-__arm_cp.25_2
.Lfunc_end25:
	.size	adc_watchdog0_threshold_config, .Lfunc_end25-adc_watchdog0_threshold_config
	.cfi_endproc
	.cantunwind
	.fnend
                                        @ -- End function
	.section	.text.adc_watchdog1_threshold_config,"ax",%progbits
	.hidden	adc_watchdog1_threshold_config  @ -- Begin function adc_watchdog1_threshold_config
	.globl	adc_watchdog1_threshold_config
	.p2align	2
	.type	adc_watchdog1_threshold_config,%function
	.code	16                              @ @adc_watchdog1_threshold_config
	.thumb_func
adc_watchdog1_threshold_config:
.Lfunc_begin26:
	.loc	4 712 0 is_stmt 1               @ ../std/GD32C2x1_Firmware_Library/GD32C2x1_standard_peripheral/Source/gd32c2x1_adc.c:712:0
	.fnstart
	.cfi_startproc
@ %bb.0:
	.pad	#8
	sub	sp, #8
	.cfi_def_cfa_offset 8
	str	r0, [sp, #4]
	str	r1, [sp]
.Ltmp163:
	.loc	4 713 27 prologue_end           @ ../std/GD32C2x1_Firmware_Library/GD32C2x1_standard_peripheral/Source/gd32c2x1_adc.c:713:27
	ldr	r0, [sp, #4]
	ldr	r1, __arm_cp.26_0
	ands	r0, r1
	ldr	r2, __arm_cp.26_1
	.loc	4 713 15 is_stmt 0              @ ../std/GD32C2x1_Firmware_Library/GD32C2x1_standard_peripheral/Source/gd32c2x1_adc.c:713:15
	str	r0, [r2]
	.loc	4 714 27 is_stmt 1              @ ../std/GD32C2x1_Firmware_Library/GD32C2x1_standard_peripheral/Source/gd32c2x1_adc.c:714:27
	ldr	r0, [sp]
	ands	r0, r1
	ldr	r1, __arm_cp.26_2
	.loc	4 714 15 is_stmt 0              @ ../std/GD32C2x1_Firmware_Library/GD32C2x1_standard_peripheral/Source/gd32c2x1_adc.c:714:15
	str	r0, [r1]
	.loc	4 715 1 is_stmt 1               @ ../std/GD32C2x1_Firmware_Library/GD32C2x1_standard_peripheral/Source/gd32c2x1_adc.c:715:1
	add	sp, #8
	bx	lr
.Ltmp164:
	.p2align	2
@ %bb.1:
	.loc	4 0 1 is_stmt 0                 @ ../std/GD32C2x1_Firmware_Library/GD32C2x1_standard_peripheral/Source/gd32c2x1_adc.c:0:1
__arm_cp.26_0:
	.long	4095                            @ 0xfff
.Lcpi_end49:
	.size	__arm_cp.26_0, .Lcpi_end49-__arm_cp.26_0
__arm_cp.26_1:
	.long	1073816668                      @ 0x4001245c
.Lcpi_end50:
	.size	__arm_cp.26_1, .Lcpi_end50-__arm_cp.26_1
__arm_cp.26_2:
	.long	1073816664                      @ 0x40012458
.Lcpi_end51:
	.size	__arm_cp.26_2, .Lcpi_end51-__arm_cp.26_2
.Lfunc_end26:
	.size	adc_watchdog1_threshold_config, .Lfunc_end26-adc_watchdog1_threshold_config
	.cfi_endproc
	.cantunwind
	.fnend
                                        @ -- End function
	.section	.text.adc_watchdog2_threshold_config,"ax",%progbits
	.hidden	adc_watchdog2_threshold_config  @ -- Begin function adc_watchdog2_threshold_config
	.globl	adc_watchdog2_threshold_config
	.p2align	2
	.type	adc_watchdog2_threshold_config,%function
	.code	16                              @ @adc_watchdog2_threshold_config
	.thumb_func
adc_watchdog2_threshold_config:
.Lfunc_begin27:
	.loc	4 725 0 is_stmt 1               @ ../std/GD32C2x1_Firmware_Library/GD32C2x1_standard_peripheral/Source/gd32c2x1_adc.c:725:0
	.fnstart
	.cfi_startproc
@ %bb.0:
	.pad	#8
	sub	sp, #8
	.cfi_def_cfa_offset 8
	str	r0, [sp, #4]
	str	r1, [sp]
.Ltmp165:
	.loc	4 726 27 prologue_end           @ ../std/GD32C2x1_Firmware_Library/GD32C2x1_standard_peripheral/Source/gd32c2x1_adc.c:726:27
	ldr	r0, [sp, #4]
	ldr	r1, __arm_cp.27_0
	ands	r0, r1
	ldr	r2, __arm_cp.27_1
	.loc	4 726 15 is_stmt 0              @ ../std/GD32C2x1_Firmware_Library/GD32C2x1_standard_peripheral/Source/gd32c2x1_adc.c:726:15
	str	r0, [r2]
	.loc	4 727 27 is_stmt 1              @ ../std/GD32C2x1_Firmware_Library/GD32C2x1_standard_peripheral/Source/gd32c2x1_adc.c:727:27
	ldr	r0, [sp]
	ands	r0, r1
	ldr	r1, __arm_cp.27_2
	.loc	4 727 15 is_stmt 0              @ ../std/GD32C2x1_Firmware_Library/GD32C2x1_standard_peripheral/Source/gd32c2x1_adc.c:727:15
	str	r0, [r1]
	.loc	4 728 1 is_stmt 1               @ ../std/GD32C2x1_Firmware_Library/GD32C2x1_standard_peripheral/Source/gd32c2x1_adc.c:728:1
	add	sp, #8
	bx	lr
.Ltmp166:
	.p2align	2
@ %bb.1:
	.loc	4 0 1 is_stmt 0                 @ ../std/GD32C2x1_Firmware_Library/GD32C2x1_standard_peripheral/Source/gd32c2x1_adc.c:0:1
__arm_cp.27_0:
	.long	4095                            @ 0xfff
.Lcpi_end52:
	.size	__arm_cp.27_0, .Lcpi_end52-__arm_cp.27_0
__arm_cp.27_1:
	.long	1073816676                      @ 0x40012464
.Lcpi_end53:
	.size	__arm_cp.27_1, .Lcpi_end53-__arm_cp.27_1
__arm_cp.27_2:
	.long	1073816672                      @ 0x40012460
.Lcpi_end54:
	.size	__arm_cp.27_2, .Lcpi_end54-__arm_cp.27_2
.Lfunc_end27:
	.size	adc_watchdog2_threshold_config, .Lfunc_end27-adc_watchdog2_threshold_config
	.cfi_endproc
	.cantunwind
	.fnend
                                        @ -- End function
	.section	.text.adc_resolution_config,"ax",%progbits
	.hidden	adc_resolution_config           @ -- Begin function adc_resolution_config
	.globl	adc_resolution_config
	.p2align	2
	.type	adc_resolution_config,%function
	.code	16                              @ @adc_resolution_config
	.thumb_func
adc_resolution_config:
.Lfunc_begin28:
	.loc	4 742 0 is_stmt 1               @ ../std/GD32C2x1_Firmware_Library/GD32C2x1_standard_peripheral/Source/gd32c2x1_adc.c:742:0
	.fnstart
	.cfi_startproc
@ %bb.0:
	.pad	#4
	sub	sp, #4
	.cfi_def_cfa_offset 4
	str	r0, [sp]
	ldr	r1, __arm_cp.28_0
.Ltmp167:
	.loc	4 743 14 prologue_end           @ ../std/GD32C2x1_Firmware_Library/GD32C2x1_standard_peripheral/Source/gd32c2x1_adc.c:743:14
	ldr	r2, [r1]
	movs	r0, #3
	lsls	r0, r0, #24
	bics	r2, r0
	str	r2, [r1]
	.loc	4 744 28                        @ ../std/GD32C2x1_Firmware_Library/GD32C2x1_standard_peripheral/Source/gd32c2x1_adc.c:744:28
	ldr	r2, [sp]
	.loc	4 744 39 is_stmt 0              @ ../std/GD32C2x1_Firmware_Library/GD32C2x1_standard_peripheral/Source/gd32c2x1_adc.c:744:39
	ands	r2, r0
	.loc	4 744 14                        @ ../std/GD32C2x1_Firmware_Library/GD32C2x1_standard_peripheral/Source/gd32c2x1_adc.c:744:14
	ldr	r0, [r1]
	orrs	r0, r2
	str	r0, [r1]
	.loc	4 745 1 is_stmt 1               @ ../std/GD32C2x1_Firmware_Library/GD32C2x1_standard_peripheral/Source/gd32c2x1_adc.c:745:1
	add	sp, #4
	bx	lr
.Ltmp168:
	.p2align	2
@ %bb.1:
	.loc	4 0 1 is_stmt 0                 @ ../std/GD32C2x1_Firmware_Library/GD32C2x1_standard_peripheral/Source/gd32c2x1_adc.c:0:1
__arm_cp.28_0:
	.long	1073816580                      @ 0x40012404
.Lcpi_end55:
	.size	__arm_cp.28_0, .Lcpi_end55-__arm_cp.28_0
.Lfunc_end28:
	.size	adc_resolution_config, .Lfunc_end28-adc_resolution_config
	.cfi_endproc
	.cantunwind
	.fnend
                                        @ -- End function
	.section	.text.adc_oversample_mode_config,"ax",%progbits
	.hidden	adc_oversample_mode_config      @ -- Begin function adc_oversample_mode_config
	.globl	adc_oversample_mode_config
	.p2align	2
	.type	adc_oversample_mode_config,%function
	.code	16                              @ @adc_oversample_mode_config
	.thumb_func
adc_oversample_mode_config:
.Lfunc_begin29:
	.loc	4 778 0 is_stmt 1               @ ../std/GD32C2x1_Firmware_Library/GD32C2x1_standard_peripheral/Source/gd32c2x1_adc.c:778:0
	.fnstart
	.cfi_startproc
@ %bb.0:
	.pad	#12
	sub	sp, #12
	.cfi_def_cfa_offset 12
                                        @ kill: def $r3 killed $r2
                                        @ kill: def $r3 killed $r1
	str	r0, [sp, #8]
	add	r0, sp, #4
	strh	r1, [r0]
	mov	r0, sp
	strb	r2, [r0]
.Ltmp169:
	.loc	4 780 40 prologue_end           @ ../std/GD32C2x1_Firmware_Library/GD32C2x1_standard_peripheral/Source/gd32c2x1_adc.c:780:40
	ldr	r0, [sp, #8]
	movw	r1, #512
.Ltmp170:
	.loc	4 780 8 is_stmt 0               @ ../std/GD32C2x1_Firmware_Library/GD32C2x1_standard_peripheral/Source/gd32c2x1_adc.c:780:8
	cmp	r0, r1
	bne	.LBB29_2
	b	.LBB29_1
.LBB29_1:
	.loc	4 0 8                           @ ../std/GD32C2x1_Firmware_Library/GD32C2x1_standard_peripheral/Source/gd32c2x1_adc.c:0:8
	ldr	r1, __arm_cp.29_0
.Ltmp171:
	.loc	4 781 23 is_stmt 1              @ ../std/GD32C2x1_Firmware_Library/GD32C2x1_standard_peripheral/Source/gd32c2x1_adc.c:781:23
	ldr	r0, [r1]
	movw	r2, #512
	orrs	r0, r2
	str	r0, [r1]
	.loc	4 782 5                         @ ../std/GD32C2x1_Firmware_Library/GD32C2x1_standard_peripheral/Source/gd32c2x1_adc.c:782:5
	b	.LBB29_3
.Ltmp172:
.LBB29_2:
	.loc	4 0 5 is_stmt 0                 @ ../std/GD32C2x1_Firmware_Library/GD32C2x1_standard_peripheral/Source/gd32c2x1_adc.c:0:5
	ldr	r1, __arm_cp.29_0
.Ltmp173:
	.loc	4 783 23 is_stmt 1              @ ../std/GD32C2x1_Firmware_Library/GD32C2x1_standard_peripheral/Source/gd32c2x1_adc.c:783:23
	ldr	r0, [r1]
	movw	r2, #512
	bics	r0, r2
	str	r0, [r1]
	b	.LBB29_3
.Ltmp174:
.LBB29_3:
	.loc	4 0 23 is_stmt 0                @ ../std/GD32C2x1_Firmware_Library/GD32C2x1_standard_peripheral/Source/gd32c2x1_adc.c:0:23
	ldr	r1, __arm_cp.29_0
	.loc	4 786 19 is_stmt 1              @ ../std/GD32C2x1_Firmware_Library/GD32C2x1_standard_peripheral/Source/gd32c2x1_adc.c:786:19
	ldr	r0, [r1]
	movw	r2, #508
	bics	r0, r2
	str	r0, [r1]
	add	r0, sp, #4
	.loc	4 787 34                        @ ../std/GD32C2x1_Firmware_Library/GD32C2x1_standard_peripheral/Source/gd32c2x1_adc.c:787:34
	ldrh	r0, [r0]
	movw	r2, #480
	.loc	4 787 40 is_stmt 0              @ ../std/GD32C2x1_Firmware_Library/GD32C2x1_standard_peripheral/Source/gd32c2x1_adc.c:787:40
	ands	r0, r2
	mov	r2, sp
	.loc	4 787 75                        @ ../std/GD32C2x1_Firmware_Library/GD32C2x1_standard_peripheral/Source/gd32c2x1_adc.c:787:75
	ldrb	r2, [r2]
	movs	r3, #28
	.loc	4 787 81                        @ ../std/GD32C2x1_Firmware_Library/GD32C2x1_standard_peripheral/Source/gd32c2x1_adc.c:787:81
	ands	r2, r3
	.loc	4 787 62                        @ ../std/GD32C2x1_Firmware_Library/GD32C2x1_standard_peripheral/Source/gd32c2x1_adc.c:787:62
	adds	r2, r0, r2
	.loc	4 787 19                        @ ../std/GD32C2x1_Firmware_Library/GD32C2x1_standard_peripheral/Source/gd32c2x1_adc.c:787:19
	ldr	r0, [r1]
	orrs	r0, r2
	str	r0, [r1]
	.loc	4 788 1 is_stmt 1               @ ../std/GD32C2x1_Firmware_Library/GD32C2x1_standard_peripheral/Source/gd32c2x1_adc.c:788:1
	add	sp, #12
	bx	lr
.Ltmp175:
	.p2align	2
@ %bb.4:
	.loc	4 0 1 is_stmt 0                 @ ../std/GD32C2x1_Firmware_Library/GD32C2x1_standard_peripheral/Source/gd32c2x1_adc.c:0:1
__arm_cp.29_0:
	.long	1073816704                      @ 0x40012480
.Lcpi_end56:
	.size	__arm_cp.29_0, .Lcpi_end56-__arm_cp.29_0
.Lfunc_end29:
	.size	adc_oversample_mode_config, .Lfunc_end29-adc_oversample_mode_config
	.cfi_endproc
	.cantunwind
	.fnend
                                        @ -- End function
	.section	.text.adc_oversample_mode_enable,"ax",%progbits
	.hidden	adc_oversample_mode_enable      @ -- Begin function adc_oversample_mode_enable
	.globl	adc_oversample_mode_enable
	.p2align	2
	.type	adc_oversample_mode_enable,%function
	.code	16                              @ @adc_oversample_mode_enable
	.thumb_func
adc_oversample_mode_enable:
.Lfunc_begin30:
	.loc	4 797 0 is_stmt 1               @ ../std/GD32C2x1_Firmware_Library/GD32C2x1_standard_peripheral/Source/gd32c2x1_adc.c:797:0
	.fnstart
	.cfi_startproc
@ %bb.0:
	ldr	r1, __arm_cp.30_0
.Ltmp176:
	.loc	4 798 19 prologue_end           @ ../std/GD32C2x1_Firmware_Library/GD32C2x1_standard_peripheral/Source/gd32c2x1_adc.c:798:19
	ldr	r0, [r1]
	movs	r2, #1
	orrs	r0, r2
	str	r0, [r1]
	.loc	4 799 1                         @ ../std/GD32C2x1_Firmware_Library/GD32C2x1_standard_peripheral/Source/gd32c2x1_adc.c:799:1
	bx	lr
.Ltmp177:
	.p2align	2
@ %bb.1:
	.loc	4 0 1 is_stmt 0                 @ ../std/GD32C2x1_Firmware_Library/GD32C2x1_standard_peripheral/Source/gd32c2x1_adc.c:0:1
__arm_cp.30_0:
	.long	1073816704                      @ 0x40012480
.Lcpi_end57:
	.size	__arm_cp.30_0, .Lcpi_end57-__arm_cp.30_0
.Lfunc_end30:
	.size	adc_oversample_mode_enable, .Lfunc_end30-adc_oversample_mode_enable
	.cfi_endproc
	.cantunwind
	.fnend
                                        @ -- End function
	.section	.text.adc_oversample_mode_disable,"ax",%progbits
	.hidden	adc_oversample_mode_disable     @ -- Begin function adc_oversample_mode_disable
	.globl	adc_oversample_mode_disable
	.p2align	2
	.type	adc_oversample_mode_disable,%function
	.code	16                              @ @adc_oversample_mode_disable
	.thumb_func
adc_oversample_mode_disable:
.Lfunc_begin31:
	.loc	4 808 0 is_stmt 1               @ ../std/GD32C2x1_Firmware_Library/GD32C2x1_standard_peripheral/Source/gd32c2x1_adc.c:808:0
	.fnstart
	.cfi_startproc
@ %bb.0:
	ldr	r1, __arm_cp.31_0
.Ltmp178:
	.loc	4 809 19 prologue_end           @ ../std/GD32C2x1_Firmware_Library/GD32C2x1_standard_peripheral/Source/gd32c2x1_adc.c:809:19
	ldr	r0, [r1]
	movs	r2, #1
	bics	r0, r2
	str	r0, [r1]
	.loc	4 810 1                         @ ../std/GD32C2x1_Firmware_Library/GD32C2x1_standard_peripheral/Source/gd32c2x1_adc.c:810:1
	bx	lr
.Ltmp179:
	.p2align	2
@ %bb.1:
	.loc	4 0 1 is_stmt 0                 @ ../std/GD32C2x1_Firmware_Library/GD32C2x1_standard_peripheral/Source/gd32c2x1_adc.c:0:1
__arm_cp.31_0:
	.long	1073816704                      @ 0x40012480
.Lcpi_end58:
	.size	__arm_cp.31_0, .Lcpi_end58-__arm_cp.31_0
.Lfunc_end31:
	.size	adc_oversample_mode_disable, .Lfunc_end31-adc_oversample_mode_disable
	.cfi_endproc
	.cantunwind
	.fnend
                                        @ -- End function
	.section	.text.adc_flag_get,"ax",%progbits
	.hidden	adc_flag_get                    @ -- Begin function adc_flag_get
	.globl	adc_flag_get
	.p2align	2
	.type	adc_flag_get,%function
	.code	16                              @ @adc_flag_get
	.thumb_func
adc_flag_get:
.Lfunc_begin32:
	.loc	4 827 0 is_stmt 1               @ ../std/GD32C2x1_Firmware_Library/GD32C2x1_standard_peripheral/Source/gd32c2x1_adc.c:827:0
	.fnstart
	.cfi_startproc
@ %bb.0:
	.pad	#8
	sub	sp, #8
	.cfi_def_cfa_offset 8
	str	r0, [sp, #4]
	mov	r1, sp
	movs	r0, #0
.Ltmp180:
	.loc	4 828 16 prologue_end           @ ../std/GD32C2x1_Firmware_Library/GD32C2x1_standard_peripheral/Source/gd32c2x1_adc.c:828:16
	strb	r0, [r1]
	ldr	r0, __arm_cp.32_0
.Ltmp181:
	.loc	4 830 15                        @ ../std/GD32C2x1_Firmware_Library/GD32C2x1_standard_peripheral/Source/gd32c2x1_adc.c:830:15
	ldr	r0, [r0]
	.loc	4 830 26 is_stmt 0              @ ../std/GD32C2x1_Firmware_Library/GD32C2x1_standard_peripheral/Source/gd32c2x1_adc.c:830:26
	ldr	r1, [sp, #4]
.Ltmp182:
	.loc	4 830 8                         @ ../std/GD32C2x1_Firmware_Library/GD32C2x1_standard_peripheral/Source/gd32c2x1_adc.c:830:8
	tst	r0, r1
	beq	.LBB32_2
	b	.LBB32_1
.LBB32_1:
	.loc	4 0 8                           @ ../std/GD32C2x1_Firmware_Library/GD32C2x1_standard_peripheral/Source/gd32c2x1_adc.c:0:8
	mov	r1, sp
	movs	r0, #1
.Ltmp183:
	.loc	4 831 15 is_stmt 1              @ ../std/GD32C2x1_Firmware_Library/GD32C2x1_standard_peripheral/Source/gd32c2x1_adc.c:831:15
	strb	r0, [r1]
	.loc	4 832 5                         @ ../std/GD32C2x1_Firmware_Library/GD32C2x1_standard_peripheral/Source/gd32c2x1_adc.c:832:5
	b	.LBB32_2
.Ltmp184:
.LBB32_2:
	.loc	4 0 5 is_stmt 0                 @ ../std/GD32C2x1_Firmware_Library/GD32C2x1_standard_peripheral/Source/gd32c2x1_adc.c:0:5
	mov	r0, sp
	.loc	4 833 12 is_stmt 1              @ ../std/GD32C2x1_Firmware_Library/GD32C2x1_standard_peripheral/Source/gd32c2x1_adc.c:833:12
	ldrb	r0, [r0]
	.loc	4 833 5 is_stmt 0               @ ../std/GD32C2x1_Firmware_Library/GD32C2x1_standard_peripheral/Source/gd32c2x1_adc.c:833:5
	add	sp, #8
	bx	lr
.Ltmp185:
	.p2align	2
@ %bb.3:
	.loc	4 0 5                           @ ../std/GD32C2x1_Firmware_Library/GD32C2x1_standard_peripheral/Source/gd32c2x1_adc.c:0:5
__arm_cp.32_0:
	.long	1073816576                      @ 0x40012400
.Lcpi_end59:
	.size	__arm_cp.32_0, .Lcpi_end59-__arm_cp.32_0
.Lfunc_end32:
	.size	adc_flag_get, .Lfunc_end32-adc_flag_get
	.cfi_endproc
	.cantunwind
	.fnend
                                        @ -- End function
	.section	.text.adc_flag_clear,"ax",%progbits
	.hidden	adc_flag_clear                  @ -- Begin function adc_flag_clear
	.globl	adc_flag_clear
	.p2align	2
	.type	adc_flag_clear,%function
	.code	16                              @ @adc_flag_clear
	.thumb_func
adc_flag_clear:
.Lfunc_begin33:
	.loc	4 851 0 is_stmt 1               @ ../std/GD32C2x1_Firmware_Library/GD32C2x1_standard_peripheral/Source/gd32c2x1_adc.c:851:0
	.fnstart
	.cfi_startproc
@ %bb.0:
	.pad	#4
	sub	sp, #4
	.cfi_def_cfa_offset 4
	str	r0, [sp]
.Ltmp186:
	.loc	4 852 29 prologue_end           @ ../std/GD32C2x1_Firmware_Library/GD32C2x1_standard_peripheral/Source/gd32c2x1_adc.c:852:29
	ldr	r0, [sp]
	mvns	r2, r0
	ldr	r0, __arm_cp.33_0
	.loc	4 852 17 is_stmt 0              @ ../std/GD32C2x1_Firmware_Library/GD32C2x1_standard_peripheral/Source/gd32c2x1_adc.c:852:17
	orrs	r2, r0
	ldr	r1, __arm_cp.33_1
	.loc	4 852 14                        @ ../std/GD32C2x1_Firmware_Library/GD32C2x1_standard_peripheral/Source/gd32c2x1_adc.c:852:14
	ldr	r0, [r1]
	ands	r0, r2
	str	r0, [r1]
	.loc	4 853 1 is_stmt 1               @ ../std/GD32C2x1_Firmware_Library/GD32C2x1_standard_peripheral/Source/gd32c2x1_adc.c:853:1
	add	sp, #4
	bx	lr
.Ltmp187:
	.p2align	2
@ %bb.1:
	.loc	4 0 1 is_stmt 0                 @ ../std/GD32C2x1_Firmware_Library/GD32C2x1_standard_peripheral/Source/gd32c2x1_adc.c:0:1
__arm_cp.33_0:
	.long	1073741792                      @ 0x3fffffe0
.Lcpi_end60:
	.size	__arm_cp.33_0, .Lcpi_end60-__arm_cp.33_0
__arm_cp.33_1:
	.long	1073816576                      @ 0x40012400
.Lcpi_end61:
	.size	__arm_cp.33_1, .Lcpi_end61-__arm_cp.33_1
.Lfunc_end33:
	.size	adc_flag_clear, .Lfunc_end33-adc_flag_clear
	.cfi_endproc
	.cantunwind
	.fnend
                                        @ -- End function
	.section	.text.adc_interrupt_enable,"ax",%progbits
	.hidden	adc_interrupt_enable            @ -- Begin function adc_interrupt_enable
	.globl	adc_interrupt_enable
	.p2align	2
	.type	adc_interrupt_enable,%function
	.code	16                              @ @adc_interrupt_enable
	.thumb_func
adc_interrupt_enable:
.Lfunc_begin34:
	.loc	4 868 0 is_stmt 1               @ ../std/GD32C2x1_Firmware_Library/GD32C2x1_standard_peripheral/Source/gd32c2x1_adc.c:868:0
	.fnstart
	.cfi_startproc
@ %bb.0:
	.pad	#4
	sub	sp, #4
	.cfi_def_cfa_offset 4
	str	r0, [sp]
.Ltmp188:
	.loc	4 869 28 prologue_end           @ ../std/GD32C2x1_Firmware_Library/GD32C2x1_standard_peripheral/Source/gd32c2x1_adc.c:869:28
	ldr	r2, [sp]
	ldr	r0, __arm_cp.34_0
	.loc	4 869 38 is_stmt 0              @ ../std/GD32C2x1_Firmware_Library/GD32C2x1_standard_peripheral/Source/gd32c2x1_adc.c:869:38
	ands	r2, r0
	ldr	r1, __arm_cp.34_1
	.loc	4 869 14                        @ ../std/GD32C2x1_Firmware_Library/GD32C2x1_standard_peripheral/Source/gd32c2x1_adc.c:869:14
	ldr	r0, [r1]
	orrs	r0, r2
	str	r0, [r1]
	.loc	4 870 1 is_stmt 1               @ ../std/GD32C2x1_Firmware_Library/GD32C2x1_standard_peripheral/Source/gd32c2x1_adc.c:870:1
	add	sp, #4
	bx	lr
.Ltmp189:
	.p2align	2
@ %bb.1:
	.loc	4 0 1 is_stmt 0                 @ ../std/GD32C2x1_Firmware_Library/GD32C2x1_standard_peripheral/Source/gd32c2x1_adc.c:0:1
__arm_cp.34_0:
	.long	3221225696                      @ 0xc00000e0
.Lcpi_end62:
	.size	__arm_cp.34_0, .Lcpi_end62-__arm_cp.34_0
__arm_cp.34_1:
	.long	1073816580                      @ 0x40012404
.Lcpi_end63:
	.size	__arm_cp.34_1, .Lcpi_end63-__arm_cp.34_1
.Lfunc_end34:
	.size	adc_interrupt_enable, .Lfunc_end34-adc_interrupt_enable
	.cfi_endproc
	.cantunwind
	.fnend
                                        @ -- End function
	.section	.text.adc_interrupt_disable,"ax",%progbits
	.hidden	adc_interrupt_disable           @ -- Begin function adc_interrupt_disable
	.globl	adc_interrupt_disable
	.p2align	2
	.type	adc_interrupt_disable,%function
	.code	16                              @ @adc_interrupt_disable
	.thumb_func
adc_interrupt_disable:
.Lfunc_begin35:
	.loc	4 885 0 is_stmt 1               @ ../std/GD32C2x1_Firmware_Library/GD32C2x1_standard_peripheral/Source/gd32c2x1_adc.c:885:0
	.fnstart
	.cfi_startproc
@ %bb.0:
	.pad	#4
	sub	sp, #4
	.cfi_def_cfa_offset 4
	str	r0, [sp]
.Ltmp190:
	.loc	4 886 29 prologue_end           @ ../std/GD32C2x1_Firmware_Library/GD32C2x1_standard_peripheral/Source/gd32c2x1_adc.c:886:29
	ldr	r0, [sp]
	mvns	r2, r0
	ldr	r0, __arm_cp.35_0
	.loc	4 886 17 is_stmt 0              @ ../std/GD32C2x1_Firmware_Library/GD32C2x1_standard_peripheral/Source/gd32c2x1_adc.c:886:17
	orrs	r2, r0
	ldr	r1, __arm_cp.35_1
	.loc	4 886 14                        @ ../std/GD32C2x1_Firmware_Library/GD32C2x1_standard_peripheral/Source/gd32c2x1_adc.c:886:14
	ldr	r0, [r1]
	ands	r0, r2
	str	r0, [r1]
	.loc	4 887 1 is_stmt 1               @ ../std/GD32C2x1_Firmware_Library/GD32C2x1_standard_peripheral/Source/gd32c2x1_adc.c:887:1
	add	sp, #4
	bx	lr
.Ltmp191:
	.p2align	2
@ %bb.1:
	.loc	4 0 1 is_stmt 0                 @ ../std/GD32C2x1_Firmware_Library/GD32C2x1_standard_peripheral/Source/gd32c2x1_adc.c:0:1
__arm_cp.35_0:
	.long	1073741599                      @ 0x3fffff1f
.Lcpi_end64:
	.size	__arm_cp.35_0, .Lcpi_end64-__arm_cp.35_0
__arm_cp.35_1:
	.long	1073816580                      @ 0x40012404
.Lcpi_end65:
	.size	__arm_cp.35_1, .Lcpi_end65-__arm_cp.35_1
.Lfunc_end35:
	.size	adc_interrupt_disable, .Lfunc_end35-adc_interrupt_disable
	.cfi_endproc
	.cantunwind
	.fnend
                                        @ -- End function
	.section	.text.adc_interrupt_flag_get,"ax",%progbits
	.hidden	adc_interrupt_flag_get          @ -- Begin function adc_interrupt_flag_get
	.globl	adc_interrupt_flag_get
	.p2align	2
	.type	adc_interrupt_flag_get,%function
	.code	16                              @ @adc_interrupt_flag_get
	.thumb_func
adc_interrupt_flag_get:
.Lfunc_begin36:
	.loc	4 902 0 is_stmt 1               @ ../std/GD32C2x1_Firmware_Library/GD32C2x1_standard_peripheral/Source/gd32c2x1_adc.c:902:0
	.fnstart
	.cfi_startproc
@ %bb.0:
	.pad	#16
	sub	sp, #16
	.cfi_def_cfa_offset 16
	str	r0, [sp, #12]
	add	r1, sp, #8
	movs	r0, #0
.Ltmp192:
	.loc	4 903 16 prologue_end           @ ../std/GD32C2x1_Firmware_Library/GD32C2x1_standard_peripheral/Source/gd32c2x1_adc.c:903:16
	strb	r0, [r1]
	.loc	4 907 12                        @ ../std/GD32C2x1_Firmware_Library/GD32C2x1_standard_peripheral/Source/gd32c2x1_adc.c:907:12
	ldr	r0, [sp, #12]
	str	r0, [sp]                        @ 4-byte Spill
	movs	r1, #1
	lsls	r1, r1, #31
	.loc	4 907 5 is_stmt 0               @ ../std/GD32C2x1_Firmware_Library/GD32C2x1_standard_peripheral/Source/gd32c2x1_adc.c:907:5
	cmp	r0, r1
	beq	.LBB36_13
	b	.LBB36_1
.LBB36_1:
	ldr	r0, [sp]                        @ 4-byte Reload
	cmp	r0, #1
	beq	.LBB36_5
	b	.LBB36_2
.LBB36_2:
	ldr	r0, [sp]                        @ 4-byte Reload
	cmp	r0, #2
	beq	.LBB36_17
	b	.LBB36_3
.LBB36_3:
	ldr	r0, [sp]                        @ 4-byte Reload
	cmp	r0, #4
	beq	.LBB36_21
	b	.LBB36_4
.LBB36_4:
	.loc	4 0 5                           @ ../std/GD32C2x1_Firmware_Library/GD32C2x1_standard_peripheral/Source/gd32c2x1_adc.c:0:5
	ldr	r0, [sp]                        @ 4-byte Reload
	movs	r1, #1
	lsls	r1, r1, #30
	.loc	4 907 5                         @ ../std/GD32C2x1_Firmware_Library/GD32C2x1_standard_peripheral/Source/gd32c2x1_adc.c:907:5
	cmp	r0, r1
	beq	.LBB36_9
	b	.LBB36_25
.LBB36_5:
	.loc	4 0 5                           @ ../std/GD32C2x1_Firmware_Library/GD32C2x1_standard_peripheral/Source/gd32c2x1_adc.c:0:5
	ldr	r0, __arm_cp.36_0
.Ltmp193:
	.loc	4 910 17 is_stmt 1              @ ../std/GD32C2x1_Firmware_Library/GD32C2x1_standard_peripheral/Source/gd32c2x1_adc.c:910:17
	ldr	r0, [r0]
	movs	r1, #1
	.loc	4 910 26 is_stmt 0              @ ../std/GD32C2x1_Firmware_Library/GD32C2x1_standard_peripheral/Source/gd32c2x1_adc.c:910:26
	ands	r0, r1
	.loc	4 910 15                        @ ../std/GD32C2x1_Firmware_Library/GD32C2x1_standard_peripheral/Source/gd32c2x1_adc.c:910:15
	str	r0, [sp, #4]
	ldr	r0, __arm_cp.36_1
.Ltmp194:
	.loc	4 911 20 is_stmt 1              @ ../std/GD32C2x1_Firmware_Library/GD32C2x1_standard_peripheral/Source/gd32c2x1_adc.c:911:20
	ldr	r0, [r0]
	.loc	4 911 49 is_stmt 0              @ ../std/GD32C2x1_Firmware_Library/GD32C2x1_standard_peripheral/Source/gd32c2x1_adc.c:911:49
	lsls	r0, r0, #25
	cmp	r0, #0
	bpl	.LBB36_8
	b	.LBB36_6
.LBB36_6:
	.loc	4 911 59                        @ ../std/GD32C2x1_Firmware_Library/GD32C2x1_standard_peripheral/Source/gd32c2x1_adc.c:911:59
	ldr	r0, [sp, #4]
.Ltmp195:
	.loc	4 911 12                        @ ../std/GD32C2x1_Firmware_Library/GD32C2x1_standard_peripheral/Source/gd32c2x1_adc.c:911:12
	cbz	r0, .LBB36_8
	b	.LBB36_7
.LBB36_7:
	.loc	4 0 12                          @ ../std/GD32C2x1_Firmware_Library/GD32C2x1_standard_peripheral/Source/gd32c2x1_adc.c:0:12
	add	r1, sp, #8
	movs	r0, #1
.Ltmp196:
	.loc	4 912 28 is_stmt 1              @ ../std/GD32C2x1_Firmware_Library/GD32C2x1_standard_peripheral/Source/gd32c2x1_adc.c:912:28
	strb	r0, [r1]
	.loc	4 913 9                         @ ../std/GD32C2x1_Firmware_Library/GD32C2x1_standard_peripheral/Source/gd32c2x1_adc.c:913:9
	b	.LBB36_8
.Ltmp197:
.LBB36_8:
	.loc	4 914 9                         @ ../std/GD32C2x1_Firmware_Library/GD32C2x1_standard_peripheral/Source/gd32c2x1_adc.c:914:9
	b	.LBB36_26
.LBB36_9:
	.loc	4 0 9 is_stmt 0                 @ ../std/GD32C2x1_Firmware_Library/GD32C2x1_standard_peripheral/Source/gd32c2x1_adc.c:0:9
	ldr	r0, __arm_cp.36_0
	.loc	4 917 17 is_stmt 1              @ ../std/GD32C2x1_Firmware_Library/GD32C2x1_standard_peripheral/Source/gd32c2x1_adc.c:917:17
	ldr	r0, [r0]
	movs	r1, #1
	lsls	r1, r1, #30
	.loc	4 917 26 is_stmt 0              @ ../std/GD32C2x1_Firmware_Library/GD32C2x1_standard_peripheral/Source/gd32c2x1_adc.c:917:26
	ands	r0, r1
	.loc	4 917 15                        @ ../std/GD32C2x1_Firmware_Library/GD32C2x1_standard_peripheral/Source/gd32c2x1_adc.c:917:15
	str	r0, [sp, #4]
	ldr	r0, __arm_cp.36_1
.Ltmp198:
	.loc	4 918 20 is_stmt 1              @ ../std/GD32C2x1_Firmware_Library/GD32C2x1_standard_peripheral/Source/gd32c2x1_adc.c:918:20
	ldr	r0, [r0]
	.loc	4 918 49 is_stmt 0              @ ../std/GD32C2x1_Firmware_Library/GD32C2x1_standard_peripheral/Source/gd32c2x1_adc.c:918:49
	lsls	r0, r0, #1
	cmp	r0, #0
	bpl	.LBB36_12
	b	.LBB36_10
.LBB36_10:
	.loc	4 918 59                        @ ../std/GD32C2x1_Firmware_Library/GD32C2x1_standard_peripheral/Source/gd32c2x1_adc.c:918:59
	ldr	r0, [sp, #4]
.Ltmp199:
	.loc	4 918 12                        @ ../std/GD32C2x1_Firmware_Library/GD32C2x1_standard_peripheral/Source/gd32c2x1_adc.c:918:12
	cbz	r0, .LBB36_12
	b	.LBB36_11
.LBB36_11:
	.loc	4 0 12                          @ ../std/GD32C2x1_Firmware_Library/GD32C2x1_standard_peripheral/Source/gd32c2x1_adc.c:0:12
	add	r1, sp, #8
	movs	r0, #1
.Ltmp200:
	.loc	4 919 28 is_stmt 1              @ ../std/GD32C2x1_Firmware_Library/GD32C2x1_standard_peripheral/Source/gd32c2x1_adc.c:919:28
	strb	r0, [r1]
	.loc	4 920 9                         @ ../std/GD32C2x1_Firmware_Library/GD32C2x1_standard_peripheral/Source/gd32c2x1_adc.c:920:9
	b	.LBB36_12
.Ltmp201:
.LBB36_12:
	.loc	4 921 9                         @ ../std/GD32C2x1_Firmware_Library/GD32C2x1_standard_peripheral/Source/gd32c2x1_adc.c:921:9
	b	.LBB36_26
.LBB36_13:
	.loc	4 0 9 is_stmt 0                 @ ../std/GD32C2x1_Firmware_Library/GD32C2x1_standard_peripheral/Source/gd32c2x1_adc.c:0:9
	ldr	r0, __arm_cp.36_0
	.loc	4 924 17 is_stmt 1              @ ../std/GD32C2x1_Firmware_Library/GD32C2x1_standard_peripheral/Source/gd32c2x1_adc.c:924:17
	ldr	r0, [r0]
	movs	r1, #1
	lsls	r1, r1, #31
	.loc	4 924 26 is_stmt 0              @ ../std/GD32C2x1_Firmware_Library/GD32C2x1_standard_peripheral/Source/gd32c2x1_adc.c:924:26
	ands	r0, r1
	.loc	4 924 15                        @ ../std/GD32C2x1_Firmware_Library/GD32C2x1_standard_peripheral/Source/gd32c2x1_adc.c:924:15
	str	r0, [sp, #4]
	ldr	r0, __arm_cp.36_1
.Ltmp202:
	.loc	4 925 20 is_stmt 1              @ ../std/GD32C2x1_Firmware_Library/GD32C2x1_standard_peripheral/Source/gd32c2x1_adc.c:925:20
	ldr	r0, [r0]
	.loc	4 925 49 is_stmt 0              @ ../std/GD32C2x1_Firmware_Library/GD32C2x1_standard_peripheral/Source/gd32c2x1_adc.c:925:49
	lsrs	r0, r0, #31
	cbz	r0, .LBB36_16
	b	.LBB36_14
.LBB36_14:
	.loc	4 925 59                        @ ../std/GD32C2x1_Firmware_Library/GD32C2x1_standard_peripheral/Source/gd32c2x1_adc.c:925:59
	ldr	r0, [sp, #4]
.Ltmp203:
	.loc	4 925 12                        @ ../std/GD32C2x1_Firmware_Library/GD32C2x1_standard_peripheral/Source/gd32c2x1_adc.c:925:12
	cbz	r0, .LBB36_16
	b	.LBB36_15
.LBB36_15:
	.loc	4 0 12                          @ ../std/GD32C2x1_Firmware_Library/GD32C2x1_standard_peripheral/Source/gd32c2x1_adc.c:0:12
	add	r1, sp, #8
	movs	r0, #1
.Ltmp204:
	.loc	4 926 28 is_stmt 1              @ ../std/GD32C2x1_Firmware_Library/GD32C2x1_standard_peripheral/Source/gd32c2x1_adc.c:926:28
	strb	r0, [r1]
	.loc	4 927 9                         @ ../std/GD32C2x1_Firmware_Library/GD32C2x1_standard_peripheral/Source/gd32c2x1_adc.c:927:9
	b	.LBB36_16
.Ltmp205:
.LBB36_16:
	.loc	4 928 9                         @ ../std/GD32C2x1_Firmware_Library/GD32C2x1_standard_peripheral/Source/gd32c2x1_adc.c:928:9
	b	.LBB36_26
.LBB36_17:
	.loc	4 0 9 is_stmt 0                 @ ../std/GD32C2x1_Firmware_Library/GD32C2x1_standard_peripheral/Source/gd32c2x1_adc.c:0:9
	ldr	r0, __arm_cp.36_0
	.loc	4 931 17 is_stmt 1              @ ../std/GD32C2x1_Firmware_Library/GD32C2x1_standard_peripheral/Source/gd32c2x1_adc.c:931:17
	ldr	r0, [r0]
	movs	r1, #2
	.loc	4 931 26 is_stmt 0              @ ../std/GD32C2x1_Firmware_Library/GD32C2x1_standard_peripheral/Source/gd32c2x1_adc.c:931:26
	ands	r0, r1
	.loc	4 931 15                        @ ../std/GD32C2x1_Firmware_Library/GD32C2x1_standard_peripheral/Source/gd32c2x1_adc.c:931:15
	str	r0, [sp, #4]
	ldr	r0, __arm_cp.36_1
.Ltmp206:
	.loc	4 932 20 is_stmt 1              @ ../std/GD32C2x1_Firmware_Library/GD32C2x1_standard_peripheral/Source/gd32c2x1_adc.c:932:20
	ldr	r0, [r0]
	.loc	4 932 48 is_stmt 0              @ ../std/GD32C2x1_Firmware_Library/GD32C2x1_standard_peripheral/Source/gd32c2x1_adc.c:932:48
	lsls	r0, r0, #26
	cmp	r0, #0
	bpl	.LBB36_20
	b	.LBB36_18
.LBB36_18:
	.loc	4 932 58                        @ ../std/GD32C2x1_Firmware_Library/GD32C2x1_standard_peripheral/Source/gd32c2x1_adc.c:932:58
	ldr	r0, [sp, #4]
.Ltmp207:
	.loc	4 932 12                        @ ../std/GD32C2x1_Firmware_Library/GD32C2x1_standard_peripheral/Source/gd32c2x1_adc.c:932:12
	cbz	r0, .LBB36_20
	b	.LBB36_19
.LBB36_19:
	.loc	4 0 12                          @ ../std/GD32C2x1_Firmware_Library/GD32C2x1_standard_peripheral/Source/gd32c2x1_adc.c:0:12
	add	r1, sp, #8
	movs	r0, #1
.Ltmp208:
	.loc	4 933 28 is_stmt 1              @ ../std/GD32C2x1_Firmware_Library/GD32C2x1_standard_peripheral/Source/gd32c2x1_adc.c:933:28
	strb	r0, [r1]
	.loc	4 934 9                         @ ../std/GD32C2x1_Firmware_Library/GD32C2x1_standard_peripheral/Source/gd32c2x1_adc.c:934:9
	b	.LBB36_20
.Ltmp209:
.LBB36_20:
	.loc	4 935 9                         @ ../std/GD32C2x1_Firmware_Library/GD32C2x1_standard_peripheral/Source/gd32c2x1_adc.c:935:9
	b	.LBB36_26
.LBB36_21:
	.loc	4 0 9 is_stmt 0                 @ ../std/GD32C2x1_Firmware_Library/GD32C2x1_standard_peripheral/Source/gd32c2x1_adc.c:0:9
	ldr	r0, __arm_cp.36_0
	.loc	4 938 17 is_stmt 1              @ ../std/GD32C2x1_Firmware_Library/GD32C2x1_standard_peripheral/Source/gd32c2x1_adc.c:938:17
	ldr	r0, [r0]
	movs	r1, #4
	.loc	4 938 26 is_stmt 0              @ ../std/GD32C2x1_Firmware_Library/GD32C2x1_standard_peripheral/Source/gd32c2x1_adc.c:938:26
	ands	r0, r1
	.loc	4 938 15                        @ ../std/GD32C2x1_Firmware_Library/GD32C2x1_standard_peripheral/Source/gd32c2x1_adc.c:938:15
	str	r0, [sp, #4]
	ldr	r0, __arm_cp.36_1
.Ltmp210:
	.loc	4 939 20 is_stmt 1              @ ../std/GD32C2x1_Firmware_Library/GD32C2x1_standard_peripheral/Source/gd32c2x1_adc.c:939:20
	ldr	r0, [r0]
	.loc	4 939 49 is_stmt 0              @ ../std/GD32C2x1_Firmware_Library/GD32C2x1_standard_peripheral/Source/gd32c2x1_adc.c:939:49
	lsls	r0, r0, #24
	cmp	r0, #0
	bpl	.LBB36_24
	b	.LBB36_22
.LBB36_22:
	.loc	4 939 59                        @ ../std/GD32C2x1_Firmware_Library/GD32C2x1_standard_peripheral/Source/gd32c2x1_adc.c:939:59
	ldr	r0, [sp, #4]
.Ltmp211:
	.loc	4 939 12                        @ ../std/GD32C2x1_Firmware_Library/GD32C2x1_standard_peripheral/Source/gd32c2x1_adc.c:939:12
	cbz	r0, .LBB36_24
	b	.LBB36_23
.LBB36_23:
	.loc	4 0 12                          @ ../std/GD32C2x1_Firmware_Library/GD32C2x1_standard_peripheral/Source/gd32c2x1_adc.c:0:12
	add	r1, sp, #8
	movs	r0, #1
.Ltmp212:
	.loc	4 940 28 is_stmt 1              @ ../std/GD32C2x1_Firmware_Library/GD32C2x1_standard_peripheral/Source/gd32c2x1_adc.c:940:28
	strb	r0, [r1]
	.loc	4 941 9                         @ ../std/GD32C2x1_Firmware_Library/GD32C2x1_standard_peripheral/Source/gd32c2x1_adc.c:941:9
	b	.LBB36_24
.Ltmp213:
.LBB36_24:
	.loc	4 942 9                         @ ../std/GD32C2x1_Firmware_Library/GD32C2x1_standard_peripheral/Source/gd32c2x1_adc.c:942:9
	b	.LBB36_26
.LBB36_25:
	.loc	4 944 9                         @ ../std/GD32C2x1_Firmware_Library/GD32C2x1_standard_peripheral/Source/gd32c2x1_adc.c:944:9
	b	.LBB36_26
.Ltmp214:
.LBB36_26:
	.loc	4 0 9 is_stmt 0                 @ ../std/GD32C2x1_Firmware_Library/GD32C2x1_standard_peripheral/Source/gd32c2x1_adc.c:0:9
	add	r0, sp, #8
	.loc	4 946 12 is_stmt 1              @ ../std/GD32C2x1_Firmware_Library/GD32C2x1_standard_peripheral/Source/gd32c2x1_adc.c:946:12
	ldrb	r0, [r0]
	.loc	4 946 5 is_stmt 0               @ ../std/GD32C2x1_Firmware_Library/GD32C2x1_standard_peripheral/Source/gd32c2x1_adc.c:946:5
	add	sp, #16
	bx	lr
.Ltmp215:
	.p2align	2
@ %bb.27:
	.loc	4 0 5                           @ ../std/GD32C2x1_Firmware_Library/GD32C2x1_standard_peripheral/Source/gd32c2x1_adc.c:0:5
__arm_cp.36_0:
	.long	1073816576                      @ 0x40012400
.Lcpi_end66:
	.size	__arm_cp.36_0, .Lcpi_end66-__arm_cp.36_0
__arm_cp.36_1:
	.long	1073816580                      @ 0x40012404
.Lcpi_end67:
	.size	__arm_cp.36_1, .Lcpi_end67-__arm_cp.36_1
.Lfunc_end36:
	.size	adc_interrupt_flag_get, .Lfunc_end36-adc_interrupt_flag_get
	.cfi_endproc
	.cantunwind
	.fnend
                                        @ -- End function
	.section	.text.adc_interrupt_flag_clear,"ax",%progbits
	.hidden	adc_interrupt_flag_clear        @ -- Begin function adc_interrupt_flag_clear
	.globl	adc_interrupt_flag_clear
	.p2align	2
	.type	adc_interrupt_flag_clear,%function
	.code	16                              @ @adc_interrupt_flag_clear
	.thumb_func
adc_interrupt_flag_clear:
.Lfunc_begin37:
	.loc	4 962 0 is_stmt 1               @ ../std/GD32C2x1_Firmware_Library/GD32C2x1_standard_peripheral/Source/gd32c2x1_adc.c:962:0
	.fnstart
	.cfi_startproc
@ %bb.0:
	.pad	#4
	sub	sp, #4
	.cfi_def_cfa_offset 4
	str	r0, [sp]
.Ltmp216:
	.loc	4 963 29 prologue_end           @ ../std/GD32C2x1_Firmware_Library/GD32C2x1_standard_peripheral/Source/gd32c2x1_adc.c:963:29
	ldr	r0, [sp]
	mvns	r2, r0
	ldr	r0, __arm_cp.37_0
	.loc	4 963 17 is_stmt 0              @ ../std/GD32C2x1_Firmware_Library/GD32C2x1_standard_peripheral/Source/gd32c2x1_adc.c:963:17
	orrs	r2, r0
	ldr	r1, __arm_cp.37_1
	.loc	4 963 14                        @ ../std/GD32C2x1_Firmware_Library/GD32C2x1_standard_peripheral/Source/gd32c2x1_adc.c:963:14
	ldr	r0, [r1]
	ands	r0, r2
	str	r0, [r1]
	.loc	4 964 1 is_stmt 1               @ ../std/GD32C2x1_Firmware_Library/GD32C2x1_standard_peripheral/Source/gd32c2x1_adc.c:964:1
	add	sp, #4
	bx	lr
.Ltmp217:
	.p2align	2
@ %bb.1:
	.loc	4 0 1 is_stmt 0                 @ ../std/GD32C2x1_Firmware_Library/GD32C2x1_standard_peripheral/Source/gd32c2x1_adc.c:0:1
__arm_cp.37_0:
	.long	1073741816                      @ 0x3ffffff8
.Lcpi_end68:
	.size	__arm_cp.37_0, .Lcpi_end68-__arm_cp.37_0
__arm_cp.37_1:
	.long	1073816576                      @ 0x40012400
.Lcpi_end69:
	.size	__arm_cp.37_1, .Lcpi_end69-__arm_cp.37_1
.Lfunc_end37:
	.size	adc_interrupt_flag_clear, .Lfunc_end37-adc_interrupt_flag_clear
	.cfi_endproc
	.cantunwind
	.fnend
                                        @ -- End function
	.section	".note.GNU-stack","",%progbits
	.eabi_attribute	30, 6	@ Tag_ABI_optimization_goals
	.ARM_attribute	16, 1	@ Tag_AV_eba