	.text
	.syntax unified
	.eabi_attribute	67, "2.09"	@ Tag_conformance
	.cpu	cortex-m23
	.eabi_attribute	6, 16	@ Tag_CPU_arch
	.eabi_attribute	7, 77	@ Tag_CPU_arch_profile
	.eabi_attribute	8, 0	@ Tag_ARM_ISA_use
	.eabi_attribute	9, 3	@ Tag_THUMB_ISA_use
	.eabi_attribute	34, 0	@ Tag_CPU_unaligned_access
	.eabi_attribute	17, 1	@ Tag_ABI_PCS_GOT_use
	.eabi_attribute	20, 2	@ Tag_ABI_FP_denormal
	.eabi_attribute	21, 0	@ Tag_ABI_FP_exceptions
	.eabi_attribute	23, 1	@ Tag_ABI_FP_number_model
	.eabi_attribute	24, 1	@ Tag_ABI_align_needed
	.eabi_attribute	25, 1	@ Tag_ABI_align_preserved
	.eabi_attribute	38, 1	@ Tag_ABI_FP_16bit_format
	.eabi_attribute	18, 2	@ Tag_ABI_PCS_wchar_t
	.eabi_attribute	26, 1	@ Tag_ABI_enum_size
	.eabi_attribute	14, 0	@ Tag_ABI_PCS_R9_use
	.file	"gd32c2x1_gpio.c"
	.file	1 "E:\\work\\CX_NFC_RX\\prj" "../std/GD32C2x1_Firmware_Library/GD32C2x1_standard_peripheral/Include\\gd32c2x1_rcu.h"
	.file	2 "E:\\work\\CX_NFC_RX\\prj" "../std/GD32C2x1_Firmware_Library/CMSIS/GD/GD32C2x1/Include/gd32c2x1.h"
	.file	3 "D:\\Keil_v5\\ARM\\ARMCLANG\\Bin\\..\\include" "stdint.h"
	.section	.text.gpio_deinit,"ax",%progbits
	.hidden	gpio_deinit                     @ -- Begin function gpio_deinit
	.globl	gpio_deinit
	.p2align	2
	.type	gpio_deinit,%function
	.code	16                              @ @gpio_deinit
	.thumb_func
gpio_deinit:
.Lfunc_begin0:
	.file	4 "E:\\work\\CX_NFC_RX\\prj" "../std/GD32C2x1_Firmware_Library/GD32C2x1_standard_peripheral/Source/gd32c2x1_gpio.c"
	.loc	4 46 0                          @ ../std/GD32C2x1_Firmware_Library/GD32C2x1_standard_peripheral/Source/gd32c2x1_gpio.c:46:0
	.fnstart
	.cfi_sections .debug_frame
	.cfi_startproc
@ %bb.0:
	.save	{r7, lr}
	push	{r7, lr}
	.cfi_def_cfa_offset 8
	.cfi_offset lr, -4
	.cfi_offset r7, -8
	.pad	#32
	sub	sp, #32
	.cfi_def_cfa_offset 40
	str	r0, [sp, #28]
.Ltmp0:
	.loc	4 47 12 prologue_end            @ ../std/GD32C2x1_Firmware_Library/GD32C2x1_standard_peripheral/Source/gd32c2x1_gpio.c:47:12
	ldr	r0, [sp, #28]
	str	r0, [sp, #24]                   @ 4-byte Spill
	movs	r1, #9
	lsls	r1, r1, #27
	.loc	4 47 5 is_stmt 0                @ ../std/GD32C2x1_Firmware_Library/GD32C2x1_standard_peripheral/Source/gd32c2x1_gpio.c:47:5
	cmp	r0, r1
	beq	.LBB0_5
	b	.LBB0_1
.LBB0_1:
	.loc	4 0 5                           @ ../std/GD32C2x1_Firmware_Library/GD32C2x1_standard_peripheral/Source/gd32c2x1_gpio.c:0:5
	ldr	r0, [sp, #24]                   @ 4-byte Reload
	ldr	r1, __arm_cp.0_0
	.loc	4 47 5                          @ ../std/GD32C2x1_Firmware_Library/GD32C2x1_standard_peripheral/Source/gd32c2x1_gpio.c:47:5
	cmp	r0, r1
	beq	.LBB0_6
	b	.LBB0_2
.LBB0_2:
	.loc	4 0 5                           @ ../std/GD32C2x1_Firmware_Library/GD32C2x1_standard_peripheral/Source/gd32c2x1_gpio.c:0:5
	ldr	r0, [sp, #24]                   @ 4-byte Reload
	ldr	r1, __arm_cp.0_1
	.loc	4 47 5                          @ ../std/GD32C2x1_Firmware_Library/GD32C2x1_standard_peripheral/Source/gd32c2x1_gpio.c:47:5
	cmp	r0, r1
	beq	.LBB0_7
	b	.LBB0_3
.LBB0_3:
	.loc	4 0 5                           @ ../std/GD32C2x1_Firmware_Library/GD32C2x1_standard_peripheral/Source/gd32c2x1_gpio.c:0:5
	ldr	r0, [sp, #24]                   @ 4-byte Reload
	ldr	r1, __arm_cp.0_2
	.loc	4 47 5                          @ ../std/GD32C2x1_Firmware_Library/GD32C2x1_standard_peripheral/Source/gd32c2x1_gpio.c:47:5
	cmp	r0, r1
	beq	.LBB0_8
	b	.LBB0_4
.LBB0_4:
	.loc	4 0 5                           @ ../std/GD32C2x1_Firmware_Library/GD32C2x1_standard_peripheral/Source/gd32c2x1_gpio.c:0:5
	ldr	r0, [sp, #24]                   @ 4-byte Reload
	ldr	r1, __arm_cp.0_3
	.loc	4 47 5                          @ ../std/GD32C2x1_Firmware_Library/GD32C2x1_standard_peripheral/Source/gd32c2x1_gpio.c:47:5
	cmp	r0, r1
	beq	.LBB0_9
	b	.LBB0_10
.LBB0_5:
	.loc	4 0 5                           @ ../std/GD32C2x1_Firmware_Library/GD32C2x1_standard_peripheral/Source/gd32c2x1_gpio.c:0:5
	ldr	r0, __arm_cp.0_8
.Ltmp1:
	.loc	4 50 9 is_stmt 1                @ ../std/GD32C2x1_Firmware_Library/GD32C2x1_standard_peripheral/Source/gd32c2x1_gpio.c:50:9
	str	r0, [sp, #20]                   @ 4-byte Spill
	bl	rcu_periph_reset_enable
	ldr	r0, [sp, #20]                   @ 4-byte Reload
	.loc	4 51 9                          @ ../std/GD32C2x1_Firmware_Library/GD32C2x1_standard_peripheral/Source/gd32c2x1_gpio.c:51:9
	bl	rcu_periph_reset_disable
	.loc	4 52 9                          @ ../std/GD32C2x1_Firmware_Library/GD32C2x1_standard_peripheral/Source/gd32c2x1_gpio.c:52:9
	b	.LBB0_11
.LBB0_6:
	.loc	4 0 9 is_stmt 0                 @ ../std/GD32C2x1_Firmware_Library/GD32C2x1_standard_peripheral/Source/gd32c2x1_gpio.c:0:9
	ldr	r0, __arm_cp.0_7
	.loc	4 55 9 is_stmt 1                @ ../std/GD32C2x1_Firmware_Library/GD32C2x1_standard_peripheral/Source/gd32c2x1_gpio.c:55:9
	str	r0, [sp, #16]                   @ 4-byte Spill
	bl	rcu_periph_reset_enable
	ldr	r0, [sp, #16]                   @ 4-byte Reload
	.loc	4 56 9                          @ ../std/GD32C2x1_Firmware_Library/GD32C2x1_standard_peripheral/Source/gd32c2x1_gpio.c:56:9
	bl	rcu_periph_reset_disable
	.loc	4 57 9                          @ ../std/GD32C2x1_Firmware_Library/GD32C2x1_standard_peripheral/Source/gd32c2x1_gpio.c:57:9
	b	.LBB0_11
.LBB0_7:
	.loc	4 0 9 is_stmt 0                 @ ../std/GD32C2x1_Firmware_Library/GD32C2x1_standard_peripheral/Source/gd32c2x1_gpio.c:0:9
	ldr	r0, __arm_cp.0_6
	.loc	4 60 9 is_stmt 1                @ ../std/GD32C2x1_Firmware_Library/GD32C2x1_standard_peripheral/Source/gd32c2x1_gpio.c:60:9
	str	r0, [sp, #12]                   @ 4-byte Spill
	bl	rcu_periph_reset_enable
	ldr	r0, [sp, #12]                   @ 4-byte Reload
	.loc	4 61 9                          @ ../std/GD32C2x1_Firmware_Library/GD32C2x1_standard_peripheral/Source/gd32c2x1_gpio.c:61:9
	bl	rcu_periph_reset_disable
	.loc	4 62 9                          @ ../std/GD32C2x1_Firmware_Library/GD32C2x1_standard_peripheral/Source/gd32c2x1_gpio.c:62:9
	b	.LBB0_11
.LBB0_8:
	.loc	4 0 9 is_stmt 0                 @ ../std/GD32C2x1_Firmware_Library/GD32C2x1_standard_peripheral/Source/gd32c2x1_gpio.c:0:9
	ldr	r0, __arm_cp.0_5
	.loc	4 65 9 is_stmt 1                @ ../std/GD32C2x1_Firmware_Library/GD32C2x1_standard_peripheral/Source/gd32c2x1_gpio.c:65:9
	str	r0, [sp, #8]                    @ 4-byte Spill
	bl	rcu_periph_reset_enable
	ldr	r0, [sp, #8]                    @ 4-byte Reload
	.loc	4 66 9                          @ ../std/GD32C2x1_Firmware_Library/GD32C2x1_standard_peripheral/Source/gd32c2x1_gpio.c:66:9
	bl	rcu_periph_reset_disable
	.loc	4 67 9                          @ ../std/GD32C2x1_Firmware_Library/GD32C2x1_standard_peripheral/Source/gd32c2x1_gpio.c:67:9
	b	.LBB0_11
.LBB0_9:
	.loc	4 0 9 is_stmt 0                 @ ../std/GD32C2x1_Firmware_Library/GD32C2x1_standard_peripheral/Source/gd32c2x1_gpio.c:0:9
	ldr	r0, __arm_cp.0_4
	.loc	4 70 9 is_stmt 1                @ ../std/GD32C2x1_Firmware_Library/GD32C2x1_standard_peripheral/Source/gd32c2x1_gpio.c:70:9
	str	r0, [sp, #4]                    @ 4-byte Spill
	bl	rcu_periph_reset_enable
	ldr	r0, [sp, #4]                    @ 4-byte Reload
	.loc	4 71 9                          @ ../std/GD32C2x1_Firmware_Library/GD32C2x1_standard_peripheral/Source/gd32c2x1_gpio.c:71:9
	bl	rcu_periph_reset_disable
	.loc	4 72 9                          @ ../std/GD32C2x1_Firmware_Library/GD32C2x1_standard_peripheral/Source/gd32c2x1_gpio.c:72:9
	b	.LBB0_11
.LBB0_10:
	.loc	4 74 9                          @ ../std/GD32C2x1_Firmware_Library/GD32C2x1_standard_peripheral/Source/gd32c2x1_gpio.c:74:9
	b	.LBB0_11
.Ltmp2:
.LBB0_11:
	.loc	4 76 1                          @ ../std/GD32C2x1_Firmware_Library/GD32C2x1_standard_peripheral/Source/gd32c2x1_gpio.c:76:1
	add	sp, #32
	pop	{r7, pc}
.Ltmp3:
	.p2align	2
@ %bb.12:
	.loc	4 0 1 is_stmt 0                 @ ../std/GD32C2x1_Firmware_Library/GD32C2x1_standard_peripheral/Source/gd32c2x1_gpio.c:0:1
__arm_cp.0_0:
	.long	1207960576                      @ 0x48000400
.Lcpi_end0:
	.size	__arm_cp.0_0, .Lcpi_end0-__arm_cp.0_0
__arm_cp.0_1:
	.long	1207961600                      @ 0x48000800
.Lcpi_end1:
	.size	__arm_cp.0_1, .Lcpi_end1-__arm_cp.0_1
__arm_cp.0_2:
	.long	1207962624                      @ 0x48000c00
.Lcpi_end2:
	.size	__arm_cp.0_2, .Lcpi_end2-__arm_cp.0_2
__arm_cp.0_3:
	.long	1207964672                      @ 0x48001400
.Lcpi_end3:
	.size	__arm_cp.0_3, .Lcpi_end3-__arm_cp.0_3
__arm_cp.0_4:
	.long	1302                            @ 0x516
.Lcpi_end4:
	.size	__arm_cp.0_4, .Lcpi_end4-__arm_cp.0_4
__arm_cp.0_5:
	.long	1300                            @ 0x514
.Lcpi_end5:
	.size	__arm_cp.0_5, .Lcpi_end5-__arm_cp.0_5
__arm_cp.0_6:
	.long	1299                            @ 0x513
.Lcpi_end6:
	.size	__arm_cp.0_6, .Lcpi_end6-__arm_cp.0_6
__arm_cp.0_7:
	.long	1298                            @ 0x512
.Lcpi_end7:
	.size	__arm_cp.0_7, .Lcpi_end7-__arm_cp.0_7
__arm_cp.0_8:
	.long	1297                            @ 0x511
.Lcpi_end8:
	.size	__arm_cp.0_8, .Lcpi_end8-__arm_cp.0_8
.Lfunc_end0:
	.size	gpio_deinit, .Lfunc_end0-gpio_deinit
	.cfi_endproc
	.cantunwind
	.fnend
                                        @ -- End function
	.section	.text.gpio_mode_set,"ax",%progbits
	.hidden	gpio_mode_set                   @ -- Begin function gpio_mode_set
	.globl	gpio_mode_set
	.p2align	1
	.type	gpio_mode_set,%function
	.code	16                              @ @gpio_mode_set
	.thumb_func
gpio_mode_set:
.Lfunc_begin1:
	.loc	4 101 0 is_stmt 1               @ ../std/GD32C2x1_Firmware_Library/GD32C2x1_standard_peripheral/Source/gd32c2x1_gpio.c:101:0
	.fnstart
	.cfi_startproc
@ %bb.0:
	.pad	#28
	sub	sp, #28
	.cfi_def_cfa_offset 28
	str	r0, [sp, #24]
	str	r1, [sp, #20]
	str	r2, [sp, #16]
	str	r3, [sp, #12]
.Ltmp4:
	.loc	4 105 11 prologue_end           @ ../std/GD32C2x1_Firmware_Library/GD32C2x1_standard_peripheral/Source/gd32c2x1_gpio.c:105:11
	ldr	r0, [sp, #24]
	ldr	r0, [r0]
	.loc	4 105 9 is_stmt 0               @ ../std/GD32C2x1_Firmware_Library/GD32C2x1_standard_peripheral/Source/gd32c2x1_gpio.c:105:9
	str	r0, [sp, #4]
	.loc	4 106 12 is_stmt 1              @ ../std/GD32C2x1_Firmware_Library/GD32C2x1_standard_peripheral/Source/gd32c2x1_gpio.c:106:12
	ldr	r0, [sp, #24]
	ldr	r0, [r0, #12]
	.loc	4 106 10 is_stmt 0              @ ../std/GD32C2x1_Firmware_Library/GD32C2x1_standard_peripheral/Source/gd32c2x1_gpio.c:106:10
	str	r0, [sp]
	add	r1, sp, #8
	movs	r0, #0
.Ltmp5:
	.loc	4 108 11 is_stmt 1              @ ../std/GD32C2x1_Firmware_Library/GD32C2x1_standard_peripheral/Source/gd32c2x1_gpio.c:108:11
	strh	r0, [r1]
	.loc	4 108 9 is_stmt 0               @ ../std/GD32C2x1_Firmware_Library/GD32C2x1_standard_peripheral/Source/gd32c2x1_gpio.c:108:9
	b	.LBB1_1
.LBB1_1:                                @ =>This Inner Loop Header: Depth=1
	.loc	4 0 9                           @ ../std/GD32C2x1_Firmware_Library/GD32C2x1_standard_peripheral/Source/gd32c2x1_gpio.c:0:9
	add	r0, sp, #8
.Ltmp6:
	.loc	4 108 17                        @ ../std/GD32C2x1_Firmware_Library/GD32C2x1_standard_peripheral/Source/gd32c2x1_gpio.c:108:17
	ldrh	r0, [r0]
.Ltmp7:
	.loc	4 108 5                         @ ../std/GD32C2x1_Firmware_Library/GD32C2x1_standard_peripheral/Source/gd32c2x1_gpio.c:108:5
	cmp	r0, #15
	bhi	.LBB1_6
	b	.LBB1_2
.LBB1_2:                                @   in Loop: Header=BB1_1 Depth=1
	.loc	4 0 5                           @ ../std/GD32C2x1_Firmware_Library/GD32C2x1_standard_peripheral/Source/gd32c2x1_gpio.c:0:5
	add	r0, sp, #8
.Ltmp8:
	.loc	4 109 31 is_stmt 1              @ ../std/GD32C2x1_Firmware_Library/GD32C2x1_standard_peripheral/Source/gd32c2x1_gpio.c:109:31
	ldrh	r1, [r0]
	add	r0, sp, #12
	.loc	4 109 38 is_stmt 0              @ ../std/GD32C2x1_Firmware_Library/GD32C2x1_standard_peripheral/Source/gd32c2x1_gpio.c:109:38
	ldrh	r0, [r0]
.Ltmp9:
	.loc	4 109 12                        @ ../std/GD32C2x1_Firmware_Library/GD32C2x1_standard_peripheral/Source/gd32c2x1_gpio.c:109:12
	lsrs	r0, r1
	lsls	r0, r0, #31
	cbz	r0, .LBB1_4
	b	.LBB1_3
.LBB1_3:                                @   in Loop: Header=BB1_1 Depth=1
	.loc	4 0 12                          @ ../std/GD32C2x1_Firmware_Library/GD32C2x1_standard_peripheral/Source/gd32c2x1_gpio.c:0:12
	add	r0, sp, #8
.Ltmp10:
	.loc	4 111 21 is_stmt 1              @ ../std/GD32C2x1_Firmware_Library/GD32C2x1_standard_peripheral/Source/gd32c2x1_gpio.c:111:21
	ldrh	r1, [r0]
	lsls	r1, r1, #1
	movs	r2, #3
	mov	r3, r2
	lsls	r3, r1
	.loc	4 111 17 is_stmt 0              @ ../std/GD32C2x1_Firmware_Library/GD32C2x1_standard_peripheral/Source/gd32c2x1_gpio.c:111:17
	ldr	r1, [sp, #4]
	bics	r1, r3
	str	r1, [sp, #4]
	.loc	4 113 20 is_stmt 1              @ ../std/GD32C2x1_Firmware_Library/GD32C2x1_standard_peripheral/Source/gd32c2x1_gpio.c:113:20
	ldr	r3, [sp, #20]
	ands	r3, r2
	ldrh	r1, [r0]
	lsls	r1, r1, #1
	lsls	r3, r1
	.loc	4 113 17 is_stmt 0              @ ../std/GD32C2x1_Firmware_Library/GD32C2x1_standard_peripheral/Source/gd32c2x1_gpio.c:113:17
	ldr	r1, [sp, #4]
	orrs	r1, r3
	str	r1, [sp, #4]
	.loc	4 116 22 is_stmt 1              @ ../std/GD32C2x1_Firmware_Library/GD32C2x1_standard_peripheral/Source/gd32c2x1_gpio.c:116:22
	ldrh	r1, [r0]
	lsls	r1, r1, #1
	mov	r3, r2
	lsls	r3, r1
	.loc	4 116 18 is_stmt 0              @ ../std/GD32C2x1_Firmware_Library/GD32C2x1_standard_peripheral/Source/gd32c2x1_gpio.c:116:18
	ldr	r1, [sp]
	bics	r1, r3
	str	r1, [sp]
	.loc	4 118 21 is_stmt 1              @ ../std/GD32C2x1_Firmware_Library/GD32C2x1_standard_peripheral/Source/gd32c2x1_gpio.c:118:21
	ldr	r1, [sp, #16]
	ands	r1, r2
	ldrh	r0, [r0]
	lsls	r0, r0, #1
	lsls	r1, r0
	.loc	4 118 18 is_stmt 0              @ ../std/GD32C2x1_Firmware_Library/GD32C2x1_standard_peripheral/Source/gd32c2x1_gpio.c:118:18
	ldr	r0, [sp]
	orrs	r0, r1
	str	r0, [sp]
	.loc	4 119 9 is_stmt 1               @ ../std/GD32C2x1_Firmware_Library/GD32C2x1_standard_peripheral/Source/gd32c2x1_gpio.c:119:9
	b	.LBB1_4
.Ltmp11:
.LBB1_4:                                @   in Loop: Header=BB1_1 Depth=1
	.loc	4 120 5                         @ ../std/GD32C2x1_Firmware_Library/GD32C2x1_standard_peripheral/Source/gd32c2x1_gpio.c:120:5
	b	.LBB1_5
.Ltmp12:
.LBB1_5:                                @   in Loop: Header=BB1_1 Depth=1
	.loc	4 108 27                        @ ../std/GD32C2x1_Firmware_Library/GD32C2x1_standard_peripheral/Source/gd32c2x1_gpio.c:108:27
	ldr	r0, [sp, #8]
	adds	r0, r0, #1
	add	r1, sp, #8
	strh	r0, [r1]
	.loc	4 108 5 is_stmt 0               @ ../std/GD32C2x1_Firmware_Library/GD32C2x1_standard_peripheral/Source/gd32c2x1_gpio.c:108:5
	b	.LBB1_1
.Ltmp13:
.LBB1_6:
	.loc	4 122 29 is_stmt 1              @ ../std/GD32C2x1_Firmware_Library/GD32C2x1_standard_peripheral/Source/gd32c2x1_gpio.c:122:29
	ldr	r0, [sp, #4]
	.loc	4 122 5 is_stmt 0               @ ../std/GD32C2x1_Firmware_Library/GD32C2x1_standard_peripheral/Source/gd32c2x1_gpio.c:122:5
	ldr	r1, [sp, #24]
	.loc	4 122 27                        @ ../std/GD32C2x1_Firmware_Library/GD32C2x1_standard_peripheral/Source/gd32c2x1_gpio.c:122:27
	str	r0, [r1]
	.loc	4 123 29 is_stmt 1              @ ../std/GD32C2x1_Firmware_Library/GD32C2x1_standard_peripheral/Source/gd32c2x1_gpio.c:123:29
	ldr	r0, [sp]
	.loc	4 123 5 is_stmt 0               @ ../std/GD32C2x1_Firmware_Library/GD32C2x1_standard_peripheral/Source/gd32c2x1_gpio.c:123:5
	ldr	r1, [sp, #24]
	.loc	4 123 27                        @ ../std/GD32C2x1_Firmware_Library/GD32C2x1_standard_peripheral/Source/gd32c2x1_gpio.c:123:27
	str	r0, [r1, #12]
	.loc	4 124 1 is_stmt 1               @ ../std/GD32C2x1_Firmware_Library/GD32C2x1_standard_peripheral/Source/gd32c2x1_gpio.c:124:1
	add	sp, #28
	bx	lr
.Ltmp14:
.Lfunc_end1:
	.size	gpio_mode_set, .Lfunc_end1-gpio_mode_set
	.cfi_endproc
	.cantunwind
	.fnend
                                        @ -- End function
	.section	.text.gpio_output_options_set,"ax",%progbits
	.hidden	gpio_output_options_set         @ -- Begin function gpio_output_options_set
	.globl	gpio_output_options_set
	.p2align	2
	.type	gpio_output_options_set,%function
	.code	16                              @ @gpio_output_options_set
	.thumb_func
gpio_output_options_set:
.Lfunc_begin2:
	.loc	4 146 0                         @ ../std/GD32C2x1_Firmware_Library/GD32C2x1_standard_peripheral/Source/gd32c2x1_gpio.c:146:0
	.fnstart
	.cfi_startproc
@ %bb.0:
	.save	{r4, lr}
	push	{r4, lr}
	.cfi_def_cfa_offset 8
	.cfi_offset lr, -4
	.cfi_offset r4, -8
	.pad	#24
	sub	sp, #24
	.cfi_def_cfa_offset 32
                                        @ kill: def $r4 killed $r1
	str	r0, [sp, #20]
	add	r0, sp, #16
	strb	r1, [r0]
	str	r2, [sp, #12]
	str	r3, [sp, #8]
.Ltmp15:
	.loc	4 150 26 prologue_end           @ ../std/GD32C2x1_Firmware_Library/GD32C2x1_standard_peripheral/Source/gd32c2x1_gpio.c:150:26
	ldrb	r0, [r0]
.Ltmp16:
	.loc	4 150 8 is_stmt 0               @ ../std/GD32C2x1_Firmware_Library/GD32C2x1_standard_peripheral/Source/gd32c2x1_gpio.c:150:8
	lsls	r0, r0, #31
	cbz	r0, .LBB2_2
	b	.LBB2_1
.LBB2_1:
	.loc	4 0 8                           @ ../std/GD32C2x1_Firmware_Library/GD32C2x1_standard_peripheral/Source/gd32c2x1_gpio.c:0:8
	add	r0, sp, #8
.Ltmp17:
	.loc	4 151 47 is_stmt 1              @ ../std/GD32C2x1_Firmware_Library/GD32C2x1_standard_peripheral/Source/gd32c2x1_gpio.c:151:47
	ldrh	r2, [r0]
	.loc	4 151 9 is_stmt 0               @ ../std/GD32C2x1_Firmware_Library/GD32C2x1_standard_peripheral/Source/gd32c2x1_gpio.c:151:9
	ldr	r1, [sp, #20]
	.loc	4 151 33                        @ ../std/GD32C2x1_Firmware_Library/GD32C2x1_standard_peripheral/Source/gd32c2x1_gpio.c:151:33
	ldr	r0, [r1, #4]
	orrs	r0, r2
	str	r0, [r1, #4]
	.loc	4 152 5 is_stmt 1               @ ../std/GD32C2x1_Firmware_Library/GD32C2x1_standard_peripheral/Source/gd32c2x1_gpio.c:152:5
	b	.LBB2_3
.Ltmp18:
.LBB2_2:
	.loc	4 153 49                        @ ../std/GD32C2x1_Firmware_Library/GD32C2x1_standard_peripheral/Source/gd32c2x1_gpio.c:153:49
	ldr	r0, [sp, #8]
	mvns	r2, r0
	ldr	r0, __arm_cp.2_0
	.loc	4 153 47 is_stmt 0              @ ../std/GD32C2x1_Firmware_Library/GD32C2x1_standard_peripheral/Source/gd32c2x1_gpio.c:153:47
	orrs	r2, r0
	.loc	4 153 9                         @ ../std/GD32C2x1_Firmware_Library/GD32C2x1_standard_peripheral/Source/gd32c2x1_gpio.c:153:9
	ldr	r1, [sp, #20]
	.loc	4 153 33                        @ ../std/GD32C2x1_Firmware_Library/GD32C2x1_standard_peripheral/Source/gd32c2x1_gpio.c:153:33
	ldr	r0, [r1, #4]
	ands	r0, r2
	str	r0, [r1, #4]
	b	.LBB2_3
.Ltmp19:
.LBB2_3:
	.loc	4 157 14 is_stmt 1              @ ../std/GD32C2x1_Firmware_Library/GD32C2x1_standard_peripheral/Source/gd32c2x1_gpio.c:157:14
	ldr	r0, [sp, #20]
	ldr	r0, [r0, #8]
	.loc	4 157 12 is_stmt 0              @ ../std/GD32C2x1_Firmware_Library/GD32C2x1_standard_peripheral/Source/gd32c2x1_gpio.c:157:12
	str	r0, [sp]
	add	r1, sp, #4
	movs	r0, #0
.Ltmp20:
	.loc	4 159 11 is_stmt 1              @ ../std/GD32C2x1_Firmware_Library/GD32C2x1_standard_peripheral/Source/gd32c2x1_gpio.c:159:11
	strh	r0, [r1]
	.loc	4 159 9 is_stmt 0               @ ../std/GD32C2x1_Firmware_Library/GD32C2x1_standard_peripheral/Source/gd32c2x1_gpio.c:159:9
	b	.LBB2_4
.LBB2_4:                                @ =>This Inner Loop Header: Depth=1
	.loc	4 0 9                           @ ../std/GD32C2x1_Firmware_Library/GD32C2x1_standard_peripheral/Source/gd32c2x1_gpio.c:0:9
	add	r0, sp, #4
.Ltmp21:
	.loc	4 159 17                        @ ../std/GD32C2x1_Firmware_Library/GD32C2x1_standard_peripheral/Source/gd32c2x1_gpio.c:159:17
	ldrh	r0, [r0]
.Ltmp22:
	.loc	4 159 5                         @ ../std/GD32C2x1_Firmware_Library/GD32C2x1_standard_peripheral/Source/gd32c2x1_gpio.c:159:5
	cmp	r0, #15
	bhi	.LBB2_9
	b	.LBB2_5
.LBB2_5:                                @   in Loop: Header=BB2_4 Depth=1
	.loc	4 0 5                           @ ../std/GD32C2x1_Firmware_Library/GD32C2x1_standard_peripheral/Source/gd32c2x1_gpio.c:0:5
	add	r0, sp, #4
.Ltmp23:
	.loc	4 160 30 is_stmt 1              @ ../std/GD32C2x1_Firmware_Library/GD32C2x1_standard_peripheral/Source/gd32c2x1_gpio.c:160:30
	ldrh	r1, [r0]
	add	r0, sp, #8
	.loc	4 160 36 is_stmt 0              @ ../std/GD32C2x1_Firmware_Library/GD32C2x1_standard_peripheral/Source/gd32c2x1_gpio.c:160:36
	ldrh	r0, [r0]
.Ltmp24:
	.loc	4 160 12                        @ ../std/GD32C2x1_Firmware_Library/GD32C2x1_standard_peripheral/Source/gd32c2x1_gpio.c:160:12
	lsrs	r0, r1
	lsls	r0, r0, #31
	cbz	r0, .LBB2_7
	b	.LBB2_6
.LBB2_6:                                @   in Loop: Header=BB2_4 Depth=1
	.loc	4 0 12                          @ ../std/GD32C2x1_Firmware_Library/GD32C2x1_standard_peripheral/Source/gd32c2x1_gpio.c:0:12
	add	r0, sp, #4
.Ltmp25:
	.loc	4 162 24 is_stmt 1              @ ../std/GD32C2x1_Firmware_Library/GD32C2x1_standard_peripheral/Source/gd32c2x1_gpio.c:162:24
	ldrh	r1, [r0]
	movs	r2, #1
	mov	r3, r2
	lsls	r3, r1
	.loc	4 162 20 is_stmt 0              @ ../std/GD32C2x1_Firmware_Library/GD32C2x1_standard_peripheral/Source/gd32c2x1_gpio.c:162:20
	ldr	r1, [sp]
	bics	r1, r3
	str	r1, [sp]
	.loc	4 164 23 is_stmt 1              @ ../std/GD32C2x1_Firmware_Library/GD32C2x1_standard_peripheral/Source/gd32c2x1_gpio.c:164:23
	ldr	r1, [sp, #12]
	ands	r1, r2
	ldrh	r0, [r0]
	lsls	r1, r0
	.loc	4 164 20 is_stmt 0              @ ../std/GD32C2x1_Firmware_Library/GD32C2x1_standard_peripheral/Source/gd32c2x1_gpio.c:164:20
	ldr	r0, [sp]
	orrs	r0, r1
	str	r0, [sp]
	.loc	4 165 9 is_stmt 1               @ ../std/GD32C2x1_Firmware_Library/GD32C2x1_standard_peripheral/Source/gd32c2x1_gpio.c:165:9
	b	.LBB2_7
.Ltmp26:
.LBB2_7:                                @   in Loop: Header=BB2_4 Depth=1
	.loc	4 166 5                         @ ../std/GD32C2x1_Firmware_Library/GD32C2x1_standard_peripheral/Source/gd32c2x1_gpio.c:166:5
	b	.LBB2_8
.Ltmp27:
.LBB2_8:                                @   in Loop: Header=BB2_4 Depth=1
	.loc	4 159 27                        @ ../std/GD32C2x1_Firmware_Library/GD32C2x1_standard_peripheral/Source/gd32c2x1_gpio.c:159:27
	ldr	r0, [sp, #4]
	adds	r0, r0, #1
	add	r1, sp, #4
	strh	r0, [r1]
	.loc	4 159 5 is_stmt 0               @ ../std/GD32C2x1_Firmware_Library/GD32C2x1_standard_peripheral/Source/gd32c2x1_gpio.c:159:5
	b	.LBB2_4
.Ltmp28:
.LBB2_9:
	.loc	4 167 30 is_stmt 1              @ ../std/GD32C2x1_Firmware_Library/GD32C2x1_standard_peripheral/Source/gd32c2x1_gpio.c:167:30
	ldr	r0, [sp]
	.loc	4 167 5 is_stmt 0               @ ../std/GD32C2x1_Firmware_Library/GD32C2x1_standard_peripheral/Source/gd32c2x1_gpio.c:167:5
	ldr	r1, [sp, #20]
	.loc	4 167 28                        @ ../std/GD32C2x1_Firmware_Library/GD32C2x1_standard_peripheral/Source/gd32c2x1_gpio.c:167:28
	str	r0, [r1, #8]
	.loc	4 168 1 is_stmt 1               @ ../std/GD32C2x1_Firmware_Library/GD32C2x1_standard_peripheral/Source/gd32c2x1_gpio.c:168:1
	add	sp, #24
	pop	{r4, pc}
.Ltmp29:
	.p2align	2
@ %bb.10:
	.loc	4 0 1 is_stmt 0                 @ ../std/GD32C2x1_Firmware_Library/GD32C2x1_standard_peripheral/Source/gd32c2x1_gpio.c:0:1
__arm_cp.2_0:
	.long	4294901760                      @ 0xffff0000
.Lcpi_end9:
	.size	__arm_cp.2_0, .Lcpi_end9-__arm_cp.2_0
.Lfunc_end2:
	.size	gpio_output_options_set, .Lfunc_end2-gpio_output_options_set
	.cfi_endproc
	.cantunwind
	.fnend
                                        @ -- End function
	.section	.text.gpio_bit_set,"ax",%progbits
	.hidden	gpio_bit_set                    @ -- Begin function gpio_bit_set
	.globl	gpio_bit_set
	.p2align	1
	.type	gpio_bit_set,%function
	.code	16                              @ @gpio_bit_set
	.thumb_func
gpio_bit_set:
.Lfunc_begin3:
	.loc	4 182 0 is_stmt 1               @ ../std/GD32C2x1_Firmware_Library/GD32C2x1_standard_peripheral/Source/gd32c2x1_gpio.c:182:0
	.fnstart
	.cfi_startproc
@ %bb.0:
	.pad	#8
	sub	sp, #8
	.cfi_def_cfa_offset 8
	str	r0, [sp, #4]
	str	r1, [sp]
	mov	r0, sp
.Ltmp30:
	.loc	4 183 40 prologue_end           @ ../std/GD32C2x1_Firmware_Library/GD32C2x1_standard_peripheral/Source/gd32c2x1_gpio.c:183:40
	ldrh	r0, [r0]
	.loc	4 183 5 is_stmt 0               @ ../std/GD32C2x1_Firmware_Library/GD32C2x1_standard_peripheral/Source/gd32c2x1_gpio.c:183:5
	ldr	r1, [sp, #4]
	.loc	4 183 27                        @ ../std/GD32C2x1_Firmware_Library/GD32C2x1_standard_peripheral/Source/gd32c2x1_gpio.c:183:27
	str	r0, [r1, #24]
	.loc	4 184 1 is_stmt 1               @ ../std/GD32C2x1_Firmware_Library/GD32C2x1_standard_peripheral/Source/gd32c2x1_gpio.c:184:1
	add	sp, #8
	bx	lr
.Ltmp31:
.Lfunc_end3:
	.size	gpio_bit_set, .Lfunc_end3-gpio_bit_set
	.cfi_endproc
	.cantunwind
	.fnend
                                        @ -- End function
	.section	.text.gpio_bit_reset,"ax",%progbits
	.hidden	gpio_bit_reset                  @ -- Begin function gpio_bit_reset
	.globl	gpio_bit_reset
	.p2align	1
	.type	gpio_bit_reset,%function
	.code	16                              @ @gpio_bit_reset
	.thumb_func
gpio_bit_reset:
.Lfunc_begin4:
	.loc	4 198 0                         @ ../std/GD32C2x1_Firmware_Library/GD32C2x1_standard_peripheral/Source/gd32c2x1_gpio.c:198:0
	.fnstart
	.cfi_startproc
@ %bb.0:
	.pad	#8
	sub	sp, #8
	.cfi_def_cfa_offset 8
	str	r0, [sp, #4]
	str	r1, [sp]
	mov	r0, sp
.Ltmp32:
	.loc	4 199 39 prologue_end           @ ../std/GD32C2x1_Firmware_Library/GD32C2x1_standard_peripheral/Source/gd32c2x1_gpio.c:199:39
	ldrh	r0, [r0]
	.loc	4 199 5 is_stmt 0               @ ../std/GD32C2x1_Firmware_Library/GD32C2x1_standard_peripheral/Source/gd32c2x1_gpio.c:199:5
	ldr	r1, [sp, #4]
	.loc	4 199 26                        @ ../std/GD32C2x1_Firmware_Library/GD32C2x1_standard_peripheral/Source/gd32c2x1_gpio.c:199:26
	str	r0, [r1, #40]
	.loc	4 200 1 is_stmt 1               @ ../std/GD32C2x1_Firmware_Library/GD32C2x1_standard_peripheral/Source/gd32c2x1_gpio.c:200:1
	add	sp, #8
	bx	lr
.Ltmp33:
.Lfunc_end4:
	.size	gpio_bit_reset, .Lfunc_end4-gpio_bit_reset
	.cfi_endproc
	.cantunwind
	.fnend
                                        @ -- End function
	.section	.text.gpio_bit_write,"ax",%progbits
	.hidden	gpio_bit_write                  @ -- Begin function gpio_bit_write
	.globl	gpio_bit_write
	.p2align	1
	.type	gpio_bit_write,%function
	.code	16                              @ @gpio_bit_write
	.thumb_func
gpio_bit_write:
.Lfunc_begin5:
	.loc	4 218 0                         @ ../std/GD32C2x1_Firmware_Library/GD32C2x1_standard_peripheral/Source/gd32c2x1_gpio.c:218:0
	.fnstart
	.cfi_startproc
@ %bb.0:
	.pad	#12
	sub	sp, #12
	.cfi_def_cfa_offset 12
                                        @ kill: def $r3 killed $r2
	str	r0, [sp, #8]
	str	r1, [sp, #4]
	mov	r0, sp
	strb	r2, [r0]
.Ltmp34:
	.loc	4 219 17 prologue_end           @ ../std/GD32C2x1_Firmware_Library/GD32C2x1_standard_peripheral/Source/gd32c2x1_gpio.c:219:17
	ldrb	r0, [r0]
.Ltmp35:
	.loc	4 219 8 is_stmt 0               @ ../std/GD32C2x1_Firmware_Library/GD32C2x1_standard_peripheral/Source/gd32c2x1_gpio.c:219:8
	cbz	r0, .LBB5_2
	b	.LBB5_1
.LBB5_1:
	.loc	4 0 8                           @ ../std/GD32C2x1_Firmware_Library/GD32C2x1_standard_peripheral/Source/gd32c2x1_gpio.c:0:8
	add	r0, sp, #4
.Ltmp36:
	.loc	4 220 44 is_stmt 1              @ ../std/GD32C2x1_Firmware_Library/GD32C2x1_standard_peripheral/Source/gd32c2x1_gpio.c:220:44
	ldrh	r0, [r0]
	.loc	4 220 9 is_stmt 0               @ ../std/GD32C2x1_Firmware_Library/GD32C2x1_standard_peripheral/Source/gd32c2x1_gpio.c:220:9
	ldr	r1, [sp, #8]
	.loc	4 220 31                        @ ../std/GD32C2x1_Firmware_Library/GD32C2x1_standard_peripheral/Source/gd32c2x1_gpio.c:220:31
	str	r0, [r1, #24]
	.loc	4 221 5 is_stmt 1               @ ../std/GD32C2x1_Firmware_Library/GD32C2x1_standard_peripheral/Source/gd32c2x1_gpio.c:221:5
	b	.LBB5_3
.Ltmp37:
.LBB5_2:
	.loc	4 0 5 is_stmt 0                 @ ../std/GD32C2x1_Firmware_Library/GD32C2x1_standard_peripheral/Source/gd32c2x1_gpio.c:0:5
	add	r0, sp, #4
.Ltmp38:
	.loc	4 222 43 is_stmt 1              @ ../std/GD32C2x1_Firmware_Library/GD32C2x1_standard_peripheral/Source/gd32c2x1_gpio.c:222:43
	ldrh	r0, [r0]
	.loc	4 222 9 is_stmt 0               @ ../std/GD32C2x1_Firmware_Library/GD32C2x1_standard_peripheral/Source/gd32c2x1_gpio.c:222:9
	ldr	r1, [sp, #8]
	.loc	4 222 30                        @ ../std/GD32C2x1_Firmware_Library/GD32C2x1_standard_peripheral/Source/gd32c2x1_gpio.c:222:30
	str	r0, [r1, #40]
	b	.LBB5_3
.Ltmp39:
.LBB5_3:
	.loc	4 224 1 is_stmt 1               @ ../std/GD32C2x1_Firmware_Library/GD32C2x1_standard_peripheral/Source/gd32c2x1_gpio.c:224:1
	add	sp, #12
	bx	lr
.Ltmp40:
.Lfunc_end5:
	.size	gpio_bit_write, .Lfunc_end5-gpio_bit_write
	.cfi_endproc
	.cantunwind
	.fnend
                                        @ -- End function
	.section	.text.gpio_port_write,"ax",%progbits
	.hidden	gpio_port_write                 @ -- Begin function gpio_port_write
	.globl	gpio_port_write
	.p2align	1
	.type	gpio_port_write,%function
	.code	16                              @ @gpio_port_write
	.thumb_func
gpio_port_write:
.Lfunc_begin6:
	.loc	4 236 0                         @ ../std/GD32C2x1_Firmware_Library/GD32C2x1_standard_peripheral/Source/gd32c2x1_gpio.c:236:0
	.fnstart
	.cfi_startproc
@ %bb.0:
	.pad	#8
	sub	sp, #8
	.cfi_def_cfa_offset 8
                                        @ kill: def $r2 killed $r1
	str	r0, [sp, #4]
	mov	r0, sp
	strh	r1, [r0]
.Ltmp41:
	.loc	4 237 40 prologue_end           @ ../std/GD32C2x1_Firmware_Library/GD32C2x1_standard_peripheral/Source/gd32c2x1_gpio.c:237:40
	ldrh	r0, [r0]
	.loc	4 237 5 is_stmt 0               @ ../std/GD32C2x1_Firmware_Library/GD32C2x1_standard_peripheral/Source/gd32c2x1_gpio.c:237:5
	ldr	r1, [sp, #4]
	.loc	4 237 28                        @ ../std/GD32C2x1_Firmware_Library/GD32C2x1_standard_peripheral/Source/gd32c2x1_gpio.c:237:28
	str	r0, [r1, #20]
	.loc	4 238 1 is_stmt 1               @ ../std/GD32C2x1_Firmware_Library/GD32C2x1_standard_peripheral/Source/gd32c2x1_gpio.c:238:1
	add	sp, #8
	bx	lr
.Ltmp42:
.Lfunc_end6:
	.size	gpio_port_write, .Lfunc_end6-gpio_port_write
	.cfi_endproc
	.cantunwind
	.fnend
                                        @ -- End function
	.section	.text.gpio_input_bit_get,"ax",%progbits
	.hidden	gpio_input_bit_get              @ -- Begin function gpio_input_bit_get
	.globl	gpio_input_bit_get
	.p2align	1
	.type	gpio_input_bit_get,%function
	.code	16                              @ @gpio_input_bit_get
	.thumb_func
gpio_input_bit_get:
.Lfunc_begin7:
	.loc	4 252 0                         @ ../std/GD32C2x1_Firmware_Library/GD32C2x1_standard_peripheral/Source/gd32c2x1_gpio.c:252:0
	.fnstart
	.cfi_startproc
@ %bb.0:
	.pad	#12
	sub	sp, #12
	.cfi_def_cfa_offset 12
	str	r0, [sp, #8]
	str	r1, [sp, #4]
.Ltmp43:
	.loc	4 255 28 prologue_end           @ ../std/GD32C2x1_Firmware_Library/GD32C2x1_standard_peripheral/Source/gd32c2x1_gpio.c:255:28
	ldr	r0, [sp, #8]
	ldr	r1, [r0, #16]
	.loc	4 255 56 is_stmt 0              @ ../std/GD32C2x1_Firmware_Library/GD32C2x1_standard_peripheral/Source/gd32c2x1_gpio.c:255:56
	ldr	r0, [sp, #4]
	.loc	4 255 60                        @ ../std/GD32C2x1_Firmware_Library/GD32C2x1_standard_peripheral/Source/gd32c2x1_gpio.c:255:60
	ands	r0, r1
.Ltmp44:
	.loc	4 255 8                         @ ../std/GD32C2x1_Firmware_Library/GD32C2x1_standard_peripheral/Source/gd32c2x1_gpio.c:255:8
	lsls	r0, r0, #16
	cbz	r0, .LBB7_2
	b	.LBB7_1
.LBB7_1:
	.loc	4 0 8                           @ ../std/GD32C2x1_Firmware_Library/GD32C2x1_standard_peripheral/Source/gd32c2x1_gpio.c:0:8
	mov	r1, sp
	movs	r0, #1
.Ltmp45:
	.loc	4 256 15 is_stmt 1              @ ../std/GD32C2x1_Firmware_Library/GD32C2x1_standard_peripheral/Source/gd32c2x1_gpio.c:256:15
	strb	r0, [r1]
	.loc	4 257 5                         @ ../std/GD32C2x1_Firmware_Library/GD32C2x1_standard_peripheral/Source/gd32c2x1_gpio.c:257:5
	b	.LBB7_3
.Ltmp46:
.LBB7_2:
	.loc	4 0 5 is_stmt 0                 @ ../std/GD32C2x1_Firmware_Library/GD32C2x1_standard_peripheral/Source/gd32c2x1_gpio.c:0:5
	mov	r1, sp
	movs	r0, #0
.Ltmp47:
	.loc	4 258 15 is_stmt 1              @ ../std/GD32C2x1_Firmware_Library/GD32C2x1_standard_peripheral/Source/gd32c2x1_gpio.c:258:15
	strb	r0, [r1]
	b	.LBB7_3
.Ltmp48:
.LBB7_3:
	.loc	4 0 15 is_stmt 0                @ ../std/GD32C2x1_Firmware_Library/GD32C2x1_standard_peripheral/Source/gd32c2x1_gpio.c:0:15
	mov	r0, sp
	.loc	4 261 12 is_stmt 1              @ ../std/GD32C2x1_Firmware_Library/GD32C2x1_standard_peripheral/Source/gd32c2x1_gpio.c:261:12
	ldrb	r0, [r0]
	.loc	4 261 5 is_stmt 0               @ ../std/GD32C2x1_Firmware_Library/GD32C2x1_standard_peripheral/Source/gd32c2x1_gpio.c:261:5
	add	sp, #12
	bx	lr
.Ltmp49:
.Lfunc_end7:
	.size	gpio_input_bit_get, .Lfunc_end7-gpio_input_bit_get
	.cfi_endproc
	.cantunwind
	.fnend
                                        @ -- End function
	.section	.text.gpio_input_port_get,"ax",%progbits
	.hidden	gpio_input_port_get             @ -- Begin function gpio_input_port_get
	.globl	gpio_input_port_get
	.p2align	1
	.type	gpio_input_port_get,%function
	.code	16                              @ @gpio_input_port_get
	.thumb_func
gpio_input_port_get:
.Lfunc_begin8:
	.loc	4 273 0 is_stmt 1               @ ../std/GD32C2x1_Firmware_Library/GD32C2x1_standard_peripheral/Source/gd32c2x1_gpio.c:273:0
	.fnstart
	.cfi_startproc
@ %bb.0:
	.pad	#4
	sub	sp, #4
	.cfi_def_cfa_offset 4
	str	r0, [sp]
.Ltmp50:
	.loc	4 274 23 prologue_end           @ ../std/GD32C2x1_Firmware_Library/GD32C2x1_standard_peripheral/Source/gd32c2x1_gpio.c:274:23
	ldr	r0, [sp]
	ldr	r0, [r0, #16]
	.loc	4 274 5 is_stmt 0               @ ../std/GD32C2x1_Firmware_Library/GD32C2x1_standard_peripheral/Source/gd32c2x1_gpio.c:274:5
	uxth	r0, r0
	add	sp, #4
	bx	lr
.Ltmp51:
.Lfunc_end8:
	.size	gpio_input_port_get, .Lfunc_end8-gpio_input_port_get
	.cfi_endproc
	.cantunwind
	.fnend
                                        @ -- End function
	.section	.text.gpio_output_bit_get,"ax",%progbits
	.hidden	gpio_output_bit_get             @ -- Begin function gpio_output_bit_get
	.globl	gpio_output_bit_get
	.p2align	1
	.type	gpio_output_bit_get,%function
	.code	16                              @ @gpio_output_bit_get
	.thumb_func
gpio_output_bit_get:
.Lfunc_begin9:
	.loc	4 289 0 is_stmt 1               @ ../std/GD32C2x1_Firmware_Library/GD32C2x1_standard_peripheral/Source/gd32c2x1_gpio.c:289:0
	.fnstart
	.cfi_startproc
@ %bb.0:
	.pad	#12
	sub	sp, #12
	.cfi_def_cfa_offset 12
	str	r0, [sp, #8]
	str	r1, [sp, #4]
.Ltmp52:
	.loc	4 292 28 prologue_end           @ ../std/GD32C2x1_Firmware_Library/GD32C2x1_standard_peripheral/Source/gd32c2x1_gpio.c:292:28
	ldr	r0, [sp, #8]
	ldr	r1, [r0, #20]
	.loc	4 292 55 is_stmt 0              @ ../std/GD32C2x1_Firmware_Library/GD32C2x1_standard_peripheral/Source/gd32c2x1_gpio.c:292:55
	ldr	r0, [sp, #4]
	.loc	4 292 59                        @ ../std/GD32C2x1_Firmware_Library/GD32C2x1_standard_peripheral/Source/gd32c2x1_gpio.c:292:59
	ands	r0, r1
.Ltmp53:
	.loc	4 292 8                         @ ../std/GD32C2x1_Firmware_Library/GD32C2x1_standard_peripheral/Source/gd32c2x1_gpio.c:292:8
	lsls	r0, r0, #16
	cbz	r0, .LBB9_2
	b	.LBB9_1
.LBB9_1:
	.loc	4 0 8                           @ ../std/GD32C2x1_Firmware_Library/GD32C2x1_standard_peripheral/Source/gd32c2x1_gpio.c:0:8
	mov	r1, sp
	movs	r0, #1
.Ltmp54:
	.loc	4 293 15 is_stmt 1              @ ../std/GD32C2x1_Firmware_Library/GD32C2x1_standard_peripheral/Source/gd32c2x1_gpio.c:293:15
	strb	r0, [r1]
	.loc	4 294 5                         @ ../std/GD32C2x1_Firmware_Library/GD32C2x1_standard_peripheral/Source/gd32c2x1_gpio.c:294:5
	b	.LBB9_3
.Ltmp55:
.LBB9_2:
	.loc	4 0 5 is_stmt 0                 @ ../std/GD32C2x1_Firmware_Library/GD32C2x1_standard_peripheral/Source/gd32c2x1_gpio.c:0:5
	mov	r1, sp
	movs	r0, #0
.Ltmp56:
	.loc	4 295 15 is_stmt 1              @ ../std/GD32C2x1_Firmware_Library/GD32C2x1_standard_peripheral/Source/gd32c2x1_gpio.c:295:15
	strb	r0, [r1]
	b	.LBB9_3
.Ltmp57:
.LBB9_3:
	.loc	4 0 15 is_stmt 0                @ ../std/GD32C2x1_Firmware_Library/GD32C2x1_standard_peripheral/Source/gd32c2x1_gpio.c:0:15
	mov	r0, sp
	.loc	4 297 12 is_stmt 1              @ ../std/GD32C2x1_Firmware_Library/GD32C2x1_standard_peripheral/Source/gd32c2x1_gpio.c:297:12
	ldrb	r0, [r0]
	.loc	4 297 5 is_stmt 0               @ ../std/GD32C2x1_Firmware_Library/GD32C2x1_standard_peripheral/Source/gd32c2x1_gpio.c:297:5
	add	sp, #12
	bx	lr
.Ltmp58:
.Lfunc_end9:
	.size	gpio_output_bit_get, .Lfunc_end9-gpio_output_bit_get
	.cfi_endproc
	.cantunwind
	.fnend
                                        @ -- End function
	.section	.text.gpio_output_port_get,"ax",%progbits
	.hidden	gpio_output_port_get            @ -- Begin function gpio_output_port_get
	.globl	gpio_output_port_get
	.p2align	1
	.type	gpio_output_port_get,%function
	.code	16                              @ @gpio_output_port_get
	.thumb_func
gpio_output_port_get:
.Lfunc_begin10:
	.loc	4 309 0 is_stmt 1               @ ../std/GD32C2x1_Firmware_Library/GD32C2x1_standard_peripheral/Source/gd32c2x1_gpio.c:309:0
	.fnstart
	.cfi_startproc
@ %bb.0:
	.pad	#4
	sub	sp, #4
	.cfi_def_cfa_offset 4
	str	r0, [sp]
.Ltmp59:
	.loc	4 310 23 prologue_end           @ ../std/GD32C2x1_Firmware_Library/GD32C2x1_standard_peripheral/Source/gd32c2x1_gpio.c:310:23
	ldr	r0, [sp]
	ldr	r0, [r0, #20]
	.loc	4 310 5 is_stmt 0               @ ../std/GD32C2x1_Firmware_Library/GD32C2x1_standard_peripheral/Source/gd32c2x1_gpio.c:310:5
	uxth	r0, r0
	add	sp, #4
	bx	lr
.Ltmp60:
.Lfunc_end10:
	.size	gpio_output_port_get, .Lfunc_end10-gpio_output_port_get
	.cfi_endproc
	.cantunwind
	.fnend
                                        @ -- End function
	.section	.text.gpio_af_set,"ax",%progbits
	.hidden	gpio_af_set                     @ -- Begin function gpio_af_set
	.globl	gpio_af_set
	.p2align	1
	.type	gpio_af_set,%function
	.code	16                              @ @gpio_af_set
	.thumb_func
gpio_af_set:
.Lfunc_begin11:
	.loc	4 343 0 is_stmt 1               @ ../std/GD32C2x1_Firmware_Library/GD32C2x1_standard_peripheral/Source/gd32c2x1_gpio.c:343:0
	.fnstart
	.cfi_startproc
@ %bb.0:
	.pad	#24
	sub	sp, #24
	.cfi_def_cfa_offset 24
	str	r0, [sp, #20]
	str	r1, [sp, #16]
	str	r2, [sp, #12]
.Ltmp61:
	.loc	4 347 12 prologue_end           @ ../std/GD32C2x1_Firmware_Library/GD32C2x1_standard_peripheral/Source/gd32c2x1_gpio.c:347:12
	ldr	r0, [sp, #20]
	ldr	r0, [r0, #32]
	.loc	4 347 10 is_stmt 0              @ ../std/GD32C2x1_Firmware_Library/GD32C2x1_standard_peripheral/Source/gd32c2x1_gpio.c:347:10
	str	r0, [sp, #4]
	.loc	4 348 12 is_stmt 1              @ ../std/GD32C2x1_Firmware_Library/GD32C2x1_standard_peripheral/Source/gd32c2x1_gpio.c:348:12
	ldr	r0, [sp, #20]
	ldr	r0, [r0, #36]
	.loc	4 348 10 is_stmt 0              @ ../std/GD32C2x1_Firmware_Library/GD32C2x1_standard_peripheral/Source/gd32c2x1_gpio.c:348:10
	str	r0, [sp]
	add	r1, sp, #8
	movs	r0, #0
.Ltmp62:
	.loc	4 350 11 is_stmt 1              @ ../std/GD32C2x1_Firmware_Library/GD32C2x1_standard_peripheral/Source/gd32c2x1_gpio.c:350:11
	strh	r0, [r1]
	.loc	4 350 9 is_stmt 0               @ ../std/GD32C2x1_Firmware_Library/GD32C2x1_standard_peripheral/Source/gd32c2x1_gpio.c:350:9
	b	.LBB11_1
.LBB11_1:                               @ =>This Inner Loop Header: Depth=1
	.loc	4 0 9                           @ ../std/GD32C2x1_Firmware_Library/GD32C2x1_standard_peripheral/Source/gd32c2x1_gpio.c:0:9
	add	r0, sp, #8
.Ltmp63:
	.loc	4 350 17                        @ ../std/GD32C2x1_Firmware_Library/GD32C2x1_standard_peripheral/Source/gd32c2x1_gpio.c:350:17
	ldrh	r0, [r0]
.Ltmp64:
	.loc	4 350 5                         @ ../std/GD32C2x1_Firmware_Library/GD32C2x1_standard_peripheral/Source/gd32c2x1_gpio.c:350:5
	cmp	r0, #7
	bhi	.LBB11_6
	b	.LBB11_2
.LBB11_2:                               @   in Loop: Header=BB11_1 Depth=1
	.loc	4 0 5                           @ ../std/GD32C2x1_Firmware_Library/GD32C2x1_standard_peripheral/Source/gd32c2x1_gpio.c:0:5
	add	r0, sp, #8
.Ltmp65:
	.loc	4 351 30 is_stmt 1              @ ../std/GD32C2x1_Firmware_Library/GD32C2x1_standard_peripheral/Source/gd32c2x1_gpio.c:351:30
	ldrh	r1, [r0]
	add	r0, sp, #12
	.loc	4 351 36 is_stmt 0              @ ../std/GD32C2x1_Firmware_Library/GD32C2x1_standard_peripheral/Source/gd32c2x1_gpio.c:351:36
	ldrh	r0, [r0]
.Ltmp66:
	.loc	4 351 12                        @ ../std/GD32C2x1_Firmware_Library/GD32C2x1_standard_peripheral/Source/gd32c2x1_gpio.c:351:12
	lsrs	r0, r1
	lsls	r0, r0, #31
	cbz	r0, .LBB11_4
	b	.LBB11_3
.LBB11_3:                               @   in Loop: Header=BB11_1 Depth=1
	.loc	4 0 12                          @ ../std/GD32C2x1_Firmware_Library/GD32C2x1_standard_peripheral/Source/gd32c2x1_gpio.c:0:12
	add	r0, sp, #8
.Ltmp67:
	.loc	4 353 22 is_stmt 1              @ ../std/GD32C2x1_Firmware_Library/GD32C2x1_standard_peripheral/Source/gd32c2x1_gpio.c:353:22
	ldrh	r1, [r0]
	lsls	r1, r1, #2
	movs	r2, #15
	mov	r3, r2
	lsls	r3, r1
	.loc	4 353 18 is_stmt 0              @ ../std/GD32C2x1_Firmware_Library/GD32C2x1_standard_peripheral/Source/gd32c2x1_gpio.c:353:18
	ldr	r1, [sp, #4]
	bics	r1, r3
	str	r1, [sp, #4]
	.loc	4 354 21 is_stmt 1              @ ../std/GD32C2x1_Firmware_Library/GD32C2x1_standard_peripheral/Source/gd32c2x1_gpio.c:354:21
	ldr	r1, [sp, #16]
	ands	r1, r2
	ldrh	r0, [r0]
	lsls	r0, r0, #2
	lsls	r1, r0
	.loc	4 354 18 is_stmt 0              @ ../std/GD32C2x1_Firmware_Library/GD32C2x1_standard_peripheral/Source/gd32c2x1_gpio.c:354:18
	ldr	r0, [sp, #4]
	orrs	r0, r1
	str	r0, [sp, #4]
	.loc	4 355 9 is_stmt 1               @ ../std/GD32C2x1_Firmware_Library/GD32C2x1_standard_peripheral/Source/gd32c2x1_gpio.c:355:9
	b	.LBB11_4
.Ltmp68:
.LBB11_4:                               @   in Loop: Header=BB11_1 Depth=1
	.loc	4 356 5                         @ ../std/GD32C2x1_Firmware_Library/GD32C2x1_standard_peripheral/Source/gd32c2x1_gpio.c:356:5
	b	.LBB11_5
.Ltmp69:
.LBB11_5:                               @   in Loop: Header=BB11_1 Depth=1
	.loc	4 350 26                        @ ../std/GD32C2x1_Firmware_Library/GD32C2x1_standard_peripheral/Source/gd32c2x1_gpio.c:350:26
	ldr	r0, [sp, #8]
	adds	r0, r0, #1
	add	r1, sp, #8
	strh	r0, [r1]
	.loc	4 350 5 is_stmt 0               @ ../std/GD32C2x1_Firmware_Library/GD32C2x1_standard_peripheral/Source/gd32c2x1_gpio.c:350:5
	b	.LBB11_1
.Ltmp70:
.LBB11_6:
	.loc	4 0 5                           @ ../std/GD32C2x1_Firmware_Library/GD32C2x1_standard_peripheral/Source/gd32c2x1_gpio.c:0:5
	add	r1, sp, #8
	movs	r0, #8
.Ltmp71:
	.loc	4 358 11 is_stmt 1              @ ../std/GD32C2x1_Firmware_Library/GD32C2x1_standard_peripheral/Source/gd32c2x1_gpio.c:358:11
	strh	r0, [r1]
	.loc	4 358 9 is_stmt 0               @ ../std/GD32C2x1_Firmware_Library/GD32C2x1_standard_peripheral/Source/gd32c2x1_gpio.c:358:9
	b	.LBB11_7
.LBB11_7:                               @ =>This Inner Loop Header: Depth=1
	.loc	4 0 9                           @ ../std/GD32C2x1_Firmware_Library/GD32C2x1_standard_peripheral/Source/gd32c2x1_gpio.c:0:9
	add	r0, sp, #8
.Ltmp72:
	.loc	4 358 17                        @ ../std/GD32C2x1_Firmware_Library/GD32C2x1_standard_peripheral/Source/gd32c2x1_gpio.c:358:17
	ldrh	r0, [r0]
.Ltmp73:
	.loc	4 358 5                         @ ../std/GD32C2x1_Firmware_Library/GD32C2x1_standard_peripheral/Source/gd32c2x1_gpio.c:358:5
	cmp	r0, #15
	bhi	.LBB11_12
	b	.LBB11_8
.LBB11_8:                               @   in Loop: Header=BB11_7 Depth=1
	.loc	4 0 5                           @ ../std/GD32C2x1_Firmware_Library/GD32C2x1_standard_peripheral/Source/gd32c2x1_gpio.c:0:5
	add	r0, sp, #8
.Ltmp74:
	.loc	4 359 30 is_stmt 1              @ ../std/GD32C2x1_Firmware_Library/GD32C2x1_standard_peripheral/Source/gd32c2x1_gpio.c:359:30
	ldrh	r1, [r0]
	add	r0, sp, #12
	.loc	4 359 36 is_stmt 0              @ ../std/GD32C2x1_Firmware_Library/GD32C2x1_standard_peripheral/Source/gd32c2x1_gpio.c:359:36
	ldrh	r0, [r0]
.Ltmp75:
	.loc	4 359 12                        @ ../std/GD32C2x1_Firmware_Library/GD32C2x1_standard_peripheral/Source/gd32c2x1_gpio.c:359:12
	lsrs	r0, r1
	lsls	r0, r0, #31
	cbz	r0, .LBB11_10
	b	.LBB11_9
.LBB11_9:                               @   in Loop: Header=BB11_7 Depth=1
	.loc	4 0 12                          @ ../std/GD32C2x1_Firmware_Library/GD32C2x1_standard_peripheral/Source/gd32c2x1_gpio.c:0:12
	add	r0, sp, #8
.Ltmp76:
	.loc	4 361 22 is_stmt 1              @ ../std/GD32C2x1_Firmware_Library/GD32C2x1_standard_peripheral/Source/gd32c2x1_gpio.c:361:22
	ldrh	r1, [r0]
	lsls	r1, r1, #2
	subs	r1, #32
	movs	r2, #15
	mov	r3, r2
	lsls	r3, r1
	.loc	4 361 18 is_stmt 0              @ ../std/GD32C2x1_Firmware_Library/GD32C2x1_standard_peripheral/Source/gd32c2x1_gpio.c:361:18
	ldr	r1, [sp]
	bics	r1, r3
	str	r1, [sp]
	.loc	4 362 21 is_stmt 1              @ ../std/GD32C2x1_Firmware_Library/GD32C2x1_standard_peripheral/Source/gd32c2x1_gpio.c:362:21
	ldr	r1, [sp, #16]
	ands	r1, r2
	ldrh	r0, [r0]
	lsls	r0, r0, #2
	subs	r0, #32
	lsls	r1, r0
	.loc	4 362 18 is_stmt 0              @ ../std/GD32C2x1_Firmware_Library/GD32C2x1_standard_peripheral/Source/gd32c2x1_gpio.c:362:18
	ldr	r0, [sp]
	orrs	r0, r1
	str	r0, [sp]
	.loc	4 363 9 is_stmt 1               @ ../std/GD32C2x1_Firmware_Library/GD32C2x1_standard_peripheral/Source/gd32c2x1_gpio.c:363:9
	b	.LBB11_10
.Ltmp77:
.LBB11_10:                              @   in Loop: Header=BB11_7 Depth=1
	.loc	4 364 5                         @ ../std/GD32C2x1_Firmware_Library/GD32C2x1_standard_peripheral/Source/gd32c2x1_gpio.c:364:5
	b	.LBB11_11
.Ltmp78:
.LBB11_11:                              @   in Loop: Header=BB11_7 Depth=1
	.loc	4 358 27                        @ ../std/GD32C2x1_Firmware_Library/GD32C2x1_standard_peripheral/Source/gd32c2x1_gpio.c:358:27
	ldr	r0, [sp, #8]
	adds	r0, r0, #1
	add	r1, sp, #8
	strh	r0, [r1]
	.loc	4 358 5 is_stmt 0               @ ../std/GD32C2x1_Firmware_Library/GD32C2x1_standard_peripheral/Source/gd32c2x1_gpio.c:358:5
	b	.LBB11_7
.Ltmp79:
.LBB11_12:
	.loc	4 366 32 is_stmt 1              @ ../std/GD32C2x1_Firmware_Library/GD32C2x1_standard_peripheral/Source/gd32c2x1_gpio.c:366:32
	ldr	r0, [sp, #4]
	.loc	4 366 5 is_stmt 0               @ ../std/GD32C2x1_Firmware_Library/GD32C2x1_standard_peripheral/Source/gd32c2x1_gpio.c:366:5
	ldr	r1, [sp, #20]
	.loc	4 366 30                        @ ../std/GD32C2x1_Firmware_Library/GD32C2x1_standard_peripheral/Source/gd32c2x1_gpio.c:366:30
	str	r0, [r1, #32]
	.loc	4 367 32 is_stmt 1              @ ../std/GD32C2x1_Firmware_Library/GD32C2x1_standard_peripheral/Source/gd32c2x1_gpio.c:367:32
	ldr	r0, [sp]
	.loc	4 367 5 is_stmt 0               @ ../std/GD32C2x1_Firmware_Library/GD32C2x1_standard_peripheral/Source/gd32c2x1_gpio.c:367:5
	ldr	r1, [sp, #20]
	.loc	4 367 30                        @ ../std/GD32C2x1_Firmware_Library/GD32C2x1_standard_peripheral/Source/gd32c2x1_gpio.c:367:30
	str	r0, [r1, #36]
	.loc	4 368 1 is_stmt 1               @ ../std/GD32C2x1_Firmware_Library/GD32C2x1_standard_peripheral/Source/gd32c2x1_gpio.c:368:1
	add	sp, #24
	bx	lr
.Ltmp80:
.Lfunc_end11:
	.size	gpio_af_set, .Lfunc_end11-gpio_af_set
	.cfi_endproc
	.cantunwind
	.fnend
                                        @ -- End function
	.section	.text.gpio_pin_lock,"ax",%progbits
	.hidden	gpio_pin_lock                   @ -- Begin function gpio_pin_lock
	.globl	gpio_pin_lock
	.p2align	1
	.type	gpio_pin_lock,%function
	.code	16                              @ @gpio_pin_lock
	.thumb_func
gpio_pin_lock:
.Lfunc_begin12:
	.loc	4 382 0                         @ ../std/GD32C2x1_Firmware_Library/GD32C2x1_standard_peripheral/Source/gd32c2x1_gpio.c:382:0
	.fnstart
	.cfi_startproc
@ %bb.0:
	.pad	#12
	sub	sp, #12
	.cfi_def_cfa_offset 12
	str	r0, [sp, #8]
	str	r1, [sp, #4]
	movs	r0, #1
	lsls	r0, r0, #16
.Ltmp81:
	.loc	4 383 14 prologue_end           @ ../std/GD32C2x1_Firmware_Library/GD32C2x1_standard_peripheral/Source/gd32c2x1_gpio.c:383:14
	str	r0, [sp]
	.loc	4 384 13                        @ ../std/GD32C2x1_Firmware_Library/GD32C2x1_standard_peripheral/Source/gd32c2x1_gpio.c:384:13
	ldr	r1, [sp, #4]
	.loc	4 384 10 is_stmt 0              @ ../std/GD32C2x1_Firmware_Library/GD32C2x1_standard_peripheral/Source/gd32c2x1_gpio.c:384:10
	ldr	r0, [sp]
	orrs	r0, r1
	str	r0, [sp]
	.loc	4 387 40 is_stmt 1              @ ../std/GD32C2x1_Firmware_Library/GD32C2x1_standard_peripheral/Source/gd32c2x1_gpio.c:387:40
	ldr	r0, [sp]
	.loc	4 387 5 is_stmt 0               @ ../std/GD32C2x1_Firmware_Library/GD32C2x1_standard_peripheral/Source/gd32c2x1_gpio.c:387:5
	ldr	r1, [sp, #8]
	.loc	4 387 28                        @ ../std/GD32C2x1_Firmware_Library/GD32C2x1_standard_peripheral/Source/gd32c2x1_gpio.c:387:28
	str	r0, [r1, #28]
	add	r0, sp, #4
	.loc	4 388 41 is_stmt 1              @ ../std/GD32C2x1_Firmware_Library/GD32C2x1_standard_peripheral/Source/gd32c2x1_gpio.c:388:41
	ldrh	r0, [r0]
	.loc	4 388 5 is_stmt 0               @ ../std/GD32C2x1_Firmware_Library/GD32C2x1_standard_peripheral/Source/gd32c2x1_gpio.c:388:5
	ldr	r1, [sp, #8]
	.loc	4 388 28                        @ ../std/GD32C2x1_Firmware_Library/GD32C2x1_standard_peripheral/Source/gd32c2x1_gpio.c:388:28
	str	r0, [r1, #28]
	.loc	4 389 40 is_stmt 1              @ ../std/GD32C2x1_Firmware_Library/GD32C2x1_standard_peripheral/Source/gd32c2x1_gpio.c:389:40
	ldr	r0, [sp]
	.loc	4 389 5 is_stmt 0               @ ../std/GD32C2x1_Firmware_Library/GD32C2x1_standard_peripheral/Source/gd32c2x1_gpio.c:389:5
	ldr	r1, [sp, #8]
	.loc	4 389 28                        @ ../std/GD32C2x1_Firmware_Library/GD32C2x1_standard_peripheral/Source/gd32c2x1_gpio.c:389:28
	str	r0, [r1, #28]
	.loc	4 390 5 is_stmt 1               @ ../std/GD32C2x1_Firmware_Library/GD32C2x1_standard_peripheral/Source/gd32c2x1_gpio.c:390:5
	ldr	r0, [sp, #8]
	ldr	r0, [r0, #28]
	.loc	4 391 5                         @ ../std/GD32C2x1_Firmware_Library/GD32C2x1_standard_peripheral/Source/gd32c2x1_gpio.c:391:5
	ldr	r0, [sp, #8]
	ldr	r0, [r0, #28]
	.loc	4 392 1                         @ ../std/GD32C2x1_Firmware_Library/GD32C2x1_standard_peripheral/Source/gd32c2x1_gpio.c:392:1
	add	sp, #12
	bx	lr
.Ltmp82:
.Lfunc_end12:
	.size	gpio_pin_lock, .Lfunc_end12-gpio_pin_lock
	.cfi_endproc
	.cantunwind
	.fnend
                                        @ -- End function
	.section	.text.gpio_bit_toggle,"ax",%progbits
	.hidden	gpio_bit_toggle                 @ -- Begin function gpio_bit_toggle
	.globl	gpio_bit_toggle
	.p2align	1
	.type	gpio_bit_toggle,%function
	.code	16                              @ @gpio_bit_toggle
	.thumb_func
gpio_bit_toggle:
.Lfunc_begin13:
	.loc	4 406 0                         @ ../std/GD32C2x1_Firmware_Library/GD32C2x1_standard_peripheral/Source/gd32c2x1_gpio.c:406:0
	.fnstart
	.cfi_startproc
@ %bb.0:
	.pad	#8
	sub	sp, #8
	.cfi_def_cfa_offset 8
	str	r0, [sp, #4]
	str	r1, [sp]
	mov	r0, sp
.Ltmp83:
	.loc	4 407 39 prologue_end           @ ../std/GD32C2x1_Firmware_Library/GD32C2x1_standard_peripheral/Source/gd32c2x1_gpio.c:407:39
	ldrh	r0, [r0]
	.loc	4 407 5 is_stmt 0               @ ../std/GD32C2x1_Firmware_Library/GD32C2x1_standard_peripheral/Source/gd32c2x1_gpio.c:407:5
	ldr	r1, [sp, #4]
	.loc	4 407 26                        @ ../std/GD32C2x1_Firmware_Library/GD32C2x1_standard_peripheral/Source/gd32c2x1_gpio.c:407:26
	str	r0, [r1, #44]
	.loc	4 408 1 is_stmt 1               @ ../std/GD32C2x1_Firmware_Library/GD32C2x1_standard_peripheral/Source/gd32c2x1_gpio.c:408:1
	add	sp, #8
	bx	lr
.Ltmp84:
.Lfunc_end13:
	.size	gpio_bit_toggle, .Lfunc_end13-gpio_bit_toggle
	.cfi_endproc
	.cantunwind
	.fnend
                                        @ -- End function
	.section	.text.gpio_port_toggle,"ax",%progbits
	.hidden	gpio_port_toggle                @ -- Begin function gpio_port_toggle
	.globl	gpio_port_toggle
	.p2align	2
	.type	gpio_port_toggle,%function
	.code	16                              @ @gpio_port_toggle
	.thumb_func
gpio_port_toggle:
.Lfunc_begin14:
	.loc	4 419 0                         @ ../std/GD32C2x1_Firmware_Library/GD32C2x1_standard_peripheral/Source/gd32c2x1_gpio.c:419:0
	.fnstart
	.cfi_startproc
@ %bb.0:
	.pad	#4
	sub	sp, #4
	.cfi_def_cfa_offset 4
	str	r0, [sp]
.Ltmp85:
	.loc	4 420 5 prologue_end            @ ../std/GD32C2x1_Firmware_Library/GD32C2x1_standard_peripheral/Source/gd32c2x1_gpio.c:420:5
	ldr	r1, [sp]
	ldr	r0, __arm_cp.14_0
	.loc	4 420 26 is_stmt 0              @ ../std/GD32C2x1_Firmware_Library/GD32C2x1_standard_peripheral/Source/gd32c2x1_gpio.c:420:26
	str	r0, [r1, #44]
	.loc	4 421 1 is_stmt 1               @ ../std/GD32C2x1_Firmware_Library/GD32C2x1_standard_peripheral/Source/gd32c2x1_gpio.c:421:1
	add	sp, #4
	bx	lr
.Ltmp86:
	.p2align	2
@ %bb.1:
	.loc	4 0 1 is_stmt 0                 @ ../std/GD32C2x1_Firmware_Library/GD32C2x1_standard_peripheral/Source/gd32c2x1_gpio.c:0:1
__arm_cp.14_0:
	.long	65535                           @ 0xffff
.Lcpi_end10:
	.size	__arm_cp.14_0, .Lcpi_end10-__arm_cp.14_0
.Lfunc_end14:
	.size	gpio_port_toggle, .Lfunc_end14-gpio_port_toggle
	.cfi_endproc
	.cantunwind
	.fnend
                                        @ -- End function
	.file	5 "E:\\work\\CX_NFC_RX\\prj" "../std/GD32C2x1_Firmware_Library/GD32C2x1_standard_peripheral/Include\\gd32c2x1_gpio.h"
	.section	".note.GNU-stack","",%progbits
	.eabi_attribute	30, 6	@ Tag_ABI_optimization_goals
	.ARM_attribute	16, 1	@ Tag_AV_eba