	.text
	.syntax unified
	.eabi_attribute	67, "2.09"	@ Tag_conformance
	.cpu	cortex-m23
	.eabi_attribute	6, 16	@ Tag_CPU_arch
	.eabi_attribute	7, 77	@ Tag_CPU_arch_profile
	.eabi_attribute	8, 0	@ Tag_ARM_ISA_use
	.eabi_attribute	9, 3	@ Tag_THUMB_ISA_use
	.eabi_attribute	34, 0	@ Tag_CPU_unaligned_access
	.eabi_attribute	17, 1	@ Tag_ABI_PCS_GOT_use
	.eabi_attribute	20, 2	@ Tag_ABI_FP_denormal
	.eabi_attribute	21, 0	@ Tag_ABI_FP_exceptions
	.eabi_attribute	23, 1	@ Tag_ABI_FP_number_model
	.eabi_attribute	24, 1	@ Tag_ABI_align_needed
	.eabi_attribute	25, 1	@ Tag_ABI_align_preserved
	.eabi_attribute	38, 1	@ Tag_ABI_FP_16bit_format
	.eabi_attribute	18, 2	@ Tag_ABI_PCS_wchar_t
	.eabi_attribute	26, 1	@ Tag_ABI_enum_size
	.eabi_attribute	14, 0	@ Tag_ABI_PCS_R9_use
	.file	"hns_ntc.c"
	.file	1 "D:\\Keil_v5\\ARM\\ARMCLANG\\Bin\\..\\include" "stdint.h"
	.section	.text.adc_to_ntc_resistance,"ax",%progbits
	.hidden	adc_to_ntc_resistance           @ -- Begin function adc_to_ntc_resistance
	.globl	adc_to_ntc_resistance
	.p2align	2
	.type	adc_to_ntc_resistance,%function
	.code	16                              @ @adc_to_ntc_resistance
	.thumb_func
adc_to_ntc_resistance:
.Lfunc_begin0:
	.file	2 "E:\\work\\CX_NFC_RX\\prj" "../app/hns_ntc.c"
	.loc	2 56 0                          @ ../app/hns_ntc.c:56:0
	.fnstart
	.cfi_sections .debug_frame
	.cfi_startproc
@ %bb.0:
	.save	{r7, lr}
	push	{r7, lr}
	.cfi_def_cfa_offset 8
	.cfi_offset lr, -4
	.cfi_offset r7, -8
	.pad	#16
	sub	sp, #16
	.cfi_def_cfa_offset 24
	mov	r1, r0
                                        @ kill: def $r0 killed $r1
	add	r0, sp, #8
	strh	r1, [r0]
.Ltmp0:
	.loc	2 57 9 prologue_end             @ ../app/hns_ntc.c:57:9
	ldrh	r0, [r0]
	.loc	2 57 18 is_stmt 0               @ ../app/hns_ntc.c:57:18
	cbz	r0, .LBB0_2
	b	.LBB0_1
.LBB0_1:
	.loc	2 0 18                          @ ../app/hns_ntc.c:0:18
	add	r0, sp, #8
	.loc	2 57 21                         @ ../app/hns_ntc.c:57:21
	ldrh	r0, [r0]
	ldr	r1, __arm_cp.0_0
.Ltmp1:
	.loc	2 57 9                          @ ../app/hns_ntc.c:57:9
	cmp	r0, r1
	blt	.LBB0_3
	b	.LBB0_2
.LBB0_2:
	.loc	2 0 9                           @ ../app/hns_ntc.c:0:9
	movs	r0, #0
	mvns	r0, r0
.Ltmp2:
	.loc	2 58 9 is_stmt 1                @ ../app/hns_ntc.c:58:9
	str	r0, [sp, #12]
	b	.LBB0_4
.Ltmp3:
.LBB0_3:
	.loc	2 0 9 is_stmt 0                 @ ../app/hns_ntc.c:0:9
	add	r0, sp, #8
	.loc	2 61 45 is_stmt 1               @ ../app/hns_ntc.c:61:45
	ldrh	r0, [r0]
	.loc	2 61 43 is_stmt 0               @ ../app/hns_ntc.c:61:43
	str	r0, [sp, #4]                    @ 4-byte Spill
	ldr	r2, __arm_cp.0_1
	movs	r3, #0
	mov	r1, r3
	bl	__aeabi_lmul
	ldr	r3, [sp, #4]                    @ 4-byte Reload
	ldr	r2, __arm_cp.0_0
	.loc	2 61 60                         @ ../app/hns_ntc.c:61:60
	subs	r2, r2, r3
	.loc	2 61 51                         @ ../app/hns_ntc.c:61:51
	asrs	r3, r2, #31
	.loc	2 61 49                         @ ../app/hns_ntc.c:61:49
	bl	__aeabi_ldivmod
	.loc	2 61 5                          @ ../app/hns_ntc.c:61:5
	str	r0, [sp, #12]
	b	.LBB0_4
.LBB0_4:
	.loc	2 62 1 is_stmt 1                @ ../app/hns_ntc.c:62:1
	ldr	r0, [sp, #12]
	add	sp, #16
	pop	{r7, pc}
.Ltmp4:
	.p2align	2
@ %bb.5:
	.loc	2 0 1 is_stmt 0                 @ ../app/hns_ntc.c:0:1
__arm_cp.0_0:
	.long	4095                            @ 0xfff
.Lcpi_end0:
	.size	__arm_cp.0_0, .Lcpi_end0-__arm_cp.0_0
__arm_cp.0_1:
	.long	2200                            @ 0x898
.Lcpi_end1:
	.size	__arm_cp.0_1, .Lcpi_end1-__arm_cp.0_1
.Lfunc_end0:
	.size	adc_to_ntc_resistance, .Lfunc_end0-adc_to_ntc_resistance
	.cfi_endproc
	.cantunwind
	.fnend
                                        @ -- End function
	.section	.text.hns_ntc_get_temp_c,"ax",%progbits
	.hidden	hns_ntc_get_temp_c              @ -- Begin function hns_ntc_get_temp_c
	.globl	hns_ntc_get_temp_c
	.p2align	2
	.type	hns_ntc_get_temp_c,%function
	.code	16                              @ @hns_ntc_get_temp_c
	.thumb_func
hns_ntc_get_temp_c:
.Lfunc_begin1:
	.loc	2 70 0 is_stmt 1                @ ../app/hns_ntc.c:70:0
	.fnstart
	.cfi_startproc
@ %bb.0:
	.save	{r7, lr}
	push	{r7, lr}
	.cfi_def_cfa_offset 8
	.cfi_offset lr, -4
	.cfi_offset r7, -8
	.pad	#24
	sub	sp, #24
	.cfi_def_cfa_offset 32
	str	r0, [sp, #20]
.Ltmp5:
	.loc	2 77 23 prologue_end            @ ../app/hns_ntc.c:77:23
	ldr	r1, [sp, #20]
	.loc	2 77 30 is_stmt 0               @ ../app/hns_ntc.c:77:30
	lsls	r0, r1, #16
	lsrs	r1, r1, #16
	movw	r2, #1104
	movs	r3, #0
	.loc	2 77 37                         @ ../app/hns_ntc.c:77:37
	str	r3, [sp]                        @ 4-byte Spill
	bl	__aeabi_uldivmod
	.loc	2 77 11                         @ ../app/hns_ntc.c:77:11
	str	r0, [sp, #16]
	.loc	2 80 19 is_stmt 1               @ ../app/hns_ntc.c:80:19
	ldr	r0, [sp, #16]
	.loc	2 80 12 is_stmt 0               @ ../app/hns_ntc.c:80:12
	bl	ln_q16
	mov	r1, r0
	.loc	2 80 10                         @ ../app/hns_ntc.c:80:10
	ldr	r0, [sp]                        @ 4-byte Reload
	str	r1, [sp, #12]
	.loc	2 83 26 is_stmt 1               @ ../app/hns_ntc.c:83:26
	ldr	r1, [sp, #12]
	.loc	2 83 15 is_stmt 0               @ ../app/hns_ntc.c:83:15
	str	r1, [sp, #8]
	.loc	2 86 15 is_stmt 1               @ ../app/hns_ntc.c:86:15
	ldr	r1, [sp, #8]
	adds	r1, #138
	str	r1, [sp, #8]
	.loc	2 89 40                         @ ../app/hns_ntc.c:89:40
	ldr	r2, [sp, #8]
	asrs	r3, r2, #31
	movs	r1, #1
	.loc	2 89 38 is_stmt 0               @ ../app/hns_ntc.c:89:38
	bl	__aeabi_ldivmod
	.loc	2 89 11                         @ ../app/hns_ntc.c:89:11
	str	r0, [sp, #4]
	.loc	2 92 13 is_stmt 1               @ ../app/hns_ntc.c:92:13
	ldr	r0, [sp, #4]
	ldr	r1, __arm_cp.1_0
	.loc	2 92 19 is_stmt 0               @ ../app/hns_ntc.c:92:19
	adds	r0, r0, r1
	.loc	2 92 50                         @ ../app/hns_ntc.c:92:50
	asrs	r0, r0, #16
	.loc	2 92 5                          @ ../app/hns_ntc.c:92:5
	add	sp, #24
	pop	{r7, pc}
.Ltmp6:
	.p2align	2
@ %bb.1:
	.loc	2 0 5                           @ ../app/hns_ntc.c:0:5
__arm_cp.1_0:
	.long	4277066138                      @ 0xfeeed99a
.Lcpi_end2:
	.size	__arm_cp.1_0, .Lcpi_end2-__arm_cp.1_0
.Lfunc_end1:
	.size	hns_ntc_get_temp_c, .Lfunc_end1-hns_ntc_get_temp_c
	.cfi_endproc
	.cantunwind
	.fnend
                                        @ -- End function
	.section	.text.ln_q16,"ax",%progbits
	.p2align	2                               @ -- Begin function ln_q16
	.type	ln_q16,%function
	.code	16                              @ @ln_q16
	.thumb_func
ln_q16:
.Lfunc_begin2:
	.loc	2 28 0 is_stmt 1                @ ../app/hns_ntc.c:28:0
	.fnstart
	.cfi_startproc
@ %bb.0:
	.save	{r7, lr}
	push	{r7, lr}
	.cfi_def_cfa_offset 8
	.cfi_offset lr, -4
	.cfi_offset r7, -8
	.pad	#24
	sub	sp, #24
	.cfi_def_cfa_offset 32
	str	r0, [sp, #20]
	movs	r0, #0
.Ltmp7:
	.loc	2 29 13 prologue_end            @ ../app/hns_ntc.c:29:13
	str	r0, [sp, #16]
	.loc	2 32 5                          @ ../app/hns_ntc.c:32:5
	b	.LBB2_1
.LBB2_1:                                @ =>This Inner Loop Header: Depth=1
	.loc	2 32 12 is_stmt 0               @ ../app/hns_ntc.c:32:12
	ldr	r0, [sp, #20]
	movs	r1, #1
	lsls	r1, r1, #17
	.loc	2 32 5                          @ ../app/hns_ntc.c:32:5
	cmp	r0, r1
	blt	.LBB2_3
	b	.LBB2_2
.LBB2_2:                                @   in Loop: Header=BB2_1 Depth=1
.Ltmp8:
	.loc	2 33 15 is_stmt 1               @ ../app/hns_ntc.c:33:15
	ldr	r0, [sp, #20]
	asrs	r0, r0, #1
	str	r0, [sp, #20]
	.loc	2 34 10                         @ ../app/hns_ntc.c:34:10
	ldr	r0, [sp, #16]
	adds	r0, r0, #1
	str	r0, [sp, #16]
.Ltmp9:
	.loc	2 32 5                          @ ../app/hns_ntc.c:32:5
	b	.LBB2_1
.LBB2_3:
	.loc	2 36 5                          @ ../app/hns_ntc.c:36:5
	b	.LBB2_4
.LBB2_4:                                @ =>This Inner Loop Header: Depth=1
	.loc	2 36 12 is_stmt 0               @ ../app/hns_ntc.c:36:12
	ldr	r0, [sp, #20]
	ldr	r1, __arm_cp.2_0
	.loc	2 36 5                          @ ../app/hns_ntc.c:36:5
	cmp	r0, r1
	bgt	.LBB2_6
	b	.LBB2_5
.LBB2_5:                                @   in Loop: Header=BB2_4 Depth=1
.Ltmp10:
	.loc	2 37 15 is_stmt 1               @ ../app/hns_ntc.c:37:15
	ldr	r0, [sp, #20]
	lsls	r0, r0, #1
	str	r0, [sp, #20]
	.loc	2 38 10                         @ ../app/hns_ntc.c:38:10
	ldr	r0, [sp, #16]
	subs	r0, r0, #1
	str	r0, [sp, #16]
.Ltmp11:
	.loc	2 36 5                          @ ../app/hns_ntc.c:36:5
	b	.LBB2_4
.LBB2_6:
	.loc	2 42 18                         @ ../app/hns_ntc.c:42:18
	ldr	r0, [sp, #20]
	ldr	r1, __arm_cp.2_1
	.loc	2 42 24 is_stmt 0               @ ../app/hns_ntc.c:42:24
	adds	r0, r0, r1
	.loc	2 42 13                         @ ../app/hns_ntc.c:42:13
	str	r0, [sp, #12]
	.loc	2 43 27 is_stmt 1               @ ../app/hns_ntc.c:43:27
	ldr	r2, [sp, #12]
	asrs	r3, r2, #31
	.loc	2 43 29 is_stmt 0               @ ../app/hns_ntc.c:43:29
	mov	r0, r2
	mov	r1, r3
	bl	__aeabi_lmul
	.loc	2 43 33                         @ ../app/hns_ntc.c:43:33
	lsls	r1, r1, #16
	lsrs	r0, r0, #16
	adds	r0, r0, r1
	.loc	2 43 13                         @ ../app/hns_ntc.c:43:13
	str	r0, [sp, #8]
	.loc	2 44 27 is_stmt 1               @ ../app/hns_ntc.c:44:27
	ldr	r0, [sp, #8]
	asrs	r1, r0, #31
	.loc	2 44 32 is_stmt 0               @ ../app/hns_ntc.c:44:32
	ldr	r2, [sp, #12]
	asrs	r3, r2, #31
	.loc	2 44 30                         @ ../app/hns_ntc.c:44:30
	bl	__aeabi_lmul
	.loc	2 44 34                         @ ../app/hns_ntc.c:44:34
	lsls	r1, r1, #16
	lsrs	r0, r0, #16
	adds	r0, r0, r1
	.loc	2 44 13                         @ ../app/hns_ntc.c:44:13
	str	r0, [sp, #4]
	.loc	2 47 20 is_stmt 1               @ ../app/hns_ntc.c:47:20
	ldr	r0, [sp, #12]
	.loc	2 47 25 is_stmt 0               @ ../app/hns_ntc.c:47:25
	ldr	r1, [sp, #8]
	.loc	2 47 28                         @ ../app/hns_ntc.c:47:28
	asrs	r1, r1, #1
	.loc	2 47 22                         @ ../app/hns_ntc.c:47:22
	subs	r0, r0, r1
	.loc	2 47 37                         @ ../app/hns_ntc.c:47:37
	ldr	r1, [sp, #4]
	movs	r2, #3
	.loc	2 47 40                         @ ../app/hns_ntc.c:47:40
	sdiv	r1, r1, r2
	.loc	2 47 34                         @ ../app/hns_ntc.c:47:34
	adds	r0, r0, r1
	.loc	2 47 13                         @ ../app/hns_ntc.c:47:13
	str	r0, [sp]
	.loc	2 49 12 is_stmt 1               @ ../app/hns_ntc.c:49:12
	ldr	r0, [sp]
	.loc	2 49 19 is_stmt 0               @ ../app/hns_ntc.c:49:19
	ldr	r2, [sp, #16]
	ldr	r1, __arm_cp.2_2
	.loc	2 49 21                         @ ../app/hns_ntc.c:49:21
	muls	r1, r2, r1
	.loc	2 49 17                         @ ../app/hns_ntc.c:49:17
	adds	r0, r0, r1
	.loc	2 49 5                          @ ../app/hns_ntc.c:49:5
	add	sp, #24
	pop	{r7, pc}
.Ltmp12:
	.p2align	2
@ %bb.7:
	.loc	2 0 5                           @ ../app/hns_ntc.c:0:5
__arm_cp.2_0:
	.long	65535                           @ 0xffff
.Lcpi_end3:
	.size	__arm_cp.2_0, .Lcpi_end3-__arm_cp.2_0
__arm_cp.2_1:
	.long	4294901760                      @ 0xffff0000
.Lcpi_end4:
	.size	__arm_cp.2_1, .Lcpi_end4-__arm_cp.2_1
__arm_cp.2_2:
	.long	45426                           @ 0xb172
.Lcpi_end5:
	.size	__arm_cp.2_2, .Lcpi_end5-__arm_cp.2_2
.Lfunc_end2:
	.size	ln_q16, .Lfunc_end2-ln_q16
	.cfi_endproc
	.cantunwind
	.fnend
                                        @ -- End function
	.section	.text.ntc_calc_resistance,"ax",%progbits
	.hidden	ntc_calc_resistance             @ -- Begin function ntc_calc_resistance
	.globl	ntc_calc_resistance
	.p2align	2
	.type	ntc_calc_resistance,%function
	.code	16                              @ @ntc_calc_resistance
	.thumb_func
ntc_calc_resistance:
.Lfunc_begin3:
	.loc	2 104 0 is_stmt 1               @ ../app/hns_ntc.c:104:0
	.fnstart
	.cfi_startproc
@ %bb.0:
	.pad	#4
	sub	sp, #4
	.cfi_def_cfa_offset 4
	mov	r1, r0
                                        @ kill: def $r0 killed $r1
	mov	r0, sp
	strh	r1, [r0]
.Ltmp13:
	.loc	2 105 8 prologue_end            @ ../app/hns_ntc.c:105:8
	ldrh	r0, [r0]
	ldr	r1, __arm_cp.3_0
.Ltmp14:
	.loc	2 105 8 is_stmt 0               @ ../app/hns_ntc.c:105:8
	cmp	r0, r1
	bne	.LBB3_2
	b	.LBB3_1
.LBB3_1:
	.loc	2 0 8                           @ ../app/hns_ntc.c:0:8
	mov	r1, sp
	ldr	r0, __arm_cp.3_1
.Ltmp15:
	.loc	2 105 33                        @ ../app/hns_ntc.c:105:33
	strh	r0, [r1]
	.loc	2 105 25                        @ ../app/hns_ntc.c:105:25
	b	.LBB3_2
.Ltmp16:
.LBB3_2:
	.loc	2 0 25                          @ ../app/hns_ntc.c:0:25
	mov	r0, sp
	.loc	2 106 23 is_stmt 1              @ ../app/hns_ntc.c:106:23
	ldrh	r2, [r0]
	ldr	r0, __arm_cp.3_2
	.loc	2 106 30 is_stmt 0              @ ../app/hns_ntc.c:106:30
	muls	r0, r2, r0
	ldr	r1, __arm_cp.3_0
	.loc	2 106 43                        @ ../app/hns_ntc.c:106:43
	subs	r1, r1, r2
	.loc	2 106 36                        @ ../app/hns_ntc.c:106:36
	sdiv	r0, r0, r1
	.loc	2 106 5                         @ ../app/hns_ntc.c:106:5
	add	sp, #4
	bx	lr
.Ltmp17:
	.p2align	2
@ %bb.3:
	.loc	2 0 5                           @ ../app/hns_ntc.c:0:5
__arm_cp.3_0:
	.long	4095                            @ 0xfff
.Lcpi_end6:
	.size	__arm_cp.3_0, .Lcpi_end6-__arm_cp.3_0
__arm_cp.3_1:
	.long	4094                            @ 0xffe
.Lcpi_end7:
	.size	__arm_cp.3_1, .Lcpi_end7-__arm_cp.3_1
__arm_cp.3_2:
	.long	4700                            @ 0x125c
.Lcpi_end8:
	.size	__arm_cp.3_2, .Lcpi_end8-__arm_cp.3_2
.Lfunc_end3:
	.size	ntc_calc_resistance, .Lfunc_end3-ntc_calc_resistance
	.cfi_endproc
	.cantunwind
	.fnend
                                        @ -- End function
	.section	".note.GNU-stack","",%progbits
	.eabi_attribute	30, 6	@ Tag_ABI_optimization_goals
	.ARM_attribute	16, 1	@ Tag_AV_eba