	.text
	.syntax unified
	.eabi_attribute	67, "2.09"	@ Tag_conformance
	.cpu	cortex-m23
	.eabi_attribute	6, 16	@ Tag_CPU_arch
	.eabi_attribute	7, 77	@ Tag_CPU_arch_profile
	.eabi_attribute	8, 0	@ Tag_ARM_ISA_use
	.eabi_attribute	9, 3	@ Tag_THUMB_ISA_use
	.eabi_attribute	34, 0	@ Tag_CPU_unaligned_access
	.eabi_attribute	17, 1	@ Tag_ABI_PCS_GOT_use
	.eabi_attribute	20, 2	@ Tag_ABI_FP_denormal
	.eabi_attribute	21, 0	@ Tag_ABI_FP_exceptions
	.eabi_attribute	23, 1	@ Tag_ABI_FP_number_model
	.eabi_attribute	24, 1	@ Tag_ABI_align_needed
	.eabi_attribute	25, 1	@ Tag_ABI_align_preserved
	.eabi_attribute	38, 1	@ Tag_ABI_FP_16bit_format
	.eabi_attribute	18, 2	@ Tag_ABI_PCS_wchar_t
	.eabi_attribute	26, 1	@ Tag_ABI_enum_size
	.eabi_attribute	14, 0	@ Tag_ABI_PCS_R9_use
	.file	"main.c"
	.file	1 "E:\\work\\CX_NFC_RX\\prj" "../std/GD32C2x1_Firmware_Library/CMSIS/GD/GD32C2x1/Include/gd32c2x1.h"
	.file	2 "D:\\Keil_v5\\ARM\\ARMCLANG\\Bin\\..\\include" "stdint.h"
	.file	3 "D:/Users\\121593\\AppData\\Local\\Arm\\Packs\\ARM\\CMSIS\\5.8.0\\CMSIS\\Core\\Include" "core_cm23.h"
	.section	.text.systick_config,"ax",%progbits
	.hidden	systick_config                  @ -- Begin function systick_config
	.globl	systick_config
	.p2align	2
	.type	systick_config,%function
	.code	16                              @ @systick_config
	.thumb_func
systick_config:
.Lfunc_begin0:
	.file	4 "E:\\work\\CX_NFC_RX\\prj" "../app/main.c"
	.loc	4 9 0                           @ ../app/main.c:9:0
	.fnstart
	.cfi_sections .debug_frame
	.cfi_startproc
@ %bb.0:
	.save	{r7, lr}
	push	{r7, lr}
	.cfi_def_cfa_offset 8
	.cfi_offset lr, -4
	.cfi_offset r7, -8
.Ltmp0:
	.loc	4 11 23 prologue_end            @ ../app/main.c:11:23
	ldr	r0, __arm_cp.0_0
	ldr	r0, [r0]
	movw	r1, #1000
	.loc	4 11 39 is_stmt 0               @ ../app/main.c:11:39
	udiv	r0, r0, r1
	.loc	4 11 8                          @ ../app/main.c:11:8
	bl	SysTick_Config
.Ltmp1:
	.loc	4 11 8                          @ ../app/main.c:11:8
	cbz	r0, .LBB0_3
	b	.LBB0_1
.LBB0_1:
.Ltmp2:
	.loc	4 13 9 is_stmt 1                @ ../app/main.c:13:9
	b	.LBB0_2
.LBB0_2:                                @ =>This Inner Loop Header: Depth=1
	b	.LBB0_2
.Ltmp3:
.LBB0_3:
	.loc	4 0 9 is_stmt 0                 @ ../app/main.c:0:9
	movs	r1, #0
	mvns	r0, r1
	.loc	4 17 5 is_stmt 1                @ ../app/main.c:17:5
	bl	__NVIC_SetPriority
	.loc	4 18 1                          @ ../app/main.c:18:1
	pop	{r7, pc}
.Ltmp4:
	.p2align	2
@ %bb.4:
	.loc	4 0 1 is_stmt 0                 @ ../app/main.c:0:1
__arm_cp.0_0:
	.long	SystemCoreClock
.Lcpi_end0:
	.size	__arm_cp.0_0, .Lcpi_end0-__arm_cp.0_0
.Lfunc_end0:
	.size	systick_config, .Lfunc_end0-systick_config
	.cfi_endproc
	.cantunwind
	.fnend
                                        @ -- End function
	.section	.text.SysTick_Config,"ax",%progbits
	.p2align	2                               @ -- Begin function SysTick_Config
	.type	SysTick_Config,%function
	.code	16                              @ @SysTick_Config
	.thumb_func
SysTick_Config:
.Lfunc_begin1:
	.loc	3 2239 0 is_stmt 1              @ D:/Users\121593\AppData\Local\Arm\Packs\ARM\CMSIS\5.8.0\CMSIS\Core\Include\core_cm23.h:2239:0
	.fnstart
	.cfi_startproc
@ %bb.0:
	.save	{r7, lr}
	push	{r7, lr}
	.cfi_def_cfa_offset 8
	.cfi_offset lr, -4
	.cfi_offset r7, -8
	.pad	#16
	sub	sp, #16
	.cfi_def_cfa_offset 24
	str	r0, [sp, #8]
.Ltmp5:
	.loc	3 2240 8 prologue_end           @ D:/Users\121593\AppData\Local\Arm\Packs\ARM\CMSIS\5.8.0\CMSIS\Core\Include\core_cm23.h:2240:8
	ldr	r0, [sp, #8]
	.loc	3 2240 14 is_stmt 0             @ D:/Users\121593\AppData\Local\Arm\Packs\ARM\CMSIS\5.8.0\CMSIS\Core\Include\core_cm23.h:2240:14
	subs	r0, r0, #1
.Ltmp6:
	.loc	3 2240 7                        @ D:/Users\121593\AppData\Local\Arm\Packs\ARM\CMSIS\5.8.0\CMSIS\Core\Include\core_cm23.h:2240:7
	lsrs	r0, r0, #24
	cbz	r0, .LBB1_2
	b	.LBB1_1
.LBB1_1:
	.loc	3 0 7                           @ D:/Users\121593\AppData\Local\Arm\Packs\ARM\CMSIS\5.8.0\CMSIS\Core\Include\core_cm23.h:0:7
	movs	r0, #1
.Ltmp7:
	.loc	3 2242 5 is_stmt 1              @ D:/Users\121593\AppData\Local\Arm\Packs\ARM\CMSIS\5.8.0\CMSIS\Core\Include\core_cm23.h:2242:5
	str	r0, [sp, #12]
	b	.LBB1_3
.Ltmp8:
.LBB1_2:
	.loc	3 2245 31                       @ D:/Users\121593\AppData\Local\Arm\Packs\ARM\CMSIS\5.8.0\CMSIS\Core\Include\core_cm23.h:2245:31
	ldr	r0, [sp, #8]
	.loc	3 2245 37 is_stmt 0             @ D:/Users\121593\AppData\Local\Arm\Packs\ARM\CMSIS\5.8.0\CMSIS\Core\Include\core_cm23.h:2245:37
	subs	r0, r0, #1
	ldr	r1, __arm_cp.1_0
	.loc	3 2245 18                       @ D:/Users\121593\AppData\Local\Arm\Packs\ARM\CMSIS\5.8.0\CMSIS\Core\Include\core_cm23.h:2245:18
	str	r0, [r1]
	movs	r0, #0
	str	r0, [sp, #4]                    @ 4-byte Spill
	mvns	r0, r0
	movs	r1, #3
	.loc	3 2246 3 is_stmt 1              @ D:/Users\121593\AppData\Local\Arm\Packs\ARM\CMSIS\5.8.0\CMSIS\Core\Include\core_cm23.h:2246:3
	bl	__NVIC_SetPriority
	ldr	r0, [sp, #4]                    @ 4-byte Reload
	ldr	r1, __arm_cp.1_1
	.loc	3 2247 18                       @ D:/Users\121593\AppData\Local\Arm\Packs\ARM\CMSIS\5.8.0\CMSIS\Core\Include\core_cm23.h:2247:18
	str	r0, [r1]
	ldr	r2, __arm_cp.1_2
	movs	r1, #7
	.loc	3 2248 18                       @ D:/Users\121593\AppData\Local\Arm\Packs\ARM\CMSIS\5.8.0\CMSIS\Core\Include\core_cm23.h:2248:18
	str	r1, [r2]
	.loc	3 2251 3                        @ D:/Users\121593\AppData\Local\Arm\Packs\ARM\CMSIS\5.8.0\CMSIS\Core\Include\core_cm23.h:2251:3
	str	r0, [sp, #12]
	b	.LBB1_3
.LBB1_3:
	.loc	3 2252 1                        @ D:/Users\121593\AppData\Local\Arm\Packs\ARM\CMSIS\5.8.0\CMSIS\Core\Include\core_cm23.h:2252:1
	ldr	r0, [sp, #12]
	add	sp, #16
	pop	{r7, pc}
.Ltmp9:
	.p2align	2
@ %bb.4:
	.loc	3 0 1 is_stmt 0                 @ D:/Users\121593\AppData\Local\Arm\Packs\ARM\CMSIS\5.8.0\CMSIS\Core\Include\core_cm23.h:0:1
__arm_cp.1_0:
	.long	3758153748                      @ 0xe000e014
.Lcpi_end1:
	.size	__arm_cp.1_0, .Lcpi_end1-__arm_cp.1_0
__arm_cp.1_1:
	.long	3758153752                      @ 0xe000e018
.Lcpi_end2:
	.size	__arm_cp.1_1, .Lcpi_end2-__arm_cp.1_1
__arm_cp.1_2:
	.long	3758153744                      @ 0xe000e010
.Lcpi_end3:
	.size	__arm_cp.1_2, .Lcpi_end3-__arm_cp.1_2
.Lfunc_end1:
	.size	SysTick_Config, .Lfunc_end1-SysTick_Config
	.cfi_endproc
	.cantunwind
	.fnend
                                        @ -- End function
	.section	.text.__NVIC_SetPriority,"ax",%progbits
	.p2align	2                               @ -- Begin function __NVIC_SetPriority
	.type	__NVIC_SetPriority,%function
	.code	16                              @ @__NVIC_SetPriority
	.thumb_func
__NVIC_SetPriority:
.Lfunc_begin2:
	.loc	3 1722 0 is_stmt 1              @ D:/Users\121593\AppData\Local\Arm\Packs\ARM\CMSIS\5.8.0\CMSIS\Core\Include\core_cm23.h:1722:0
	.fnstart
	.cfi_startproc
@ %bb.0:
	.save	{r4, r5, r6, lr}
	push	{r4, r5, r6, lr}
	.cfi_def_cfa_offset 16
	.cfi_offset lr, -4
	.cfi_offset r6, -8
	.cfi_offset r5, -12
	.cfi_offset r4, -16
	.pad	#8
	sub	sp, #8
	.cfi_def_cfa_offset 24
	mov	r2, r0
                                        @ kill: def $r0 killed $r2
	add	r0, sp, #4
	strb	r2, [r0]
	str	r1, [sp]
.Ltmp10:
	.loc	3 1723 17 prologue_end          @ D:/Users\121593\AppData\Local\Arm\Packs\ARM\CMSIS\5.8.0\CMSIS\Core\Include\core_cm23.h:1723:17
	ldrb	r0, [r0]
	sxtb	r0, r0
.Ltmp11:
	.loc	3 1723 7 is_stmt 0              @ D:/Users\121593\AppData\Local\Arm\Packs\ARM\CMSIS\5.8.0\CMSIS\Core\Include\core_cm23.h:1723:7
	cmp	r0, #0
	bmi	.LBB2_2
	b	.LBB2_1
.LBB2_1:
	.loc	3 0 7                           @ D:/Users\121593\AppData\Local\Arm\Packs\ARM\CMSIS\5.8.0\CMSIS\Core\Include\core_cm23.h:0:7
	add	r1, sp, #4
.Ltmp12:
	.loc	3 1725 55 is_stmt 1             @ D:/Users\121593\AppData\Local\Arm\Packs\ARM\CMSIS\5.8.0\CMSIS\Core\Include\core_cm23.h:1725:55
	ldrb	r0, [r1]
	sxtb	r0, r0
	movs	r2, #3
	mvns	r3, r2
	ands	r0, r3
	ldr	r2, __arm_cp.2_1
	.loc	3 1725 45 is_stmt 0             @ D:/Users\121593\AppData\Local\Arm\Packs\ARM\CMSIS\5.8.0\CMSIS\Core\Include\core_cm23.h:1725:45
	ldr	r0, [r0, r2]
	.loc	3 1725 85                       @ D:/Users\121593\AppData\Local\Arm\Packs\ARM\CMSIS\5.8.0\CMSIS\Core\Include\core_cm23.h:1725:85
	ldrb	r1, [r1]
	sxtb	r1, r1
	lsls	r4, r1, #30
	lsrs	r5, r4, #27
	movs	r4, #255
	.loc	3 1725 82                       @ D:/Users\121593\AppData\Local\Arm\Packs\ARM\CMSIS\5.8.0\CMSIS\Core\Include\core_cm23.h:1725:82
	lsls	r4, r5
	.loc	3 1725 71                       @ D:/Users\121593\AppData\Local\Arm\Packs\ARM\CMSIS\5.8.0\CMSIS\Core\Include\core_cm23.h:1725:71
	bics	r0, r4
	.loc	3 1726 11 is_stmt 1             @ D:/Users\121593\AppData\Local\Arm\Packs\ARM\CMSIS\5.8.0\CMSIS\Core\Include\core_cm23.h:1726:11
	ldr	r4, [sp]
	.loc	3 1726 20 is_stmt 0             @ D:/Users\121593\AppData\Local\Arm\Packs\ARM\CMSIS\5.8.0\CMSIS\Core\Include\core_cm23.h:1726:20
	lsls	r4, r4, #6
	.loc	3 1726 48                       @ D:/Users\121593\AppData\Local\Arm\Packs\ARM\CMSIS\5.8.0\CMSIS\Core\Include\core_cm23.h:1726:48
	uxtb	r4, r4
	.loc	3 1726 68                       @ D:/Users\121593\AppData\Local\Arm\Packs\ARM\CMSIS\5.8.0\CMSIS\Core\Include\core_cm23.h:1726:68
	lsls	r4, r5
	.loc	3 1725 104 is_stmt 1            @ D:/Users\121593\AppData\Local\Arm\Packs\ARM\CMSIS\5.8.0\CMSIS\Core\Include\core_cm23.h:1725:104
	orrs	r0, r4
	.loc	3 1725 15 is_stmt 0             @ D:/Users\121593\AppData\Local\Arm\Packs\ARM\CMSIS\5.8.0\CMSIS\Core\Include\core_cm23.h:1725:15
	ands	r1, r3
	.loc	3 1725 31                       @ D:/Users\121593\AppData\Local\Arm\Packs\ARM\CMSIS\5.8.0\CMSIS\Core\Include\core_cm23.h:1725:31
	str	r0, [r1, r2]
	.loc	3 1727 3 is_stmt 1              @ D:/Users\121593\AppData\Local\Arm\Packs\ARM\CMSIS\5.8.0\CMSIS\Core\Include\core_cm23.h:1727:3
	b	.LBB2_3
.Ltmp13:
.LBB2_2:
	.loc	3 0 3 is_stmt 0                 @ D:/Users\121593\AppData\Local\Arm\Packs\ARM\CMSIS\5.8.0\CMSIS\Core\Include\core_cm23.h:0:3
	add	r1, sp, #4
.Ltmp14:
	.loc	3 1730 55 is_stmt 1             @ D:/Users\121593\AppData\Local\Arm\Packs\ARM\CMSIS\5.8.0\CMSIS\Core\Include\core_cm23.h:1730:55
	ldrb	r0, [r1]
	movs	r4, #15
	ands	r0, r4
	subs	r0, #8
	movs	r2, #3
	mvns	r3, r2
	ands	r0, r3
	ldr	r2, __arm_cp.2_0
	.loc	3 1730 45 is_stmt 0             @ D:/Users\121593\AppData\Local\Arm\Packs\ARM\CMSIS\5.8.0\CMSIS\Core\Include\core_cm23.h:1730:45
	ldr	r0, [r0, r2]
	.loc	3 1730 85                       @ D:/Users\121593\AppData\Local\Arm\Packs\ARM\CMSIS\5.8.0\CMSIS\Core\Include\core_cm23.h:1730:85
	ldrb	r1, [r1]
	sxtb	r1, r1
	lsls	r5, r1, #30
	lsrs	r6, r5, #27
	movs	r5, #255
	.loc	3 1730 82                       @ D:/Users\121593\AppData\Local\Arm\Packs\ARM\CMSIS\5.8.0\CMSIS\Core\Include\core_cm23.h:1730:82
	lsls	r5, r6
	.loc	3 1730 71                       @ D:/Users\121593\AppData\Local\Arm\Packs\ARM\CMSIS\5.8.0\CMSIS\Core\Include\core_cm23.h:1730:71
	bics	r0, r5
	.loc	3 1731 11 is_stmt 1             @ D:/Users\121593\AppData\Local\Arm\Packs\ARM\CMSIS\5.8.0\CMSIS\Core\Include\core_cm23.h:1731:11
	ldr	r5, [sp]
	.loc	3 1731 20 is_stmt 0             @ D:/Users\121593\AppData\Local\Arm\Packs\ARM\CMSIS\5.8.0\CMSIS\Core\Include\core_cm23.h:1731:20
	lsls	r5, r5, #6
	.loc	3 1731 48                       @ D:/Users\121593\AppData\Local\Arm\Packs\ARM\CMSIS\5.8.0\CMSIS\Core\Include\core_cm23.h:1731:48
	uxtb	r5, r5
	.loc	3 1731 68                       @ D:/Users\121593\AppData\Local\Arm\Packs\ARM\CMSIS\5.8.0\CMSIS\Core\Include\core_cm23.h:1731:68
	lsls	r5, r6
	.loc	3 1730 104 is_stmt 1            @ D:/Users\121593\AppData\Local\Arm\Packs\ARM\CMSIS\5.8.0\CMSIS\Core\Include\core_cm23.h:1730:104
	orrs	r0, r5
	.loc	3 1730 15 is_stmt 0             @ D:/Users\121593\AppData\Local\Arm\Packs\ARM\CMSIS\5.8.0\CMSIS\Core\Include\core_cm23.h:1730:15
	ands	r1, r4
	subs	r1, #8
	ands	r1, r3
	.loc	3 1730 31                       @ D:/Users\121593\AppData\Local\Arm\Packs\ARM\CMSIS\5.8.0\CMSIS\Core\Include\core_cm23.h:1730:31
	str	r0, [r1, r2]
	b	.LBB2_3
.Ltmp15:
.LBB2_3:
	.loc	3 1733 1 is_stmt 1              @ D:/Users\121593\AppData\Local\Arm\Packs\ARM\CMSIS\5.8.0\CMSIS\Core\Include\core_cm23.h:1733:1
	add	sp, #8
	pop	{r4, r5, r6, pc}
.Ltmp16:
	.p2align	2
@ %bb.4:
	.loc	3 0 1 is_stmt 0                 @ D:/Users\121593\AppData\Local\Arm\Packs\ARM\CMSIS\5.8.0\CMSIS\Core\Include\core_cm23.h:0:1
__arm_cp.2_0:
	.long	3758157084                      @ 0xe000ed1c
.Lcpi_end4:
	.size	__arm_cp.2_0, .Lcpi_end4-__arm_cp.2_0
__arm_cp.2_1:
	.long	3758154752                      @ 0xe000e400
.Lcpi_end5:
	.size	__arm_cp.2_1, .Lcpi_end5-__arm_cp.2_1
.Lfunc_end2:
	.size	__NVIC_SetPriority, .Lfunc_end2-__NVIC_SetPriority
	.cfi_endproc
	.cantunwind
	.fnend
                                        @ -- End function
	.section	.text.main,"ax",%progbits
	.hidden	main                            @ -- Begin function main
	.globl	main
	.p2align	2
	.type	main,%function
	.code	16                              @ @main
	.thumb_func
main:
.Lfunc_begin3:
	.loc	4 21 0 is_stmt 1                @ ../app/main.c:21:0
	.fnstart
	.cfi_startproc
@ %bb.0:
	.save	{r7, lr}
	push	{r7, lr}
	.cfi_def_cfa_offset 8
	.cfi_offset lr, -4
	.cfi_offset r7, -8
	.pad	#8
	sub	sp, #8
	.cfi_def_cfa_offset 16
	movs	r0, #0
	str	r0, [sp, #4]
.Ltmp17:
	.loc	4 24 5 prologue_end             @ ../app/main.c:24:5
	bl	bsp_gpio_int_init
	.loc	4 25 5                          @ ../app/main.c:25:5
	bl	bsp_i2c_bus_init
	.loc	4 26 5                          @ ../app/main.c:26:5
	bl	fm11_dev_init
	.loc	4 27 5                          @ ../app/main.c:27:5
	bl	table_init
	.loc	4 28 5                          @ ../app/main.c:28:5
	bl	adc_init
	.loc	4 29 5                          @ ../app/main.c:29:5
	b	.LBB3_1
.LBB3_1:                                @ =>This Inner Loop Header: Depth=1
.Ltmp18:
	.loc	4 31 9                          @ ../app/main.c:31:9
	bl	adc_channel_sample
	.loc	4 32 9                          @ ../app/main.c:32:9
	ldr	r0, __arm_cp.3_0
	bl	prog_task
.Ltmp19:
	.loc	4 29 5                          @ ../app/main.c:29:5
	b	.LBB3_1
.Ltmp20:
	.p2align	2
@ %bb.2:
	.loc	4 0 5 is_stmt 0                 @ ../app/main.c:0:5
__arm_cp.3_0:
	.long	dev_fm11
.Lcpi_end6:
	.size	__arm_cp.3_0, .Lcpi_end6-__arm_cp.3_0
.Lfunc_end3:
	.size	main, .Lfunc_end3-main
	.cfi_endproc
	.cantunwind
	.fnend
                                        @ -- End function
	.type	__ARM_use_no_argv,%object       @ @__ARM_use_no_argv
	.section	.ARM.use_no_argv,"aw",%progbits
	.globl	__ARM_use_no_argv
	.p2align	2
__ARM_use_no_argv:
	.long	1                               @ 0x1
	.size	__ARM_use_no_argv, 4

	.globl	__ARM_use_no_argv
	.section	".note.GNU-stack","",%progbits
	.eabi_attribute	30, 6	@ Tag_ABI_optimization_goals
	.ARM_attribute	16, 1	@ Tag_AV_eba