	.text
	.syntax unified
	.eabi_attribute	67, "2.09"	@ Tag_conformance
	.cpu	cortex-m23
	.eabi_attribute	6, 16	@ Tag_CPU_arch
	.eabi_attribute	7, 77	@ Tag_CPU_arch_profile
	.eabi_attribute	8, 0	@ Tag_ARM_ISA_use
	.eabi_attribute	9, 3	@ Tag_THUMB_ISA_use
	.eabi_attribute	34, 0	@ Tag_CPU_unaligned_access
	.eabi_attribute	17, 1	@ Tag_ABI_PCS_GOT_use
	.eabi_attribute	20, 2	@ Tag_ABI_FP_denormal
	.eabi_attribute	21, 0	@ Tag_ABI_FP_exceptions
	.eabi_attribute	23, 1	@ Tag_ABI_FP_number_model
	.eabi_attribute	24, 1	@ Tag_ABI_align_needed
	.eabi_attribute	25, 1	@ Tag_ABI_align_preserved
	.eabi_attribute	38, 1	@ Tag_ABI_FP_16bit_format
	.eabi_attribute	18, 2	@ Tag_ABI_PCS_wchar_t
	.eabi_attribute	26, 1	@ Tag_ABI_enum_size
	.eabi_attribute	14, 0	@ Tag_ABI_PCS_R9_use
	.file	"nfc_command.c"
	.file	1 "D:\\Keil_v5\\ARM\\ARMCLANG\\Bin\\..\\include" "stdint.h"
	.file	2 "E:\\work\\CX_NFC_RX\\prj" "../app/nfc_command.c"
	.file	3 "E:\\work\\CX_NFC_RX\\prj" "../app/nfc_command.h"
	.file	4 "E:\\work\\CX_NFC_RX\\prj" "../drv/i2c_bus_device.h"
	.section	.text.uread2,"ax",%progbits
	.hidden	uread2                          @ -- Begin function uread2
	.globl	uread2
	.p2align	1
	.type	uread2,%function
	.code	16                              @ @uread2
	.thumb_func
uread2:
.Lfunc_begin0:
	.loc	2 83 0                          @ ../app/nfc_command.c:83:0
	.fnstart
	.cfi_sections .debug_frame
	.cfi_startproc
@ %bb.0:
	.pad	#8
	sub	sp, #8
	.cfi_def_cfa_offset 8
	str	r0, [sp]
.Ltmp0:
	.loc	2 84 6 prologue_end             @ ../app/nfc_command.c:84:6
	ldr	r0, [sp]
.Ltmp1:
	.loc	2 84 5 is_stmt 0                @ ../app/nfc_command.c:84:5
	cbnz	r0, .LBB0_2
	b	.LBB0_1
.LBB0_1:
	.loc	2 0 5                           @ ../app/nfc_command.c:0:5
	add	r1, sp, #4
	movs	r0, #0
.Ltmp2:
	.loc	2 85 3 is_stmt 1                @ ../app/nfc_command.c:85:3
	strh	r0, [r1]
	b	.LBB0_3
.Ltmp3:
.LBB0_2:
	.loc	2 86 11                         @ ../app/nfc_command.c:86:11
	ldr	r1, [sp]
	ldrb	r0, [r1]
	.loc	2 86 17 is_stmt 0               @ ../app/nfc_command.c:86:17
	lsls	r0, r0, #8
	.loc	2 86 24                         @ ../app/nfc_command.c:86:24
	ldrb	r1, [r1, #1]
	.loc	2 86 22                         @ ../app/nfc_command.c:86:22
	adds	r0, r0, r1
	add	r1, sp, #4
	.loc	2 86 2                          @ ../app/nfc_command.c:86:2
	strh	r0, [r1]
	b	.LBB0_3
.LBB0_3:
	.loc	2 0 2                           @ ../app/nfc_command.c:0:2
	add	r0, sp, #4
	.loc	2 87 1 is_stmt 1                @ ../app/nfc_command.c:87:1
	ldrh	r0, [r0]
	add	sp, #8
	bx	lr
.Ltmp4:
.Lfunc_end0:
	.size	uread2, .Lfunc_end0-uread2
	.cfi_endproc
	.cantunwind
	.fnend
                                        @ -- End function
	.section	.text.uwrite2,"ax",%progbits
	.hidden	uwrite2                         @ -- Begin function uwrite2
	.globl	uwrite2
	.p2align	1
	.type	uwrite2,%function
	.code	16                              @ @uwrite2
	.thumb_func
uwrite2:
.Lfunc_begin1:
	.loc	2 89 0                          @ ../app/nfc_command.c:89:0
	.fnstart
	.cfi_startproc
@ %bb.0:
	.pad	#8
	sub	sp, #8
	.cfi_def_cfa_offset 8
                                        @ kill: def $r2 killed $r1
	str	r0, [sp, #4]
	mov	r0, sp
	strh	r1, [r0]
.Ltmp5:
	.loc	2 90 6 prologue_end             @ ../app/nfc_command.c:90:6
	ldr	r0, [sp, #4]
.Ltmp6:
	.loc	2 90 5 is_stmt 0                @ ../app/nfc_command.c:90:5
	cbnz	r0, .LBB1_2
	b	.LBB1_1
.LBB1_1:
.Ltmp7:
	.loc	2 91 3 is_stmt 1                @ ../app/nfc_command.c:91:3
	b	.LBB1_3
.Ltmp8:
.LBB1_2:
	.loc	2 0 3 is_stmt 0                 @ ../app/nfc_command.c:0:3
	mov	r0, sp
	.loc	2 92 11 is_stmt 1               @ ../app/nfc_command.c:92:11
	ldrb	r0, [r0, #1]
	.loc	2 92 2 is_stmt 0                @ ../app/nfc_command.c:92:2
	ldr	r1, [sp, #4]
	.loc	2 92 9                          @ ../app/nfc_command.c:92:9
	strb	r0, [r1]
	.loc	2 93 11 is_stmt 1               @ ../app/nfc_command.c:93:11
	ldr	r0, [sp]
	.loc	2 93 2 is_stmt 0                @ ../app/nfc_command.c:93:2
	ldr	r1, [sp, #4]
	.loc	2 93 9                          @ ../app/nfc_command.c:93:9
	strb	r0, [r1, #1]
	.loc	2 94 1 is_stmt 1                @ ../app/nfc_command.c:94:1
	b	.LBB1_3
.LBB1_3:
	add	sp, #8
	bx	lr
.Ltmp9:
.Lfunc_end1:
	.size	uwrite2, .Lfunc_end1-uwrite2
	.cfi_endproc
	.cantunwind
	.fnend
                                        @ -- End function
	.section	.text.uread4,"ax",%progbits
	.hidden	uread4                          @ -- Begin function uread4
	.globl	uread4
	.p2align	1
	.type	uread4,%function
	.code	16                              @ @uread4
	.thumb_func
uread4:
.Lfunc_begin2:
	.loc	2 96 0                          @ ../app/nfc_command.c:96:0
	.fnstart
	.cfi_startproc
@ %bb.0:
	.pad	#8
	sub	sp, #8
	.cfi_def_cfa_offset 8
	str	r0, [sp]
.Ltmp10:
	.loc	2 97 6 prologue_end             @ ../app/nfc_command.c:97:6
	ldr	r0, [sp]
.Ltmp11:
	.loc	2 97 5 is_stmt 0                @ ../app/nfc_command.c:97:5
	cbnz	r0, .LBB2_2
	b	.LBB2_1
.LBB2_1:
	.loc	2 0 5                           @ ../app/nfc_command.c:0:5
	movs	r0, #0
.Ltmp12:
	.loc	2 98 3 is_stmt 1                @ ../app/nfc_command.c:98:3
	str	r0, [sp, #4]
	b	.LBB2_3
.Ltmp13:
.LBB2_2:
	.loc	2 99 11                         @ ../app/nfc_command.c:99:11
	ldr	r1, [sp]
	ldrb	r0, [r1]
	.loc	2 99 17 is_stmt 0               @ ../app/nfc_command.c:99:17
	lsls	r0, r0, #24
	.loc	2 99 26                         @ ../app/nfc_command.c:99:26
	ldrb	r2, [r1, #1]
	.loc	2 99 32                         @ ../app/nfc_command.c:99:32
	lsls	r2, r2, #16
	.loc	2 99 23                         @ ../app/nfc_command.c:99:23
	adds	r0, r0, r2
	.loc	2 99 41                         @ ../app/nfc_command.c:99:41
	ldrb	r2, [r1, #2]
	.loc	2 99 47                         @ ../app/nfc_command.c:99:47
	lsls	r2, r2, #8
	.loc	2 99 38                         @ ../app/nfc_command.c:99:38
	adds	r0, r0, r2
	.loc	2 99 55                         @ ../app/nfc_command.c:99:55
	ldrb	r1, [r1, #3]
	.loc	2 99 52                         @ ../app/nfc_command.c:99:52
	adds	r0, r0, r1
	.loc	2 99 2                          @ ../app/nfc_command.c:99:2
	str	r0, [sp, #4]
	b	.LBB2_3
.LBB2_3:
	.loc	2 100 1 is_stmt 1               @ ../app/nfc_command.c:100:1
	ldr	r0, [sp, #4]
	add	sp, #8
	bx	lr
.Ltmp14:
.Lfunc_end2:
	.size	uread4, .Lfunc_end2-uread4
	.cfi_endproc
	.cantunwind
	.fnend
                                        @ -- End function
	.section	.text.uwrite4,"ax",%progbits
	.hidden	uwrite4                         @ -- Begin function uwrite4
	.globl	uwrite4
	.p2align	1
	.type	uwrite4,%function
	.code	16                              @ @uwrite4
	.thumb_func
uwrite4:
.Lfunc_begin3:
	.loc	2 102 0                         @ ../app/nfc_command.c:102:0
	.fnstart
	.cfi_startproc
@ %bb.0:
	.pad	#8
	sub	sp, #8
	.cfi_def_cfa_offset 8
	str	r0, [sp, #4]
	str	r1, [sp]
.Ltmp15:
	.loc	2 103 6 prologue_end            @ ../app/nfc_command.c:103:6
	ldr	r0, [sp, #4]
.Ltmp16:
	.loc	2 103 5 is_stmt 0               @ ../app/nfc_command.c:103:5
	cbnz	r0, .LBB3_2
	b	.LBB3_1
.LBB3_1:
.Ltmp17:
	.loc	2 104 3 is_stmt 1               @ ../app/nfc_command.c:104:3
	b	.LBB3_3
.Ltmp18:
.LBB3_2:
	.loc	2 0 3 is_stmt 0                 @ ../app/nfc_command.c:0:3
	mov	r0, sp
	.loc	2 105 12 is_stmt 1              @ ../app/nfc_command.c:105:12
	ldrb	r1, [r0, #3]
	.loc	2 105 2 is_stmt 0               @ ../app/nfc_command.c:105:2
	ldr	r2, [sp, #4]
	.loc	2 105 9                         @ ../app/nfc_command.c:105:9
	strb	r1, [r2]
	.loc	2 106 12 is_stmt 1              @ ../app/nfc_command.c:106:12
	ldrh	r0, [r0, #2]
	.loc	2 106 2 is_stmt 0               @ ../app/nfc_command.c:106:2
	ldr	r1, [sp, #4]
	.loc	2 106 9                         @ ../app/nfc_command.c:106:9
	strb	r0, [r1, #1]
	.loc	2 107 12 is_stmt 1              @ ../app/nfc_command.c:107:12
	ldr	r0, [sp]
	.loc	2 107 16 is_stmt 0              @ ../app/nfc_command.c:107:16
	lsrs	r0, r0, #8
	.loc	2 107 2                         @ ../app/nfc_command.c:107:2
	ldr	r1, [sp, #4]
	.loc	2 107 9                         @ ../app/nfc_command.c:107:9
	strb	r0, [r1, #2]
	.loc	2 108 11 is_stmt 1              @ ../app/nfc_command.c:108:11
	ldr	r0, [sp]
	.loc	2 108 2 is_stmt 0               @ ../app/nfc_command.c:108:2
	ldr	r1, [sp, #4]
	.loc	2 108 9                         @ ../app/nfc_command.c:108:9
	strb	r0, [r1, #3]
	.loc	2 109 1 is_stmt 1               @ ../app/nfc_command.c:109:1
	b	.LBB3_3
.LBB3_3:
	add	sp, #8
	bx	lr
.Ltmp19:
.Lfunc_end3:
	.size	uwrite4, .Lfunc_end3-uwrite4
	.cfi_endproc
	.cantunwind
	.fnend
                                        @ -- End function
	.section	.text.bin2hex,"ax",%progbits
	.hidden	bin2hex                         @ -- Begin function bin2hex
	.globl	bin2hex
	.p2align	2
	.type	bin2hex,%function
	.code	16                              @ @bin2hex
	.thumb_func
bin2hex:
.Lfunc_begin4:
	.loc	2 121 0                         @ ../app/nfc_command.c:121:0
	.fnstart
	.cfi_startproc
@ %bb.0:
	.pad	#20
	sub	sp, #20
	.cfi_def_cfa_offset 20
	str	r0, [sp, #16]
	str	r1, [sp, #12]
	str	r2, [sp, #8]
.Ltmp20:
	.loc	2 122 8 prologue_end            @ ../app/nfc_command.c:122:8
	ldr	r0, __arm_cp.4_0
	str	r0, [sp, #4]
	.loc	2 123 15                        @ ../app/nfc_command.c:123:15
	ldr	r0, [sp, #8]
	.loc	2 123 8 is_stmt 0               @ ../app/nfc_command.c:123:8
	str	r0, [sp]
	.loc	2 125 2 is_stmt 1               @ ../app/nfc_command.c:125:2
	b	.LBB4_1
.LBB4_1:                                @ =>This Inner Loop Header: Depth=1
	.loc	2 125 8 is_stmt 0               @ ../app/nfc_command.c:125:8
	ldr	r0, [sp, #12]
	.loc	2 125 2                         @ ../app/nfc_command.c:125:2
	cmp	r0, #1
	blt	.LBB4_3
	b	.LBB4_2
.LBB4_2:                                @   in Loop: Header=BB4_1 Depth=1
.Ltmp21:
	.loc	2 126 12 is_stmt 1              @ ../app/nfc_command.c:126:12
	ldr	r0, [sp, #4]
	.loc	2 126 20 is_stmt 0              @ ../app/nfc_command.c:126:20
	ldr	r1, [sp, #16]
	.loc	2 126 19                        @ ../app/nfc_command.c:126:19
	ldrb	r1, [r1]
	.loc	2 126 24                        @ ../app/nfc_command.c:126:24
	lsrs	r1, r1, #4
	.loc	2 126 12                        @ ../app/nfc_command.c:126:12
	ldrb	r0, [r0, r1]
	.loc	2 126 7                         @ ../app/nfc_command.c:126:7
	ldr	r1, [sp, #8]
	adds	r2, r1, #1
	str	r2, [sp, #8]
	.loc	2 126 10                        @ ../app/nfc_command.c:126:10
	strb	r0, [r1]
	.loc	2 127 12 is_stmt 1              @ ../app/nfc_command.c:127:12
	ldr	r0, [sp, #4]
	.loc	2 127 19 is_stmt 0              @ ../app/nfc_command.c:127:19
	ldr	r1, [sp, #16]
	.loc	2 127 17                        @ ../app/nfc_command.c:127:17
	ldrb	r1, [r1]
	movs	r2, #15
	.loc	2 127 23                        @ ../app/nfc_command.c:127:23
	ands	r1, r2
	.loc	2 127 12                        @ ../app/nfc_command.c:127:12
	ldrb	r0, [r0, r1]
	.loc	2 127 7                         @ ../app/nfc_command.c:127:7
	ldr	r1, [sp, #8]
	adds	r2, r1, #1
	str	r2, [sp, #8]
	.loc	2 127 10                        @ ../app/nfc_command.c:127:10
	strb	r0, [r1]
	.loc	2 128 7 is_stmt 1               @ ../app/nfc_command.c:128:7
	ldr	r0, [sp, #16]
	adds	r0, r0, #1
	str	r0, [sp, #16]
	.loc	2 129 7                         @ ../app/nfc_command.c:129:7
	ldr	r0, [sp, #12]
	subs	r0, r0, #1
	str	r0, [sp, #12]
.Ltmp22:
	.loc	2 125 2                         @ ../app/nfc_command.c:125:2
	b	.LBB4_1
.LBB4_3:
	.loc	2 131 3                         @ ../app/nfc_command.c:131:3
	ldr	r1, [sp, #8]
	movs	r0, #0
	.loc	2 131 7 is_stmt 0               @ ../app/nfc_command.c:131:7
	strb	r0, [r1]
	.loc	2 133 9 is_stmt 1               @ ../app/nfc_command.c:133:9
	ldr	r0, [sp]
	.loc	2 133 2 is_stmt 0               @ ../app/nfc_command.c:133:2
	add	sp, #20
	bx	lr
.Ltmp23:
	.p2align	2
@ %bb.4:
	.loc	2 0 2                           @ ../app/nfc_command.c:0:2
__arm_cp.4_0:
	.long	.L.str
.Lcpi_end0:
	.size	__arm_cp.4_0, .Lcpi_end0-__arm_cp.4_0
.Lfunc_end4:
	.size	bin2hex, .Lfunc_end4-bin2hex
	.cfi_endproc
	.cantunwind
	.fnend
                                        @ -- End function
	.section	.text.hex2bin,"ax",%progbits
	.hidden	hex2bin                         @ -- Begin function hex2bin
	.globl	hex2bin
	.p2align	2
	.type	hex2bin,%function
	.code	16                              @ @hex2bin
	.thumb_func
hex2bin:
.Lfunc_begin5:
	.loc	2 146 0 is_stmt 1               @ ../app/nfc_command.c:146:0
	.fnstart
	.cfi_startproc
@ %bb.0:
	.save	{r7, lr}
	push	{r7, lr}
	.cfi_def_cfa_offset 8
	.cfi_offset lr, -4
	.cfi_offset r7, -8
	.pad	#64
	sub	sp, #64
	.cfi_def_cfa_offset 72
	str	r0, [sp, #60]
	str	r1, [sp, #56]
	str	r2, [sp, #52]
.Ltmp24:
	.loc	2 147 8 prologue_end            @ ../app/nfc_command.c:147:8
	ldr	r1, __arm_cp.5_0
	add	r0, sp, #32
	movs	r2, #17
	str	r2, [sp]                        @ 4-byte Spill
	bl	__aeabi_memcpy
	ldr	r2, [sp]                        @ 4-byte Reload
	.loc	2 148 8                         @ ../app/nfc_command.c:148:8
	ldr	r1, __arm_cp.5_1
	add	r0, sp, #12
	bl	__aeabi_memcpy
	.loc	2 149 16                        @ ../app/nfc_command.c:149:16
	ldr	r0, [sp, #52]
	.loc	2 149 11 is_stmt 0              @ ../app/nfc_command.c:149:11
	str	r0, [sp, #8]
	.loc	2 152 2 is_stmt 1               @ ../app/nfc_command.c:152:2
	b	.LBB5_1
.LBB5_1:                                @ =>This Loop Header: Depth=1
                                        @     Child Loop BB5_3 Depth 2
                                        @     Child Loop BB5_10 Depth 2
	.loc	2 152 8 is_stmt 0               @ ../app/nfc_command.c:152:8
	ldr	r0, [sp, #56]
	.loc	2 152 2                         @ ../app/nfc_command.c:152:2
	cmp	r0, #2
	blo	.LBB5_19
	b	.LBB5_2
.LBB5_2:                                @   in Loop: Header=BB5_1 Depth=1
.Ltmp25:
	.loc	2 153 4 is_stmt 1               @ ../app/nfc_command.c:153:4
	ldr	r1, [sp, #52]
	movs	r0, #0
	.loc	2 153 8 is_stmt 0               @ ../app/nfc_command.c:153:8
	strb	r0, [r1]
.Ltmp26:
	.loc	2 154 8 is_stmt 1               @ ../app/nfc_command.c:154:8
	str	r0, [sp, #4]
	.loc	2 154 7 is_stmt 0               @ ../app/nfc_command.c:154:7
	b	.LBB5_3
.LBB5_3:                                @   Parent Loop BB5_1 Depth=1
                                        @ =>  This Inner Loop Header: Depth=2
.Ltmp27:
	.loc	2 154 12                        @ ../app/nfc_command.c:154:12
	ldr	r0, [sp, #4]
.Ltmp28:
	.loc	2 154 3                         @ ../app/nfc_command.c:154:3
	cmp	r0, #15
	bgt	.LBB5_9
	b	.LBB5_4
.LBB5_4:                                @   in Loop: Header=BB5_3 Depth=2
.Ltmp29:
	.loc	2 155 8 is_stmt 1               @ ../app/nfc_command.c:155:8
	ldr	r0, [sp, #60]
	.loc	2 155 7 is_stmt 0               @ ../app/nfc_command.c:155:7
	ldrb	r0, [r0]
	.loc	2 155 22                        @ ../app/nfc_command.c:155:22
	ldr	r2, [sp, #4]
	add	r1, sp, #32
	.loc	2 155 15                        @ ../app/nfc_command.c:155:15
	ldrb	r1, [r1, r2]
	.loc	2 155 25                        @ ../app/nfc_command.c:155:25
	cmp	r0, r1
	beq	.LBB5_6
	b	.LBB5_5
.LBB5_5:                                @   in Loop: Header=BB5_3 Depth=2
	.loc	2 155 29                        @ ../app/nfc_command.c:155:29
	ldr	r0, [sp, #60]
	.loc	2 155 28                        @ ../app/nfc_command.c:155:28
	ldrb	r0, [r0]
	.loc	2 155 43                        @ ../app/nfc_command.c:155:43
	ldr	r2, [sp, #4]
	add	r1, sp, #12
	.loc	2 155 36                        @ ../app/nfc_command.c:155:36
	ldrb	r1, [r1, r2]
.Ltmp30:
	.loc	2 155 7                         @ ../app/nfc_command.c:155:7
	cmp	r0, r1
	bne	.LBB5_7
	b	.LBB5_6
.LBB5_6:                                @   in Loop: Header=BB5_1 Depth=1
.Ltmp31:
	.loc	2 156 13 is_stmt 1              @ ../app/nfc_command.c:156:13
	ldr	r0, [sp, #4]
	.loc	2 156 14 is_stmt 0              @ ../app/nfc_command.c:156:14
	lsls	r0, r0, #4
	.loc	2 156 6                         @ ../app/nfc_command.c:156:6
	ldr	r1, [sp, #52]
	.loc	2 156 10                        @ ../app/nfc_command.c:156:10
	strb	r0, [r1]
	.loc	2 157 5 is_stmt 1               @ ../app/nfc_command.c:157:5
	b	.LBB5_9
.Ltmp32:
.LBB5_7:                                @   in Loop: Header=BB5_3 Depth=2
	.loc	2 159 3                         @ ../app/nfc_command.c:159:3
	b	.LBB5_8
.Ltmp33:
.LBB5_8:                                @   in Loop: Header=BB5_3 Depth=2
	.loc	2 154 19                        @ ../app/nfc_command.c:154:19
	ldr	r0, [sp, #4]
	adds	r0, r0, #1
	str	r0, [sp, #4]
	.loc	2 154 3 is_stmt 0               @ ../app/nfc_command.c:154:3
	b	.LBB5_3
.Ltmp34:
.LBB5_9:                                @   in Loop: Header=BB5_1 Depth=1
	.loc	2 160 6 is_stmt 1               @ ../app/nfc_command.c:160:6
	ldr	r0, [sp, #60]
	adds	r0, r0, #1
	str	r0, [sp, #60]
	movs	r0, #0
.Ltmp35:
	.loc	2 161 8                         @ ../app/nfc_command.c:161:8
	str	r0, [sp, #4]
	.loc	2 161 7 is_stmt 0               @ ../app/nfc_command.c:161:7
	b	.LBB5_10
.LBB5_10:                               @   Parent Loop BB5_1 Depth=1
                                        @ =>  This Inner Loop Header: Depth=2
.Ltmp36:
	.loc	2 161 12                        @ ../app/nfc_command.c:161:12
	ldr	r0, [sp, #4]
.Ltmp37:
	.loc	2 161 3                         @ ../app/nfc_command.c:161:3
	cmp	r0, #15
	bgt	.LBB5_16
	b	.LBB5_11
.LBB5_11:                               @   in Loop: Header=BB5_10 Depth=2
.Ltmp38:
	.loc	2 162 8 is_stmt 1               @ ../app/nfc_command.c:162:8
	ldr	r0, [sp, #60]
	.loc	2 162 7 is_stmt 0               @ ../app/nfc_command.c:162:7
	ldrb	r0, [r0]
	.loc	2 162 22                        @ ../app/nfc_command.c:162:22
	ldr	r2, [sp, #4]
	add	r1, sp, #32
	.loc	2 162 15                        @ ../app/nfc_command.c:162:15
	ldrb	r1, [r1, r2]
	.loc	2 162 25                        @ ../app/nfc_command.c:162:25
	cmp	r0, r1
	beq	.LBB5_13
	b	.LBB5_12
.LBB5_12:                               @   in Loop: Header=BB5_10 Depth=2
	.loc	2 162 29                        @ ../app/nfc_command.c:162:29
	ldr	r0, [sp, #60]
	.loc	2 162 28                        @ ../app/nfc_command.c:162:28
	ldrb	r0, [r0]
	.loc	2 162 43                        @ ../app/nfc_command.c:162:43
	ldr	r2, [sp, #4]
	add	r1, sp, #12
	.loc	2 162 36                        @ ../app/nfc_command.c:162:36
	ldrb	r1, [r1, r2]
.Ltmp39:
	.loc	2 162 7                         @ ../app/nfc_command.c:162:7
	cmp	r0, r1
	bne	.LBB5_14
	b	.LBB5_13
.LBB5_13:                               @   in Loop: Header=BB5_1 Depth=1
.Ltmp40:
	.loc	2 163 14 is_stmt 1              @ ../app/nfc_command.c:163:14
	ldr	r2, [sp, #4]
	.loc	2 163 6 is_stmt 0               @ ../app/nfc_command.c:163:6
	ldr	r1, [sp, #52]
	.loc	2 163 10                        @ ../app/nfc_command.c:163:10
	ldrb	r0, [r1]
	orrs	r0, r2
	strb	r0, [r1]
	.loc	2 164 5 is_stmt 1               @ ../app/nfc_command.c:164:5
	b	.LBB5_16
.Ltmp41:
.LBB5_14:                               @   in Loop: Header=BB5_10 Depth=2
	.loc	2 166 3                         @ ../app/nfc_command.c:166:3
	b	.LBB5_15
.Ltmp42:
.LBB5_15:                               @   in Loop: Header=BB5_10 Depth=2
	.loc	2 161 19                        @ ../app/nfc_command.c:161:19
	ldr	r0, [sp, #4]
	adds	r0, r0, #1
	str	r0, [sp, #4]
	.loc	2 161 3 is_stmt 0               @ ../app/nfc_command.c:161:3
	b	.LBB5_10
.Ltmp43:
.LBB5_16:                               @   in Loop: Header=BB5_1 Depth=1
	.loc	2 167 6 is_stmt 1               @ ../app/nfc_command.c:167:6
	ldr	r0, [sp, #60]
	adds	r0, r0, #1
	str	r0, [sp, #60]
	.loc	2 167 13 is_stmt 0              @ ../app/nfc_command.c:167:13
	ldr	r0, [sp, #52]
	adds	r0, r0, #1
	str	r0, [sp, #52]
	.loc	2 168 6 is_stmt 1               @ ../app/nfc_command.c:168:6
	ldr	r0, [sp, #56]
	subs	r0, r0, #2
	str	r0, [sp, #56]
.Ltmp44:
	.loc	2 170 7                         @ ../app/nfc_command.c:170:7
	ldr	r0, [sp, #60]
	.loc	2 170 6 is_stmt 0               @ ../app/nfc_command.c:170:6
	ldrb	r0, [r0]
.Ltmp45:
	.loc	2 170 6                         @ ../app/nfc_command.c:170:6
	cbnz	r0, .LBB5_18
	b	.LBB5_17
.LBB5_17:
.Ltmp46:
	.loc	2 170 17                        @ ../app/nfc_command.c:170:17
	b	.LBB5_19
.Ltmp47:
.LBB5_18:                               @   in Loop: Header=BB5_1 Depth=1
	.loc	2 152 2 is_stmt 1               @ ../app/nfc_command.c:152:2
	b	.LBB5_1
.LBB5_19:
	.loc	2 173 10                        @ ../app/nfc_command.c:173:10
	ldr	r0, [sp, #52]
	.loc	2 173 14 is_stmt 0              @ ../app/nfc_command.c:173:14
	ldr	r1, [sp, #8]
	.loc	2 173 13                        @ ../app/nfc_command.c:173:13
	subs	r0, r0, r1
	.loc	2 173 2                         @ ../app/nfc_command.c:173:2
	add	sp, #64
	pop	{r7, pc}
.Ltmp48:
	.p2align	2
@ %bb.20:
	.loc	2 0 2                           @ ../app/nfc_command.c:0:2
__arm_cp.5_0:
	.long	.L__const.hex2bin.token0
.Lcpi_end1:
	.size	__arm_cp.5_0, .Lcpi_end1-__arm_cp.5_0
__arm_cp.5_1:
	.long	.L__const.hex2bin.token1
.Lcpi_end2:
	.size	__arm_cp.5_1, .Lcpi_end2-__arm_cp.5_1
.Lfunc_end5:
	.size	hex2bin, .Lfunc_end5-hex2bin
	.cfi_endproc
	.cantunwind
	.fnend
                                        @ -- End function
	.section	.text.table_init,"ax",%progbits
	.hidden	table_init                      @ -- Begin function table_init
	.globl	table_init
	.p2align	2
	.type	table_init,%function
	.code	16                              @ @table_init
	.thumb_func
table_init:
.Lfunc_begin6:
	.loc	2 176 0 is_stmt 1               @ ../app/nfc_command.c:176:0
	.fnstart
	.cfi_startproc
@ %bb.0:
	.loc	2 177 13 prologue_end           @ ../app/nfc_command.c:177:13
	ldr	r0, __arm_cp.6_0
	adds	r2, r0, #5
	ldr	r1, __arm_cp.6_1
	str	r2, [r1, #8]
	movw	r2, #261
	.loc	2 178 13                        @ ../app/nfc_command.c:178:13
	adds	r0, r0, r2
	str	r0, [r1, #16]
	.loc	2 179 1                         @ ../app/nfc_command.c:179:1
	bx	lr
.Ltmp49:
	.p2align	2
@ %bb.1:
	.loc	2 0 1 is_stmt 0                 @ ../app/nfc_command.c:0:1
__arm_cp.6_0:
	.long	g_buffer
.Lcpi_end3:
	.size	__arm_cp.6_0, .Lcpi_end3-__arm_cp.6_0
__arm_cp.6_1:
	.long	g_tcb
.Lcpi_end4:
	.size	__arm_cp.6_1, .Lcpi_end4-__arm_cp.6_1
.Lfunc_end6:
	.size	table_init, .Lfunc_end6-table_init
	.cfi_endproc
	.cantunwind
	.fnend
                                        @ -- End function
	.section	.text.prog_task,"ax",%progbits
	.hidden	prog_task                       @ -- Begin function prog_task
	.globl	prog_task
	.p2align	2
	.type	prog_task,%function
	.code	16                              @ @prog_task
	.thumb_func
prog_task:
.Lfunc_begin7:
	.loc	2 182 0 is_stmt 1               @ ../app/nfc_command.c:182:0
	.fnstart
	.cfi_startproc
@ %bb.0:
	.save	{r7, lr}
	push	{r7, lr}
	.cfi_def_cfa_offset 8
	.cfi_offset lr, -4
	.cfi_offset r7, -8
	.pad	#8
	sub	sp, #8
	.cfi_def_cfa_offset 16
	str	r0, [sp, #4]
.Ltmp50:
	.loc	2 183 5 prologue_end            @ ../app/nfc_command.c:183:5
	ldr	r0, [sp, #4]
	.loc	2 183 10 is_stmt 0              @ ../app/nfc_command.c:183:10
	ldrb	r0, [r0, #2]
	.loc	2 183 20                        @ ../app/nfc_command.c:183:20
	cbnz	r0, .LBB7_2
	b	.LBB7_1
.LBB7_1:
	.loc	2 183 22                        @ ../app/nfc_command.c:183:22
	ldr	r0, [sp, #4]
	.loc	2 183 27                        @ ../app/nfc_command.c:183:27
	ldrb	r0, [r0, #1]
.Ltmp51:
	.loc	2 183 5                         @ ../app/nfc_command.c:183:5
	cbz	r0, .LBB7_3
	b	.LBB7_2
.LBB7_2:
.Ltmp52:
	.loc	2 185 29 is_stmt 1              @ ../app/nfc_command.c:185:29
	ldr	r0, [sp, #4]
	.loc	2 185 11 is_stmt 0              @ ../app/nfc_command.c:185:11
	ldr	r1, __arm_cp.7_0
	str	r1, [sp]                        @ 4-byte Spill
	bl	dev_fm11_RFDataRx
	ldr	r2, [sp]                        @ 4-byte Reload
	.loc	2 185 9                         @ ../app/nfc_command.c:185:9
	ldr	r1, __arm_cp.7_1
	strb	r0, [r1]
	.loc	2 186 9 is_stmt 1               @ ../app/nfc_command.c:186:9
	ldr	r0, __arm_cp.7_2
	ldrb	r1, [r0, #3]
	strb	r1, [r2, #3]
	ldrb	r1, [r0, #2]
	strb	r1, [r2, #2]
	ldrb	r1, [r0, #1]
	strb	r1, [r2, #1]
	ldrb	r0, [r0]
	strb	r0, [r2]
	.loc	2 187 27                        @ ../app/nfc_command.c:187:27
	ldr	r0, [sp, #4]
	movs	r1, #4
	.loc	2 187 9 is_stmt 0               @ ../app/nfc_command.c:187:9
	bl	dev_fm11_RFDataTx
	.loc	2 220 3 is_stmt 1               @ ../app/nfc_command.c:220:3
	ldr	r1, [sp, #4]
	movs	r0, #0
	.loc	2 220 20 is_stmt 0              @ ../app/nfc_command.c:220:20
	strb	r0, [r1, #1]
	.loc	2 221 2 is_stmt 1               @ ../app/nfc_command.c:221:2
	b	.LBB7_3
.Ltmp53:
.LBB7_3:
	.loc	2 236 1                         @ ../app/nfc_command.c:236:1
	add	sp, #8
	pop	{r7, pc}
.Ltmp54:
	.p2align	2
@ %bb.4:
	.loc	2 0 1 is_stmt 0                 @ ../app/nfc_command.c:0:1
__arm_cp.7_0:
	.long	fm411_cmd
.Lcpi_end5:
	.size	__arm_cp.7_0, .Lcpi_end5-__arm_cp.7_0
__arm_cp.7_1:
	.long	rfLen
.Lcpi_end6:
	.size	__arm_cp.7_1, .Lcpi_end6-__arm_cp.7_1
__arm_cp.7_2:
	.long	res_value
.Lcpi_end7:
	.size	__arm_cp.7_2, .Lcpi_end7-__arm_cp.7_2
.Lfunc_end7:
	.size	prog_task, .Lfunc_end7-prog_task
	.cfi_endproc
	.cantunwind
	.fnend
                                        @ -- End function
	.section	.text.CONFIG_RESPSW,"ax",%progbits
	.hidden	CONFIG_RESPSW                   @ -- Begin function CONFIG_RESPSW
	.globl	CONFIG_RESPSW
	.p2align	2
	.type	CONFIG_RESPSW,%function
	.code	16                              @ @CONFIG_RESPSW
	.thumb_func
CONFIG_RESPSW:
.Lfunc_begin8:
	.loc	2 238 0 is_stmt 1               @ ../app/nfc_command.c:238:0
	.fnstart
	.cfi_startproc
@ %bb.0:
	.save	{r7, lr}
	push	{r7, lr}
	.cfi_def_cfa_offset 8
	.cfi_offset lr, -4
	.cfi_offset r7, -8
	.pad	#16
	sub	sp, #16
	.cfi_def_cfa_offset 24
                                        @ kill: def $r2 killed $r1
	str	r0, [sp, #12]
	add	r0, sp, #8
	strh	r1, [r0]
.Ltmp55:
	.loc	2 239 13 prologue_end           @ ../app/nfc_command.c:239:13
	ldr	r1, __arm_cp.8_0
	movs	r0, #0
	str	r0, [r1, #20]
.Ltmp56:
	.loc	2 240 6                         @ ../app/nfc_command.c:240:6
	ldr	r0, [sp, #12]
	.loc	2 240 11 is_stmt 0              @ ../app/nfc_command.c:240:11
	cbz	r0, .LBB8_3
	b	.LBB8_1
.LBB8_1:
	.loc	2 0 11                          @ ../app/nfc_command.c:0:11
	add	r0, sp, #8
	.loc	2 240 14                        @ ../app/nfc_command.c:240:14
	ldrh	r0, [r0]
.Ltmp57:
	.loc	2 240 5                         @ ../app/nfc_command.c:240:5
	cbz	r0, .LBB8_3
	b	.LBB8_2
.LBB8_2:
.Ltmp58:
	.loc	2 242 16 is_stmt 1              @ ../app/nfc_command.c:242:16
	ldr	r0, __arm_cp.8_0
	str	r0, [sp]                        @ 4-byte Spill
	ldr	r0, [r0, #16]
	.loc	2 242 22 is_stmt 0              @ ../app/nfc_command.c:242:22
	ldr	r1, [sp, #12]
	add	r2, sp, #8
	.loc	2 242 28                        @ ../app/nfc_command.c:242:28
	str	r2, [sp, #4]                    @ 4-byte Spill
	ldrh	r2, [r2]
	.loc	2 242 3                         @ ../app/nfc_command.c:242:3
	bl	__aeabi_memcpy
	ldr	r1, [sp]                        @ 4-byte Reload
                                        @ kill: def $r2 killed $r0
	.loc	2 243 16 is_stmt 1              @ ../app/nfc_command.c:243:16
	ldr	r0, [sp, #4]                    @ 4-byte Reload
	ldrh	r0, [r0]
	.loc	2 243 14 is_stmt 0              @ ../app/nfc_command.c:243:14
	str	r0, [r1, #20]
	.loc	2 244 2 is_stmt 1               @ ../app/nfc_command.c:244:2
	b	.LBB8_3
.Ltmp59:
.LBB8_3:
	.loc	2 245 1                         @ ../app/nfc_command.c:245:1
	add	sp, #16
	pop	{r7, pc}
.Ltmp60:
	.p2align	2
@ %bb.4:
	.loc	2 0 1 is_stmt 0                 @ ../app/nfc_command.c:0:1
__arm_cp.8_0:
	.long	g_tcb
.Lcpi_end8:
	.size	__arm_cp.8_0, .Lcpi_end8-__arm_cp.8_0
.Lfunc_end8:
	.size	CONFIG_RESPSW, .Lfunc_end8-CONFIG_RESPSW
	.cfi_endproc
	.cantunwind
	.fnend
                                        @ -- End function
	.section	.text.CONFIG_SW,"ax",%progbits
	.hidden	CONFIG_SW                       @ -- Begin function CONFIG_SW
	.globl	CONFIG_SW
	.p2align	2
	.type	CONFIG_SW,%function
	.code	16                              @ @CONFIG_SW
	.thumb_func
CONFIG_SW:
.Lfunc_begin9:
	.loc	2 247 0 is_stmt 1               @ ../app/nfc_command.c:247:0
	.fnstart
	.cfi_startproc
@ %bb.0:
	.save	{r7, lr}
	push	{r7, lr}
	.cfi_def_cfa_offset 8
	.cfi_offset lr, -4
	.cfi_offset r7, -8
	.pad	#8
	sub	sp, #8
	.cfi_def_cfa_offset 16
                                        @ kill: def $r1 killed $r0
	add	r1, sp, #4
	strh	r0, [r1]
.Ltmp61:
	.loc	2 248 16 prologue_end           @ ../app/nfc_command.c:248:16
	ldr	r2, __arm_cp.9_0
	ldr	r0, [r2, #16]
	.loc	2 248 29 is_stmt 0              @ ../app/nfc_command.c:248:29
	ldr	r2, [r2, #20]
	.loc	2 248 21                        @ ../app/nfc_command.c:248:21
	adds	r0, r0, r2
	.loc	2 248 35                        @ ../app/nfc_command.c:248:35
	ldrh	r1, [r1]
	.loc	2 248 2                         @ ../app/nfc_command.c:248:2
	bl	uwrite2
	.loc	2 249 1 is_stmt 1               @ ../app/nfc_command.c:249:1
	add	sp, #8
	pop	{r7, pc}
.Ltmp62:
	.p2align	2
@ %bb.1:
	.loc	2 0 1 is_stmt 0                 @ ../app/nfc_command.c:0:1
__arm_cp.9_0:
	.long	g_tcb
.Lcpi_end9:
	.size	__arm_cp.9_0, .Lcpi_end9-__arm_cp.9_0
.Lfunc_end9:
	.size	CONFIG_SW, .Lfunc_end9-CONFIG_SW
	.cfi_endproc
	.cantunwind
	.fnend
                                        @ -- End function
	.section	.text.get_random,"ax",%progbits
	.hidden	get_random                      @ -- Begin function get_random
	.globl	get_random
	.p2align	2
	.type	get_random,%function
	.code	16                              @ @get_random
	.thumb_func
get_random:
.Lfunc_begin10:
	.loc	2 251 0 is_stmt 1               @ ../app/nfc_command.c:251:0
	.fnstart
	.cfi_startproc
@ %bb.0:
	.pad	#20
	sub	sp, #20
	.cfi_def_cfa_offset 20
	str	r0, [sp, #12]
	add	r1, sp, #8
	movs	r0, #10
.Ltmp63:
	.loc	2 252 10 prologue_end           @ ../app/nfc_command.c:252:10
	strb	r0, [r1]
	.loc	2 253 21                        @ ../app/nfc_command.c:253:21
	ldr	r0, [sp, #12]
	.loc	2 253 26 is_stmt 0              @ ../app/nfc_command.c:253:26
	ldr	r0, [r0, #4]
	add	r1, sp, #4
	.loc	2 253 11                        @ ../app/nfc_command.c:253:11
	strh	r0, [r1]
	mov	r1, sp
	movs	r0, #0
	.loc	2 254 11 is_stmt 1              @ ../app/nfc_command.c:254:11
	strh	r0, [r1]
	.loc	2 255 2                         @ ../app/nfc_command.c:255:2
	b	.LBB10_1
.LBB10_1:
.Ltmp64:
	.loc	2 255 2 is_stmt 0               @ ../app/nfc_command.c:255:2
	ldr	r1, [sp, #12]
	ldrb	r0, [r1, #2]
	ldrb	r1, [r1, #3]
	cmp	r0, r1
	beq	.LBB10_4
	b	.LBB10_2
.LBB10_2:
	ldr	r0, [sp, #12]
	ldrb	r0, [r0, #2]
.Ltmp65:
	.loc	2 255 2                         @ ../app/nfc_command.c:255:2
	cbz	r0, .LBB10_4
	b	.LBB10_3
.LBB10_3:
	.loc	2 0 2                           @ ../app/nfc_command.c:0:2
	add	r1, sp, #16
	ldr	r0, __arm_cp.10_0
.Ltmp66:
	.loc	2 255 2                         @ ../app/nfc_command.c:255:2
	strh	r0, [r1]
	b	.LBB10_12
.Ltmp67:
.LBB10_4:
	.loc	2 255 2                         @ ../app/nfc_command.c:255:2
	b	.LBB10_5
.Ltmp68:
.LBB10_5:
	.loc	2 256 2 is_stmt 1               @ ../app/nfc_command.c:256:2
	b	.LBB10_6
.LBB10_6:
.Ltmp69:
	.loc	2 256 2 is_stmt 0               @ ../app/nfc_command.c:256:2
	ldr	r0, [sp, #12]
	ldr	r0, [r0, #4]
.Ltmp70:
	.loc	2 256 2                         @ ../app/nfc_command.c:256:2
	cmp	r0, #17
	blo	.LBB10_8
	b	.LBB10_7
.LBB10_7:
	.loc	2 0 2                           @ ../app/nfc_command.c:0:2
	add	r1, sp, #16
	movw	r0, #26368
.Ltmp71:
	.loc	2 256 2                         @ ../app/nfc_command.c:256:2
	strh	r0, [r1]
	b	.LBB10_12
.Ltmp72:
.LBB10_8:
	.loc	2 256 2                         @ ../app/nfc_command.c:256:2
	b	.LBB10_9
.Ltmp73:
.LBB10_9:
	.loc	2 0 2                           @ ../app/nfc_command.c:0:2
	add	r0, sp, #4
.Ltmp74:
	.loc	2 257 8 is_stmt 1               @ ../app/nfc_command.c:257:8
	ldrh	r0, [r0]
.Ltmp75:
	.loc	2 257 8 is_stmt 0               @ ../app/nfc_command.c:257:8
	lsls	r0, r0, #30
	cbz	r0, .LBB10_11
	b	.LBB10_10
.LBB10_10:
	.loc	2 0 8                           @ ../app/nfc_command.c:0:8
	add	r1, sp, #4
.Ltmp76:
	.loc	2 259 17 is_stmt 1              @ ../app/nfc_command.c:259:17
	ldrh	r0, [r1]
	movs	r2, #4
	.loc	2 259 16 is_stmt 0              @ ../app/nfc_command.c:259:16
	subs	r2, r2, r0
	movs	r3, #3
	.loc	2 259 24                        @ ../app/nfc_command.c:259:24
	ands	r2, r3
	.loc	2 259 11                        @ ../app/nfc_command.c:259:11
	adds	r0, r0, r2
	strh	r0, [r1]
	.loc	2 260 2 is_stmt 1               @ ../app/nfc_command.c:260:2
	b	.LBB10_11
.Ltmp77:
.LBB10_11:
	.loc	2 288 14                        @ ../app/nfc_command.c:288:14
	ldr	r1, [sp, #12]
	.loc	2 288 19 is_stmt 0              @ ../app/nfc_command.c:288:19
	ldr	r0, [r1, #4]
	.loc	2 288 12                        @ ../app/nfc_command.c:288:12
	str	r0, [r1, #20]
	add	r1, sp, #16
	movw	r0, #36864
	.loc	2 290 2 is_stmt 1               @ ../app/nfc_command.c:290:2
	strh	r0, [r1]
	b	.LBB10_12
.LBB10_12:
	.loc	2 0 2 is_stmt 0                 @ ../app/nfc_command.c:0:2
	add	r0, sp, #16
	.loc	2 291 1 is_stmt 1               @ ../app/nfc_command.c:291:1
	ldrh	r0, [r0]
	add	sp, #20
	bx	lr
.Ltmp78:
	.p2align	2
@ %bb.13:
	.loc	2 0 1 is_stmt 0                 @ ../app/nfc_command.c:0:1
__arm_cp.10_0:
	.long	27270                           @ 0x6a86
.Lcpi_end10:
	.size	__arm_cp.10_0, .Lcpi_end10-__arm_cp.10_0
.Lfunc_end10:
	.size	get_random, .Lfunc_end10-get_random
	.cfi_endproc
	.cantunwind
	.fnend
                                        @ -- End function
	.section	.text.get_adc,"ax",%progbits
	.hidden	get_adc                         @ -- Begin function get_adc
	.globl	get_adc
	.p2align	2
	.type	get_adc,%function
	.code	16                              @ @get_adc
	.thumb_func
get_adc:
.Lfunc_begin11:
	.loc	2 293 0 is_stmt 1               @ ../app/nfc_command.c:293:0
	.fnstart
	.cfi_startproc
@ %bb.0:
	.save	{r7, lr}
	push	{r7, lr}
	.cfi_def_cfa_offset 8
	.cfi_offset lr, -4
	.cfi_offset r7, -8
	.pad	#32
	sub	sp, #32
	.cfi_def_cfa_offset 40
	str	r0, [sp, #24]
	movs	r0, #0
.Ltmp79:
	.loc	2 294 10 prologue_end           @ ../app/nfc_command.c:294:10
	str	r0, [sp, #20]
	.loc	2 295 11                        @ ../app/nfc_command.c:295:11
	str	r0, [sp, #16]
	movs	r0, #50
	.loc	2 296 11                        @ ../app/nfc_command.c:296:11
	str	r0, [sp, #12]
	.loc	2 299 2                         @ ../app/nfc_command.c:299:2
	b	.LBB11_1
.LBB11_1:
.Ltmp80:
	.loc	2 299 2 is_stmt 0               @ ../app/nfc_command.c:299:2
	ldr	r0, [sp, #24]
	ldrb	r0, [r0, #3]
.Ltmp81:
	.loc	2 299 2                         @ ../app/nfc_command.c:299:2
	cbz	r0, .LBB11_3
	b	.LBB11_2
.LBB11_2:
	.loc	2 0 2                           @ ../app/nfc_command.c:0:2
	add	r1, sp, #28
	ldr	r0, __arm_cp.11_3
.Ltmp82:
	.loc	2 299 2                         @ ../app/nfc_command.c:299:2
	strh	r0, [r1]
	b	.LBB11_13
.Ltmp83:
.LBB11_3:
	.loc	2 299 2                         @ ../app/nfc_command.c:299:2
	b	.LBB11_4
.Ltmp84:
.LBB11_4:
	.loc	2 300 2 is_stmt 1               @ ../app/nfc_command.c:300:2
	b	.LBB11_5
.LBB11_5:
.Ltmp85:
	.loc	2 300 2 is_stmt 0               @ ../app/nfc_command.c:300:2
	ldr	r0, [sp, #24]
	ldr	r0, [r0, #4]
.Ltmp86:
	.loc	2 300 2                         @ ../app/nfc_command.c:300:2
	cbz	r0, .LBB11_7
	b	.LBB11_6
.LBB11_6:
	.loc	2 0 2                           @ ../app/nfc_command.c:0:2
	add	r1, sp, #28
	movw	r0, #27648
.Ltmp87:
	.loc	2 300 2                         @ ../app/nfc_command.c:300:2
	strh	r0, [r1]
	b	.LBB11_13
.Ltmp88:
.LBB11_7:
	.loc	2 300 2                         @ ../app/nfc_command.c:300:2
	b	.LBB11_8
.Ltmp89:
.LBB11_8:
	.loc	2 0 2                           @ ../app/nfc_command.c:0:2
	add	r1, sp, #8
	movs	r0, #0
.Ltmp90:
	.loc	2 306 13 is_stmt 1              @ ../app/nfc_command.c:306:13
	strb	r0, [r1]
	.loc	2 306 11 is_stmt 0              @ ../app/nfc_command.c:306:11
	b	.LBB11_9
.LBB11_9:                               @ =>This Inner Loop Header: Depth=1
	.loc	2 0 11                          @ ../app/nfc_command.c:0:11
	add	r0, sp, #8
.Ltmp91:
	.loc	2 306 18                        @ ../app/nfc_command.c:306:18
	ldrb	r0, [r0]
	.loc	2 306 22                        @ ../app/nfc_command.c:306:22
	ldr	r1, [sp, #12]
.Ltmp92:
	.loc	2 306 5                         @ ../app/nfc_command.c:306:5
	cmp	r0, r1
	bhs	.LBB11_12
	b	.LBB11_10
.LBB11_10:                              @   in Loop: Header=BB11_9 Depth=1
.Ltmp93:
	.loc	2 309 5 is_stmt 1               @ ../app/nfc_command.c:309:5
	b	.LBB11_11
.Ltmp94:
.LBB11_11:                              @   in Loop: Header=BB11_9 Depth=1
	.loc	2 306 28                        @ ../app/nfc_command.c:306:28
	ldr	r0, [sp, #8]
	adds	r0, r0, #1
	add	r1, sp, #8
	strb	r0, [r1]
	.loc	2 306 5 is_stmt 0               @ ../app/nfc_command.c:306:5
	b	.LBB11_9
.Ltmp95:
.LBB11_12:
	.loc	2 310 13 is_stmt 1              @ ../app/nfc_command.c:310:13
	ldr	r0, [sp, #16]
	.loc	2 310 22 is_stmt 0              @ ../app/nfc_command.c:310:22
	ldr	r1, [sp, #12]
	.loc	2 310 21                        @ ../app/nfc_command.c:310:21
	udiv	r0, r0, r1
	.loc	2 310 12                        @ ../app/nfc_command.c:310:12
	str	r0, [sp, #20]
	.loc	2 311 26 is_stmt 1              @ ../app/nfc_command.c:311:26
	ldr	r1, __arm_cp.11_0
	ldrb	r0, [r1]
	movs	r2, #10
	.loc	2 311 29 is_stmt 0              @ ../app/nfc_command.c:311:29
	udiv	r3, r0, r2
	muls	r2, r3, r2
	subs	r2, r0, r2
	movs	r0, #100
	.loc	2 311 33                        @ ../app/nfc_command.c:311:33
	muls	r0, r2, r0
	ldr	r2, __arm_cp.11_1
	.loc	2 311 23                        @ ../app/nfc_command.c:311:23
	adds	r0, r0, r2
	.loc	2 311 16                        @ ../app/nfc_command.c:311:16
	str	r0, [sp, #20]
	.loc	2 312 8 is_stmt 1               @ ../app/nfc_command.c:312:8
	ldrb	r0, [r1]
	adds	r0, r0, #1
	strb	r0, [r1]
	.loc	2 314 10                        @ ../app/nfc_command.c:314:10
	ldr	r0, [sp, #24]
	.loc	2 314 15 is_stmt 0              @ ../app/nfc_command.c:314:15
	ldr	r0, [r0, #16]
	.loc	2 314 21                        @ ../app/nfc_command.c:314:21
	ldr	r2, [sp, #20]
	movs	r1, #3
	.loc	2 314 31                        @ ../app/nfc_command.c:314:31
	str	r1, [sp, #4]                    @ 4-byte Spill
	muls	r1, r2, r1
	.loc	2 314 2                         @ ../app/nfc_command.c:314:2
	bl	uwrite4
	ldr	r0, [sp, #4]                    @ 4-byte Reload
	.loc	2 315 7 is_stmt 1               @ ../app/nfc_command.c:315:7
	ldr	r1, [sp, #20]
	.loc	2 315 17 is_stmt 0              @ ../app/nfc_command.c:315:17
	muls	r0, r1, r0
	.loc	2 315 6                         @ ../app/nfc_command.c:315:6
	ldr	r1, __arm_cp.11_2
	str	r0, [r1]
	.loc	2 316 2 is_stmt 1               @ ../app/nfc_command.c:316:2
	ldr	r1, [sp, #24]
	movs	r0, #4
	.loc	2 316 12 is_stmt 0              @ ../app/nfc_command.c:316:12
	str	r0, [r1, #20]
	add	r1, sp, #28
	movw	r0, #36864
	.loc	2 317 2 is_stmt 1               @ ../app/nfc_command.c:317:2
	strh	r0, [r1]
	b	.LBB11_13
.LBB11_13:
	.loc	2 0 2 is_stmt 0                 @ ../app/nfc_command.c:0:2
	add	r0, sp, #28
	.loc	2 318 1 is_stmt 1               @ ../app/nfc_command.c:318:1
	ldrh	r0, [r0]
	add	sp, #32
	pop	{r7, pc}
.Ltmp96:
	.p2align	2
@ %bb.14:
	.loc	2 0 1 is_stmt 0                 @ ../app/nfc_command.c:0:1
__arm_cp.11_0:
	.long	get_adc.dis
.Lcpi_end11:
	.size	__arm_cp.11_0, .Lcpi_end11-__arm_cp.11_0
__arm_cp.11_1:
	.long	1500                            @ 0x5dc
.Lcpi_end12:
	.size	__arm_cp.11_1, .Lcpi_end12-__arm_cp.11_1
__arm_cp.11_2:
	.long	RX_V
.Lcpi_end13:
	.size	__arm_cp.11_2, .Lcpi_end13-__arm_cp.11_2
__arm_cp.11_3:
	.long	27270                           @ 0x6a86
.Lcpi_end14:
	.size	__arm_cp.11_3, .Lcpi_end14-__arm_cp.11_3
.Lfunc_end11:
	.size	get_adc, .Lfunc_end11-get_adc
	.cfi_endproc
	.cantunwind
	.fnend
                                        @ -- End function
	.section	.text.get_adc1,"ax",%progbits
	.hidden	get_adc1                        @ -- Begin function get_adc1
	.globl	get_adc1
	.p2align	2
	.type	get_adc1,%function
	.code	16                              @ @get_adc1
	.thumb_func
get_adc1:
.Lfunc_begin12:
	.loc	2 320 0 is_stmt 1               @ ../app/nfc_command.c:320:0
	.fnstart
	.cfi_startproc
@ %bb.0:
	.save	{r4, lr}
	push	{r4, lr}
	.cfi_def_cfa_offset 8
	.cfi_offset lr, -4
	.cfi_offset r4, -8
	.pad	#32
	sub	sp, #32
	.cfi_def_cfa_offset 40
	str	r0, [sp, #24]
	movs	r0, #0
.Ltmp97:
	.loc	2 322 11 prologue_end           @ ../app/nfc_command.c:322:11
	str	r0, [sp, #20]
	movs	r0, #50
	.loc	2 323 11                        @ ../app/nfc_command.c:323:11
	str	r0, [sp, #16]
	.loc	2 326 2                         @ ../app/nfc_command.c:326:2
	b	.LBB12_1
.LBB12_1:
.Ltmp98:
	.loc	2 326 2 is_stmt 0               @ ../app/nfc_command.c:326:2
	ldr	r0, [sp, #24]
	ldrb	r0, [r0, #3]
.Ltmp99:
	.loc	2 326 2                         @ ../app/nfc_command.c:326:2
	cbz	r0, .LBB12_3
	b	.LBB12_2
.LBB12_2:
	.loc	2 0 2                           @ ../app/nfc_command.c:0:2
	add	r1, sp, #28
	ldr	r0, __arm_cp.12_3
.Ltmp100:
	.loc	2 326 2                         @ ../app/nfc_command.c:326:2
	strh	r0, [r1]
	b	.LBB12_13
.Ltmp101:
.LBB12_3:
	.loc	2 326 2                         @ ../app/nfc_command.c:326:2
	b	.LBB12_4
.Ltmp102:
.LBB12_4:
	.loc	2 327 2 is_stmt 1               @ ../app/nfc_command.c:327:2
	b	.LBB12_5
.LBB12_5:
.Ltmp103:
	.loc	2 327 2 is_stmt 0               @ ../app/nfc_command.c:327:2
	ldr	r0, [sp, #24]
	ldr	r0, [r0, #4]
.Ltmp104:
	.loc	2 327 2                         @ ../app/nfc_command.c:327:2
	cbz	r0, .LBB12_7
	b	.LBB12_6
.LBB12_6:
	.loc	2 0 2                           @ ../app/nfc_command.c:0:2
	add	r1, sp, #28
	movw	r0, #27648
.Ltmp105:
	.loc	2 327 2                         @ ../app/nfc_command.c:327:2
	strh	r0, [r1]
	b	.LBB12_13
.Ltmp106:
.LBB12_7:
	.loc	2 327 2                         @ ../app/nfc_command.c:327:2
	b	.LBB12_8
.Ltmp107:
.LBB12_8:
	.loc	2 0 2                           @ ../app/nfc_command.c:0:2
	add	r1, sp, #12
	movs	r0, #0
.Ltmp108:
	.loc	2 330 10 is_stmt 1              @ ../app/nfc_command.c:330:10
	strb	r0, [r1]
	.loc	2 330 8 is_stmt 0               @ ../app/nfc_command.c:330:8
	b	.LBB12_9
.LBB12_9:                               @ =>This Inner Loop Header: Depth=1
	.loc	2 0 8                           @ ../app/nfc_command.c:0:8
	add	r0, sp, #12
.Ltmp109:
	.loc	2 330 15                        @ ../app/nfc_command.c:330:15
	ldrb	r0, [r0]
	.loc	2 330 19                        @ ../app/nfc_command.c:330:19
	ldr	r1, [sp, #16]
.Ltmp110:
	.loc	2 330 2                         @ ../app/nfc_command.c:330:2
	cmp	r0, r1
	bhs	.LBB12_12
	b	.LBB12_10
.LBB12_10:                              @   in Loop: Header=BB12_9 Depth=1
.Ltmp111:
	.loc	2 333 5 is_stmt 1               @ ../app/nfc_command.c:333:5
	b	.LBB12_11
.Ltmp112:
.LBB12_11:                              @   in Loop: Header=BB12_9 Depth=1
	.loc	2 330 25                        @ ../app/nfc_command.c:330:25
	ldr	r0, [sp, #12]
	adds	r0, r0, #1
	add	r1, sp, #12
	strb	r0, [r1]
	.loc	2 330 2 is_stmt 0               @ ../app/nfc_command.c:330:2
	b	.LBB12_9
.Ltmp113:
.LBB12_12:
	.loc	2 334 13 is_stmt 1              @ ../app/nfc_command.c:334:13
	ldr	r0, [sp, #20]
	.loc	2 334 22 is_stmt 0              @ ../app/nfc_command.c:334:22
	ldr	r1, [sp, #16]
	.loc	2 334 21                        @ ../app/nfc_command.c:334:21
	udiv	r0, r0, r1
	.loc	2 334 12                        @ ../app/nfc_command.c:334:12
	ldr	r2, __arm_cp.12_0
	str	r2, [sp]                        @ 4-byte Spill
	str	r0, [r2]
	.loc	2 335 21 is_stmt 1              @ ../app/nfc_command.c:335:21
	ldr	r3, __arm_cp.12_1
	ldrb	r0, [r3]
	movs	r1, #10
	.loc	2 335 24 is_stmt 0              @ ../app/nfc_command.c:335:24
	udiv	r4, r0, r1
	muls	r1, r4, r1
	subs	r4, r0, r1
	movs	r1, #100
	.loc	2 335 28                        @ ../app/nfc_command.c:335:28
	str	r1, [sp, #4]                    @ 4-byte Spill
	mov	r0, r1
	muls	r0, r4, r0
	movw	r4, #500
	.loc	2 335 19                        @ ../app/nfc_command.c:335:19
	adds	r0, r0, r4
	.loc	2 335 15                        @ ../app/nfc_command.c:335:15
	str	r0, [r2]
	.loc	2 336 8 is_stmt 1               @ ../app/nfc_command.c:336:8
	ldrb	r0, [r3]
	adds	r0, r0, #1
	strb	r0, [r3]
	.loc	2 338 10                        @ ../app/nfc_command.c:338:10
	ldr	r0, [sp, #24]
	.loc	2 338 15 is_stmt 0              @ ../app/nfc_command.c:338:15
	ldr	r0, [r0, #16]
	.loc	2 338 21                        @ ../app/nfc_command.c:338:21
	ldr	r2, [r2]
	.loc	2 338 31                        @ ../app/nfc_command.c:338:31
	muls	r1, r2, r1
	movw	r2, #900
	.loc	2 338 35                        @ ../app/nfc_command.c:338:35
	str	r2, [sp, #8]                    @ 4-byte Spill
	sdiv	r1, r1, r2
	.loc	2 338 2                         @ ../app/nfc_command.c:338:2
	bl	uwrite4
	ldr	r2, [sp]                        @ 4-byte Reload
	ldr	r0, [sp, #4]                    @ 4-byte Reload
	ldr	r1, [sp, #8]                    @ 4-byte Reload
	.loc	2 339 7 is_stmt 1               @ ../app/nfc_command.c:339:7
	ldr	r2, [r2]
	.loc	2 339 17 is_stmt 0              @ ../app/nfc_command.c:339:17
	muls	r0, r2, r0
	.loc	2 339 21                        @ ../app/nfc_command.c:339:21
	sdiv	r0, r0, r1
	.loc	2 339 6                         @ ../app/nfc_command.c:339:6
	ldr	r1, __arm_cp.12_2
	str	r0, [r1]
	.loc	2 340 2 is_stmt 1               @ ../app/nfc_command.c:340:2
	ldr	r1, [sp, #24]
	movs	r0, #4
	.loc	2 340 12 is_stmt 0              @ ../app/nfc_command.c:340:12
	str	r0, [r1, #20]
	add	r1, sp, #28
	movw	r0, #36864
	.loc	2 341 2 is_stmt 1               @ ../app/nfc_command.c:341:2
	strh	r0, [r1]
	b	.LBB12_13
.LBB12_13:
	.loc	2 0 2 is_stmt 0                 @ ../app/nfc_command.c:0:2
	add	r0, sp, #28
	.loc	2 342 1 is_stmt 1               @ ../app/nfc_command.c:342:1
	ldrh	r0, [r0]
	add	sp, #32
	pop	{r4, pc}
.Ltmp114:
	.p2align	2
@ %bb.14:
	.loc	2 0 1 is_stmt 0                 @ ../app/nfc_command.c:0:1
__arm_cp.12_0:
	.long	get_adc1.voltage_mV
.Lcpi_end15:
	.size	__arm_cp.12_0, .Lcpi_end15-__arm_cp.12_0
__arm_cp.12_1:
	.long	get_adc1.dis
.Lcpi_end16:
	.size	__arm_cp.12_1, .Lcpi_end16-__arm_cp.12_1
__arm_cp.12_2:
	.long	RX_I
.Lcpi_end17:
	.size	__arm_cp.12_2, .Lcpi_end17-__arm_cp.12_2
__arm_cp.12_3:
	.long	27270                           @ 0x6a86
.Lcpi_end18:
	.size	__arm_cp.12_3, .Lcpi_end18-__arm_cp.12_3
.Lfunc_end12:
	.size	get_adc1, .Lfunc_end12-get_adc1
	.cfi_endproc
	.cantunwind
	.fnend
                                        @ -- End function
	.section	.text.get_adc2,"ax",%progbits
	.hidden	get_adc2                        @ -- Begin function get_adc2
	.globl	get_adc2
	.p2align	2
	.type	get_adc2,%function
	.code	16                              @ @get_adc2
	.thumb_func
get_adc2:
.Lfunc_begin13:
	.loc	2 344 0 is_stmt 1               @ ../app/nfc_command.c:344:0
	.fnstart
	.cfi_startproc
@ %bb.0:
	.save	{r7, lr}
	push	{r7, lr}
	.cfi_def_cfa_offset 8
	.cfi_offset lr, -4
	.cfi_offset r7, -8
	.pad	#24
	sub	sp, #24
	.cfi_def_cfa_offset 32
	str	r0, [sp, #16]
	movs	r0, #0
.Ltmp115:
	.loc	2 345 10 prologue_end           @ ../app/nfc_command.c:345:10
	str	r0, [sp, #12]
	.loc	2 346 10                        @ ../app/nfc_command.c:346:10
	str	r0, [sp, #8]
	movs	r0, #50
	.loc	2 347 11                        @ ../app/nfc_command.c:347:11
	str	r0, [sp, #4]
	.loc	2 349 2                         @ ../app/nfc_command.c:349:2
	b	.LBB13_1
.LBB13_1:
.Ltmp116:
	.loc	2 349 2 is_stmt 0               @ ../app/nfc_command.c:349:2
	ldr	r0, [sp, #16]
	ldrb	r0, [r0, #3]
.Ltmp117:
	.loc	2 349 2                         @ ../app/nfc_command.c:349:2
	cbz	r0, .LBB13_3
	b	.LBB13_2
.LBB13_2:
	.loc	2 0 2                           @ ../app/nfc_command.c:0:2
	add	r1, sp, #20
	ldr	r0, __arm_cp.13_0
.Ltmp118:
	.loc	2 349 2                         @ ../app/nfc_command.c:349:2
	strh	r0, [r1]
	b	.LBB13_13
.Ltmp119:
.LBB13_3:
	.loc	2 349 2                         @ ../app/nfc_command.c:349:2
	b	.LBB13_4
.Ltmp120:
.LBB13_4:
	.loc	2 350 2 is_stmt 1               @ ../app/nfc_command.c:350:2
	b	.LBB13_5
.LBB13_5:
.Ltmp121:
	.loc	2 350 2 is_stmt 0               @ ../app/nfc_command.c:350:2
	ldr	r0, [sp, #16]
	ldr	r0, [r0, #4]
.Ltmp122:
	.loc	2 350 2                         @ ../app/nfc_command.c:350:2
	cbz	r0, .LBB13_7
	b	.LBB13_6
.LBB13_6:
	.loc	2 0 2                           @ ../app/nfc_command.c:0:2
	add	r1, sp, #20
	movw	r0, #27648
.Ltmp123:
	.loc	2 350 2                         @ ../app/nfc_command.c:350:2
	strh	r0, [r1]
	b	.LBB13_13
.Ltmp124:
.LBB13_7:
	.loc	2 350 2                         @ ../app/nfc_command.c:350:2
	b	.LBB13_8
.Ltmp125:
.LBB13_8:
	.loc	2 0 2                           @ ../app/nfc_command.c:0:2
	mov	r1, sp
	movs	r0, #0
.Ltmp126:
	.loc	2 353 10 is_stmt 1              @ ../app/nfc_command.c:353:10
	strb	r0, [r1]
	.loc	2 353 8 is_stmt 0               @ ../app/nfc_command.c:353:8
	b	.LBB13_9
.LBB13_9:                               @ =>This Inner Loop Header: Depth=1
	.loc	2 0 8                           @ ../app/nfc_command.c:0:8
	mov	r0, sp
.Ltmp127:
	.loc	2 353 15                        @ ../app/nfc_command.c:353:15
	ldrb	r0, [r0]
	.loc	2 353 19                        @ ../app/nfc_command.c:353:19
	ldr	r1, [sp, #4]
.Ltmp128:
	.loc	2 353 2                         @ ../app/nfc_command.c:353:2
	cmp	r0, r1
	bhs	.LBB13_12
	b	.LBB13_10
.LBB13_10:                              @   in Loop: Header=BB13_9 Depth=1
.Ltmp129:
	.loc	2 356 5 is_stmt 1               @ ../app/nfc_command.c:356:5
	b	.LBB13_11
.Ltmp130:
.LBB13_11:                              @   in Loop: Header=BB13_9 Depth=1
	.loc	2 353 25                        @ ../app/nfc_command.c:353:25
	ldr	r0, [sp]
	adds	r0, r0, #1
	mov	r1, sp
	strb	r0, [r1]
	.loc	2 353 2 is_stmt 0               @ ../app/nfc_command.c:353:2
	b	.LBB13_9
.Ltmp131:
.LBB13_12:
	.loc	2 357 13 is_stmt 1              @ ../app/nfc_command.c:357:13
	ldr	r0, [sp, #8]
	.loc	2 357 22 is_stmt 0              @ ../app/nfc_command.c:357:22
	ldr	r1, [sp, #4]
	.loc	2 357 21                        @ ../app/nfc_command.c:357:21
	udiv	r0, r0, r1
	.loc	2 357 12                        @ ../app/nfc_command.c:357:12
	str	r0, [sp, #12]
	movw	r0, #2800
	.loc	2 358 16 is_stmt 1              @ ../app/nfc_command.c:358:16
	str	r0, [sp, #12]
	.loc	2 360 10                        @ ../app/nfc_command.c:360:10
	ldr	r0, [sp, #16]
	.loc	2 360 15 is_stmt 0              @ ../app/nfc_command.c:360:15
	ldr	r0, [r0, #16]
	.loc	2 360 21                        @ ../app/nfc_command.c:360:21
	ldr	r1, [sp, #12]
	.loc	2 360 2                         @ ../app/nfc_command.c:360:2
	bl	uwrite4
	.loc	2 361 2 is_stmt 1               @ ../app/nfc_command.c:361:2
	ldr	r1, [sp, #16]
	movs	r0, #4
	.loc	2 361 12 is_stmt 0              @ ../app/nfc_command.c:361:12
	str	r0, [r1, #20]
	add	r1, sp, #20
	movw	r0, #36864
	.loc	2 362 2 is_stmt 1               @ ../app/nfc_command.c:362:2
	strh	r0, [r1]
	b	.LBB13_13
.LBB13_13:
	.loc	2 0 2 is_stmt 0                 @ ../app/nfc_command.c:0:2
	add	r0, sp, #20
	.loc	2 363 1 is_stmt 1               @ ../app/nfc_command.c:363:1
	ldrh	r0, [r0]
	add	sp, #24
	pop	{r7, pc}
.Ltmp132:
	.p2align	2
@ %bb.14:
	.loc	2 0 1 is_stmt 0                 @ ../app/nfc_command.c:0:1
__arm_cp.13_0:
	.long	27270                           @ 0x6a86
.Lcpi_end19:
	.size	__arm_cp.13_0, .Lcpi_end19-__arm_cp.13_0
.Lfunc_end13:
	.size	get_adc2, .Lfunc_end13-get_adc2
	.cfi_endproc
	.cantunwind
	.fnend
                                        @ -- End function
	.section	.text.get_adc3,"ax",%progbits
	.hidden	get_adc3                        @ -- Begin function get_adc3
	.globl	get_adc3
	.p2align	2
	.type	get_adc3,%function
	.code	16                              @ @get_adc3
	.thumb_func
get_adc3:
.Lfunc_begin14:
	.loc	2 365 0 is_stmt 1               @ ../app/nfc_command.c:365:0
	.fnstart
	.cfi_startproc
@ %bb.0:
	.save	{r7, lr}
	push	{r7, lr}
	.cfi_def_cfa_offset 8
	.cfi_offset lr, -4
	.cfi_offset r7, -8
	.pad	#24
	sub	sp, #24
	.cfi_def_cfa_offset 32
	str	r0, [sp, #16]
	movs	r0, #0
.Ltmp133:
	.loc	2 366 10 prologue_end           @ ../app/nfc_command.c:366:10
	str	r0, [sp, #12]
	.loc	2 367 14                        @ ../app/nfc_command.c:367:14
	str	r0, [sp, #8]
	movs	r0, #50
	.loc	2 368 11                        @ ../app/nfc_command.c:368:11
	str	r0, [sp, #4]
	.loc	2 370 2                         @ ../app/nfc_command.c:370:2
	b	.LBB14_1
.LBB14_1:
.Ltmp134:
	.loc	2 370 2 is_stmt 0               @ ../app/nfc_command.c:370:2
	ldr	r0, [sp, #16]
	ldrb	r0, [r0, #3]
.Ltmp135:
	.loc	2 370 2                         @ ../app/nfc_command.c:370:2
	cbz	r0, .LBB14_3
	b	.LBB14_2
.LBB14_2:
	.loc	2 0 2                           @ ../app/nfc_command.c:0:2
	add	r1, sp, #20
	ldr	r0, __arm_cp.14_1
.Ltmp136:
	.loc	2 370 2                         @ ../app/nfc_command.c:370:2
	strh	r0, [r1]
	b	.LBB14_13
.Ltmp137:
.LBB14_3:
	.loc	2 370 2                         @ ../app/nfc_command.c:370:2
	b	.LBB14_4
.Ltmp138:
.LBB14_4:
	.loc	2 371 2 is_stmt 1               @ ../app/nfc_command.c:371:2
	b	.LBB14_5
.LBB14_5:
.Ltmp139:
	.loc	2 371 2 is_stmt 0               @ ../app/nfc_command.c:371:2
	ldr	r0, [sp, #16]
	ldr	r0, [r0, #4]
.Ltmp140:
	.loc	2 371 2                         @ ../app/nfc_command.c:371:2
	cbz	r0, .LBB14_7
	b	.LBB14_6
.LBB14_6:
	.loc	2 0 2                           @ ../app/nfc_command.c:0:2
	add	r1, sp, #20
	movw	r0, #27648
.Ltmp141:
	.loc	2 371 2                         @ ../app/nfc_command.c:371:2
	strh	r0, [r1]
	b	.LBB14_13
.Ltmp142:
.LBB14_7:
	.loc	2 371 2                         @ ../app/nfc_command.c:371:2
	b	.LBB14_8
.Ltmp143:
.LBB14_8:
	.loc	2 0 2                           @ ../app/nfc_command.c:0:2
	mov	r1, sp
	movs	r0, #0
.Ltmp144:
	.loc	2 374 10 is_stmt 1              @ ../app/nfc_command.c:374:10
	strb	r0, [r1]
	.loc	2 374 8 is_stmt 0               @ ../app/nfc_command.c:374:8
	b	.LBB14_9
.LBB14_9:                               @ =>This Inner Loop Header: Depth=1
	.loc	2 0 8                           @ ../app/nfc_command.c:0:8
	mov	r0, sp
.Ltmp145:
	.loc	2 374 15                        @ ../app/nfc_command.c:374:15
	ldrb	r0, [r0]
	.loc	2 374 19                        @ ../app/nfc_command.c:374:19
	ldr	r1, [sp, #4]
.Ltmp146:
	.loc	2 374 2                         @ ../app/nfc_command.c:374:2
	cmp	r0, r1
	bhs	.LBB14_12
	b	.LBB14_10
.LBB14_10:                              @   in Loop: Header=BB14_9 Depth=1
.Ltmp147:
	.loc	2 377 5 is_stmt 1               @ ../app/nfc_command.c:377:5
	b	.LBB14_11
.Ltmp148:
.LBB14_11:                              @   in Loop: Header=BB14_9 Depth=1
	.loc	2 374 25                        @ ../app/nfc_command.c:374:25
	ldr	r0, [sp]
	adds	r0, r0, #1
	mov	r1, sp
	strb	r0, [r1]
	.loc	2 374 2 is_stmt 0               @ ../app/nfc_command.c:374:2
	b	.LBB14_9
.Ltmp149:
.LBB14_12:
	.loc	2 378 13 is_stmt 1              @ ../app/nfc_command.c:378:13
	ldr	r0, [sp, #8]
	.loc	2 378 22 is_stmt 0              @ ../app/nfc_command.c:378:22
	ldr	r1, [sp, #4]
	.loc	2 378 21                        @ ../app/nfc_command.c:378:21
	udiv	r0, r0, r1
	.loc	2 378 12                        @ ../app/nfc_command.c:378:12
	str	r0, [sp, #12]
	ldr	r0, __arm_cp.14_0
	.loc	2 379 16 is_stmt 1              @ ../app/nfc_command.c:379:16
	str	r0, [sp, #12]
	.loc	2 381 10                        @ ../app/nfc_command.c:381:10
	ldr	r0, [sp, #16]
	.loc	2 381 15 is_stmt 0              @ ../app/nfc_command.c:381:15
	ldr	r0, [r0, #16]
	.loc	2 381 21                        @ ../app/nfc_command.c:381:21
	ldr	r1, [sp, #12]
	movs	r2, #100
	.loc	2 381 31                        @ ../app/nfc_command.c:381:31
	sdiv	r2, r1, r2
	movs	r1, #124
	.loc	2 381 35                        @ ../app/nfc_command.c:381:35
	muls	r1, r2, r1
	.loc	2 381 2                         @ ../app/nfc_command.c:381:2
	bl	uwrite4
	.loc	2 382 2 is_stmt 1               @ ../app/nfc_command.c:382:2
	ldr	r1, [sp, #16]
	movs	r0, #4
	.loc	2 382 12 is_stmt 0              @ ../app/nfc_command.c:382:12
	str	r0, [r1, #20]
	add	r1, sp, #20
	movw	r0, #36864
	.loc	2 383 2 is_stmt 1               @ ../app/nfc_command.c:383:2
	strh	r0, [r1]
	b	.LBB14_13
.LBB14_13:
	.loc	2 0 2 is_stmt 0                 @ ../app/nfc_command.c:0:2
	add	r0, sp, #20
	.loc	2 384 1 is_stmt 1               @ ../app/nfc_command.c:384:1
	ldrh	r0, [r0]
	add	sp, #24
	pop	{r7, pc}
.Ltmp150:
	.p2align	2
@ %bb.14:
	.loc	2 0 1 is_stmt 0                 @ ../app/nfc_command.c:0:1
__arm_cp.14_0:
	.long	1500                            @ 0x5dc
.Lcpi_end20:
	.size	__arm_cp.14_0, .Lcpi_end20-__arm_cp.14_0
__arm_cp.14_1:
	.long	27270                           @ 0x6a86
.Lcpi_end21:
	.size	__arm_cp.14_1, .Lcpi_end21-__arm_cp.14_1
.Lfunc_end14:
	.size	get_adc3, .Lfunc_end14-get_adc3
	.cfi_endproc
	.cantunwind
	.fnend
                                        @ -- End function
	.section	.text.start_engine,"ax",%progbits
	.hidden	start_engine                    @ -- Begin function start_engine
	.globl	start_engine
	.p2align	1
	.type	start_engine,%function
	.code	16                              @ @start_engine
	.thumb_func
start_engine:
.Lfunc_begin15:
	.loc	2 386 0 is_stmt 1               @ ../app/nfc_command.c:386:0
	.fnstart
	.cfi_startproc
@ %bb.0:
	.save	{r7, lr}
	push	{r7, lr}
	.cfi_def_cfa_offset 8
	.cfi_offset lr, -4
	.cfi_offset r7, -8
	.pad	#16
	sub	sp, #16
	.cfi_def_cfa_offset 24
	mov	r3, r0
                                        @ kill: def $r0 killed $r2
                                        @ kill: def $r0 killed $r1
                                        @ kill: def $r0 killed $r3
	add	r0, sp, #12
	strh	r3, [r0]
	add	r3, sp, #8
	strh	r1, [r3]
	add	r1, sp, #4
	strh	r2, [r1]
.Ltmp151:
	.loc	2 387 5 prologue_end            @ ../app/nfc_command.c:387:5
	ldrh	r0, [r0]
.Ltmp152:
	.loc	2 387 5 is_stmt 0               @ ../app/nfc_command.c:387:5
	cbz	r0, .LBB15_2
	b	.LBB15_1
.LBB15_1:
	.loc	2 0 5                           @ ../app/nfc_command.c:0:5
	add	r0, sp, #12
.Ltmp153:
	.loc	2 390 12 is_stmt 1              @ ../app/nfc_command.c:390:12
	ldrh	r0, [r0]
	.loc	2 390 3 is_stmt 0               @ ../app/nfc_command.c:390:3
	bl	delay_ms
	.loc	2 392 2 is_stmt 1               @ ../app/nfc_command.c:392:2
	b	.LBB15_2
.Ltmp154:
.LBB15_2:
	.loc	2 0 2 is_stmt 0                 @ ../app/nfc_command.c:0:2
	add	r0, sp, #4
	.loc	2 393 11 is_stmt 1              @ ../app/nfc_command.c:393:11
	ldrh	r0, [r0]
	.loc	2 393 2 is_stmt 0               @ ../app/nfc_command.c:393:2
	bl	delay_ms
	add	r0, sp, #8
.Ltmp155:
	.loc	2 394 5 is_stmt 1               @ ../app/nfc_command.c:394:5
	ldrh	r0, [r0]
.Ltmp156:
	.loc	2 394 5 is_stmt 0               @ ../app/nfc_command.c:394:5
	cbz	r0, .LBB15_4
	b	.LBB15_3
.LBB15_3:
	.loc	2 0 5                           @ ../app/nfc_command.c:0:5
	add	r0, sp, #8
.Ltmp157:
	.loc	2 397 12 is_stmt 1              @ ../app/nfc_command.c:397:12
	ldrh	r0, [r0]
	.loc	2 397 3 is_stmt 0               @ ../app/nfc_command.c:397:3
	bl	delay_ms
	.loc	2 399 2 is_stmt 1               @ ../app/nfc_command.c:399:2
	b	.LBB15_4
.Ltmp158:
.LBB15_4:
	.loc	2 402 1                         @ ../app/nfc_command.c:402:1
	add	sp, #16
	pop	{r7, pc}
.Ltmp159:
.Lfunc_end15:
	.size	start_engine, .Lfunc_end15-start_engine
	.cfi_endproc
	.cantunwind
	.fnend
                                        @ -- End function
	.section	.text.NFC_WLC,"ax",%progbits
	.hidden	NFC_WLC                         @ -- Begin function NFC_WLC
	.globl	NFC_WLC
	.p2align	2
	.type	NFC_WLC,%function
	.code	16                              @ @NFC_WLC
	.thumb_func
NFC_WLC:
.Lfunc_begin16:
	.loc	2 404 0                         @ ../app/nfc_command.c:404:0
	.fnstart
	.cfi_startproc
@ %bb.0:
	.save	{r7, lr}
	push	{r7, lr}
	.cfi_def_cfa_offset 8
	.cfi_offset lr, -4
	.cfi_offset r7, -8
	.pad	#16
	sub	sp, #16
	.cfi_def_cfa_offset 24
	str	r0, [sp, #8]
.Ltmp160:
	.loc	2 407 2 prologue_end            @ ../app/nfc_command.c:407:2
	b	.LBB16_1
.LBB16_1:
.Ltmp161:
	.loc	2 407 2 is_stmt 0               @ ../app/nfc_command.c:407:2
	ldr	r0, [sp, #8]
	ldrb	r0, [r0, #3]
.Ltmp162:
	.loc	2 407 2                         @ ../app/nfc_command.c:407:2
	cbz	r0, .LBB16_3
	b	.LBB16_2
.LBB16_2:
	.loc	2 0 2                           @ ../app/nfc_command.c:0:2
	add	r1, sp, #12
	ldr	r0, __arm_cp.16_2
.Ltmp163:
	.loc	2 407 2                         @ ../app/nfc_command.c:407:2
	strh	r0, [r1]
	b	.LBB16_28
.Ltmp164:
.LBB16_3:
	.loc	2 407 2                         @ ../app/nfc_command.c:407:2
	b	.LBB16_4
.Ltmp165:
.LBB16_4:
	.loc	2 408 9 is_stmt 1               @ ../app/nfc_command.c:408:9
	ldr	r0, [sp, #8]
	.loc	2 408 14 is_stmt 0              @ ../app/nfc_command.c:408:14
	ldrb	r0, [r0, #2]
	.loc	2 408 2                         @ ../app/nfc_command.c:408:2
	subs	r0, r0, #5
	str	r0, [sp, #4]                    @ 4-byte Spill
	cmp	r0, #33
	bls	.LBB16_5
	b	.LBB16_27
.LBB16_5:
	.loc	2 0 2                           @ ../app/nfc_command.c:0:2
	ldr	r1, [sp, #4]                    @ 4-byte Reload
	lsls	r2, r1, #2
	adr	r0, .LJTI16_0
	adds	r0, r0, r2
	mov	pc, r0
@ %bb.6:
	.p2align	2
.LJTI16_0:
	b.w	.LBB16_7
	b.w	.LBB16_27
	b.w	.LBB16_27
	b.w	.LBB16_27
	b.w	.LBB16_27
	b.w	.LBB16_27
	b.w	.LBB16_27
	b.w	.LBB16_27
	b.w	.LBB16_27
	b.w	.LBB16_27
	b.w	.LBB16_27
	b.w	.LBB16_12
	b.w	.LBB16_16
	b.w	.LBB16_20
	b.w	.LBB16_21
	b.w	.LBB16_27
	b.w	.LBB16_27
	b.w	.LBB16_27
	b.w	.LBB16_27
	b.w	.LBB16_27
	b.w	.LBB16_27
	b.w	.LBB16_27
	b.w	.LBB16_27
	b.w	.LBB16_27
	b.w	.LBB16_27
	b.w	.LBB16_27
	b.w	.LBB16_27
	b.w	.LBB16_27
	b.w	.LBB16_27
	b.w	.LBB16_27
	b.w	.LBB16_27
	b.w	.LBB16_27
	b.w	.LBB16_27
	b.w	.LBB16_22
.LBB16_7:
.Ltmp166:
	.loc	2 411 4 is_stmt 1               @ ../app/nfc_command.c:411:4
	b	.LBB16_8
.LBB16_8:
.Ltmp167:
	.loc	2 411 4 is_stmt 0               @ ../app/nfc_command.c:411:4
	ldr	r0, [sp, #8]
	ldr	r0, [r0, #4]
.Ltmp168:
	.loc	2 411 4                         @ ../app/nfc_command.c:411:4
	cbz	r0, .LBB16_10
	b	.LBB16_9
.LBB16_9:
	.loc	2 0 4                           @ ../app/nfc_command.c:0:4
	add	r1, sp, #12
	movw	r0, #27648
.Ltmp169:
	.loc	2 411 4                         @ ../app/nfc_command.c:411:4
	strh	r0, [r1]
	b	.LBB16_28
.Ltmp170:
.LBB16_10:
	.loc	2 411 4                         @ ../app/nfc_command.c:411:4
	b	.LBB16_11
.Ltmp171:
.LBB16_11:
	.loc	2 417 4 is_stmt 1               @ ../app/nfc_command.c:417:4
	b	.LBB16_27
.LBB16_12:
	.loc	2 419 12                        @ ../app/nfc_command.c:419:12
	ldr	r0, [sp, #8]
	.loc	2 419 4 is_stmt 0               @ ../app/nfc_command.c:419:4
	bl	get_adc
.Ltmp172:
	.loc	2 420 8 is_stmt 1               @ ../app/nfc_command.c:420:8
	ldr	r0, __arm_cp.16_0
	ldr	r0, [r0]
	.loc	2 420 13 is_stmt 0              @ ../app/nfc_command.c:420:13
	cbz	r0, .LBB16_15
	b	.LBB16_13
.LBB16_13:
	.loc	2 420 16                        @ ../app/nfc_command.c:420:16
	ldr	r0, __arm_cp.16_1
	ldr	r0, [r0]
.Ltmp173:
	.loc	2 420 7                         @ ../app/nfc_command.c:420:7
	cbz	r0, .LBB16_15
	b	.LBB16_14
.LBB16_14:
.Ltmp174:
	.loc	2 423 4 is_stmt 1               @ ../app/nfc_command.c:423:4
	b	.LBB16_15
.Ltmp175:
.LBB16_15:
	.loc	2 424 4                         @ ../app/nfc_command.c:424:4
	b	.LBB16_27
.LBB16_16:
	.loc	2 426 13                        @ ../app/nfc_command.c:426:13
	ldr	r0, [sp, #8]
	.loc	2 426 4 is_stmt 0               @ ../app/nfc_command.c:426:4
	bl	get_adc1
.Ltmp176:
	.loc	2 427 9 is_stmt 1               @ ../app/nfc_command.c:427:9
	ldr	r0, __arm_cp.16_0
	ldr	r0, [r0]
	.loc	2 427 14 is_stmt 0              @ ../app/nfc_command.c:427:14
	cbz	r0, .LBB16_19
	b	.LBB16_17
.LBB16_17:
	.loc	2 427 17                        @ ../app/nfc_command.c:427:17
	ldr	r0, __arm_cp.16_1
	ldr	r0, [r0]
.Ltmp177:
	.loc	2 427 8                         @ ../app/nfc_command.c:427:8
	cbz	r0, .LBB16_19
	b	.LBB16_18
.LBB16_18:
.Ltmp178:
	.loc	2 430 4 is_stmt 1               @ ../app/nfc_command.c:430:4
	b	.LBB16_19
.Ltmp179:
.LBB16_19:
	.loc	2 431 4                         @ ../app/nfc_command.c:431:4
	b	.LBB16_27
.LBB16_20:
	.loc	2 433 13                        @ ../app/nfc_command.c:433:13
	ldr	r0, [sp, #8]
	.loc	2 433 4 is_stmt 0               @ ../app/nfc_command.c:433:4
	bl	get_adc2
	.loc	2 434 4 is_stmt 1               @ ../app/nfc_command.c:434:4
	b	.LBB16_27
.LBB16_21:
	.loc	2 438 13                        @ ../app/nfc_command.c:438:13
	ldr	r0, [sp, #8]
	.loc	2 438 4 is_stmt 0               @ ../app/nfc_command.c:438:4
	bl	get_adc3
	.loc	2 443 4 is_stmt 1               @ ../app/nfc_command.c:443:4
	b	.LBB16_27
.LBB16_22:
	.loc	2 475 4                         @ ../app/nfc_command.c:475:4
	b	.LBB16_23
.LBB16_23:
.Ltmp180:
	.loc	2 475 4 is_stmt 0               @ ../app/nfc_command.c:475:4
	ldr	r0, [sp, #8]
	ldr	r0, [r0, #4]
.Ltmp181:
	.loc	2 475 4                         @ ../app/nfc_command.c:475:4
	cbz	r0, .LBB16_25
	b	.LBB16_24
.LBB16_24:
	.loc	2 0 4                           @ ../app/nfc_command.c:0:4
	add	r1, sp, #12
	movw	r0, #27648
.Ltmp182:
	.loc	2 475 4                         @ ../app/nfc_command.c:475:4
	strh	r0, [r1]
	b	.LBB16_28
.Ltmp183:
.LBB16_25:
	.loc	2 475 4                         @ ../app/nfc_command.c:475:4
	b	.LBB16_26
.Ltmp184:
.LBB16_26:
	.loc	2 478 3 is_stmt 1               @ ../app/nfc_command.c:478:3
	b	.LBB16_27
.Ltmp185:
.LBB16_27:
	.loc	2 0 3 is_stmt 0                 @ ../app/nfc_command.c:0:3
	add	r1, sp, #12
	movw	r0, #36864
	.loc	2 484 2 is_stmt 1               @ ../app/nfc_command.c:484:2
	strh	r0, [r1]
	b	.LBB16_28
.LBB16_28:
	.loc	2 0 2 is_stmt 0                 @ ../app/nfc_command.c:0:2
	add	r0, sp, #12
	.loc	2 485 1 is_stmt 1               @ ../app/nfc_command.c:485:1
	ldrh	r0, [r0]
	add	sp, #16
	pop	{r7, pc}
.Ltmp186:
	.p2align	2
@ %bb.29:
	.loc	2 0 1 is_stmt 0                 @ ../app/nfc_command.c:0:1
__arm_cp.16_0:
	.long	RX_I
.Lcpi_end22:
	.size	__arm_cp.16_0, .Lcpi_end22-__arm_cp.16_0
__arm_cp.16_1:
	.long	RX_V
.Lcpi_end23:
	.size	__arm_cp.16_1, .Lcpi_end23-__arm_cp.16_1
__arm_cp.16_2:
	.long	27270                           @ 0x6a86
.Lcpi_end24:
	.size	__arm_cp.16_2, .Lcpi_end24-__arm_cp.16_2
.Lfunc_end16:
	.size	NFC_WLC, .Lfunc_end16-NFC_WLC
	.cfi_endproc
	.cantunwind
	.fnend
                                        @ -- End function
	.section	.text.cmd_process,"ax",%progbits
	.hidden	cmd_process                     @ -- Begin function cmd_process
	.globl	cmd_process
	.p2align	2
	.type	cmd_process,%function
	.code	16                              @ @cmd_process
	.thumb_func
cmd_process:
.Lfunc_begin17:
	.loc	2 487 0 is_stmt 1               @ ../app/nfc_command.c:487:0
	.fnstart
	.cfi_startproc
@ %bb.0:
	.save	{r7, lr}
	push	{r7, lr}
	.cfi_def_cfa_offset 8
	.cfi_offset lr, -4
	.cfi_offset r7, -8
	.pad	#24
	sub	sp, #24
	.cfi_def_cfa_offset 32
	str	r0, [sp, #20]
	str	r1, [sp, #16]
	add	r1, sp, #12
	movs	r0, #0
.Ltmp187:
	.loc	2 488 11 prologue_end           @ ../app/nfc_command.c:488:11
	strh	r0, [r1]
	.loc	2 489 13                        @ ../app/nfc_command.c:489:13
	ldr	r1, __arm_cp.17_0
	str	r0, [r1, #20]
	.loc	2 490 9                         @ ../app/nfc_command.c:490:9
	ldr	r0, [sp, #16]
	.loc	2 490 14 is_stmt 0              @ ../app/nfc_command.c:490:14
	ldrb	r0, [r0]
	.loc	2 490 2                         @ ../app/nfc_command.c:490:2
	cmp	r0, #0
	bne	.LBB17_11
	b	.LBB17_1
.LBB17_1:
.Ltmp188:
	.loc	2 494 11 is_stmt 1              @ ../app/nfc_command.c:494:11
	ldr	r0, [sp, #16]
	.loc	2 494 16 is_stmt 0              @ ../app/nfc_command.c:494:16
	ldrb	r0, [r0, #1]
	.loc	2 494 4                         @ ../app/nfc_command.c:494:4
	str	r0, [sp, #8]                    @ 4-byte Spill
	cbz	r0, .LBB17_5
	b	.LBB17_2
.LBB17_2:
	ldr	r0, [sp, #8]                    @ 4-byte Reload
	cmp	r0, #74
	beq	.LBB17_8
	b	.LBB17_3
.LBB17_3:
	ldr	r0, [sp, #8]                    @ 4-byte Reload
	cmp	r0, #132
	beq	.LBB17_6
	b	.LBB17_4
.LBB17_4:
	ldr	r0, [sp, #8]                    @ 4-byte Reload
	cmp	r0, #164
	beq	.LBB17_7
	b	.LBB17_9
.LBB17_5:
.Ltmp189:
	.loc	2 497 6 is_stmt 1               @ ../app/nfc_command.c:497:6
	ldr	r0, __arm_cp.17_1
	str	r0, [sp]                        @ 4-byte Spill
	adds	r1, r0, #2
	ldr	r0, __arm_cp.17_0
	str	r0, [sp, #4]                    @ 4-byte Spill
	movs	r2, #5
	bl	__aeabi_memcpy
	ldr	r1, [sp]                        @ 4-byte Reload
                                        @ kill: def $r2 killed $r0
	.loc	2 498 19                        @ ../app/nfc_command.c:498:19
	ldr	r0, [sp, #4]                    @ 4-byte Reload
	ldr	r0, [r0, #8]
	.loc	2 498 56 is_stmt 0              @ ../app/nfc_command.c:498:56
	ldr	r2, __arm_cp.17_2
	ldrb	r2, [r2]
	.loc	2 498 79                        @ ../app/nfc_command.c:498:79
	subs	r2, r2, #7
	.loc	2 498 6                         @ ../app/nfc_command.c:498:6
	adds	r1, r1, #7
	bl	__aeabi_memcpy
	ldr	r1, [sp, #4]                    @ 4-byte Reload
	.loc	2 499 18 is_stmt 1              @ ../app/nfc_command.c:499:18
	ldr	r0, [sp, #20]
	.loc	2 499 6 is_stmt 0               @ ../app/nfc_command.c:499:6
	bl	cmd_process
	.loc	2 500 6 is_stmt 1               @ ../app/nfc_command.c:500:6
	b	.LBB17_10
.LBB17_6:
	.loc	2 502 22                        @ ../app/nfc_command.c:502:22
	ldr	r0, [sp, #16]
	.loc	2 502 11 is_stmt 0              @ ../app/nfc_command.c:502:11
	bl	get_random
	add	r1, sp, #12
	.loc	2 502 9                         @ ../app/nfc_command.c:502:9
	strh	r0, [r1]
	.loc	2 503 6 is_stmt 1               @ ../app/nfc_command.c:503:6
	b	.LBB17_10
.LBB17_7:
	.loc	2 505 19                        @ ../app/nfc_command.c:505:19
	ldr	r0, [sp, #16]
	.loc	2 505 11 is_stmt 0              @ ../app/nfc_command.c:505:11
	bl	get_adc
	add	r1, sp, #12
	.loc	2 505 9                         @ ../app/nfc_command.c:505:9
	strh	r0, [r1]
	.loc	2 506 6 is_stmt 1               @ ../app/nfc_command.c:506:6
	b	.LBB17_10
.LBB17_8:
	.loc	2 508 19                        @ ../app/nfc_command.c:508:19
	ldr	r0, [sp, #16]
	.loc	2 508 11 is_stmt 0              @ ../app/nfc_command.c:508:11
	bl	NFC_WLC
	add	r1, sp, #12
	.loc	2 508 9                         @ ../app/nfc_command.c:508:9
	strh	r0, [r1]
	.loc	2 509 6 is_stmt 1               @ ../app/nfc_command.c:509:6
	b	.LBB17_10
.LBB17_9:
	.loc	2 0 6 is_stmt 0                 @ ../app/nfc_command.c:0:6
	add	r1, sp, #12
	movw	r0, #27904
	.loc	2 511 9 is_stmt 1               @ ../app/nfc_command.c:511:9
	strh	r0, [r1]
	.loc	2 512 5                         @ ../app/nfc_command.c:512:5
	b	.LBB17_10
.Ltmp190:
.LBB17_10:
	.loc	2 515 3                         @ ../app/nfc_command.c:515:3
	b	.LBB17_12
.LBB17_11:
	.loc	2 0 3 is_stmt 0                 @ ../app/nfc_command.c:0:3
	add	r1, sp, #12
	movw	r0, #28160
	.loc	2 517 7 is_stmt 1               @ ../app/nfc_command.c:517:7
	strh	r0, [r1]
	.loc	2 518 4                         @ ../app/nfc_command.c:518:4
	b	.LBB17_12
.Ltmp191:
.LBB17_12:
	.loc	2 0 4 is_stmt 0                 @ ../app/nfc_command.c:0:4
	add	r0, sp, #12
	.loc	2 520 12 is_stmt 1              @ ../app/nfc_command.c:520:12
	ldrh	r0, [r0]
	.loc	2 520 2 is_stmt 0               @ ../app/nfc_command.c:520:2
	bl	CONFIG_SW
	.loc	2 522 20 is_stmt 1              @ ../app/nfc_command.c:522:20
	ldr	r0, [sp, #20]
	.loc	2 522 24 is_stmt 0              @ ../app/nfc_command.c:522:24
	ldr	r1, [sp, #16]
	.loc	2 522 29                        @ ../app/nfc_command.c:522:29
	ldr	r1, [r1, #20]
	.loc	2 522 33                        @ ../app/nfc_command.c:522:33
	adds	r1, r1, #2
	.loc	2 522 43                        @ ../app/nfc_command.c:522:43
	ldr	r2, __arm_cp.17_0
	ldr	r2, [r2, #16]
	.loc	2 522 2                         @ ../app/nfc_command.c:522:2
	bl	dev_fm11_RFDataTx
	.loc	2 523 1 is_stmt 1               @ ../app/nfc_command.c:523:1
	add	sp, #24
	pop	{r7, pc}
.Ltmp192:
	.p2align	2
@ %bb.13:
	.loc	2 0 1 is_stmt 0                 @ ../app/nfc_command.c:0:1
__arm_cp.17_0:
	.long	g_tcb
.Lcpi_end25:
	.size	__arm_cp.17_0, .Lcpi_end25-__arm_cp.17_0
__arm_cp.17_1:
	.long	g_buffer
.Lcpi_end26:
	.size	__arm_cp.17_1, .Lcpi_end26-__arm_cp.17_1
__arm_cp.17_2:
	.long	rfLen
.Lcpi_end27:
	.size	__arm_cp.17_2, .Lcpi_end27-__arm_cp.17_2
.Lfunc_end17:
	.size	cmd_process, .Lfunc_end17-cmd_process
	.cfi_endproc
	.cantunwind
	.fnend
                                        @ -- End function
	.hidden	engine_flag                     @ @engine_flag
	.type	engine_flag,%object
	.section	.bss.engine_flag,"aw",%nobits
	.globl	engine_flag
engine_flag:
	.byte	0                               @ 0x0
	.size	engine_flag, 1

	.hidden	SWIO1                           @ @SWIO1
	.type	SWIO1,%object
	.section	.bss.SWIO1,"aw",%nobits
	.globl	SWIO1
SWIO1:
	.byte	0                               @ 0x0
	.size	SWIO1, 1

	.hidden	SWIO1_flag                      @ @SWIO1_flag
	.type	SWIO1_flag,%object
	.section	.bss.SWIO1_flag,"aw",%nobits
	.globl	SWIO1_flag
SWIO1_flag:
	.byte	0                               @ 0x0
	.size	SWIO1_flag, 1

	.hidden	Ntag_Block                      @ @Ntag_Block
	.type	Ntag_Block,%object
	.section	.data.Ntag_Block,"aw",%progbits
	.globl	Ntag_Block
Ntag_Block:
	.ascii	"\035w\027\365"
	.asciz	"\257d\000"
	.asciz	"\313\242\000"
	.asciz	"\341\020\022"
	.ascii	"\003\017\321\001"
	.ascii	"\013U\001h"
	.ascii	"uawe"
	.ascii	"i.co"
	.asciz	"m\376\000"
	.zero	4
	.zero	4
	.zero	4
	.zero	4
	.zero	4
	.zero	4
	.zero	4
	.zero	4
	.zero	4
	.zero	4
	.zero	4
	.zero	4
	.zero	4
	.zero	4
	.zero	4
	.zero	4
	.zero	4
	.zero	4
	.zero	4
	.zero	4
	.zero	4
	.zero	4
	.ascii	"\261\262\263\264"
	.zero	4
	.zero	4
	.zero	4
	.zero	4
	.zero	4
	.zero	4
	.zero	4
	.zero	4
	.zero	4
	.zero	4
	.zero	4
	.zero	4
	.zero	4
	.zero	4
	.zero	4
	.ascii	"\301\302\303\304"
	.zero	4
	.zero	4
	.zero	4
	.zero	4
	.zero	4
	.zero	4
	.zero	4
	.zero	4
	.zero	4
	.zero	4
	.zero	4
	.zero	4
	.zero	4
	.zero	4
	.zero	4
	.ascii	"\321\322\323\323"
	.size	Ntag_Block, 256

	.type	.L.str,%object                  @ @.str
	.section	.rodata.str1.1,"aMS",%progbits,1
.L.str:
	.asciz	"0123456789ABCDEF"
	.size	.L.str, 17

	.type	.L__const.hex2bin.token0,%object @ @__const.hex2bin.token0
.L__const.hex2bin.token0:
	.asciz	"0123456789abcdef"
	.size	.L__const.hex2bin.token0, 17

	.type	.L__const.hex2bin.token1,%object @ @__const.hex2bin.token1
.L__const.hex2bin.token1:
	.asciz	"0123456789ABCDEF"
	.size	.L__const.hex2bin.token1, 17

	.type	g_buffer,%object                @ @g_buffer
	.section	.bss.g_buffer,"aw",%nobits
g_buffer:
	.zero	519
	.size	g_buffer, 519

	.hidden	g_tcb                           @ @g_tcb
	.type	g_tcb,%object
	.section	.bss.g_tcb,"aw",%nobits
	.globl	g_tcb
	.p2align	2
g_tcb:
	.zero	24
	.size	g_tcb, 24

	.type	fm411_cmd,%object               @ @fm411_cmd
	.section	.bss.fm411_cmd,"aw",%nobits
fm411_cmd:
	.zero	256
	.size	fm411_cmd, 256

	.hidden	rfLen                           @ @rfLen
	.type	rfLen,%object
	.section	.bss.rfLen,"aw",%nobits
	.globl	rfLen
rfLen:
	.byte	0                               @ 0x0
	.size	rfLen, 1

	.type	get_adc.dis,%object             @ @get_adc.dis
	.section	.bss.get_adc.dis,"aw",%nobits
get_adc.dis:
	.byte	0                               @ 0x0
	.size	get_adc.dis, 1

	.hidden	RX_V                            @ @RX_V
	.type	RX_V,%object
	.section	.bss.RX_V,"aw",%nobits
	.globl	RX_V
	.p2align	2
RX_V:
	.long	0                               @ 0x0
	.size	RX_V, 4

	.type	get_adc1.voltage_mV,%object     @ @get_adc1.voltage_mV
	.section	.bss.get_adc1.voltage_mV,"aw",%nobits
	.p2align	2
get_adc1.voltage_mV:
	.long	0                               @ 0x0
	.size	get_adc1.voltage_mV, 4

	.type	get_adc1.dis,%object            @ @get_adc1.dis
	.section	.bss.get_adc1.dis,"aw",%nobits
get_adc1.dis:
	.byte	0                               @ 0x0
	.size	get_adc1.dis, 1

	.hidden	RX_I                            @ @RX_I
	.type	RX_I,%object
	.section	.bss.RX_I,"aw",%nobits
	.globl	RX_I
	.p2align	2
RX_I:
	.long	0                               @ 0x0
	.size	RX_I, 4

	.type	NFC_WLC.roll_time,%object       @ @NFC_WLC.roll_time
	.section	.bss.NFC_WLC.roll_time,"aw",%nobits
	.p2align	1
NFC_WLC.roll_time:
	.short	0                               @ 0x0
	.size	NFC_WLC.roll_time, 2

	.type	NFC_WLC.reroll_time,%object     @ @NFC_WLC.reroll_time
	.section	.bss.NFC_WLC.reroll_time,"aw",%nobits
	.p2align	1
NFC_WLC.reroll_time:
	.short	0                               @ 0x0
	.size	NFC_WLC.reroll_time, 2

	.type	NFC_WLC.stop_time,%object       @ @NFC_WLC.stop_time
	.section	.bss.NFC_WLC.stop_time,"aw",%nobits
	.p2align	1
NFC_WLC.stop_time:
	.short	0                               @ 0x0
	.size	NFC_WLC.stop_time, 2

	.hidden	RX_P                            @ @RX_P
	.type	RX_P,%object
	.section	.bss.RX_P,"aw",%nobits
	.globl	RX_P
	.p2align	2
RX_P:
	.long	0                               @ 0x0
	.size	RX_P, 4

	.file	5 "E:\\work\\CX_NFC_RX\\prj" "../drv\\fm411_driver.h"
	.section	".note.GNU-stack","",%progbits
	.eabi_attribute	30, 6	@ Tag_ABI_optimization_goals
	.ARM_attribute	16, 1	@ Tag_AV_eba